
bootrom.elf:	file format elf64-littleaarch64

Disassembly of section .text:

0000000000100000 <_binary_BootROM_ums512_0x100000_0x111FFF_bin_start>:
  100000: d2800000     	mov	x0, #0x0                // =0
  100004: d2800001     	mov	x1, #0x0                // =0
  100008: d2800002     	mov	x2, #0x0                // =0
  10000c: d2800003     	mov	x3, #0x0                // =0
  100010: d2800004     	mov	x4, #0x0                // =0
  100014: d2800005     	mov	x5, #0x0                // =0
  100018: d2800006     	mov	x6, #0x0                // =0
  10001c: d2800007     	mov	x7, #0x0                // =0
  100020: d2800008     	mov	x8, #0x0                // =0
  100024: d2800009     	mov	x9, #0x0                // =0
  100028: d280000a     	mov	x10, #0x0               // =0
  10002c: d280000b     	mov	x11, #0x0               // =0
  100030: d280000c     	mov	x12, #0x0               // =0
  100034: d280000d     	mov	x13, #0x0               // =0
  100038: d280000e     	mov	x14, #0x0               // =0
  10003c: d280000f     	mov	x15, #0x0               // =0
  100040: d2800010     	mov	x16, #0x0               // =0
  100044: d2800011     	mov	x17, #0x0               // =0
  100048: d2800013     	mov	x19, #0x0               // =0
  10004c: d2800014     	mov	x20, #0x0               // =0
  100050: d2800015     	mov	x21, #0x0               // =0
  100054: d2800016     	mov	x22, #0x0               // =0
  100058: d2800017     	mov	x23, #0x0               // =0
  10005c: d2800018     	mov	x24, #0x0               // =0
  100060: d2800019     	mov	x25, #0x0               // =0
  100064: d280001a     	mov	x26, #0x0               // =0
  100068: d280001b     	mov	x27, #0x0               // =0
  10006c: d280001c     	mov	x28, #0x0               // =0
  100070: d280001d     	mov	x29, #0x0               // =0
  100074: d280001e     	mov	x30, #0x0               // =0
  100078: d53e1000     	mrs	x0, SCTLR_EL3
  10007c: d2800001     	mov	x1, #0x0                // =0
  100080: b27e0021     	orr	x1, x1, #0x4
  100084: b2400021     	orr	x1, x1, #0x1
  100088: b2750021     	orr	x1, x1, #0x800
  10008c: 8a210000     	bic	x0, x0, x1
  100090: b2740000     	orr	x0, x0, #0x1000
  100094: d51e1000     	msr	SCTLR_EL3, x0
  100098: d50041bf     	msr	SPSel, #0x1
  10009c: 100007a3     	adr	x3, 0x100190 <_binary_BootROM_ums512_0x100000_0x111FFF_bin_start+0x190>
  1000a0: f9400061     	ldr	x1, [x3]
  1000a4: b27c6fe2     	mov	x2, #0xfffffff0         // =4294967280
  1000a8: 8a020021     	and	x1, x1, x2
  1000ac: 9100003f     	mov	sp, x1
  1000b0: d53e1101     	mrs	x1, SCR_EL3
  1000b4: b27f0021     	orr	x1, x1, #0x2
  1000b8: b27e0021     	orr	x1, x1, #0x4
  1000bc: b27d0021     	orr	x1, x1, #0x8
  1000c0: d51e1101     	msr	SCR_EL3, x1
  1000c4: d5034fdf     	msr	DAIFSet, #0xf
  1000c8: 580006c0     	ldr	x0, 0x1001a0 <_binary_BootROM_ums512_0x100000_0x111FFF_bin_start+0x1a0>
  1000cc: d51ec000     	msr	VBAR_EL3, x0
  1000d0: 180006c0     	ldr	w0, 0x1001a8 <_binary_BootROM_ums512_0x100000_0x111FFF_bin_start+0x1a8>
  1000d4: b9400000     	ldr	w0, [x0]
  1000d8: 721a001f     	tst	w0, #0x40
  1000dc: 540000c0     	b.eq	0x1000f4 <_binary_BootROM_ums512_0x100000_0x111FFF_bin_start+0xf4>
  1000e0: 58000681     	ldr	x1, 0x1001b0 <_binary_BootROM_ums512_0x100000_0x111FFF_bin_start+0x1b0>
  1000e4: b9400021     	ldr	w1, [x1]
  1000e8: 58000682     	ldr	x2, 0x1001b8 <_binary_BootROM_ums512_0x100000_0x111FFF_bin_start+0x1b8>
  1000ec: 8a020021     	and	x1, x1, x2
  1000f0: d63f0020     	blr	x1
  1000f4: 58000660     	ldr	x0, 0x1001c0 <_binary_BootROM_ums512_0x100000_0x111FFF_bin_start+0x1c0>
  1000f8: 58000681     	ldr	x1, 0x1001c8 <_binary_BootROM_ums512_0x100000_0x111FFF_bin_start+0x1c8>
  1000fc: f800841f     	str	xzr, [x0], #0x8
  100100: eb01001f     	cmp	x0, x1
  100104: 54ffffc3     	b.lo	0x1000fc <_binary_BootROM_ums512_0x100000_0x111FFF_bin_start+0xfc>
  100108: 58000640     	ldr	x0, 0x1001d0 <_binary_BootROM_ums512_0x100000_0x111FFF_bin_start+0x1d0>
  10010c: 58000661     	ldr	x1, 0x1001d8 <_binary_BootROM_ums512_0x100000_0x111FFF_bin_start+0x1d8>
  100110: f800841f     	str	xzr, [x0], #0x8
  100114: eb01001f     	cmp	x0, x1
  100118: 54ffffc3     	b.lo	0x100110 <_binary_BootROM_ums512_0x100000_0x111FFF_bin_start+0x110>
  10011c: 58000620     	ldr	x0, 0x1001e0 <_binary_BootROM_ums512_0x100000_0x111FFF_bin_start+0x1e0>
  100120: 58000641     	ldr	x1, 0x1001e8 <_binary_BootROM_ums512_0x100000_0x111FFF_bin_start+0x1e8>
  100124: f800841f     	str	xzr, [x0], #0x8
  100128: eb01001f     	cmp	x0, x1
  10012c: 54ffffc3     	b.lo	0x100124 <_binary_BootROM_ums512_0x100000_0x111FFF_bin_start+0x124>
  100130: 10000340     	adr	x0, 0x100198 <_binary_BootROM_ums512_0x100000_0x111FFF_bin_start+0x198>
  100134: f9400000     	ldr	x0, [x0]
  100138: 100002c1     	adr	x1, 0x100190 <_binary_BootROM_ums512_0x100000_0x111FFF_bin_start+0x190>
  10013c: f9400021     	ldr	x1, [x1]
  100140: f800841f     	str	xzr, [x0], #0x8
  100144: eb01001f     	cmp	x0, x1
  100148: 54ffffc3     	b.lo	0x100140 <_binary_BootROM_ums512_0x100000_0x111FFF_bin_start+0x140>
  10014c: 58000520     	ldr	x0, 0x1001f0 <_binary_BootROM_ums512_0x100000_0x111FFF_bin_start+0x1f0>
  100150: 58000541     	ldr	x1, 0x1001f8 <_binary_BootROM_ums512_0x100000_0x111FFF_bin_start+0x1f8>
  100154: 58000562     	ldr	x2, 0x100200 <_binary_BootROM_ums512_0x100000_0x111FFF_bin_start+0x200>
  100158: f8408443     	ldr	x3, [x2], #0x8
  10015c: f8008403     	str	x3, [x0], #0x8
  100160: eb01001f     	cmp	x0, x1
  100164: 54ffffa3     	b.lo	0x100158 <_binary_BootROM_ums512_0x100000_0x111FFF_bin_start+0x158>
  100168: 14001f64     	b	0x107ef8 <_binary_BootROM_ums512_0x100000_0x111FFF_bin_start+0x7ef8>
  10016c: d61f0000     	br	x0
  100170: d65f03c0     	ret
  100174: d53800a1     	mrs	x1, MPIDR_EL1
  100178: d2801fe2     	mov	x2, #0xff               // =255
  10017c: 8a412043     	and	x3, x2, x1, lsr #8
  100180: 8a020021     	and	x1, x1, x2
  100184: 8b030820     	add	x0, x1, x3, lsl #2
  100188: d65f03c0     	ret
  10018c: d503201f     	nop
  100190: 00004000     	udf	#0x4000
  100194: 00000000     	udf	#0x0
  100198: 00003010     	udf	#0x3010
  10019c: 00000000     	udf	#0x0
  1001a0: 00100800     	<unknown>
  1001a4: 00000000     	udf	#0x0
  1001a8: 327d002c     	<unknown>
  1001ac: 00000000     	udf	#0x0
  1001b0: 327d0910     	<unknown>
  1001b4: 00000000     	udf	#0x0
  1001b8: ffffffff     	<unknown>
  1001bc: 00000000     	udf	#0x0
  1001c0: 00004000     	udf	#0x4000
  1001c4: 00000000     	udf	#0x0
  1001c8: 00004e14     	udf	#0x4e14
  1001cc: 00000000     	udf	#0x0
  1001d0: 00005028     	udf	#0x5028
  1001d4: 00000000     	udf	#0x0
  1001d8: 0000502c     	udf	#0x502c
  1001dc: 00000000     	udf	#0x0
  1001e0: 00005020     	udf	#0x5020
  1001e4: 00000000     	udf	#0x0
  1001e8: 00005028     	udf	#0x5028
  1001ec: 00000000     	udf	#0x0
  1001f0: 00002000     	udf	#0x2000
  1001f4: 00000000     	udf	#0x0
  1001f8: 00002afc     	udf	#0x2afc
  1001fc: 00000000     	udf	#0x0
  100200: 00110c00     	<unknown>
		...
  100800: 14000000     	b	0x100800 <_binary_BootROM_ums512_0x100000_0x111FFF_bin_start+0x800>
  100804: d503201f     	nop
  100808: d503201f     	nop
  10080c: d503201f     	nop
  100810: d503201f     	nop
  100814: d503201f     	nop
  100818: d503201f     	nop
  10081c: d503201f     	nop
  100820: d503201f     	nop
  100824: d503201f     	nop
  100828: d503201f     	nop
  10082c: d503201f     	nop
  100830: d503201f     	nop
  100834: d503201f     	nop
  100838: d503201f     	nop
  10083c: d503201f     	nop
  100840: d503201f     	nop
  100844: d503201f     	nop
  100848: d503201f     	nop
  10084c: d503201f     	nop
  100850: d503201f     	nop
  100854: d503201f     	nop
  100858: d503201f     	nop
  10085c: d503201f     	nop
  100860: d503201f     	nop
  100864: d503201f     	nop
  100868: d503201f     	nop
  10086c: d503201f     	nop
  100870: d503201f     	nop
  100874: d503201f     	nop
  100878: d503201f     	nop
  10087c: d503201f     	nop
  100880: 14000000     	b	0x100880 <_binary_BootROM_ums512_0x100000_0x111FFF_bin_start+0x880>
  100884: d503201f     	nop
  100888: d503201f     	nop
  10088c: d503201f     	nop
  100890: d503201f     	nop
  100894: d503201f     	nop
  100898: d503201f     	nop
  10089c: d503201f     	nop
  1008a0: d503201f     	nop
  1008a4: d503201f     	nop
  1008a8: d503201f     	nop
  1008ac: d503201f     	nop
  1008b0: d503201f     	nop
  1008b4: d503201f     	nop
  1008b8: d503201f     	nop
  1008bc: d503201f     	nop
  1008c0: d503201f     	nop
  1008c4: d503201f     	nop
  1008c8: d503201f     	nop
  1008cc: d503201f     	nop
  1008d0: d503201f     	nop
  1008d4: d503201f     	nop
  1008d8: d503201f     	nop
  1008dc: d503201f     	nop
  1008e0: d503201f     	nop
  1008e4: d503201f     	nop
  1008e8: d503201f     	nop
  1008ec: d503201f     	nop
  1008f0: d503201f     	nop
  1008f4: d503201f     	nop
  1008f8: d503201f     	nop
  1008fc: d503201f     	nop
  100900: 14000000     	b	0x100900 <_binary_BootROM_ums512_0x100000_0x111FFF_bin_start+0x900>
  100904: d503201f     	nop
  100908: d503201f     	nop
  10090c: d503201f     	nop
  100910: d503201f     	nop
  100914: d503201f     	nop
  100918: d503201f     	nop
  10091c: d503201f     	nop
  100920: d503201f     	nop
  100924: d503201f     	nop
  100928: d503201f     	nop
  10092c: d503201f     	nop
  100930: d503201f     	nop
  100934: d503201f     	nop
  100938: d503201f     	nop
  10093c: d503201f     	nop
  100940: d503201f     	nop
  100944: d503201f     	nop
  100948: d503201f     	nop
  10094c: d503201f     	nop
  100950: d503201f     	nop
  100954: d503201f     	nop
  100958: d503201f     	nop
  10095c: d503201f     	nop
  100960: d503201f     	nop
  100964: d503201f     	nop
  100968: d503201f     	nop
  10096c: d503201f     	nop
  100970: d503201f     	nop
  100974: d503201f     	nop
  100978: d503201f     	nop
  10097c: d503201f     	nop
  100980: 14000000     	b	0x100980 <_binary_BootROM_ums512_0x100000_0x111FFF_bin_start+0x980>
  100984: d503201f     	nop
  100988: d503201f     	nop
  10098c: d503201f     	nop
  100990: d503201f     	nop
  100994: d503201f     	nop
  100998: d503201f     	nop
  10099c: d503201f     	nop
  1009a0: d503201f     	nop
  1009a4: d503201f     	nop
  1009a8: d503201f     	nop
  1009ac: d503201f     	nop
  1009b0: d503201f     	nop
  1009b4: d503201f     	nop
  1009b8: d503201f     	nop
  1009bc: d503201f     	nop
  1009c0: d503201f     	nop
  1009c4: d503201f     	nop
  1009c8: d503201f     	nop
  1009cc: d503201f     	nop
  1009d0: d503201f     	nop
  1009d4: d503201f     	nop
  1009d8: d503201f     	nop
  1009dc: d503201f     	nop
  1009e0: d503201f     	nop
  1009e4: d503201f     	nop
  1009e8: d503201f     	nop
  1009ec: d503201f     	nop
  1009f0: d503201f     	nop
  1009f4: d503201f     	nop
  1009f8: d503201f     	nop
  1009fc: d503201f     	nop
  100a00: 14000000     	b	0x100a00 <_binary_BootROM_ums512_0x100000_0x111FFF_bin_start+0xa00>
  100a04: d503201f     	nop
  100a08: d503201f     	nop
  100a0c: d503201f     	nop
  100a10: d503201f     	nop
  100a14: d503201f     	nop
  100a18: d503201f     	nop
  100a1c: d503201f     	nop
  100a20: d503201f     	nop
  100a24: d503201f     	nop
  100a28: d503201f     	nop
  100a2c: d503201f     	nop
  100a30: d503201f     	nop
  100a34: d503201f     	nop
  100a38: d503201f     	nop
  100a3c: d503201f     	nop
  100a40: d503201f     	nop
  100a44: d503201f     	nop
  100a48: d503201f     	nop
  100a4c: d503201f     	nop
  100a50: d503201f     	nop
  100a54: d503201f     	nop
  100a58: d503201f     	nop
  100a5c: d503201f     	nop
  100a60: d503201f     	nop
  100a64: d503201f     	nop
  100a68: d503201f     	nop
  100a6c: d503201f     	nop
  100a70: d503201f     	nop
  100a74: d503201f     	nop
  100a78: d503201f     	nop
  100a7c: d503201f     	nop
  100a80: 14000000     	b	0x100a80 <_binary_BootROM_ums512_0x100000_0x111FFF_bin_start+0xa80>
  100a84: d503201f     	nop
  100a88: d503201f     	nop
  100a8c: d503201f     	nop
  100a90: d503201f     	nop
  100a94: d503201f     	nop
  100a98: d503201f     	nop
  100a9c: d503201f     	nop
  100aa0: d503201f     	nop
  100aa4: d503201f     	nop
  100aa8: d503201f     	nop
  100aac: d503201f     	nop
  100ab0: d503201f     	nop
  100ab4: d503201f     	nop
  100ab8: d503201f     	nop
  100abc: d503201f     	nop
  100ac0: d503201f     	nop
  100ac4: d503201f     	nop
  100ac8: d503201f     	nop
  100acc: d503201f     	nop
  100ad0: d503201f     	nop
  100ad4: d503201f     	nop
  100ad8: d503201f     	nop
  100adc: d503201f     	nop
  100ae0: d503201f     	nop
  100ae4: d503201f     	nop
  100ae8: d503201f     	nop
  100aec: d503201f     	nop
  100af0: d503201f     	nop
  100af4: d503201f     	nop
  100af8: d503201f     	nop
  100afc: d503201f     	nop
  100b00: 14000000     	b	0x100b00 <_binary_BootROM_ums512_0x100000_0x111FFF_bin_start+0xb00>
  100b04: d503201f     	nop
  100b08: d503201f     	nop
  100b0c: d503201f     	nop
  100b10: d503201f     	nop
  100b14: d503201f     	nop
  100b18: d503201f     	nop
  100b1c: d503201f     	nop
  100b20: d503201f     	nop
  100b24: d503201f     	nop
  100b28: d503201f     	nop
  100b2c: d503201f     	nop
  100b30: d503201f     	nop
  100b34: d503201f     	nop
  100b38: d503201f     	nop
  100b3c: d503201f     	nop
  100b40: d503201f     	nop
  100b44: d503201f     	nop
  100b48: d503201f     	nop
  100b4c: d503201f     	nop
  100b50: d503201f     	nop
  100b54: d503201f     	nop
  100b58: d503201f     	nop
  100b5c: d503201f     	nop
  100b60: d503201f     	nop
  100b64: d503201f     	nop
  100b68: d503201f     	nop
  100b6c: d503201f     	nop
  100b70: d503201f     	nop
  100b74: d503201f     	nop
  100b78: d503201f     	nop
  100b7c: d503201f     	nop
  100b80: 14000000     	b	0x100b80 <_binary_BootROM_ums512_0x100000_0x111FFF_bin_start+0xb80>
  100b84: d503201f     	nop
  100b88: d503201f     	nop
  100b8c: d503201f     	nop
  100b90: d503201f     	nop
  100b94: d503201f     	nop
  100b98: d503201f     	nop
  100b9c: d503201f     	nop
  100ba0: d503201f     	nop
  100ba4: d503201f     	nop
  100ba8: d503201f     	nop
  100bac: d503201f     	nop
  100bb0: d503201f     	nop
  100bb4: d503201f     	nop
  100bb8: d503201f     	nop
  100bbc: d503201f     	nop
  100bc0: d503201f     	nop
  100bc4: d503201f     	nop
  100bc8: d503201f     	nop
  100bcc: d503201f     	nop
  100bd0: d503201f     	nop
  100bd4: d503201f     	nop
  100bd8: d503201f     	nop
  100bdc: d503201f     	nop
  100be0: d503201f     	nop
  100be4: d503201f     	nop
  100be8: d503201f     	nop
  100bec: d503201f     	nop
  100bf0: d503201f     	nop
  100bf4: d503201f     	nop
  100bf8: d503201f     	nop
  100bfc: d503201f     	nop
  100c00: 14000000     	b	0x100c00 <_binary_BootROM_ums512_0x100000_0x111FFF_bin_start+0xc00>
  100c04: d503201f     	nop
  100c08: d503201f     	nop
  100c0c: d503201f     	nop
  100c10: d503201f     	nop
  100c14: d503201f     	nop
  100c18: d503201f     	nop
  100c1c: d503201f     	nop
  100c20: d503201f     	nop
  100c24: d503201f     	nop
  100c28: d503201f     	nop
  100c2c: d503201f     	nop
  100c30: d503201f     	nop
  100c34: d503201f     	nop
  100c38: d503201f     	nop
  100c3c: d503201f     	nop
  100c40: d503201f     	nop
  100c44: d503201f     	nop
  100c48: d503201f     	nop
  100c4c: d503201f     	nop
  100c50: d503201f     	nop
  100c54: d503201f     	nop
  100c58: d503201f     	nop
  100c5c: d503201f     	nop
  100c60: d503201f     	nop
  100c64: d503201f     	nop
  100c68: d503201f     	nop
  100c6c: d503201f     	nop
  100c70: d503201f     	nop
  100c74: d503201f     	nop
  100c78: d503201f     	nop
  100c7c: d503201f     	nop
  100c80: 14000000     	b	0x100c80 <_binary_BootROM_ums512_0x100000_0x111FFF_bin_start+0xc80>
  100c84: d503201f     	nop
  100c88: d503201f     	nop
  100c8c: d503201f     	nop
  100c90: d503201f     	nop
  100c94: d503201f     	nop
  100c98: d503201f     	nop
  100c9c: d503201f     	nop
  100ca0: d503201f     	nop
  100ca4: d503201f     	nop
  100ca8: d503201f     	nop
  100cac: d503201f     	nop
  100cb0: d503201f     	nop
  100cb4: d503201f     	nop
  100cb8: d503201f     	nop
  100cbc: d503201f     	nop
  100cc0: d503201f     	nop
  100cc4: d503201f     	nop
  100cc8: d503201f     	nop
  100ccc: d503201f     	nop
  100cd0: d503201f     	nop
  100cd4: d503201f     	nop
  100cd8: d503201f     	nop
  100cdc: d503201f     	nop
  100ce0: d503201f     	nop
  100ce4: d503201f     	nop
  100ce8: d503201f     	nop
  100cec: d503201f     	nop
  100cf0: d503201f     	nop
  100cf4: d503201f     	nop
  100cf8: d503201f     	nop
  100cfc: d503201f     	nop
  100d00: 14000000     	b	0x100d00 <_binary_BootROM_ums512_0x100000_0x111FFF_bin_start+0xd00>
  100d04: d503201f     	nop
  100d08: d503201f     	nop
  100d0c: d503201f     	nop
  100d10: d503201f     	nop
  100d14: d503201f     	nop
  100d18: d503201f     	nop
  100d1c: d503201f     	nop
  100d20: d503201f     	nop
  100d24: d503201f     	nop
  100d28: d503201f     	nop
  100d2c: d503201f     	nop
  100d30: d503201f     	nop
  100d34: d503201f     	nop
  100d38: d503201f     	nop
  100d3c: d503201f     	nop
  100d40: d503201f     	nop
  100d44: d503201f     	nop
  100d48: d503201f     	nop
  100d4c: d503201f     	nop
  100d50: d503201f     	nop
  100d54: d503201f     	nop
  100d58: d503201f     	nop
  100d5c: d503201f     	nop
  100d60: d503201f     	nop
  100d64: d503201f     	nop
  100d68: d503201f     	nop
  100d6c: d503201f     	nop
  100d70: d503201f     	nop
  100d74: d503201f     	nop
  100d78: d503201f     	nop
  100d7c: d503201f     	nop
  100d80: 14000000     	b	0x100d80 <_binary_BootROM_ums512_0x100000_0x111FFF_bin_start+0xd80>
  100d84: d503201f     	nop
  100d88: d503201f     	nop
  100d8c: d503201f     	nop
  100d90: d503201f     	nop
  100d94: d503201f     	nop
  100d98: d503201f     	nop
  100d9c: d503201f     	nop
  100da0: d503201f     	nop
  100da4: d503201f     	nop
  100da8: d503201f     	nop
  100dac: d503201f     	nop
  100db0: d503201f     	nop
  100db4: d503201f     	nop
  100db8: d503201f     	nop
  100dbc: d503201f     	nop
  100dc0: d503201f     	nop
  100dc4: d503201f     	nop
  100dc8: d503201f     	nop
  100dcc: d503201f     	nop
  100dd0: d503201f     	nop
  100dd4: d503201f     	nop
  100dd8: d503201f     	nop
  100ddc: d503201f     	nop
  100de0: d503201f     	nop
  100de4: d503201f     	nop
  100de8: d503201f     	nop
  100dec: d503201f     	nop
  100df0: d503201f     	nop
  100df4: d503201f     	nop
  100df8: d503201f     	nop
  100dfc: d503201f     	nop
  100e00: 14000000     	b	0x100e00 <_binary_BootROM_ums512_0x100000_0x111FFF_bin_start+0xe00>
  100e04: d503201f     	nop
  100e08: d503201f     	nop
  100e0c: d503201f     	nop
  100e10: d503201f     	nop
  100e14: d503201f     	nop
  100e18: d503201f     	nop
  100e1c: d503201f     	nop
  100e20: d503201f     	nop
  100e24: d503201f     	nop
  100e28: d503201f     	nop
  100e2c: d503201f     	nop
  100e30: d503201f     	nop
  100e34: d503201f     	nop
  100e38: d503201f     	nop
  100e3c: d503201f     	nop
  100e40: d503201f     	nop
  100e44: d503201f     	nop
  100e48: d503201f     	nop
  100e4c: d503201f     	nop
  100e50: d503201f     	nop
  100e54: d503201f     	nop
  100e58: d503201f     	nop
  100e5c: d503201f     	nop
  100e60: d503201f     	nop
  100e64: d503201f     	nop
  100e68: d503201f     	nop
  100e6c: d503201f     	nop
  100e70: d503201f     	nop
  100e74: d503201f     	nop
  100e78: d503201f     	nop
  100e7c: d503201f     	nop
  100e80: 14000000     	b	0x100e80 <_binary_BootROM_ums512_0x100000_0x111FFF_bin_start+0xe80>
  100e84: d503201f     	nop
  100e88: d503201f     	nop
  100e8c: d503201f     	nop
  100e90: d503201f     	nop
  100e94: d503201f     	nop
  100e98: d503201f     	nop
  100e9c: d503201f     	nop
  100ea0: d503201f     	nop
  100ea4: d503201f     	nop
  100ea8: d503201f     	nop
  100eac: d503201f     	nop
  100eb0: d503201f     	nop
  100eb4: d503201f     	nop
  100eb8: d503201f     	nop
  100ebc: d503201f     	nop
  100ec0: d503201f     	nop
  100ec4: d503201f     	nop
  100ec8: d503201f     	nop
  100ecc: d503201f     	nop
  100ed0: d503201f     	nop
  100ed4: d503201f     	nop
  100ed8: d503201f     	nop
  100edc: d503201f     	nop
  100ee0: d503201f     	nop
  100ee4: d503201f     	nop
  100ee8: d503201f     	nop
  100eec: d503201f     	nop
  100ef0: d503201f     	nop
  100ef4: d503201f     	nop
  100ef8: d503201f     	nop
  100efc: d503201f     	nop
  100f00: 14000000     	b	0x100f00 <_binary_BootROM_ums512_0x100000_0x111FFF_bin_start+0xf00>
  100f04: d503201f     	nop
  100f08: d503201f     	nop
  100f0c: d503201f     	nop
  100f10: d503201f     	nop
  100f14: d503201f     	nop
  100f18: d503201f     	nop
  100f1c: d503201f     	nop
  100f20: d503201f     	nop
  100f24: d503201f     	nop
  100f28: d503201f     	nop
  100f2c: d503201f     	nop
  100f30: d503201f     	nop
  100f34: d503201f     	nop
  100f38: d503201f     	nop
  100f3c: d503201f     	nop
  100f40: d503201f     	nop
  100f44: d503201f     	nop
  100f48: d503201f     	nop
  100f4c: d503201f     	nop
  100f50: d503201f     	nop
  100f54: d503201f     	nop
  100f58: d503201f     	nop
  100f5c: d503201f     	nop
  100f60: d503201f     	nop
  100f64: d503201f     	nop
  100f68: d503201f     	nop
  100f6c: d503201f     	nop
  100f70: d503201f     	nop
  100f74: d503201f     	nop
  100f78: d503201f     	nop
  100f7c: d503201f     	nop
  100f80: 14000000     	b	0x100f80 <_binary_BootROM_ums512_0x100000_0x111FFF_bin_start+0xf80>
  100f84: d503201f     	nop
  100f88: d503201f     	nop
  100f8c: d503201f     	nop
  100f90: d503201f     	nop
  100f94: d503201f     	nop
  100f98: d503201f     	nop
  100f9c: d503201f     	nop
  100fa0: d503201f     	nop
  100fa4: d503201f     	nop
  100fa8: d503201f     	nop
  100fac: d503201f     	nop
  100fb0: d503201f     	nop
  100fb4: d503201f     	nop
  100fb8: d503201f     	nop
  100fbc: d503201f     	nop
  100fc0: d503201f     	nop
  100fc4: d503201f     	nop
  100fc8: d503201f     	nop
  100fcc: d503201f     	nop
  100fd0: d503201f     	nop
  100fd4: d503201f     	nop
  100fd8: d503201f     	nop
  100fdc: d503201f     	nop
  100fe0: d503201f     	nop
  100fe4: d503201f     	nop
  100fe8: d503201f     	nop
  100fec: d503201f     	nop
  100ff0: d503201f     	nop
  100ff4: d503201f     	nop
  100ff8: d503201f     	nop
  100ffc: d503201f     	nop
  101000: a9bb7bfd     	stp	x29, x30, [sp, #-0x50]!
  101004: 910003fd     	mov	x29, sp
  101008: a90153f3     	stp	x19, x20, [sp, #0x10]
  10100c: a9025bf5     	stp	x21, x22, [sp, #0x20]
  101010: a90363f7     	stp	x23, x24, [sp, #0x30]
  101014: a9046bf9     	stp	x25, x26, [sp, #0x40]
  101018: 2a0003f7     	mov	w23, w0
  10101c: 2a0103f8     	mov	w24, w1
  101020: 2a0203f9     	mov	w25, w2
  101024: aa0303fa     	mov	x26, x3
  101028: 9400024c     	bl	0x101958 <_binary_BootROM_ums512_0x100000_0x111FFF_bin_start+0x1958>
  10102c: 52800020     	mov	w0, #0x1                // =1
  101030: 940002c5     	bl	0x101b44 <_binary_BootROM_ums512_0x100000_0x111FFF_bin_start+0x1b44>
  101034: d2800013     	mov	x19, #0x0               // =0
  101038: 90000014     	adrp	x20, 0x101000 <_binary_BootROM_ums512_0x100000_0x111FFF_bin_start+0x1000>
  10103c: 910b0294     	add	x20, x20, #0x2c0
  101040: 52800036     	mov	w22, #0x1               // =1
  101044: 52800055     	mov	w21, #0x2               // =2
  101048: 52800000     	mov	w0, #0x0                // =0
  10104c: 94000209     	bl	0x101870 <_binary_BootROM_ums512_0x100000_0x111FFF_bin_start+0x1870>
  101050: b8736a80     	ldr	w0, [x20, x19]
  101054: 940001ee     	bl	0x10180c <_binary_BootROM_ums512_0x100000_0x111FFF_bin_start+0x180c>
  101058: 2a1603e0     	mov	w0, w22
  10105c: 94000205     	bl	0x101870 <_binary_BootROM_ums512_0x100000_0x111FFF_bin_start+0x1870>
  101060: 2a1503e0     	mov	w0, w21
  101064: 9400185c     	bl	0x1071d4 <_binary_BootROM_ums512_0x100000_0x111FFF_bin_start+0x71d4>
  101068: 9400022a     	bl	0x101910 <_binary_BootROM_ums512_0x100000_0x111FFF_bin_start+0x1910>
  10106c: 940002fc     	bl	0x101c5c <_binary_BootROM_ums512_0x100000_0x111FFF_bin_start+0x1c5c>
  101070: 7100041f     	cmp	w0, #0x1
  101074: 540000a0     	b.eq	0x101088 <_binary_BootROM_ums512_0x100000_0x111FFF_bin_start+0x1088>
  101078: 91001273     	add	x19, x19, #0x4
  10107c: f100427f     	cmp	x19, #0x10
  101080: 54fffe41     	b.ne	0x101048 <_binary_BootROM_ums512_0x100000_0x111FFF_bin_start+0x1048>
  101084: 340003e0     	cbz	w0, 0x101100 <_binary_BootROM_ums512_0x100000_0x111FFF_bin_start+0x1100>
  101088: d2820000     	mov	x0, #0x1000             // =4096
  10108c: 940018ec     	bl	0x10743c <_binary_BootROM_ums512_0x100000_0x111FFF_bin_start+0x743c>
  101090: 528000a0     	mov	w0, #0x5                // =5
  101094: 94001a0f     	bl	0x1078d0 <_binary_BootROM_ums512_0x100000_0x111FFF_bin_start+0x78d0>
  101098: 52800000     	mov	w0, #0x0                // =0
  10109c: 940001f5     	bl	0x101870 <_binary_BootROM_ums512_0x100000_0x111FFF_bin_start+0x1870>
  1010a0: 52975000     	mov	w0, #0xba80             // =47744
  1010a4: 72a03180     	movk	w0, #0x18c, lsl #16
  1010a8: 940001c5     	bl	0x1017bc <_binary_BootROM_ums512_0x100000_0x111FFF_bin_start+0x17bc>
  1010ac: 5285d400     	mov	w0, #0x2ea0             // =11936
  1010b0: 72a00c60     	movk	w0, #0x63, lsl #16
  1010b4: 940001d6     	bl	0x10180c <_binary_BootROM_ums512_0x100000_0x111FFF_bin_start+0x180c>
  1010b8: 52800020     	mov	w0, #0x1                // =1
  1010bc: 940001ed     	bl	0x101870 <_binary_BootROM_ums512_0x100000_0x111FFF_bin_start+0x1870>
  1010c0: aa1a03e3     	mov	x3, x26
  1010c4: 2a1903e2     	mov	w2, w25
  1010c8: 2a1803e1     	mov	w1, w24
  1010cc: 2a1703e0     	mov	w0, w23
  1010d0: 94000337     	bl	0x101dac <_binary_BootROM_ums512_0x100000_0x111FFF_bin_start+0x1dac>
  1010d4: 2a0003f3     	mov	w19, w0
  1010d8: 94000291     	bl	0x101b1c <_binary_BootROM_ums512_0x100000_0x111FFF_bin_start+0x1b1c>
  1010dc: 52800000     	mov	w0, #0x0                // =0
  1010e0: 94000299     	bl	0x101b44 <_binary_BootROM_ums512_0x100000_0x111FFF_bin_start+0x1b44>
  1010e4: 2a1303e0     	mov	w0, w19
  1010e8: a94153f3     	ldp	x19, x20, [sp, #0x10]
  1010ec: a9425bf5     	ldp	x21, x22, [sp, #0x20]
  1010f0: a94363f7     	ldp	x23, x24, [sp, #0x30]
  1010f4: a9446bf9     	ldp	x25, x26, [sp, #0x40]
  1010f8: a8c57bfd     	ldp	x29, x30, [sp], #0x50
  1010fc: d65f03c0     	ret
  101100: d2840000     	mov	x0, #0x2000             // =8192
  101104: 940018ce     	bl	0x10743c <_binary_BootROM_ums512_0x100000_0x111FFF_bin_start+0x743c>
  101108: 528000c0     	mov	w0, #0x6                // =6
  10110c: 940019f1     	bl	0x1078d0 <_binary_BootROM_ums512_0x100000_0x111FFF_bin_start+0x78d0>
  101110: 52800013     	mov	w19, #0x0               // =0
  101114: 17fffff1     	b	0x1010d8 <_binary_BootROM_ums512_0x100000_0x111FFF_bin_start+0x10d8>
  101118: a9bf7bfd     	stp	x29, x30, [sp, #-0x10]!
  10111c: 910003fd     	mov	x29, sp
  101120: 9400020e     	bl	0x101958 <_binary_BootROM_ums512_0x100000_0x111FFF_bin_start+0x1958>
  101124: 52800040     	mov	w0, #0x2                // =2
  101128: 9400182b     	bl	0x1071d4 <_binary_BootROM_ums512_0x100000_0x111FFF_bin_start+0x71d4>
  10112c: 940001f9     	bl	0x101910 <_binary_BootROM_ums512_0x100000_0x111FFF_bin_start+0x1910>
  101130: 52800000     	mov	w0, #0x0                // =0
  101134: 940001cf     	bl	0x101870 <_binary_BootROM_ums512_0x100000_0x111FFF_bin_start+0x1870>
  101138: 52975000     	mov	w0, #0xba80             // =47744
  10113c: 72a03180     	movk	w0, #0x18c, lsl #16
  101140: 9400019f     	bl	0x1017bc <_binary_BootROM_ums512_0x100000_0x111FFF_bin_start+0x17bc>
  101144: 5285d400     	mov	w0, #0x2ea0             // =11936
  101148: 72a00c60     	movk	w0, #0x63, lsl #16
  10114c: 940001b0     	bl	0x10180c <_binary_BootROM_ums512_0x100000_0x111FFF_bin_start+0x180c>
  101150: 52800020     	mov	w0, #0x1                // =1
  101154: 940001c7     	bl	0x101870 <_binary_BootROM_ums512_0x100000_0x111FFF_bin_start+0x1870>
  101158: 52800022     	mov	w2, #0x1                // =1
  10115c: d28aa001     	mov	x1, #0x5500             // =21760
  101160: 52801000     	mov	w0, #0x80               // =128
  101164: 9400037b     	bl	0x101f50 <_binary_BootROM_ums512_0x100000_0x111FFF_bin_start+0x1f50>
  101168: a8c17bfd     	ldp	x29, x30, [sp], #0x10
  10116c: d65f03c0     	ret
  101170: a9ba7bfd     	stp	x29, x30, [sp, #-0x60]!
  101174: 910003fd     	mov	x29, sp
  101178: a90153f3     	stp	x19, x20, [sp, #0x10]
  10117c: a9025bf5     	stp	x21, x22, [sp, #0x20]
  101180: a90363f7     	stp	x23, x24, [sp, #0x30]
  101184: 2a0003f5     	mov	w21, w0
  101188: a9047fbf     	stp	xzr, xzr, [x29, #0x40]
  10118c: a9057fbf     	stp	xzr, xzr, [x29, #0x50]
  101190: 34000140     	cbz	w0, 0x1011b8 <_binary_BootROM_ums512_0x100000_0x111FFF_bin_start+0x11b8>
  101194: d2808000     	mov	x0, #0x400              // =1024
  101198: 940018a9     	bl	0x10743c <_binary_BootROM_ums512_0x100000_0x111FFF_bin_start+0x743c>
  10119c: 52800053     	mov	w19, #0x2               // =2
  1011a0: d28aa014     	mov	x20, #0x5500            // =21760
  1011a4: 52801016     	mov	w22, #0x80              // =128
  1011a8: 52800038     	mov	w24, #0x1               // =1
  1011ac: 52890897     	mov	w23, #0x4844            // =18500
  1011b0: 72a84a97     	movk	w23, #0x4254, lsl #16
  1011b4: 14000011     	b	0x1011f8 <_binary_BootROM_ums512_0x100000_0x111FFF_bin_start+0x11f8>
  1011b8: d2804000     	mov	x0, #0x200              // =512
  1011bc: 940018a0     	bl	0x10743c <_binary_BootROM_ums512_0x100000_0x111FFF_bin_start+0x743c>
  1011c0: 17fffff7     	b	0x10119c <_binary_BootROM_ums512_0x100000_0x111FFF_bin_start+0x119c>
  1011c4: aa1403e3     	mov	x3, x20
  1011c8: 2a1603e2     	mov	w2, w22
  1011cc: 52800001     	mov	w1, #0x0                // =0
  1011d0: 2a1803e0     	mov	w0, w24
  1011d4: 97ffff8b     	bl	0x101000 <_binary_BootROM_ums512_0x100000_0x111FFF_bin_start+0x1000>
  1011d8: 1400000d     	b	0x10120c <_binary_BootROM_ums512_0x100000_0x111FFF_bin_start+0x120c>
  1011dc: d2900000     	mov	x0, #0x8000             // =32768
  1011e0: 94001897     	bl	0x10743c <_binary_BootROM_ums512_0x100000_0x111FFF_bin_start+0x743c>
  1011e4: 52800100     	mov	w0, #0x8                // =8
  1011e8: 940019ba     	bl	0x1078d0 <_binary_BootROM_ums512_0x100000_0x111FFF_bin_start+0x78d0>
  1011ec: 52800060     	mov	w0, #0x3                // =3
  1011f0: 71000673     	subs	w19, w19, #0x1
  1011f4: 54000380     	b.eq	0x101264 <_binary_BootROM_ums512_0x100000_0x111FFF_bin_start+0x1264>
  1011f8: 710006bf     	cmp	w21, #0x1
  1011fc: 54fffe40     	b.eq	0x1011c4 <_binary_BootROM_ums512_0x100000_0x111FFF_bin_start+0x11c4>
  101200: aa1403e1     	mov	x1, x20
  101204: 2a1603e0     	mov	w0, w22
  101208: 97ffffc4     	bl	0x101118 <_binary_BootROM_ums512_0x100000_0x111FFF_bin_start+0x1118>
  10120c: 34fffe80     	cbz	w0, 0x1011dc <_binary_BootROM_ums512_0x100000_0x111FFF_bin_start+0x11dc>
  101210: b9400280     	ldr	w0, [x20]
  101214: 6b17001f     	cmp	w0, w23
  101218: 54fffe21     	b.ne	0x1011dc <_binary_BootROM_ums512_0x100000_0x111FFF_bin_start+0x11dc>
  10121c: b9403281     	ldr	w1, [x20, #0x30]
  101220: 529fffe0     	mov	w0, #0xffff             // =65535
  101224: 6b00003f     	cmp	w1, w0
  101228: 54fffda8     	b.hi	0x1011dc <_binary_BootROM_ums512_0x100000_0x111FFF_bin_start+0x11dc>
  10122c: d2a00040     	mov	x0, #0x20000            // =131072
  101230: 94001883     	bl	0x10743c <_binary_BootROM_ums512_0x100000_0x111FFF_bin_start+0x743c>
  101234: 52800140     	mov	w0, #0xa                // =10
  101238: 940019a6     	bl	0x1078d0 <_binary_BootROM_ums512_0x100000_0x111FFF_bin_start+0x78d0>
  10123c: 39402280     	ldrb	w0, [x20, #0x8]
  101240: 35000200     	cbnz	w0, 0x101280 <_binary_BootROM_ums512_0x100000_0x111FFF_bin_start+0x1280>
  101244: d28aa120     	mov	x0, #0x5509             // =21769
  101248: d28aa502     	mov	x2, #0x5528             // =21800
  10124c: 39400001     	ldrb	w1, [x0]
  101250: 35000181     	cbnz	w1, 0x101280 <_binary_BootROM_ums512_0x100000_0x111FFF_bin_start+0x1280>
  101254: 91000400     	add	x0, x0, #0x1
  101258: eb02001f     	cmp	x0, x2
  10125c: 54ffff81     	b.ne	0x10124c <_binary_BootROM_ums512_0x100000_0x111FFF_bin_start+0x124c>
  101260: 52800020     	mov	w0, #0x1                // =1
  101264: a94153f3     	ldp	x19, x20, [sp, #0x10]
  101268: a9425bf5     	ldp	x21, x22, [sp, #0x20]
  10126c: a94363f7     	ldp	x23, x24, [sp, #0x30]
  101270: a8c67bfd     	ldp	x29, x30, [sp], #0x60
  101274: d65f03c0     	ret
  101278: 52800020     	mov	w0, #0x1                // =1
  10127c: 17fffffa     	b	0x101264 <_binary_BootROM_ums512_0x100000_0x111FFF_bin_start+0x1264>
  101280: 910103a2     	add	x2, x29, #0x40
  101284: b9403281     	ldr	w1, [x20, #0x30]
  101288: d28ae000     	mov	x0, #0x5700             // =22272
  10128c: 94001b43     	bl	0x107f98 <_binary_BootROM_ums512_0x100000_0x111FFF_bin_start+0x7f98>
  101290: d2800402     	mov	x2, #0x20               // =32
  101294: d28aa101     	mov	x1, #0x5508             // =21768
  101298: 910103a0     	add	x0, x29, #0x40
  10129c: 94001e7a     	bl	0x108c84 <_binary_BootROM_ums512_0x100000_0x111FFF_bin_start+0x8c84>
  1012a0: 34fffec0     	cbz	w0, 0x101278 <_binary_BootROM_ums512_0x100000_0x111FFF_bin_start+0x1278>
  1012a4: d2802000     	mov	x0, #0x100              // =256
  1012a8: 94001865     	bl	0x10743c <_binary_BootROM_ums512_0x100000_0x111FFF_bin_start+0x743c>
  1012ac: 528002e0     	mov	w0, #0x17               // =23
  1012b0: 94001988     	bl	0x1078d0 <_binary_BootROM_ums512_0x100000_0x111FFF_bin_start+0x78d0>
  1012b4: 52800080     	mov	w0, #0x4                // =4
  1012b8: 17ffffce     	b	0x1011f0 <_binary_BootROM_ums512_0x100000_0x111FFF_bin_start+0x11f0>
  1012bc: 00000000     	udf	#0x0
  1012c0: 0005cc60     	<unknown>
  1012c4: 000493e0     	<unknown>
  1012c8: 00030d40     	<unknown>
  1012cc: 000186a0     	<unknown>
  1012d0: a9b97bfd     	stp	x29, x30, [sp, #-0x70]!
  1012d4: 910003fd     	mov	x29, sp
  1012d8: a90153f3     	stp	x19, x20, [sp, #0x10]
  1012dc: a9025bf5     	stp	x21, x22, [sp, #0x20]
  1012e0: a90363f7     	stp	x23, x24, [sp, #0x30]
  1012e4: a9046bf9     	stp	x25, x26, [sp, #0x40]
  1012e8: f9002bfb     	str	x27, [sp, #0x50]
  1012ec: aa0303fa     	mov	x26, x3
  1012f0: d2800703     	mov	x3, #0x38               // =56
  1012f4: f2ae2803     	movk	x3, #0x7140, lsl #16
  1012f8: b9400064     	ldr	w4, [x3]
  1012fc: b900007f     	str	wzr, [x3]
  101300: d2800683     	mov	x3, #0x34               // =52
  101304: f2ae2803     	movk	x3, #0x7140, lsl #16
  101308: b9400064     	ldr	w4, [x3]
  10130c: b900007f     	str	wzr, [x3]
  101310: 12800004     	mov	w4, #-0x1               // =-1
  101314: d2800603     	mov	x3, #0x30               // =48
  101318: f2ae2803     	movk	x3, #0x7140, lsl #16
  10131c: b9000064     	str	w4, [x3]
  101320: d2800584     	mov	x4, #0x2c               // =44
  101324: f2ae2804     	movk	x4, #0x7140, lsl #16
  101328: b9400083     	ldr	w3, [x4]
  10132c: 120c6c63     	and	w3, w3, #0xfff0ffff
  101330: 320d0063     	orr	w3, w3, #0x80000
  101334: b9000083     	str	w3, [x4]
  101338: b0000003     	adrp	x3, 0x102000 <_binary_BootROM_ums512_0x100000_0x111FFF_bin_start+0x2000>
  10133c: 91040064     	add	x4, x3, #0x100
  101340: 2a0003e5     	mov	w5, w0
  101344: d37ff8a3     	lsl	x3, x5, #1
  101348: 8b050066     	add	x6, x3, x5
  10134c: 8b060c86     	add	x6, x4, x6, lsl #3
  101350: b94008d4     	ldr	w20, [x6, #0x8]
  101354: b94010d3     	ldr	w19, [x6, #0x10]
  101358: 32110298     	orr	w24, w20, #0x8000
  10135c: 7100027f     	cmp	w19, #0x0
  101360: 1a941318     	csel	w24, w24, w20, ne
  101364: b4002142     	cbz	x2, 0x10178c <_binary_BootROM_ums512_0x100000_0x111FFF_bin_start+0x178c>
  101368: 321d0263     	orr	w3, w19, #0x8
  10136c: 2a180078     	orr	w24, w3, w24
  101370: d2800684     	mov	x4, #0x34               // =52
  101374: f2ae2804     	movk	x4, #0x7140, lsl #16
  101378: b9400083     	ldr	w3, [x4]
  10137c: 2a180063     	orr	w3, w3, w24
  101380: b9000083     	str	w3, [x4]
  101384: 91001084     	add	x4, x4, #0x4
  101388: b9400083     	ldr	w3, [x4]
  10138c: 2a030303     	orr	w3, w24, w3
  101390: b9000083     	str	w3, [x4]
  101394: b9400844     	ldr	w4, [x2, #0x8]
  101398: d2800083     	mov	x3, #0x4                // =4
  10139c: f2ae2803     	movk	x3, #0x7140, lsl #16
  1013a0: b9000064     	str	w4, [x3]
  1013a4: b9400c44     	ldr	w4, [x2, #0xc]
  1013a8: d2ae2803     	mov	x3, #0x71400000         // =1900019712
  1013ac: b9000064     	str	w4, [x3]
  1013b0: f9400042     	ldr	x2, [x2]
  1013b4: d2800784     	mov	x4, #0x3c               // =60
  1013b8: f2ae2804     	movk	x4, #0x7140, lsl #16
  1013bc: b9400083     	ldr	w3, [x4]
  1013c0: 32030063     	orr	w3, w3, #0x20000000
  1013c4: b9000083     	str	w3, [x4]
  1013c8: d2800b03     	mov	x3, #0x58               // =88
  1013cc: f2ae2803     	movk	x3, #0x7140, lsl #16
  1013d0: b9000062     	str	w2, [x3]
  1013d4: d360fc42     	lsr	x2, x2, #32
  1013d8: 91001063     	add	x3, x3, #0x4
  1013dc: b9000062     	str	w2, [x3]
  1013e0: 5281f415     	mov	w21, #0xfa0             // =4000
  1013e4: d2800102     	mov	x2, #0x8                // =8
  1013e8: f2ae2802     	movk	x2, #0x7140, lsl #16
  1013ec: b9000041     	str	w1, [x2]
  1013f0: b0000001     	adrp	x1, 0x102000 <_binary_BootROM_ums512_0x100000_0x111FFF_bin_start+0x2000>
  1013f4: 91040023     	add	x3, x1, #0x100
  1013f8: 2a0003e0     	mov	w0, w0
  1013fc: d37ff801     	lsl	x1, x0, #1
  101400: 8b000022     	add	x2, x1, x0
  101404: 8b020c62     	add	x2, x3, x2, lsl #3
  101408: b9400444     	ldr	w4, [x2, #0x4]
  10140c: 8b000022     	add	x2, x1, x0
  101410: 8b020c62     	add	x2, x3, x2, lsl #3
  101414: b9401442     	ldr	w2, [x2, #0x14]
  101418: 8b000021     	add	x1, x1, x0
  10141c: 8b010c61     	add	x1, x3, x1, lsl #3
  101420: b9400c39     	ldr	w25, [x1, #0xc]
  101424: b9006fbf     	str	wzr, [x29, #0x6c]
  101428: 363005c2     	tbz	w2, #0x6, 0x1014e0 <_binary_BootROM_ums512_0x100000_0x111FFF_bin_start+0x14e0>
  10142c: b9406fa0     	ldr	w0, [x29, #0x6c]
  101430: 320b0000     	orr	w0, w0, #0x200000
  101434: b9006fa0     	str	w0, [x29, #0x6c]
  101438: 36280082     	tbz	w2, #0x5, 0x101448 <_binary_BootROM_ums512_0x100000_0x111FFF_bin_start+0x1448>
  10143c: b9406fa0     	ldr	w0, [x29, #0x6c]
  101440: 321b0000     	orr	w0, w0, #0x20
  101444: b9006fa0     	str	w0, [x29, #0x6c]
  101448: 36200082     	tbz	w2, #0x4, 0x101458 <_binary_BootROM_ums512_0x100000_0x111FFF_bin_start+0x1458>
  10144c: b9406fa0     	ldr	w0, [x29, #0x6c]
  101450: 321c0000     	orr	w0, w0, #0x10
  101454: b9006fa0     	str	w0, [x29, #0x6c]
  101458: 361804c2     	tbz	w2, #0x3, 0x1014f0 <_binary_BootROM_ums512_0x100000_0x111FFF_bin_start+0x14f0>
  10145c: b9406fa0     	ldr	w0, [x29, #0x6c]
  101460: 321e0400     	orr	w0, w0, #0xc
  101464: b9006fa0     	str	w0, [x29, #0x6c]
  101468: d2800781     	mov	x1, #0x3c               // =60
  10146c: f2ae2801     	movk	x1, #0x7140, lsl #16
  101470: b9400020     	ldr	w0, [x1]
  101474: 12047800     	and	w0, w0, #0xf7ffffff
  101478: b9000020     	str	w0, [x1]
  10147c: 36080082     	tbz	w2, #0x1, 0x10148c <_binary_BootROM_ums512_0x100000_0x111FFF_bin_start+0x148c>
  101480: b9406fa0     	ldr	w0, [x29, #0x6c]
  101484: 321f0000     	orr	w0, w0, #0x2
  101488: b9006fa0     	str	w0, [x29, #0x6c]
  10148c: 36000082     	tbz	w2, #0x0, 0x10149c <_binary_BootROM_ums512_0x100000_0x111FFF_bin_start+0x149c>
  101490: b9406fa0     	ldr	w0, [x29, #0x6c]
  101494: 32000000     	orr	w0, w0, #0x1
  101498: b9006fa0     	str	w0, [x29, #0x6c]
  10149c: b9406fa0     	ldr	w0, [x29, #0x6c]
  1014a0: b9006fa0     	str	w0, [x29, #0x6c]
  1014a4: 7100133f     	cmp	w25, #0x4
  1014a8: 54000f20     	b.eq	0x10168c <_binary_BootROM_ums512_0x100000_0x111FFF_bin_start+0x168c>
  1014ac: 54000429     	b.ls	0x101530 <_binary_BootROM_ums512_0x100000_0x111FFF_bin_start+0x1530>
  1014b0: 71001f3f     	cmp	w25, #0x7
  1014b4: 54000fe0     	b.eq	0x1016b0 <_binary_BootROM_ums512_0x100000_0x111FFF_bin_start+0x16b0>
  1014b8: 54000528     	b.hi	0x10155c <_binary_BootROM_ums512_0x100000_0x111FFF_bin_start+0x155c>
  1014bc: 7100173f     	cmp	w25, #0x5
  1014c0: 54000ee0     	b.eq	0x10169c <_binary_BootROM_ums512_0x100000_0x111FFF_bin_start+0x169c>
  1014c4: 71001b3f     	cmp	w25, #0x6
  1014c8: 54000601     	b.ne	0x101588 <_binary_BootROM_ums512_0x100000_0x111FFF_bin_start+0x1588>
  1014cc: b9406fa0     	ldr	w0, [x29, #0x6c]
  1014d0: 52a00341     	mov	w1, #0x1a0000           // =1703936
  1014d4: 2a010000     	orr	w0, w0, w1
  1014d8: b9006fa0     	str	w0, [x29, #0x6c]
  1014dc: 1400002b     	b	0x101588 <_binary_BootROM_ums512_0x100000_0x111FFF_bin_start+0x1588>
  1014e0: b9406fa0     	ldr	w0, [x29, #0x6c]
  1014e4: 320e0000     	orr	w0, w0, #0x40000
  1014e8: b9006fa0     	str	w0, [x29, #0x6c]
  1014ec: 17ffffd3     	b	0x101438 <_binary_BootROM_ums512_0x100000_0x111FFF_bin_start+0x1438>
  1014f0: 36100142     	tbz	w2, #0x2, 0x101518 <_binary_BootROM_ums512_0x100000_0x111FFF_bin_start+0x1518>
  1014f4: b9406fa0     	ldr	w0, [x29, #0x6c]
  1014f8: 321e0400     	orr	w0, w0, #0xc
  1014fc: b9006fa0     	str	w0, [x29, #0x6c]
  101500: d2800781     	mov	x1, #0x3c               // =60
  101504: f2ae2801     	movk	x1, #0x7140, lsl #16
  101508: b9400020     	ldr	w0, [x1]
  10150c: 32050000     	orr	w0, w0, #0x8000000
  101510: b9000020     	str	w0, [x1]
  101514: 17ffffda     	b	0x10147c <_binary_BootROM_ums512_0x100000_0x111FFF_bin_start+0x147c>
  101518: d2800781     	mov	x1, #0x3c               // =60
  10151c: f2ae2801     	movk	x1, #0x7140, lsl #16
  101520: b9400020     	ldr	w0, [x1]
  101524: 12047800     	and	w0, w0, #0xf7ffffff
  101528: b9000020     	str	w0, [x1]
  10152c: 17ffffd4     	b	0x10147c <_binary_BootROM_ums512_0x100000_0x111FFF_bin_start+0x147c>
  101530: 7100073f     	cmp	w25, #0x1
  101534: 54000980     	b.eq	0x101664 <_binary_BootROM_ums512_0x100000_0x111FFF_bin_start+0x1664>
  101538: 34000259     	cbz	w25, 0x101580 <_binary_BootROM_ums512_0x100000_0x111FFF_bin_start+0x1580>
  10153c: 71000b3f     	cmp	w25, #0x2
  101540: 540009c0     	b.eq	0x101678 <_binary_BootROM_ums512_0x100000_0x111FFF_bin_start+0x1678>
  101544: 71000f3f     	cmp	w25, #0x3
  101548: 54000201     	b.ne	0x101588 <_binary_BootROM_ums512_0x100000_0x111FFF_bin_start+0x1588>
  10154c: b9406fa0     	ldr	w0, [x29, #0x6c]
  101550: 320f0000     	orr	w0, w0, #0x20000
  101554: b9006fa0     	str	w0, [x29, #0x6c]
  101558: 1400000c     	b	0x101588 <_binary_BootROM_ums512_0x100000_0x111FFF_bin_start+0x1588>
  10155c: 7100233f     	cmp	w25, #0x8
  101560: 54000b20     	b.eq	0x1016c4 <_binary_BootROM_ums512_0x100000_0x111FFF_bin_start+0x16c4>
  101564: 7100273f     	cmp	w25, #0x9
  101568: 54000101     	b.ne	0x101588 <_binary_BootROM_ums512_0x100000_0x111FFF_bin_start+0x1588>
  10156c: b9406fa0     	ldr	w0, [x29, #0x6c]
  101570: 52a00361     	mov	w1, #0x1b0000           // =1769472
  101574: 2a010000     	orr	w0, w0, w1
  101578: b9006fa0     	str	w0, [x29, #0x6c]
  10157c: 14000003     	b	0x101588 <_binary_BootROM_ums512_0x100000_0x111FFF_bin_start+0x1588>
  101580: b9406fa0     	ldr	w0, [x29, #0x6c]
  101584: b9006fa0     	str	w0, [x29, #0x6c]
  101588: b9406fa0     	ldr	w0, [x29, #0x6c]
  10158c: 2a046000     	orr	w0, w0, w4, lsl #24
  101590: b9006fa0     	str	w0, [x29, #0x6c]
  101594: b9406fa1     	ldr	w1, [x29, #0x6c]
  101598: d2800180     	mov	x0, #0xc                // =12
  10159c: f2ae2800     	movk	x0, #0x7140, lsl #16
  1015a0: b9000001     	str	w1, [x0]
  1015a4: 94001708     	bl	0x1071c4 <_binary_BootROM_ums512_0x100000_0x111FFF_bin_start+0x71c4>
  1015a8: 2a0003f6     	mov	w22, w0
  1015ac: d2800600     	mov	x0, #0x30               // =48
  1015b0: f2ae2800     	movk	x0, #0x7140, lsl #16
  1015b4: b9400000     	ldr	w0, [x0]
  1015b8: 6a00027b     	ands	w27, w19, w0
  1015bc: 540008e1     	b.ne	0x1016d8 <_binary_BootROM_ums512_0x100000_0x111FFF_bin_start+0x16d8>
  1015c0: 6a20029f     	bics	wzr, w20, w0
  1015c4: 54000180     	b.eq	0x1015f4 <_binary_BootROM_ums512_0x100000_0x111FFF_bin_start+0x15f4>
  1015c8: d2800617     	mov	x23, #0x30              // =48
  1015cc: f2ae2817     	movk	x23, #0x7140, lsl #16
  1015d0: 940016fd     	bl	0x1071c4 <_binary_BootROM_ums512_0x100000_0x111FFF_bin_start+0x71c4>
  1015d4: 4b160000     	sub	w0, w0, w22
  1015d8: 6b0002bf     	cmp	w21, w0
  1015dc: 54000d49     	b.ls	0x101784 <_binary_BootROM_ums512_0x100000_0x111FFF_bin_start+0x1784>
  1015e0: b94002e0     	ldr	w0, [x23]
  1015e4: 6a000261     	ands	w1, w19, w0
  1015e8: 540007a1     	b.ne	0x1016dc <_binary_BootROM_ums512_0x100000_0x111FFF_bin_start+0x16dc>
  1015ec: 6a20029f     	bics	wzr, w20, w0
  1015f0: 54ffff01     	b.ne	0x1015d0 <_binary_BootROM_ums512_0x100000_0x111FFF_bin_start+0x15d0>
  1015f4: d2800600     	mov	x0, #0x30               // =48
  1015f8: f2ae2800     	movk	x0, #0x7140, lsl #16
  1015fc: b9000018     	str	w24, [x0]
  101600: d2800200     	mov	x0, #0x10               // =16
  101604: f2ae2800     	movk	x0, #0x7140, lsl #16
  101608: b9400000     	ldr	w0, [x0]
  10160c: d2800281     	mov	x1, #0x14               // =20
  101610: f2ae2801     	movk	x1, #0x7140, lsl #16
  101614: b9400021     	ldr	w1, [x1]
  101618: d2800302     	mov	x2, #0x18               // =24
  10161c: f2ae2802     	movk	x2, #0x7140, lsl #16
  101620: b9400042     	ldr	w2, [x2]
  101624: d2800383     	mov	x3, #0x1c               // =28
  101628: f2ae2803     	movk	x3, #0x7140, lsl #16
  10162c: b9400063     	ldr	w3, [x3]
  101630: 71000b3f     	cmp	w25, #0x2
  101634: 54000720     	b.eq	0x101718 <_binary_BootROM_ums512_0x100000_0x111FFF_bin_start+0x1718>
  101638: 540006a8     	b.hi	0x10170c <_binary_BootROM_ums512_0x100000_0x111FFF_bin_start+0x170c>
  10163c: 7100073f     	cmp	w25, #0x1
  101640: 54000561     	b.ne	0x1016ec <_binary_BootROM_ums512_0x100000_0x111FFF_bin_start+0x16ec>
  101644: 53187c01     	lsr	w1, w0, #24
  101648: 39000341     	strb	w1, [x26]
  10164c: 53107c01     	lsr	w1, w0, #16
  101650: 39000741     	strb	w1, [x26, #0x1]
  101654: 53087c01     	lsr	w1, w0, #8
  101658: 39000b41     	strb	w1, [x26, #0x2]
  10165c: 39000f40     	strb	w0, [x26, #0x3]
  101660: 14000023     	b	0x1016ec <_binary_BootROM_ums512_0x100000_0x111FFF_bin_start+0x16ec>
  101664: b9406fa0     	ldr	w0, [x29, #0x6c]
  101668: 52a00341     	mov	w1, #0x1a0000           // =1703936
  10166c: 2a010000     	orr	w0, w0, w1
  101670: b9006fa0     	str	w0, [x29, #0x6c]
  101674: 17ffffc5     	b	0x101588 <_binary_BootROM_ums512_0x100000_0x111FFF_bin_start+0x1588>
  101678: b9406fa0     	ldr	w0, [x29, #0x6c]
  10167c: 52a00121     	mov	w1, #0x90000            // =589824
  101680: 2a010000     	orr	w0, w0, w1
  101684: b9006fa0     	str	w0, [x29, #0x6c]
  101688: 17ffffc0     	b	0x101588 <_binary_BootROM_ums512_0x100000_0x111FFF_bin_start+0x1588>
  10168c: b9406fa0     	ldr	w0, [x29, #0x6c]
  101690: 320f0000     	orr	w0, w0, #0x20000
  101694: b9006fa0     	str	w0, [x29, #0x6c]
  101698: 17ffffbc     	b	0x101588 <_binary_BootROM_ums512_0x100000_0x111FFF_bin_start+0x1588>
  10169c: b9406fa0     	ldr	w0, [x29, #0x6c]
  1016a0: 52a00341     	mov	w1, #0x1a0000           // =1703936
  1016a4: 2a010000     	orr	w0, w0, w1
  1016a8: b9006fa0     	str	w0, [x29, #0x6c]
  1016ac: 17ffffb7     	b	0x101588 <_binary_BootROM_ums512_0x100000_0x111FFF_bin_start+0x1588>
  1016b0: b9406fa0     	ldr	w0, [x29, #0x6c]
  1016b4: 52a00341     	mov	w1, #0x1a0000           // =1703936
  1016b8: 2a010000     	orr	w0, w0, w1
  1016bc: b9006fa0     	str	w0, [x29, #0x6c]
  1016c0: 17ffffb2     	b	0x101588 <_binary_BootROM_ums512_0x100000_0x111FFF_bin_start+0x1588>
  1016c4: b9406fa0     	ldr	w0, [x29, #0x6c]
  1016c8: 52a00361     	mov	w1, #0x1b0000           // =1769472
  1016cc: 2a010000     	orr	w0, w0, w1
  1016d0: b9006fa0     	str	w0, [x29, #0x6c]
  1016d4: 17ffffad     	b	0x101588 <_binary_BootROM_ums512_0x100000_0x111FFF_bin_start+0x1588>
  1016d8: 2a1b03e1     	mov	w1, w27
  1016dc: d2800600     	mov	x0, #0x30               // =48
  1016e0: f2ae2800     	movk	x0, #0x7140, lsl #16
  1016e4: b9000018     	str	w24, [x0]
  1016e8: 2a0103fb     	mov	w27, w1
  1016ec: 2a1b03e0     	mov	w0, w27
  1016f0: a94153f3     	ldp	x19, x20, [sp, #0x10]
  1016f4: a9425bf5     	ldp	x21, x22, [sp, #0x20]
  1016f8: a94363f7     	ldp	x23, x24, [sp, #0x30]
  1016fc: a9446bf9     	ldp	x25, x26, [sp, #0x40]
  101700: f9402bfb     	ldr	x27, [sp, #0x50]
  101704: a8c77bfd     	ldp	x29, x30, [sp], #0x70
  101708: d65f03c0     	ret
  10170c: 7100273f     	cmp	w25, #0x9
  101710: 54fffee8     	b.hi	0x1016ec <_binary_BootROM_ums512_0x100000_0x111FFF_bin_start+0x16ec>
  101714: 17ffffcc     	b	0x101644 <_binary_BootROM_ums512_0x100000_0x111FFF_bin_start+0x1644>
  101718: 53107c64     	lsr	w4, w3, #16
  10171c: 39000344     	strb	w4, [x26]
  101720: 53087c64     	lsr	w4, w3, #8
  101724: 39000744     	strb	w4, [x26, #0x1]
  101728: 39000b43     	strb	w3, [x26, #0x2]
  10172c: 53187c43     	lsr	w3, w2, #24
  101730: 39000f43     	strb	w3, [x26, #0x3]
  101734: 53107c43     	lsr	w3, w2, #16
  101738: 39001343     	strb	w3, [x26, #0x4]
  10173c: 53087c43     	lsr	w3, w2, #8
  101740: 39001743     	strb	w3, [x26, #0x5]
  101744: 39001b42     	strb	w2, [x26, #0x6]
  101748: 53187c22     	lsr	w2, w1, #24
  10174c: 39001f42     	strb	w2, [x26, #0x7]
  101750: 53107c22     	lsr	w2, w1, #16
  101754: 39002342     	strb	w2, [x26, #0x8]
  101758: 53087c22     	lsr	w2, w1, #8
  10175c: 39002742     	strb	w2, [x26, #0x9]
  101760: 39002b41     	strb	w1, [x26, #0xa]
  101764: 53187c01     	lsr	w1, w0, #24
  101768: 39002f41     	strb	w1, [x26, #0xb]
  10176c: 53107c01     	lsr	w1, w0, #16
  101770: 39003341     	strb	w1, [x26, #0xc]
  101774: 53087c01     	lsr	w1, w0, #8
  101778: 39003741     	strb	w1, [x26, #0xd]
  10177c: 39003b40     	strb	w0, [x26, #0xe]
  101780: 17ffffdb     	b	0x1016ec <_binary_BootROM_ums512_0x100000_0x111FFF_bin_start+0x16ec>
  101784: 1280001b     	mov	w27, #-0x1              // =-1
  101788: 17ffffd9     	b	0x1016ec <_binary_BootROM_ums512_0x100000_0x111FFF_bin_start+0x16ec>
  10178c: 2a130318     	orr	w24, w24, w19
  101790: d2800683     	mov	x3, #0x34               // =52
  101794: f2ae2803     	movk	x3, #0x7140, lsl #16
  101798: b9400062     	ldr	w2, [x3]
  10179c: 2a180042     	orr	w2, w2, w24
  1017a0: b9000062     	str	w2, [x3]
  1017a4: 91001063     	add	x3, x3, #0x4
  1017a8: b9400062     	ldr	w2, [x3]
  1017ac: 2a180042     	orr	w2, w2, w24
  1017b0: b9000062     	str	w2, [x3]
  1017b4: 52803e95     	mov	w21, #0x1f4             // =500
  1017b8: 17ffff0b     	b	0x1013e4 <_binary_BootROM_ums512_0x100000_0x111FFF_bin_start+0x13e4>
  1017bc: d2801201     	mov	x1, #0x90               // =144
  1017c0: f2a40401     	movk	x1, #0x2020, lsl #16
  1017c4: b9400022     	ldr	w2, [x1]
  1017c8: 121d7042     	and	w2, w2, #0xfffffff8
  1017cc: b9000022     	str	w2, [x1]
  1017d0: b9400022     	ldr	w2, [x1]
  1017d4: 32000042     	orr	w2, w2, #0x1
  1017d8: b9000022     	str	w2, [x1]
  1017dc: 52975001     	mov	w1, #0xba80             // =47744
  1017e0: 72a03181     	movk	w1, #0x18c, lsl #16
  1017e4: 6b01001f     	cmp	w0, w1
  1017e8: 540000c0     	b.eq	0x101800 <_binary_BootROM_ums512_0x100000_0x111FFF_bin_start+0x1800>
  1017ec: 52975001     	mov	w1, #0xba80             // =47744
  1017f0: 72a03181     	movk	w1, #0x18c, lsl #16
  1017f4: b0fff800     	adrp	x0, 0x2000
  1017f8: b9000001     	str	w1, [x0]
  1017fc: d65f03c0     	ret
  101800: b0fff800     	adrp	x0, 0x2000
  101804: b9000001     	str	w1, [x0]
  101808: d65f03c0     	ret
  10180c: b0fff803     	adrp	x3, 0x2000
  101810: 531e7400     	lsl	w0, w0, #2
  101814: b9400061     	ldr	w1, [x3]
  101818: 1ac00820     	udiv	w0, w1, w0
  10181c: d2800584     	mov	x4, #0x2c               // =44
  101820: f2ae2804     	movk	x4, #0x7140, lsl #16
  101824: b9400082     	ldr	w2, [x4]
  101828: 53181c01     	ubfiz	w1, w0, #8, #8
  10182c: 12105442     	and	w2, w2, #0xffff003f
  101830: 2a020022     	orr	w2, w1, w2
  101834: 53087c01     	lsr	w1, w0, #8
  101838: 531a0421     	ubfiz	w1, w1, #6, #2
  10183c: 2a020021     	orr	w1, w1, w2
  101840: b9000081     	str	w1, [x4]
  101844: d2804102     	mov	x2, #0x208              // =520
  101848: f2ae2802     	movk	x2, #0x7140, lsl #16
  10184c: b9400041     	ldr	w1, [x2]
  101850: 52840004     	mov	w4, #0x2000             // =8192
  101854: 72a00404     	movk	w4, #0x20, lsl #16
  101858: 2a040021     	orr	w1, w1, w4
  10185c: b9000041     	str	w1, [x2]
  101860: 531e7400     	lsl	w0, w0, #2
  101864: b9400061     	ldr	w1, [x3]
  101868: 1ac00820     	udiv	w0, w1, w0
  10186c: d65f03c0     	ret
  101870: 35000140     	cbnz	w0, 0x101898 <_binary_BootROM_ums512_0x100000_0x111FFF_bin_start+0x1898>
  101874: d2800580     	mov	x0, #0x2c               // =44
  101878: f2ae2800     	movk	x0, #0x7140, lsl #16
  10187c: b9400001     	ldr	w1, [x0]
  101880: 121d7821     	and	w1, w1, #0xfffffffb
  101884: b9000001     	str	w1, [x0]
  101888: b9400001     	ldr	w1, [x0]
  10188c: 121f7821     	and	w1, w1, #0xfffffffe
  101890: b9000001     	str	w1, [x0]
  101894: d65f03c0     	ret
  101898: a9bd7bfd     	stp	x29, x30, [sp, #-0x30]!
  10189c: 910003fd     	mov	x29, sp
  1018a0: a90153f3     	stp	x19, x20, [sp, #0x10]
  1018a4: f90013f5     	str	x21, [sp, #0x20]
  1018a8: d2800580     	mov	x0, #0x2c               // =44
  1018ac: f2ae2800     	movk	x0, #0x7140, lsl #16
  1018b0: b9400001     	ldr	w1, [x0]
  1018b4: 32000021     	orr	w1, w1, #0x1
  1018b8: b9000001     	str	w1, [x0]
  1018bc: b9400013     	ldr	w19, [x0]
  1018c0: 94001641     	bl	0x1071c4 <_binary_BootROM_ums512_0x100000_0x111FFF_bin_start+0x71c4>
  1018c4: 2a0003f5     	mov	w21, w0
  1018c8: 37080133     	tbnz	w19, #0x1, 0x1018ec <_binary_BootROM_ums512_0x100000_0x111FFF_bin_start+0x18ec>
  1018cc: d2800594     	mov	x20, #0x2c              // =44
  1018d0: f2ae2814     	movk	x20, #0x7140, lsl #16
  1018d4: b9400293     	ldr	w19, [x20]
  1018d8: 9400163b     	bl	0x1071c4 <_binary_BootROM_ums512_0x100000_0x111FFF_bin_start+0x71c4>
  1018dc: 37080093     	tbnz	w19, #0x1, 0x1018ec <_binary_BootROM_ums512_0x100000_0x111FFF_bin_start+0x18ec>
  1018e0: 4b150000     	sub	w0, w0, w21
  1018e4: 71018c1f     	cmp	w0, #0x63
  1018e8: 54ffff69     	b.ls	0x1018d4 <_binary_BootROM_ums512_0x100000_0x111FFF_bin_start+0x18d4>
  1018ec: d2800581     	mov	x1, #0x2c               // =44
  1018f0: f2ae2801     	movk	x1, #0x7140, lsl #16
  1018f4: b9400020     	ldr	w0, [x1]
  1018f8: 321e0000     	orr	w0, w0, #0x4
  1018fc: b9000020     	str	w0, [x1]
  101900: a94153f3     	ldp	x19, x20, [sp, #0x10]
  101904: f94013f5     	ldr	x21, [sp, #0x20]
  101908: a8c37bfd     	ldp	x29, x30, [sp], #0x30
  10190c: d65f03c0     	ret
  101910: a9be7bfd     	stp	x29, x30, [sp, #-0x20]!
  101914: 910003fd     	mov	x29, sp
  101918: f9000bf3     	str	x19, [sp, #0x10]
  10191c: d2800593     	mov	x19, #0x2c              // =44
  101920: f2ae2813     	movk	x19, #0x7140, lsl #16
  101924: b9400260     	ldr	w0, [x19]
  101928: 12047800     	and	w0, w0, #0xf7ffffff
  10192c: b9000260     	str	w0, [x19]
  101930: 52800020     	mov	w0, #0x1                // =1
  101934: 94001628     	bl	0x1071d4 <_binary_BootROM_ums512_0x100000_0x111FFF_bin_start+0x71d4>
  101938: b9400260     	ldr	w0, [x19]
  10193c: 32050000     	orr	w0, w0, #0x8000000
  101940: b9000260     	str	w0, [x19]
  101944: 52800020     	mov	w0, #0x1                // =1
  101948: 94001623     	bl	0x1071d4 <_binary_BootROM_ums512_0x100000_0x111FFF_bin_start+0x71d4>
  10194c: f9400bf3     	ldr	x19, [sp, #0x10]
  101950: a8c27bfd     	ldp	x29, x30, [sp], #0x20
  101954: d65f03c0     	ret
  101958: a9bd7bfd     	stp	x29, x30, [sp, #-0x30]!
  10195c: 910003fd     	mov	x29, sp
  101960: a90153f3     	stp	x19, x20, [sp, #0x10]
  101964: f90013f5     	str	x21, [sp, #0x20]
  101968: d2ae2001     	mov	x1, #0x71000000         // =1895825408
  10196c: b9400020     	ldr	w0, [x1]
  101970: 32070000     	orr	w0, w0, #0x2000000
  101974: b9000020     	str	w0, [x1]
  101978: 91001021     	add	x1, x1, #0x4
  10197c: b9400020     	ldr	w0, [x1]
  101980: 320d0000     	orr	w0, w0, #0x80000
  101984: b9000020     	str	w0, [x1]
  101988: 52801fe0     	mov	w0, #0xff               // =255
  10198c: 71000400     	subs	w0, w0, #0x1
  101990: 54ffffe1     	b.ne	0x10198c <_binary_BootROM_ums512_0x100000_0x111FFF_bin_start+0x198c>
  101994: d2800081     	mov	x1, #0x4                // =4
  101998: f2ae2001     	movk	x1, #0x7100, lsl #16
  10199c: b9400020     	ldr	w0, [x1]
  1019a0: 120c7800     	and	w0, w0, #0xfff7ffff
  1019a4: b9000020     	str	w0, [x1]
  1019a8: 9400157b     	bl	0x106f94 <_binary_BootROM_ums512_0x100000_0x111FFF_bin_start+0x6f94>
  1019ac: d2800700     	mov	x0, #0x38               // =56
  1019b0: f2a648a0     	movk	x0, #0x3245, lsl #16
  1019b4: b900001f     	str	wzr, [x0]
  1019b8: 91009000     	add	x0, x0, #0x24
  1019bc: b900001f     	str	wzr, [x0]
  1019c0: 91001000     	add	x0, x0, #0x4
  1019c4: b900001f     	str	wzr, [x0]
  1019c8: d2800980     	mov	x0, #0x4c               // =76
  1019cc: f2a648a0     	movk	x0, #0x3245, lsl #16
  1019d0: b900001f     	str	wzr, [x0]
  1019d4: d2800900     	mov	x0, #0x48               // =72
  1019d8: f2a648a0     	movk	x0, #0x3245, lsl #16
  1019dc: b900001f     	str	wzr, [x0]
  1019e0: 91004000     	add	x0, x0, #0x10
  1019e4: b900001f     	str	wzr, [x0]
  1019e8: d2800a00     	mov	x0, #0x50               // =80
  1019ec: f2a648a0     	movk	x0, #0x3245, lsl #16
  1019f0: b900001f     	str	wzr, [x0]
  1019f4: d2800800     	mov	x0, #0x40               // =64
  1019f8: f2a648a0     	movk	x0, #0x3245, lsl #16
  1019fc: b900001f     	str	wzr, [x0]
  101a00: d2800680     	mov	x0, #0x34               // =52
  101a04: f2a648a0     	movk	x0, #0x3245, lsl #16
  101a08: b900001f     	str	wzr, [x0]
  101a0c: 91008000     	add	x0, x0, #0x20
  101a10: b900001f     	str	wzr, [x0]
  101a14: d2800880     	mov	x0, #0x44               // =68
  101a18: f2a648a0     	movk	x0, #0x3245, lsl #16
  101a1c: b900001f     	str	wzr, [x0]
  101a20: d2800780     	mov	x0, #0x3c               // =60
  101a24: f2a648a0     	movk	x0, #0x3245, lsl #16
  101a28: b900001f     	str	wzr, [x0]
  101a2c: 52801000     	mov	w0, #0x80               // =128
  101a30: 72a00300     	movk	w0, #0x18, lsl #16
  101a34: d2808701     	mov	x1, #0x438              // =1080
  101a38: f2a648a1     	movk	x1, #0x3245, lsl #16
  101a3c: b9000020     	str	w0, [x1]
  101a40: 91009021     	add	x1, x1, #0x24
  101a44: b9000020     	str	w0, [x1]
  101a48: 91001021     	add	x1, x1, #0x4
  101a4c: b9000020     	str	w0, [x1]
  101a50: 52a00302     	mov	w2, #0x180000           // =1572864
  101a54: d2808981     	mov	x1, #0x44c              // =1100
  101a58: f2a648a1     	movk	x1, #0x3245, lsl #16
  101a5c: b9000022     	str	w2, [x1]
  101a60: d2808901     	mov	x1, #0x448              // =1096
  101a64: f2a648a1     	movk	x1, #0x3245, lsl #16
  101a68: b9000020     	str	w0, [x1]
  101a6c: 91004021     	add	x1, x1, #0x10
  101a70: b9000020     	str	w0, [x1]
  101a74: 11010042     	add	w2, w2, #0x40
  101a78: d2808a01     	mov	x1, #0x450              // =1104
  101a7c: f2a648a1     	movk	x1, #0x3245, lsl #16
  101a80: b9000022     	str	w2, [x1]
  101a84: d2808801     	mov	x1, #0x440              // =1088
  101a88: f2a648a1     	movk	x1, #0x3245, lsl #16
  101a8c: b9000020     	str	w0, [x1]
  101a90: d2808681     	mov	x1, #0x434              // =1076
  101a94: f2a648a1     	movk	x1, #0x3245, lsl #16
  101a98: b9000020     	str	w0, [x1]
  101a9c: 91008021     	add	x1, x1, #0x20
  101aa0: b9000020     	str	w0, [x1]
  101aa4: d2808881     	mov	x1, #0x444              // =1092
  101aa8: f2a648a1     	movk	x1, #0x3245, lsl #16
  101aac: b9000020     	str	w0, [x1]
  101ab0: d2808781     	mov	x1, #0x43c              // =1084
  101ab4: f2a648a1     	movk	x1, #0x3245, lsl #16
  101ab8: b9000020     	str	w0, [x1]
  101abc: 52975000     	mov	w0, #0xba80             // =47744
  101ac0: 72a03180     	movk	w0, #0x18c, lsl #16
  101ac4: 97ffff3e     	bl	0x1017bc <_binary_BootROM_ums512_0x100000_0x111FFF_bin_start+0x17bc>
  101ac8: d2800580     	mov	x0, #0x2c               // =44
  101acc: f2ae2800     	movk	x0, #0x7140, lsl #16
  101ad0: b9400001     	ldr	w1, [x0]
  101ad4: 32080021     	orr	w1, w1, #0x1000000
  101ad8: b9000001     	str	w1, [x0]
  101adc: b9400013     	ldr	w19, [x0]
  101ae0: 940015b9     	bl	0x1071c4 <_binary_BootROM_ums512_0x100000_0x111FFF_bin_start+0x71c4>
  101ae4: 2a0003f5     	mov	w21, w0
  101ae8: 36c00133     	tbz	w19, #0x18, 0x101b0c <_binary_BootROM_ums512_0x100000_0x111FFF_bin_start+0x1b0c>
  101aec: d2800594     	mov	x20, #0x2c              // =44
  101af0: f2ae2814     	movk	x20, #0x7140, lsl #16
  101af4: b9400293     	ldr	w19, [x20]
  101af8: 940015b3     	bl	0x1071c4 <_binary_BootROM_ums512_0x100000_0x111FFF_bin_start+0x71c4>
  101afc: 36c00093     	tbz	w19, #0x18, 0x101b0c <_binary_BootROM_ums512_0x100000_0x111FFF_bin_start+0x1b0c>
  101b00: 4b150000     	sub	w0, w0, w21
  101b04: 71018c1f     	cmp	w0, #0x63
  101b08: 54ffff69     	b.ls	0x101af4 <_binary_BootROM_ums512_0x100000_0x111FFF_bin_start+0x1af4>
  101b0c: a94153f3     	ldp	x19, x20, [sp, #0x10]
  101b10: f94013f5     	ldr	x21, [sp, #0x20]
  101b14: a8c37bfd     	ldp	x29, x30, [sp], #0x30
  101b18: d65f03c0     	ret
  101b1c: a9bf7bfd     	stp	x29, x30, [sp, #-0x10]!
  101b20: 910003fd     	mov	x29, sp
  101b24: 52800000     	mov	w0, #0x0                // =0
  101b28: 97ffff52     	bl	0x101870 <_binary_BootROM_ums512_0x100000_0x111FFF_bin_start+0x1870>
  101b2c: d2ae2001     	mov	x1, #0x71000000         // =1895825408
  101b30: b9400020     	ldr	w0, [x1]
  101b34: 12067800     	and	w0, w0, #0xfdffffff
  101b38: b9000020     	str	w0, [x1]
  101b3c: a8c17bfd     	ldp	x29, x30, [sp], #0x10
  101b40: d65f03c0     	ret
  101b44: d65f03c0     	ret
  101b48: a9be7bfd     	stp	x29, x30, [sp, #-0x20]!
  101b4c: 910003fd     	mov	x29, sp
  101b50: f0fff801     	adrp	x1, 0x4000
  101b54: b9400021     	ldr	w1, [x1]
  101b58: 7100003f     	cmp	w1, #0x0
  101b5c: 910043a3     	add	x3, x29, #0x10
  101b60: d2800002     	mov	x2, #0x0                // =0
  101b64: 52804001     	mov	w1, #0x200              // =512
  101b68: 1a810001     	csel	w1, w0, w1, eq
  101b6c: 52800120     	mov	w0, #0x9                // =9
  101b70: 97fffdd8     	bl	0x1012d0 <_binary_BootROM_ums512_0x100000_0x111FFF_bin_start+0x12d0>
  101b74: 7100001f     	cmp	w0, #0x0
  101b78: 1a9f17e0     	cset	w0, eq
  101b7c: a8c27bfd     	ldp	x29, x30, [sp], #0x20
  101b80: d65f03c0     	ret
  101b84: a9be7bfd     	stp	x29, x30, [sp, #-0x20]!
  101b88: 910003fd     	mov	x29, sp
  101b8c: 340001e0     	cbz	w0, 0x101bc8 <_binary_BootROM_ums512_0x100000_0x111FFF_bin_start+0x1bc8>
  101b90: 7100041f     	cmp	w0, #0x1
  101b94: 52800240     	mov	w0, #0x12               // =18
  101b98: 1a9f0000     	csel	w0, w0, wzr, eq
  101b9c: 910043a3     	add	x3, x29, #0x10
  101ba0: d2800002     	mov	x2, #0x0                // =0
  101ba4: 52800021     	mov	w1, #0x1                // =1
  101ba8: 72a07661     	movk	w1, #0x3b3, lsl #16
  101bac: 2a002021     	orr	w1, w1, w0, lsl #8
  101bb0: 52800080     	mov	w0, #0x4                // =4
  101bb4: 97fffdc7     	bl	0x1012d0 <_binary_BootROM_ums512_0x100000_0x111FFF_bin_start+0x12d0>
  101bb8: 7100001f     	cmp	w0, #0x0
  101bbc: 1a9f17e0     	cset	w0, eq
  101bc0: a8c27bfd     	ldp	x29, x30, [sp], #0x20
  101bc4: d65f03c0     	ret
  101bc8: 52800120     	mov	w0, #0x9                // =9
  101bcc: 17fffff4     	b	0x101b9c <_binary_BootROM_ums512_0x100000_0x111FFF_bin_start+0x1b9c>
  101bd0: d2800501     	mov	x1, #0x28               // =40
  101bd4: f2ae2801     	movk	x1, #0x7140, lsl #16
  101bd8: b9400021     	ldr	w1, [x1]
  101bdc: 12800442     	mov	w2, #-0x23              // =-35
  101be0: 0a020021     	and	w1, w1, w2
  101be4: 7100041f     	cmp	w0, #0x1
  101be8: 54000100     	b.eq	0x101c08 <_binary_BootROM_ums512_0x100000_0x111FFF_bin_start+0x1c08>
  101bec: 321b0022     	orr	w2, w1, #0x20
  101bf0: 7100081f     	cmp	w0, #0x2
  101bf4: 1a810041     	csel	w1, w2, w1, eq
  101bf8: d2800500     	mov	x0, #0x28               // =40
  101bfc: f2ae2800     	movk	x0, #0x7140, lsl #16
  101c00: b9000001     	str	w1, [x0]
  101c04: d65f03c0     	ret
  101c08: 321f0021     	orr	w1, w1, #0x2
  101c0c: 17fffffb     	b	0x101bf8 <_binary_BootROM_ums512_0x100000_0x111FFF_bin_start+0x1bf8>
  101c10: a9bd7bfd     	stp	x29, x30, [sp, #-0x30]!
  101c14: 910003fd     	mov	x29, sp
  101c18: f9000bf3     	str	x19, [sp, #0x10]
  101c1c: 2a0003f3     	mov	w19, w0
  101c20: 910083a3     	add	x3, x29, #0x20
  101c24: d2800002     	mov	x2, #0x0                // =0
  101c28: 52a076e1     	mov	w1, #0x3b70000          // =62324736
  101c2c: 2a002021     	orr	w1, w1, w0, lsl #8
  101c30: 52800080     	mov	w0, #0x4                // =4
  101c34: 97fffda7     	bl	0x1012d0 <_binary_BootROM_ums512_0x100000_0x111FFF_bin_start+0x12d0>
  101c38: 340000a0     	cbz	w0, 0x101c4c <_binary_BootROM_ums512_0x100000_0x111FFF_bin_start+0x1c4c>
  101c3c: 52800000     	mov	w0, #0x0                // =0
  101c40: f9400bf3     	ldr	x19, [sp, #0x10]
  101c44: a8c37bfd     	ldp	x29, x30, [sp], #0x30
  101c48: d65f03c0     	ret
  101c4c: 2a1303e0     	mov	w0, w19
  101c50: 97ffffe0     	bl	0x101bd0 <_binary_BootROM_ums512_0x100000_0x111FFF_bin_start+0x1bd0>
  101c54: 52800020     	mov	w0, #0x1                // =1
  101c58: 17fffffa     	b	0x101c40 <_binary_BootROM_ums512_0x100000_0x111FFF_bin_start+0x1c40>
  101c5c: a9bc7bfd     	stp	x29, x30, [sp, #-0x40]!
  101c60: 910003fd     	mov	x29, sp
  101c64: a90153f3     	stp	x19, x20, [sp, #0x10]
  101c68: f90013f5     	str	x21, [sp, #0x20]
  101c6c: 9100c3a3     	add	x3, x29, #0x30
  101c70: d2800002     	mov	x2, #0x0                // =0
  101c74: 52800001     	mov	w1, #0x0                // =0
  101c78: 52800000     	mov	w0, #0x0                // =0
  101c7c: 97fffd95     	bl	0x1012d0 <_binary_BootROM_ums512_0x100000_0x111FFF_bin_start+0x12d0>
  101c80: 52800001     	mov	w1, #0x0                // =0
  101c84: 340000c0     	cbz	w0, 0x101c9c <_binary_BootROM_ums512_0x100000_0x111FFF_bin_start+0x1c9c>
  101c88: 2a0103e0     	mov	w0, w1
  101c8c: a94153f3     	ldp	x19, x20, [sp, #0x10]
  101c90: f94013f5     	ldr	x21, [sp, #0x20]
  101c94: a8c47bfd     	ldp	x29, x30, [sp], #0x40
  101c98: d65f03c0     	ret
  101c9c: 9400154a     	bl	0x1071c4 <_binary_BootROM_ums512_0x100000_0x111FFF_bin_start+0x71c4>
  101ca0: 2a0003f5     	mov	w21, w0
  101ca4: 52901014     	mov	w20, #0x8080            // =32896
  101ca8: 72a81ff4     	movk	w20, #0x40ff, lsl #16
  101cac: 52800033     	mov	w19, #0x1               // =1
  101cb0: 9100c3a3     	add	x3, x29, #0x30
  101cb4: d2800002     	mov	x2, #0x0                // =0
  101cb8: 2a1403e1     	mov	w1, w20
  101cbc: 2a1303e0     	mov	w0, w19
  101cc0: 97fffd84     	bl	0x1012d0 <_binary_BootROM_ums512_0x100000_0x111FFF_bin_start+0x12d0>
  101cc4: 350000e0     	cbnz	w0, 0x101ce0 <_binary_BootROM_ums512_0x100000_0x111FFF_bin_start+0x1ce0>
  101cc8: 3940c3a0     	ldrb	w0, [x29, #0x30]
  101ccc: 373800e0     	tbnz	w0, #0x7, 0x101ce8 <_binary_BootROM_ums512_0x100000_0x111FFF_bin_start+0x1ce8>
  101cd0: 9400153d     	bl	0x1071c4 <_binary_BootROM_ums512_0x100000_0x111FFF_bin_start+0x71c4>
  101cd4: 4b150000     	sub	w0, w0, w21
  101cd8: 713e801f     	cmp	w0, #0xfa0
  101cdc: 54fffea9     	b.ls	0x101cb0 <_binary_BootROM_ums512_0x100000_0x111FFF_bin_start+0x1cb0>
  101ce0: 52800001     	mov	w1, #0x0                // =0
  101ce4: 17ffffe9     	b	0x101c88 <_binary_BootROM_ums512_0x100000_0x111FFF_bin_start+0x1c88>
  101ce8: 373005a0     	tbnz	w0, #0x6, 0x101d9c <_binary_BootROM_ums512_0x100000_0x111FFF_bin_start+0x1d9c>
  101cec: f0fff800     	adrp	x0, 0x4000
  101cf0: b900001f     	str	wzr, [x0]
  101cf4: 9100c3a3     	add	x3, x29, #0x30
  101cf8: d2800002     	mov	x2, #0x0                // =0
  101cfc: 52800001     	mov	w1, #0x0                // =0
  101d00: 52800040     	mov	w0, #0x2                // =2
  101d04: 97fffd73     	bl	0x1012d0 <_binary_BootROM_ums512_0x100000_0x111FFF_bin_start+0x12d0>
  101d08: 52800001     	mov	w1, #0x0                // =0
  101d0c: 35fffbe0     	cbnz	w0, 0x101c88 <_binary_BootROM_ums512_0x100000_0x111FFF_bin_start+0x1c88>
  101d10: 9100c3a3     	add	x3, x29, #0x30
  101d14: d2800002     	mov	x2, #0x0                // =0
  101d18: 52a00021     	mov	w1, #0x10000            // =65536
  101d1c: 52800060     	mov	w0, #0x3                // =3
  101d20: 97fffd6c     	bl	0x1012d0 <_binary_BootROM_ums512_0x100000_0x111FFF_bin_start+0x12d0>
  101d24: 52800001     	mov	w1, #0x0                // =0
  101d28: 35fffb00     	cbnz	w0, 0x101c88 <_binary_BootROM_ums512_0x100000_0x111FFF_bin_start+0x1c88>
  101d2c: 52800021     	mov	w1, #0x1                // =1
  101d30: f0fff800     	adrp	x0, 0x4000
  101d34: 79000801     	strh	w1, [x0, #0x4]
  101d38: 9100c3a3     	add	x3, x29, #0x30
  101d3c: d2800002     	mov	x2, #0x0                // =0
  101d40: 52a00021     	mov	w1, #0x10000            // =65536
  101d44: 528000c0     	mov	w0, #0x6                // =6
  101d48: 97fffd62     	bl	0x1012d0 <_binary_BootROM_ums512_0x100000_0x111FFF_bin_start+0x12d0>
  101d4c: 52800001     	mov	w1, #0x0                // =0
  101d50: 35fff9c0     	cbnz	w0, 0x101c88 <_binary_BootROM_ums512_0x100000_0x111FFF_bin_start+0x1c88>
  101d54: f0fff800     	adrp	x0, 0x4000
  101d58: 79400801     	ldrh	w1, [x0, #0x4]
  101d5c: 9100c3a3     	add	x3, x29, #0x30
  101d60: d2800002     	mov	x2, #0x0                // =0
  101d64: 53103c21     	lsl	w1, w1, #16
  101d68: 528000a0     	mov	w0, #0x5                // =5
  101d6c: 97fffd59     	bl	0x1012d0 <_binary_BootROM_ums512_0x100000_0x111FFF_bin_start+0x12d0>
  101d70: 52800001     	mov	w1, #0x0                // =0
  101d74: 35fff8a0     	cbnz	w0, 0x101c88 <_binary_BootROM_ums512_0x100000_0x111FFF_bin_start+0x1c88>
  101d78: 52804000     	mov	w0, #0x200              // =512
  101d7c: 97ffff73     	bl	0x101b48 <_binary_BootROM_ums512_0x100000_0x111FFF_bin_start+0x1b48>
  101d80: 2a0003e1     	mov	w1, w0
  101d84: 34fff820     	cbz	w0, 0x101c88 <_binary_BootROM_ums512_0x100000_0x111FFF_bin_start+0x1c88>
  101d88: 52800000     	mov	w0, #0x0                // =0
  101d8c: 97ffffa1     	bl	0x101c10 <_binary_BootROM_ums512_0x100000_0x111FFF_bin_start+0x1c10>
  101d90: 7100001f     	cmp	w0, #0x0
  101d94: 1a9f07e1     	cset	w1, ne
  101d98: 17ffffbc     	b	0x101c88 <_binary_BootROM_ums512_0x100000_0x111FFF_bin_start+0x1c88>
  101d9c: 52800021     	mov	w1, #0x1                // =1
  101da0: f0fff800     	adrp	x0, 0x4000
  101da4: b9000001     	str	w1, [x0]
  101da8: 17ffffd3     	b	0x101cf4 <_binary_BootROM_ums512_0x100000_0x111FFF_bin_start+0x1cf4>
  101dac: a9b97bfd     	stp	x29, x30, [sp, #-0x70]!
  101db0: 910003fd     	mov	x29, sp
  101db4: a90153f3     	stp	x19, x20, [sp, #0x10]
  101db8: a9025bf5     	stp	x21, x22, [sp, #0x20]
  101dbc: a90363f7     	stp	x23, x24, [sp, #0x30]
  101dc0: 2a0103f6     	mov	w22, w1
  101dc4: 2a0203f8     	mov	w24, w2
  101dc8: aa0303f7     	mov	x23, x3
  101dcc: 97ffff6e     	bl	0x101b84 <_binary_BootROM_ums512_0x100000_0x111FFF_bin_start+0x1b84>
  101dd0: 350000c0     	cbnz	w0, 0x101de8 <_binary_BootROM_ums512_0x100000_0x111FFF_bin_start+0x1de8>
  101dd4: a94153f3     	ldp	x19, x20, [sp, #0x10]
  101dd8: a9425bf5     	ldp	x21, x22, [sp, #0x20]
  101ddc: a94363f7     	ldp	x23, x24, [sp, #0x30]
  101de0: a8c77bfd     	ldp	x29, x30, [sp], #0x70
  101de4: d65f03c0     	ret
  101de8: f0fff800     	adrp	x0, 0x4000
  101dec: 79400813     	ldrh	w19, [x0, #0x4]
  101df0: 53103e73     	lsl	w19, w19, #16
  101df4: 940014f4     	bl	0x1071c4 <_binary_BootROM_ums512_0x100000_0x111FFF_bin_start+0x71c4>
  101df8: 2a0003f5     	mov	w21, w0
  101dfc: 52800114     	mov	w20, #0x8               // =8
  101e00: 910103a3     	add	x3, x29, #0x40
  101e04: d2800002     	mov	x2, #0x0                // =0
  101e08: 2a1303e1     	mov	w1, w19
  101e0c: 2a1403e0     	mov	w0, w20
  101e10: 97fffd30     	bl	0x1012d0 <_binary_BootROM_ums512_0x100000_0x111FFF_bin_start+0x12d0>
  101e14: 350000e0     	cbnz	w0, 0x101e30 <_binary_BootROM_ums512_0x100000_0x111FFF_bin_start+0x1e30>
  101e18: 39410ba0     	ldrb	w0, [x29, #0x42]
  101e1c: 370001c0     	tbnz	w0, #0x0, 0x101e54 <_binary_BootROM_ums512_0x100000_0x111FFF_bin_start+0x1e54>
  101e20: 940014e9     	bl	0x1071c4 <_binary_BootROM_ums512_0x100000_0x111FFF_bin_start+0x71c4>
  101e24: 4b150000     	sub	w0, w0, w21
  101e28: 713e801f     	cmp	w0, #0xfa0
  101e2c: 54fffea9     	b.ls	0x101e00 <_binary_BootROM_ums512_0x100000_0x111FFF_bin_start+0x1e00>
  101e30: 52800000     	mov	w0, #0x0                // =0
  101e34: 17ffffe8     	b	0x101dd4 <_binary_BootROM_ums512_0x100000_0x111FFF_bin_start+0x1dd4>
  101e38: 910183a3     	add	x3, x29, #0x60
  101e3c: d2800002     	mov	x2, #0x0                // =0
  101e40: 52800001     	mov	w1, #0x0                // =0
  101e44: 528000e0     	mov	w0, #0x7                // =7
  101e48: 97fffd22     	bl	0x1012d0 <_binary_BootROM_ums512_0x100000_0x111FFF_bin_start+0x12d0>
  101e4c: 52800000     	mov	w0, #0x0                // =0
  101e50: 17ffffe1     	b	0x101dd4 <_binary_BootROM_ums512_0x100000_0x111FFF_bin_start+0x1dd4>
  101e54: f0fff800     	adrp	x0, 0x4000
  101e58: b9400000     	ldr	w0, [x0]
  101e5c: 53175ac1     	lsl	w1, w22, #9
  101e60: 7100001f     	cmp	w0, #0x0
  101e64: 52804000     	mov	w0, #0x200              // =512
  101e68: b9005ba0     	str	w0, [x29, #0x58]
  101e6c: b9005fb8     	str	w24, [x29, #0x5c]
  101e70: f9002bb7     	str	x23, [x29, #0x50]
  101e74: 910183a3     	add	x3, x29, #0x60
  101e78: 910143a2     	add	x2, x29, #0x50
  101e7c: 1a960021     	csel	w1, w1, w22, eq
  101e80: 52800160     	mov	w0, #0xb                // =11
  101e84: 97fffd13     	bl	0x1012d0 <_binary_BootROM_ums512_0x100000_0x111FFF_bin_start+0x12d0>
  101e88: 35fffd80     	cbnz	w0, 0x101e38 <_binary_BootROM_ums512_0x100000_0x111FFF_bin_start+0x1e38>
  101e8c: 910183a3     	add	x3, x29, #0x60
  101e90: d2800002     	mov	x2, #0x0                // =0
  101e94: 52800001     	mov	w1, #0x0                // =0
  101e98: 528000e0     	mov	w0, #0x7                // =7
  101e9c: 97fffd0d     	bl	0x1012d0 <_binary_BootROM_ums512_0x100000_0x111FFF_bin_start+0x12d0>
  101ea0: 7100001f     	cmp	w0, #0x0
  101ea4: 1a9f17e0     	cset	w0, eq
  101ea8: 17ffffcb     	b	0x101dd4 <_binary_BootROM_ums512_0x100000_0x111FFF_bin_start+0x1dd4>
  101eac: a9bb7bfd     	stp	x29, x30, [sp, #-0x50]!
  101eb0: 910003fd     	mov	x29, sp
  101eb4: a90153f3     	stp	x19, x20, [sp, #0x10]
  101eb8: f90013f5     	str	x21, [sp, #0x20]
  101ebc: 2a0103f3     	mov	w19, w1
  101ec0: 2a0203f5     	mov	w21, w2
  101ec4: aa0303f4     	mov	x20, x3
  101ec8: 97ffff2f     	bl	0x101b84 <_binary_BootROM_ums512_0x100000_0x111FFF_bin_start+0x1b84>
  101ecc: 340002c0     	cbz	w0, 0x101f24 <_binary_BootROM_ums512_0x100000_0x111FFF_bin_start+0x1f24>
  101ed0: f0fff800     	adrp	x0, 0x4000
  101ed4: b9400000     	ldr	w0, [x0]
  101ed8: 53175a61     	lsl	w1, w19, #9
  101edc: 7100001f     	cmp	w0, #0x0
  101ee0: 52804000     	mov	w0, #0x200              // =512
  101ee4: b9003ba0     	str	w0, [x29, #0x38]
  101ee8: b9003fb5     	str	w21, [x29, #0x3c]
  101eec: f9001bb4     	str	x20, [x29, #0x30]
  101ef0: 910103a3     	add	x3, x29, #0x40
  101ef4: 9100c3a2     	add	x2, x29, #0x30
  101ef8: 1a930021     	csel	w1, w1, w19, eq
  101efc: 528001c0     	mov	w0, #0xe                // =14
  101f00: 97fffcf4     	bl	0x1012d0 <_binary_BootROM_ums512_0x100000_0x111FFF_bin_start+0x12d0>
  101f04: 35000180     	cbnz	w0, 0x101f34 <_binary_BootROM_ums512_0x100000_0x111FFF_bin_start+0x1f34>
  101f08: 910103a3     	add	x3, x29, #0x40
  101f0c: d2800002     	mov	x2, #0x0                // =0
  101f10: 52800001     	mov	w1, #0x0                // =0
  101f14: 528000e0     	mov	w0, #0x7                // =7
  101f18: 97fffcee     	bl	0x1012d0 <_binary_BootROM_ums512_0x100000_0x111FFF_bin_start+0x12d0>
  101f1c: 7100001f     	cmp	w0, #0x0
  101f20: 1a9f17e0     	cset	w0, eq
  101f24: a94153f3     	ldp	x19, x20, [sp, #0x10]
  101f28: f94013f5     	ldr	x21, [sp, #0x20]
  101f2c: a8c57bfd     	ldp	x29, x30, [sp], #0x50
  101f30: d65f03c0     	ret
  101f34: 910103a3     	add	x3, x29, #0x40
  101f38: d2800002     	mov	x2, #0x0                // =0
  101f3c: 52800001     	mov	w1, #0x0                // =0
  101f40: 528000e0     	mov	w0, #0x7                // =7
  101f44: 97fffce3     	bl	0x1012d0 <_binary_BootROM_ums512_0x100000_0x111FFF_bin_start+0x12d0>
  101f48: 52800000     	mov	w0, #0x0                // =0
  101f4c: 17fffff6     	b	0x101f24 <_binary_BootROM_ums512_0x100000_0x111FFF_bin_start+0x1f24>
  101f50: a9bc7bfd     	stp	x29, x30, [sp, #-0x40]!
  101f54: 910003fd     	mov	x29, sp
  101f58: a90153f3     	stp	x19, x20, [sp, #0x10]
  101f5c: a9025bf5     	stp	x21, x22, [sp, #0x20]
  101f60: 2a0003f5     	mov	w21, w0
  101f64: aa0103f3     	mov	x19, x1
  101f68: 2a0203f4     	mov	w20, w2
  101f6c: 9100c3a3     	add	x3, x29, #0x30
  101f70: d2800002     	mov	x2, #0x0                // =0
  101f74: 3204cfe1     	mov	w1, #-0xf0f0f10         // =-252645136
  101f78: 52800000     	mov	w0, #0x0                // =0
  101f7c: 97fffcd5     	bl	0x1012d0 <_binary_BootROM_ums512_0x100000_0x111FFF_bin_start+0x12d0>
  101f80: 340000c0     	cbz	w0, 0x101f98 <_binary_BootROM_ums512_0x100000_0x111FFF_bin_start+0x1f98>
  101f84: 52800000     	mov	w0, #0x0                // =0
  101f88: a94153f3     	ldp	x19, x20, [sp, #0x10]
  101f8c: a9425bf5     	ldp	x21, x22, [sp, #0x20]
  101f90: a8c47bfd     	ldp	x29, x30, [sp], #0x40
  101f94: d65f03c0     	ret
  101f98: d2800701     	mov	x1, #0x38               // =56
  101f9c: f2ae2801     	movk	x1, #0x7140, lsl #16
  101fa0: b9400020     	ldr	w0, [x1]
  101fa4: b900003f     	str	wzr, [x1]
  101fa8: d2800682     	mov	x2, #0x34               // =52
  101fac: f2ae2802     	movk	x2, #0x7140, lsl #16
  101fb0: b9400040     	ldr	w0, [x2]
  101fb4: b900005f     	str	wzr, [x2]
  101fb8: d2800583     	mov	x3, #0x2c               // =44
  101fbc: f2ae2803     	movk	x3, #0x7140, lsl #16
  101fc0: b9400060     	ldr	w0, [x3]
  101fc4: 120c6c00     	and	w0, w0, #0xfff0ffff
  101fc8: 320f0800     	orr	w0, w0, #0xe0000
  101fcc: b9000060     	str	w0, [x3]
  101fd0: 52900163     	mov	w3, #0x800b             // =32779
  101fd4: 72a00e03     	movk	w3, #0x70, lsl #16
  101fd8: d2800600     	mov	x0, #0x30               // =48
  101fdc: f2ae2800     	movk	x0, #0x7140, lsl #16
  101fe0: b9000003     	str	w3, [x0]
  101fe4: 52800160     	mov	w0, #0xb                // =11
  101fe8: 72a00e00     	movk	w0, #0x70, lsl #16
  101fec: b9000040     	str	w0, [x2]
  101ff0: b9000020     	str	w0, [x1]
  101ff4: 52804001     	mov	w1, #0x200              // =512
  101ff8: d2800080     	mov	x0, #0x4                // =4
  101ffc: f2ae2800     	movk	x0, #0x7140, lsl #16
  102000: b9000001     	str	w1, [x0]
  102004: d2ae2800     	mov	x0, #0x71400000         // =1900019712
  102008: b9000015     	str	w21, [x0]
  10200c: d2800781     	mov	x1, #0x3c               // =60
  102010: f2ae2801     	movk	x1, #0x7140, lsl #16
  102014: b9400020     	ldr	w0, [x1]
  102018: 32030000     	orr	w0, w0, #0x20000000
  10201c: b9000020     	str	w0, [x1]
  102020: d2800b00     	mov	x0, #0x58               // =88
  102024: f2ae2800     	movk	x0, #0x7140, lsl #16
  102028: b9000013     	str	w19, [x0]
  10202c: d360fe73     	lsr	x19, x19, #32
  102030: 91001000     	add	x0, x0, #0x4
  102034: b9000013     	str	w19, [x0]
  102038: 35000574     	cbnz	w20, 0x1020e4 <_binary_BootROM_ums512_0x100000_0x111FFF_bin_start+0x20e4>
  10203c: 128000a1     	mov	w1, #-0x6               // =-6
  102040: d2800100     	mov	x0, #0x8                // =8
  102044: f2ae2800     	movk	x0, #0x7140, lsl #16
  102048: b9000001     	str	w1, [x0]
  10204c: 52800661     	mov	w1, #0x33               // =51
  102050: 72a00401     	movk	w1, #0x20, lsl #16
  102054: 91001000     	add	x0, x0, #0x4
  102058: b9000001     	str	w1, [x0]
  10205c: 52800073     	mov	w19, #0x3               // =3
  102060: 94001459     	bl	0x1071c4 <_binary_BootROM_ums512_0x100000_0x111FFF_bin_start+0x71c4>
  102064: 2a0003f4     	mov	w20, w0
  102068: d2800600     	mov	x0, #0x30               // =48
  10206c: f2ae2800     	movk	x0, #0x7140, lsl #16
  102070: b9400000     	ldr	w0, [x0]
  102074: 52900001     	mov	w1, #0x8000             // =32768
  102078: 72a00e01     	movk	w1, #0x70, lsl #16
  10207c: 6a01001f     	tst	w0, w1
  102080: 54000261     	b.ne	0x1020cc <_binary_BootROM_ums512_0x100000_0x111FFF_bin_start+0x20cc>
  102084: 6a20027f     	bics	wzr, w19, w0
  102088: 54000260     	b.eq	0x1020d4 <_binary_BootROM_ums512_0x100000_0x111FFF_bin_start+0x20d4>
  10208c: d2800616     	mov	x22, #0x30              // =48
  102090: f2ae2816     	movk	x22, #0x7140, lsl #16
  102094: 2a0103f5     	mov	w21, w1
  102098: 9400144b     	bl	0x1071c4 <_binary_BootROM_ums512_0x100000_0x111FFF_bin_start+0x71c4>
  10209c: 4b140000     	sub	w0, w0, w20
  1020a0: 711f3c1f     	cmp	w0, #0x7cf
  1020a4: 54000108     	b.hi	0x1020c4 <_binary_BootROM_ums512_0x100000_0x111FFF_bin_start+0x20c4>
  1020a8: b94002c0     	ldr	w0, [x22]
  1020ac: 6a15001f     	tst	w0, w21
  1020b0: 54000161     	b.ne	0x1020dc <_binary_BootROM_ums512_0x100000_0x111FFF_bin_start+0x20dc>
  1020b4: 6a20027f     	bics	wzr, w19, w0
  1020b8: 54ffff01     	b.ne	0x102098 <_binary_BootROM_ums512_0x100000_0x111FFF_bin_start+0x2098>
  1020bc: 52800020     	mov	w0, #0x1                // =1
  1020c0: 17ffffb2     	b	0x101f88 <_binary_BootROM_ums512_0x100000_0x111FFF_bin_start+0x1f88>
  1020c4: 52800000     	mov	w0, #0x0                // =0
  1020c8: 17ffffb0     	b	0x101f88 <_binary_BootROM_ums512_0x100000_0x111FFF_bin_start+0x1f88>
  1020cc: 52800000     	mov	w0, #0x0                // =0
  1020d0: 17ffffae     	b	0x101f88 <_binary_BootROM_ums512_0x100000_0x111FFF_bin_start+0x1f88>
  1020d4: 52800020     	mov	w0, #0x1                // =1
  1020d8: 17ffffac     	b	0x101f88 <_binary_BootROM_ums512_0x100000_0x111FFF_bin_start+0x1f88>
  1020dc: 52800000     	mov	w0, #0x0                // =0
  1020e0: 17ffffaa     	b	0x101f88 <_binary_BootROM_ums512_0x100000_0x111FFF_bin_start+0x1f88>
  1020e4: 52800661     	mov	w1, #0x33               // =51
  1020e8: 72a80401     	movk	w1, #0x4020, lsl #16
  1020ec: d2800180     	mov	x0, #0xc                // =12
  1020f0: f2ae2800     	movk	x0, #0x7140, lsl #16
  1020f4: b9000001     	str	w1, [x0]
  1020f8: 52800053     	mov	w19, #0x2               // =2
  1020fc: 17ffffd9     	b	0x102060 <_binary_BootROM_ums512_0x100000_0x111FFF_bin_start+0x2060>
		...
  102108: 00000001     	udf	#0x1
		...
  102118: 00000001     	udf	#0x1
  10211c: 00000001     	udf	#0x1
  102120: 00000001     	udf	#0x1
  102124: 00000003     	udf	#0x3
  102128: 08050000     	stxrb	w5, w0, [x0]
  10212c: 00000000     	udf	#0x0
  102130: 00000002     	udf	#0x2
  102134: 00000002     	udf	#0x2
  102138: 00000001     	udf	#0x1
  10213c: 00000002     	udf	#0x2
  102140: 08070000     	stxrb	w7, w0, [x0]
  102144: 00000000     	udf	#0x0
  102148: 00000003     	udf	#0x3
  10214c: 00000003     	udf	#0x3
  102150: 00000001     	udf	#0x1
  102154: 00000001     	udf	#0x1
  102158: 080f0000     	stxrb	w15, w0, [x0]
  10215c: 00000000     	udf	#0x0
  102160: 00000004     	udf	#0x4
  102164: 00000006     	udf	#0x6
  102168: 00000003     	udf	#0x3
  10216c: 00000008     	udf	#0x8
  102170: 080f0000     	stxrb	w15, w0, [x0]
  102174: 00000000     	udf	#0x0
  102178: 00000005     	udf	#0x5
  10217c: 00000007     	udf	#0x7
  102180: 00000001     	udf	#0x1
  102184: 00000001     	udf	#0x1
  102188: 080f0000     	stxrb	w15, w0, [x0]
  10218c: 00000000     	udf	#0x0
  102190: 00000006     	udf	#0x6
  102194: 00000009     	udf	#0x9
  102198: 00000001     	udf	#0x1
  10219c: 00000002     	udf	#0x2
  1021a0: 08070000     	stxrb	w7, w0, [x0]
  1021a4: 00000000     	udf	#0x0
  1021a8: 00000007     	udf	#0x7
  1021ac: 0000000c     	udf	#0xc
  1021b0: 00000001     	udf	#0x1
  1021b4: 00000001     	udf	#0x1
  1021b8: 080f0000     	stxrb	w15, w0, [x0]
  1021bc: 00000000     	udf	#0x0
  1021c0: 00000008     	udf	#0x8
  1021c4: 0000000d     	udf	#0xd
  1021c8: 00000001     	udf	#0x1
  1021cc: 00000001     	udf	#0x1
  1021d0: 080f0000     	stxrb	w15, w0, [x0]
  1021d4: 00000000     	udf	#0x0
  1021d8: 00000009     	udf	#0x9
  1021dc: 00000010     	udf	#0x10
  1021e0: 00000001     	udf	#0x1
  1021e4: 00000001     	udf	#0x1
  1021e8: 080f0000     	stxrb	w15, w0, [x0]
  1021ec: 00000000     	udf	#0x0
  1021f0: 0000000a     	udf	#0xa
  1021f4: 00000011     	udf	#0x11
  1021f8: 00000003     	udf	#0x3
  1021fc: 00000001     	udf	#0x1
  102200: 087f0000     	<unknown>
  102204: 00000051     	udf	#0x51
  102208: 0000000b     	udf	#0xb
  10220c: 00000012     	udf	#0x12
  102210: 00000003     	udf	#0x3
  102214: 00000001     	udf	#0x1
  102218: 087f0000     	<unknown>
  10221c: 00000073     	udf	#0x73
  102220: 0000000c     	udf	#0xc
  102224: 00000017     	udf	#0x17
  102228: 00000001     	udf	#0x1
  10222c: 00000001     	udf	#0x1
  102230: 080f0000     	stxrb	w15, w0, [x0]
  102234: 00000000     	udf	#0x0
  102238: 0000000d     	udf	#0xd
  10223c: 00000018     	udf	#0x18
  102240: 00000003     	udf	#0x3
  102244: 00000001     	udf	#0x1
  102248: 083f0000     	<unknown>
  10224c: 00000041     	udf	#0x41
  102250: 0000000e     	udf	#0xe
  102254: 00000019     	udf	#0x19
  102258: 00000003     	udf	#0x3
  10225c: 00000001     	udf	#0x1
  102260: 083f0000     	<unknown>
  102264: 00000063     	udf	#0x63
  102268: 0000000f     	udf	#0xf
  10226c: 00000000     	udf	#0x0
  102270: 00000001     	udf	#0x1
		...
  102280: a9bc7bfd     	stp	x29, x30, [sp, #-0x40]!
  102284: 910003fd     	mov	x29, sp
  102288: a90153f3     	stp	x19, x20, [sp, #0x10]
  10228c: a9025bf5     	stp	x21, x22, [sp, #0x20]
  102290: f9001bf7     	str	x23, [sp, #0x30]
  102294: 94000214     	bl	0x102ae4 <_binary_BootROM_ums512_0x100000_0x111FFF_bin_start+0x2ae4>
  102298: 52800020     	mov	w0, #0x1                // =1
  10229c: 9400026b     	bl	0x102c48 <_binary_BootROM_ums512_0x100000_0x111FFF_bin_start+0x2c48>
  1022a0: d2800013     	mov	x19, #0x0               // =0
  1022a4: 90000015     	adrp	x21, 0x102000 <_binary_BootROM_ums512_0x100000_0x111FFF_bin_start+0x2000>
  1022a8: 911262b5     	add	x21, x21, #0x498
  1022ac: 52800037     	mov	w23, #0x1               // =1
  1022b0: 52800056     	mov	w22, #0x2               // =2
  1022b4: 52800000     	mov	w0, #0x0                // =0
  1022b8: 940001d9     	bl	0x102a1c <_binary_BootROM_ums512_0x100000_0x111FFF_bin_start+0x2a1c>
  1022bc: b8736aa0     	ldr	w0, [x21, x19]
  1022c0: 940001c3     	bl	0x1029cc <_binary_BootROM_ums512_0x100000_0x111FFF_bin_start+0x29cc>
  1022c4: 2a1703e0     	mov	w0, w23
  1022c8: 940001d5     	bl	0x102a1c <_binary_BootROM_ums512_0x100000_0x111FFF_bin_start+0x2a1c>
  1022cc: 2a1603e0     	mov	w0, w22
  1022d0: 940013c1     	bl	0x1071d4 <_binary_BootROM_ums512_0x100000_0x111FFF_bin_start+0x71d4>
  1022d4: 9400026d     	bl	0x102c88 <_binary_BootROM_ums512_0x100000_0x111FFF_bin_start+0x2c88>
  1022d8: 2a0003f4     	mov	w20, w0
  1022dc: 7100041f     	cmp	w0, #0x1
  1022e0: 54000240     	b.eq	0x102328 <_binary_BootROM_ums512_0x100000_0x111FFF_bin_start+0x2328>
  1022e4: 91001273     	add	x19, x19, #0x4
  1022e8: f100427f     	cmp	x19, #0x10
  1022ec: 54fffe41     	b.ne	0x1022b4 <_binary_BootROM_ums512_0x100000_0x111FFF_bin_start+0x22b4>
  1022f0: 35000440     	cbnz	w0, 0x102378 <_binary_BootROM_ums512_0x100000_0x111FFF_bin_start+0x2378>
  1022f4: d2a00400     	mov	x0, #0x200000           // =2097152
  1022f8: 94001451     	bl	0x10743c <_binary_BootROM_ums512_0x100000_0x111FFF_bin_start+0x743c>
  1022fc: 52800180     	mov	w0, #0xc                // =12
  102300: 94001574     	bl	0x1078d0 <_binary_BootROM_ums512_0x100000_0x111FFF_bin_start+0x78d0>
  102304: 94000247     	bl	0x102c20 <_binary_BootROM_ums512_0x100000_0x111FFF_bin_start+0x2c20>
  102308: 52800000     	mov	w0, #0x0                // =0
  10230c: 9400024f     	bl	0x102c48 <_binary_BootROM_ums512_0x100000_0x111FFF_bin_start+0x2c48>
  102310: 2a1403e0     	mov	w0, w20
  102314: a94153f3     	ldp	x19, x20, [sp, #0x10]
  102318: a9425bf5     	ldp	x21, x22, [sp, #0x20]
  10231c: f9401bf7     	ldr	x23, [sp, #0x30]
  102320: a8c47bfd     	ldp	x29, x30, [sp], #0x40
  102324: d65f03c0     	ret
  102328: d2a00200     	mov	x0, #0x100000           // =1048576
  10232c: 94001444     	bl	0x10743c <_binary_BootROM_ums512_0x100000_0x111FFF_bin_start+0x743c>
  102330: 528001a0     	mov	w0, #0xd                // =13
  102334: 94001567     	bl	0x1078d0 <_binary_BootROM_ums512_0x100000_0x111FFF_bin_start+0x78d0>
  102338: 52800000     	mov	w0, #0x0                // =0
  10233c: 940001b8     	bl	0x102a1c <_binary_BootROM_ums512_0x100000_0x111FFF_bin_start+0x2a1c>
  102340: 52975000     	mov	w0, #0xba80             // =47744
  102344: 72a03180     	movk	w0, #0x18c, lsl #16
  102348: 9400018d     	bl	0x10297c <_binary_BootROM_ums512_0x100000_0x111FFF_bin_start+0x297c>
  10234c: 5285d400     	mov	w0, #0x2ea0             // =11936
  102350: 72a00c60     	movk	w0, #0x63, lsl #16
  102354: 9400019e     	bl	0x1029cc <_binary_BootROM_ums512_0x100000_0x111FFF_bin_start+0x29cc>
  102358: 52800020     	mov	w0, #0x1                // =1
  10235c: 940001b0     	bl	0x102a1c <_binary_BootROM_ums512_0x100000_0x111FFF_bin_start+0x2a1c>
  102360: d28aa002     	mov	x2, #0x5500             // =21760
  102364: 52801001     	mov	w1, #0x80               // =128
  102368: 52800000     	mov	w0, #0x0                // =0
  10236c: 940002c4     	bl	0x102e7c <_binary_BootROM_ums512_0x100000_0x111FFF_bin_start+0x2e7c>
  102370: 2a0003f4     	mov	w20, w0
  102374: 17ffffe4     	b	0x102304 <_binary_BootROM_ums512_0x100000_0x111FFF_bin_start+0x2304>
  102378: d2a00200     	mov	x0, #0x100000           // =1048576
  10237c: 94001430     	bl	0x10743c <_binary_BootROM_ums512_0x100000_0x111FFF_bin_start+0x743c>
  102380: 528001a0     	mov	w0, #0xd                // =13
  102384: 94001553     	bl	0x1078d0 <_binary_BootROM_ums512_0x100000_0x111FFF_bin_start+0x78d0>
  102388: 17ffffdf     	b	0x102304 <_binary_BootROM_ums512_0x100000_0x111FFF_bin_start+0x2304>
  10238c: a9ba7bfd     	stp	x29, x30, [sp, #-0x60]!
  102390: 910003fd     	mov	x29, sp
  102394: a90153f3     	stp	x19, x20, [sp, #0x10]
  102398: a9025bf5     	stp	x21, x22, [sp, #0x20]
  10239c: f9001bf7     	str	x23, [sp, #0x30]
  1023a0: a9047fbf     	stp	xzr, xzr, [x29, #0x40]
  1023a4: a9057fbf     	stp	xzr, xzr, [x29, #0x50]
  1023a8: 52800053     	mov	w19, #0x2               // =2
  1023ac: d2a01016     	mov	x22, #0x800000          // =8388608
  1023b0: 528001d5     	mov	w21, #0xe               // =14
  1023b4: d28aa014     	mov	x20, #0x5500            // =21760
  1023b8: 52890897     	mov	w23, #0x4844            // =18500
  1023bc: 72a84a97     	movk	w23, #0x4254, lsl #16
  1023c0: 14000007     	b	0x1023dc <_binary_BootROM_ums512_0x100000_0x111FFF_bin_start+0x23dc>
  1023c4: aa1603e0     	mov	x0, x22
  1023c8: 9400141d     	bl	0x10743c <_binary_BootROM_ums512_0x100000_0x111FFF_bin_start+0x743c>
  1023cc: 2a1503e0     	mov	w0, w21
  1023d0: 94001540     	bl	0x1078d0 <_binary_BootROM_ums512_0x100000_0x111FFF_bin_start+0x78d0>
  1023d4: 71000673     	subs	w19, w19, #0x1
  1023d8: 54000320     	b.eq	0x10243c <_binary_BootROM_ums512_0x100000_0x111FFF_bin_start+0x243c>
  1023dc: 97ffffa9     	bl	0x102280 <_binary_BootROM_ums512_0x100000_0x111FFF_bin_start+0x2280>
  1023e0: 34ffff20     	cbz	w0, 0x1023c4 <_binary_BootROM_ums512_0x100000_0x111FFF_bin_start+0x23c4>
  1023e4: b9400280     	ldr	w0, [x20]
  1023e8: 6b17001f     	cmp	w0, w23
  1023ec: 54fffec1     	b.ne	0x1023c4 <_binary_BootROM_ums512_0x100000_0x111FFF_bin_start+0x23c4>
  1023f0: b9403281     	ldr	w1, [x20, #0x30]
  1023f4: 529fffe0     	mov	w0, #0xffff             // =65535
  1023f8: 6b00003f     	cmp	w1, w0
  1023fc: 54fffe48     	b.hi	0x1023c4 <_binary_BootROM_ums512_0x100000_0x111FFF_bin_start+0x23c4>
  102400: d2a00800     	mov	x0, #0x400000           // =4194304
  102404: 9400140e     	bl	0x10743c <_binary_BootROM_ums512_0x100000_0x111FFF_bin_start+0x743c>
  102408: 528001e0     	mov	w0, #0xf                // =15
  10240c: 94001531     	bl	0x1078d0 <_binary_BootROM_ums512_0x100000_0x111FFF_bin_start+0x78d0>
  102410: 39402280     	ldrb	w0, [x20, #0x8]
  102414: 35000240     	cbnz	w0, 0x10245c <_binary_BootROM_ums512_0x100000_0x111FFF_bin_start+0x245c>
  102418: d28aa120     	mov	x0, #0x5509             // =21769
  10241c: d28aa502     	mov	x2, #0x5528             // =21800
  102420: 39400001     	ldrb	w1, [x0]
  102424: 350001c1     	cbnz	w1, 0x10245c <_binary_BootROM_ums512_0x100000_0x111FFF_bin_start+0x245c>
  102428: 91000400     	add	x0, x0, #0x1
  10242c: eb02001f     	cmp	x0, x2
  102430: 54ffff81     	b.ne	0x102420 <_binary_BootROM_ums512_0x100000_0x111FFF_bin_start+0x2420>
  102434: 52800020     	mov	w0, #0x1                // =1
  102438: 14000002     	b	0x102440 <_binary_BootROM_ums512_0x100000_0x111FFF_bin_start+0x2440>
  10243c: 52800000     	mov	w0, #0x0                // =0
  102440: a94153f3     	ldp	x19, x20, [sp, #0x10]
  102444: a9425bf5     	ldp	x21, x22, [sp, #0x20]
  102448: f9401bf7     	ldr	x23, [sp, #0x30]
  10244c: a8c67bfd     	ldp	x29, x30, [sp], #0x60
  102450: d65f03c0     	ret
  102454: 52800020     	mov	w0, #0x1                // =1
  102458: 17fffffa     	b	0x102440 <_binary_BootROM_ums512_0x100000_0x111FFF_bin_start+0x2440>
  10245c: 910103a2     	add	x2, x29, #0x40
  102460: b9403281     	ldr	w1, [x20, #0x30]
  102464: d28ae000     	mov	x0, #0x5700             // =22272
  102468: 940016cc     	bl	0x107f98 <_binary_BootROM_ums512_0x100000_0x111FFF_bin_start+0x7f98>
  10246c: d2800402     	mov	x2, #0x20               // =32
  102470: d28aa101     	mov	x1, #0x5508             // =21768
  102474: 910103a0     	add	x0, x29, #0x40
  102478: 94001a03     	bl	0x108c84 <_binary_BootROM_ums512_0x100000_0x111FFF_bin_start+0x8c84>
  10247c: 34fffec0     	cbz	w0, 0x102454 <_binary_BootROM_ums512_0x100000_0x111FFF_bin_start+0x2454>
  102480: d2802000     	mov	x0, #0x100              // =256
  102484: 940013ee     	bl	0x10743c <_binary_BootROM_ums512_0x100000_0x111FFF_bin_start+0x743c>
  102488: 528002e0     	mov	w0, #0x17               // =23
  10248c: 94001511     	bl	0x1078d0 <_binary_BootROM_ums512_0x100000_0x111FFF_bin_start+0x78d0>
  102490: 17ffffd1     	b	0x1023d4 <_binary_BootROM_ums512_0x100000_0x111FFF_bin_start+0x23d4>
  102494: 00000000     	udf	#0x0
  102498: 0005cc60     	<unknown>
  10249c: 000493e0     	<unknown>
  1024a0: 00030d40     	<unknown>
  1024a4: 000186a0     	<unknown>
  1024a8: a9b97bfd     	stp	x29, x30, [sp, #-0x70]!
  1024ac: 910003fd     	mov	x29, sp
  1024b0: a90153f3     	stp	x19, x20, [sp, #0x10]
  1024b4: a9025bf5     	stp	x21, x22, [sp, #0x20]
  1024b8: a90363f7     	stp	x23, x24, [sp, #0x30]
  1024bc: a9046bf9     	stp	x25, x26, [sp, #0x40]
  1024c0: f9002bfb     	str	x27, [sp, #0x50]
  1024c4: aa0303fa     	mov	x26, x3
  1024c8: d2800703     	mov	x3, #0x38               // =56
  1024cc: f2ae2203     	movk	x3, #0x7110, lsl #16
  1024d0: b9400064     	ldr	w4, [x3]
  1024d4: b900007f     	str	wzr, [x3]
  1024d8: d2800683     	mov	x3, #0x34               // =52
  1024dc: f2ae2203     	movk	x3, #0x7110, lsl #16
  1024e0: b9400064     	ldr	w4, [x3]
  1024e4: b900007f     	str	wzr, [x3]
  1024e8: 12800004     	mov	w4, #-0x1               // =-1
  1024ec: d2800603     	mov	x3, #0x30               // =48
  1024f0: f2ae2203     	movk	x3, #0x7110, lsl #16
  1024f4: b9000064     	str	w4, [x3]
  1024f8: d2800584     	mov	x4, #0x2c               // =44
  1024fc: f2ae2204     	movk	x4, #0x7110, lsl #16
  102500: b9400083     	ldr	w3, [x4]
  102504: 120c6c63     	and	w3, w3, #0xfff0ffff
  102508: 320d0063     	orr	w3, w3, #0x80000
  10250c: b9000083     	str	w3, [x4]
  102510: 90000003     	adrp	x3, 0x102000 <_binary_BootROM_ums512_0x100000_0x111FFF_bin_start+0x2000>
  102514: 913c0064     	add	x4, x3, #0xf00
  102518: 2a0003e5     	mov	w5, w0
  10251c: d37ff8a3     	lsl	x3, x5, #1
  102520: 8b050066     	add	x6, x3, x5
  102524: 8b060c86     	add	x6, x4, x6, lsl #3
  102528: b94008d4     	ldr	w20, [x6, #0x8]
  10252c: b94010d3     	ldr	w19, [x6, #0x10]
  102530: 32110298     	orr	w24, w20, #0x8000
  102534: 7100027f     	cmp	w19, #0x0
  102538: 1a941318     	csel	w24, w24, w20, ne
  10253c: b4002082     	cbz	x2, 0x10294c <_binary_BootROM_ums512_0x100000_0x111FFF_bin_start+0x294c>
  102540: 321d0263     	orr	w3, w19, #0x8
  102544: 2a180078     	orr	w24, w3, w24
  102548: d2800684     	mov	x4, #0x34               // =52
  10254c: f2ae2204     	movk	x4, #0x7110, lsl #16
  102550: b9400083     	ldr	w3, [x4]
  102554: 2a180063     	orr	w3, w3, w24
  102558: b9000083     	str	w3, [x4]
  10255c: 91001084     	add	x4, x4, #0x4
  102560: b9400083     	ldr	w3, [x4]
  102564: 2a030303     	orr	w3, w24, w3
  102568: b9000083     	str	w3, [x4]
  10256c: b9400844     	ldr	w4, [x2, #0x8]
  102570: d2800083     	mov	x3, #0x4                // =4
  102574: f2ae2203     	movk	x3, #0x7110, lsl #16
  102578: b9000064     	str	w4, [x3]
  10257c: b9400c44     	ldr	w4, [x2, #0xc]
  102580: d2ae2203     	mov	x3, #0x71100000         // =1896873984
  102584: b9000064     	str	w4, [x3]
  102588: f9400042     	ldr	x2, [x2]
  10258c: 91016063     	add	x3, x3, #0x58
  102590: b9000062     	str	w2, [x3]
  102594: d360fc42     	lsr	x2, x2, #32
  102598: 91001063     	add	x3, x3, #0x4
  10259c: b9000062     	str	w2, [x3]
  1025a0: 5281f415     	mov	w21, #0xfa0             // =4000
  1025a4: d2800102     	mov	x2, #0x8                // =8
  1025a8: f2ae2202     	movk	x2, #0x7110, lsl #16
  1025ac: b9000041     	str	w1, [x2]
  1025b0: 90000001     	adrp	x1, 0x102000 <_binary_BootROM_ums512_0x100000_0x111FFF_bin_start+0x2000>
  1025b4: 913c0023     	add	x3, x1, #0xf00
  1025b8: 2a0003e0     	mov	w0, w0
  1025bc: d37ff801     	lsl	x1, x0, #1
  1025c0: 8b000022     	add	x2, x1, x0
  1025c4: 8b020c62     	add	x2, x3, x2, lsl #3
  1025c8: b9400444     	ldr	w4, [x2, #0x4]
  1025cc: 8b000022     	add	x2, x1, x0
  1025d0: 8b020c62     	add	x2, x3, x2, lsl #3
  1025d4: b9401442     	ldr	w2, [x2, #0x14]
  1025d8: 8b000021     	add	x1, x1, x0
  1025dc: 8b010c61     	add	x1, x3, x1, lsl #3
  1025e0: b9400c39     	ldr	w25, [x1, #0xc]
  1025e4: b9006fbf     	str	wzr, [x29, #0x6c]
  1025e8: 363005c2     	tbz	w2, #0x6, 0x1026a0 <_binary_BootROM_ums512_0x100000_0x111FFF_bin_start+0x26a0>
  1025ec: b9406fa0     	ldr	w0, [x29, #0x6c]
  1025f0: 320b0000     	orr	w0, w0, #0x200000
  1025f4: b9006fa0     	str	w0, [x29, #0x6c]
  1025f8: 36280082     	tbz	w2, #0x5, 0x102608 <_binary_BootROM_ums512_0x100000_0x111FFF_bin_start+0x2608>
  1025fc: b9406fa0     	ldr	w0, [x29, #0x6c]
  102600: 321b0000     	orr	w0, w0, #0x20
  102604: b9006fa0     	str	w0, [x29, #0x6c]
  102608: 36200082     	tbz	w2, #0x4, 0x102618 <_binary_BootROM_ums512_0x100000_0x111FFF_bin_start+0x2618>
  10260c: b9406fa0     	ldr	w0, [x29, #0x6c]
  102610: 321c0000     	orr	w0, w0, #0x10
  102614: b9006fa0     	str	w0, [x29, #0x6c]
  102618: 361804c2     	tbz	w2, #0x3, 0x1026b0 <_binary_BootROM_ums512_0x100000_0x111FFF_bin_start+0x26b0>
  10261c: b9406fa0     	ldr	w0, [x29, #0x6c]
  102620: 321e0400     	orr	w0, w0, #0xc
  102624: b9006fa0     	str	w0, [x29, #0x6c]
  102628: d2800781     	mov	x1, #0x3c               // =60
  10262c: f2ae2201     	movk	x1, #0x7110, lsl #16
  102630: b9400020     	ldr	w0, [x1]
  102634: 12047800     	and	w0, w0, #0xf7ffffff
  102638: b9000020     	str	w0, [x1]
  10263c: 36080082     	tbz	w2, #0x1, 0x10264c <_binary_BootROM_ums512_0x100000_0x111FFF_bin_start+0x264c>
  102640: b9406fa0     	ldr	w0, [x29, #0x6c]
  102644: 321f0000     	orr	w0, w0, #0x2
  102648: b9006fa0     	str	w0, [x29, #0x6c]
  10264c: 36000082     	tbz	w2, #0x0, 0x10265c <_binary_BootROM_ums512_0x100000_0x111FFF_bin_start+0x265c>
  102650: b9406fa0     	ldr	w0, [x29, #0x6c]
  102654: 32000000     	orr	w0, w0, #0x1
  102658: b9006fa0     	str	w0, [x29, #0x6c]
  10265c: b9406fa0     	ldr	w0, [x29, #0x6c]
  102660: b9006fa0     	str	w0, [x29, #0x6c]
  102664: 7100133f     	cmp	w25, #0x4
  102668: 54000f20     	b.eq	0x10284c <_binary_BootROM_ums512_0x100000_0x111FFF_bin_start+0x284c>
  10266c: 54000429     	b.ls	0x1026f0 <_binary_BootROM_ums512_0x100000_0x111FFF_bin_start+0x26f0>
  102670: 71001f3f     	cmp	w25, #0x7
  102674: 54000fe0     	b.eq	0x102870 <_binary_BootROM_ums512_0x100000_0x111FFF_bin_start+0x2870>
  102678: 54000528     	b.hi	0x10271c <_binary_BootROM_ums512_0x100000_0x111FFF_bin_start+0x271c>
  10267c: 7100173f     	cmp	w25, #0x5
  102680: 54000ee0     	b.eq	0x10285c <_binary_BootROM_ums512_0x100000_0x111FFF_bin_start+0x285c>
  102684: 71001b3f     	cmp	w25, #0x6
  102688: 54000601     	b.ne	0x102748 <_binary_BootROM_ums512_0x100000_0x111FFF_bin_start+0x2748>
  10268c: b9406fa0     	ldr	w0, [x29, #0x6c]
  102690: 52a00341     	mov	w1, #0x1a0000           // =1703936
  102694: 2a010000     	orr	w0, w0, w1
  102698: b9006fa0     	str	w0, [x29, #0x6c]
  10269c: 1400002b     	b	0x102748 <_binary_BootROM_ums512_0x100000_0x111FFF_bin_start+0x2748>
  1026a0: b9406fa0     	ldr	w0, [x29, #0x6c]
  1026a4: 320e0000     	orr	w0, w0, #0x40000
  1026a8: b9006fa0     	str	w0, [x29, #0x6c]
  1026ac: 17ffffd3     	b	0x1025f8 <_binary_BootROM_ums512_0x100000_0x111FFF_bin_start+0x25f8>
  1026b0: 36100142     	tbz	w2, #0x2, 0x1026d8 <_binary_BootROM_ums512_0x100000_0x111FFF_bin_start+0x26d8>
  1026b4: b9406fa0     	ldr	w0, [x29, #0x6c]
  1026b8: 321e0400     	orr	w0, w0, #0xc
  1026bc: b9006fa0     	str	w0, [x29, #0x6c]
  1026c0: d2800781     	mov	x1, #0x3c               // =60
  1026c4: f2ae2201     	movk	x1, #0x7110, lsl #16
  1026c8: b9400020     	ldr	w0, [x1]
  1026cc: 32050000     	orr	w0, w0, #0x8000000
  1026d0: b9000020     	str	w0, [x1]
  1026d4: 17ffffda     	b	0x10263c <_binary_BootROM_ums512_0x100000_0x111FFF_bin_start+0x263c>
  1026d8: d2800781     	mov	x1, #0x3c               // =60
  1026dc: f2ae2201     	movk	x1, #0x7110, lsl #16
  1026e0: b9400020     	ldr	w0, [x1]
  1026e4: 12047800     	and	w0, w0, #0xf7ffffff
  1026e8: b9000020     	str	w0, [x1]
  1026ec: 17ffffd4     	b	0x10263c <_binary_BootROM_ums512_0x100000_0x111FFF_bin_start+0x263c>
  1026f0: 7100073f     	cmp	w25, #0x1
  1026f4: 54000980     	b.eq	0x102824 <_binary_BootROM_ums512_0x100000_0x111FFF_bin_start+0x2824>
  1026f8: 34000259     	cbz	w25, 0x102740 <_binary_BootROM_ums512_0x100000_0x111FFF_bin_start+0x2740>
  1026fc: 71000b3f     	cmp	w25, #0x2
  102700: 540009c0     	b.eq	0x102838 <_binary_BootROM_ums512_0x100000_0x111FFF_bin_start+0x2838>
  102704: 71000f3f     	cmp	w25, #0x3
  102708: 54000201     	b.ne	0x102748 <_binary_BootROM_ums512_0x100000_0x111FFF_bin_start+0x2748>
  10270c: b9406fa0     	ldr	w0, [x29, #0x6c]
  102710: 320f0000     	orr	w0, w0, #0x20000
  102714: b9006fa0     	str	w0, [x29, #0x6c]
  102718: 1400000c     	b	0x102748 <_binary_BootROM_ums512_0x100000_0x111FFF_bin_start+0x2748>
  10271c: 7100233f     	cmp	w25, #0x8
  102720: 54000b20     	b.eq	0x102884 <_binary_BootROM_ums512_0x100000_0x111FFF_bin_start+0x2884>
  102724: 7100273f     	cmp	w25, #0x9
  102728: 54000101     	b.ne	0x102748 <_binary_BootROM_ums512_0x100000_0x111FFF_bin_start+0x2748>
  10272c: b9406fa0     	ldr	w0, [x29, #0x6c]
  102730: 52a00361     	mov	w1, #0x1b0000           // =1769472
  102734: 2a010000     	orr	w0, w0, w1
  102738: b9006fa0     	str	w0, [x29, #0x6c]
  10273c: 14000003     	b	0x102748 <_binary_BootROM_ums512_0x100000_0x111FFF_bin_start+0x2748>
  102740: b9406fa0     	ldr	w0, [x29, #0x6c]
  102744: b9006fa0     	str	w0, [x29, #0x6c]
  102748: b9406fa0     	ldr	w0, [x29, #0x6c]
  10274c: 2a046000     	orr	w0, w0, w4, lsl #24
  102750: b9006fa0     	str	w0, [x29, #0x6c]
  102754: b9406fa1     	ldr	w1, [x29, #0x6c]
  102758: d2800180     	mov	x0, #0xc                // =12
  10275c: f2ae2200     	movk	x0, #0x7110, lsl #16
  102760: b9000001     	str	w1, [x0]
  102764: 94001298     	bl	0x1071c4 <_binary_BootROM_ums512_0x100000_0x111FFF_bin_start+0x71c4>
  102768: 2a0003f6     	mov	w22, w0
  10276c: d2800600     	mov	x0, #0x30               // =48
  102770: f2ae2200     	movk	x0, #0x7110, lsl #16
  102774: b9400000     	ldr	w0, [x0]
  102778: 6a00027b     	ands	w27, w19, w0
  10277c: 540008e1     	b.ne	0x102898 <_binary_BootROM_ums512_0x100000_0x111FFF_bin_start+0x2898>
  102780: 6a20029f     	bics	wzr, w20, w0
  102784: 54000180     	b.eq	0x1027b4 <_binary_BootROM_ums512_0x100000_0x111FFF_bin_start+0x27b4>
  102788: d2800617     	mov	x23, #0x30              // =48
  10278c: f2ae2217     	movk	x23, #0x7110, lsl #16
  102790: 9400128d     	bl	0x1071c4 <_binary_BootROM_ums512_0x100000_0x111FFF_bin_start+0x71c4>
  102794: 4b160000     	sub	w0, w0, w22
  102798: 6b0002bf     	cmp	w21, w0
  10279c: 54000d49     	b.ls	0x102944 <_binary_BootROM_ums512_0x100000_0x111FFF_bin_start+0x2944>
  1027a0: b94002e0     	ldr	w0, [x23]
  1027a4: 6a000261     	ands	w1, w19, w0
  1027a8: 540007a1     	b.ne	0x10289c <_binary_BootROM_ums512_0x100000_0x111FFF_bin_start+0x289c>
  1027ac: 6a20029f     	bics	wzr, w20, w0
  1027b0: 54ffff01     	b.ne	0x102790 <_binary_BootROM_ums512_0x100000_0x111FFF_bin_start+0x2790>
  1027b4: d2800600     	mov	x0, #0x30               // =48
  1027b8: f2ae2200     	movk	x0, #0x7110, lsl #16
  1027bc: b9000018     	str	w24, [x0]
  1027c0: d2800200     	mov	x0, #0x10               // =16
  1027c4: f2ae2200     	movk	x0, #0x7110, lsl #16
  1027c8: b9400000     	ldr	w0, [x0]
  1027cc: d2800281     	mov	x1, #0x14               // =20
  1027d0: f2ae2201     	movk	x1, #0x7110, lsl #16
  1027d4: b9400021     	ldr	w1, [x1]
  1027d8: d2800302     	mov	x2, #0x18               // =24
  1027dc: f2ae2202     	movk	x2, #0x7110, lsl #16
  1027e0: b9400042     	ldr	w2, [x2]
  1027e4: d2800383     	mov	x3, #0x1c               // =28
  1027e8: f2ae2203     	movk	x3, #0x7110, lsl #16
  1027ec: b9400063     	ldr	w3, [x3]
  1027f0: 71000b3f     	cmp	w25, #0x2
  1027f4: 54000720     	b.eq	0x1028d8 <_binary_BootROM_ums512_0x100000_0x111FFF_bin_start+0x28d8>
  1027f8: 540006a8     	b.hi	0x1028cc <_binary_BootROM_ums512_0x100000_0x111FFF_bin_start+0x28cc>
  1027fc: 7100073f     	cmp	w25, #0x1
  102800: 54000561     	b.ne	0x1028ac <_binary_BootROM_ums512_0x100000_0x111FFF_bin_start+0x28ac>
  102804: 53187c01     	lsr	w1, w0, #24
  102808: 39000341     	strb	w1, [x26]
  10280c: 53107c01     	lsr	w1, w0, #16
  102810: 39000741     	strb	w1, [x26, #0x1]
  102814: 53087c01     	lsr	w1, w0, #8
  102818: 39000b41     	strb	w1, [x26, #0x2]
  10281c: 39000f40     	strb	w0, [x26, #0x3]
  102820: 14000023     	b	0x1028ac <_binary_BootROM_ums512_0x100000_0x111FFF_bin_start+0x28ac>
  102824: b9406fa0     	ldr	w0, [x29, #0x6c]
  102828: 52a00341     	mov	w1, #0x1a0000           // =1703936
  10282c: 2a010000     	orr	w0, w0, w1
  102830: b9006fa0     	str	w0, [x29, #0x6c]
  102834: 17ffffc5     	b	0x102748 <_binary_BootROM_ums512_0x100000_0x111FFF_bin_start+0x2748>
  102838: b9406fa0     	ldr	w0, [x29, #0x6c]
  10283c: 52a00121     	mov	w1, #0x90000            // =589824
  102840: 2a010000     	orr	w0, w0, w1
  102844: b9006fa0     	str	w0, [x29, #0x6c]
  102848: 17ffffc0     	b	0x102748 <_binary_BootROM_ums512_0x100000_0x111FFF_bin_start+0x2748>
  10284c: b9406fa0     	ldr	w0, [x29, #0x6c]
  102850: 320f0000     	orr	w0, w0, #0x20000
  102854: b9006fa0     	str	w0, [x29, #0x6c]
  102858: 17ffffbc     	b	0x102748 <_binary_BootROM_ums512_0x100000_0x111FFF_bin_start+0x2748>
  10285c: b9406fa0     	ldr	w0, [x29, #0x6c]
  102860: 52a00341     	mov	w1, #0x1a0000           // =1703936
  102864: 2a010000     	orr	w0, w0, w1
  102868: b9006fa0     	str	w0, [x29, #0x6c]
  10286c: 17ffffb7     	b	0x102748 <_binary_BootROM_ums512_0x100000_0x111FFF_bin_start+0x2748>
  102870: b9406fa0     	ldr	w0, [x29, #0x6c]
  102874: 52a00341     	mov	w1, #0x1a0000           // =1703936
  102878: 2a010000     	orr	w0, w0, w1
  10287c: b9006fa0     	str	w0, [x29, #0x6c]
  102880: 17ffffb2     	b	0x102748 <_binary_BootROM_ums512_0x100000_0x111FFF_bin_start+0x2748>
  102884: b9406fa0     	ldr	w0, [x29, #0x6c]
  102888: 52a00361     	mov	w1, #0x1b0000           // =1769472
  10288c: 2a010000     	orr	w0, w0, w1
  102890: b9006fa0     	str	w0, [x29, #0x6c]
  102894: 17ffffad     	b	0x102748 <_binary_BootROM_ums512_0x100000_0x111FFF_bin_start+0x2748>
  102898: 2a1b03e1     	mov	w1, w27
  10289c: d2800600     	mov	x0, #0x30               // =48
  1028a0: f2ae2200     	movk	x0, #0x7110, lsl #16
  1028a4: b9000018     	str	w24, [x0]
  1028a8: 2a0103fb     	mov	w27, w1
  1028ac: 2a1b03e0     	mov	w0, w27
  1028b0: a94153f3     	ldp	x19, x20, [sp, #0x10]
  1028b4: a9425bf5     	ldp	x21, x22, [sp, #0x20]
  1028b8: a94363f7     	ldp	x23, x24, [sp, #0x30]
  1028bc: a9446bf9     	ldp	x25, x26, [sp, #0x40]
  1028c0: f9402bfb     	ldr	x27, [sp, #0x50]
  1028c4: a8c77bfd     	ldp	x29, x30, [sp], #0x70
  1028c8: d65f03c0     	ret
  1028cc: 7100273f     	cmp	w25, #0x9
  1028d0: 54fffee8     	b.hi	0x1028ac <_binary_BootROM_ums512_0x100000_0x111FFF_bin_start+0x28ac>
  1028d4: 17ffffcc     	b	0x102804 <_binary_BootROM_ums512_0x100000_0x111FFF_bin_start+0x2804>
  1028d8: 53107c64     	lsr	w4, w3, #16
  1028dc: 39000344     	strb	w4, [x26]
  1028e0: 53087c64     	lsr	w4, w3, #8
  1028e4: 39000744     	strb	w4, [x26, #0x1]
  1028e8: 39000b43     	strb	w3, [x26, #0x2]
  1028ec: 53187c43     	lsr	w3, w2, #24
  1028f0: 39000f43     	strb	w3, [x26, #0x3]
  1028f4: 53107c43     	lsr	w3, w2, #16
  1028f8: 39001343     	strb	w3, [x26, #0x4]
  1028fc: 53087c43     	lsr	w3, w2, #8
  102900: 39001743     	strb	w3, [x26, #0x5]
  102904: 39001b42     	strb	w2, [x26, #0x6]
  102908: 53187c22     	lsr	w2, w1, #24
  10290c: 39001f42     	strb	w2, [x26, #0x7]
  102910: 53107c22     	lsr	w2, w1, #16
  102914: 39002342     	strb	w2, [x26, #0x8]
  102918: 53087c22     	lsr	w2, w1, #8
  10291c: 39002742     	strb	w2, [x26, #0x9]
  102920: 39002b41     	strb	w1, [x26, #0xa]
  102924: 53187c01     	lsr	w1, w0, #24
  102928: 39002f41     	strb	w1, [x26, #0xb]
  10292c: 53107c01     	lsr	w1, w0, #16
  102930: 39003341     	strb	w1, [x26, #0xc]
  102934: 53087c01     	lsr	w1, w0, #8
  102938: 39003741     	strb	w1, [x26, #0xd]
  10293c: 39003b40     	strb	w0, [x26, #0xe]
  102940: 17ffffdb     	b	0x1028ac <_binary_BootROM_ums512_0x100000_0x111FFF_bin_start+0x28ac>
  102944: 1280001b     	mov	w27, #-0x1              // =-1
  102948: 17ffffd9     	b	0x1028ac <_binary_BootROM_ums512_0x100000_0x111FFF_bin_start+0x28ac>
  10294c: 2a130318     	orr	w24, w24, w19
  102950: d2800683     	mov	x3, #0x34               // =52
  102954: f2ae2203     	movk	x3, #0x7110, lsl #16
  102958: b9400062     	ldr	w2, [x3]
  10295c: 2a180042     	orr	w2, w2, w24
  102960: b9000062     	str	w2, [x3]
  102964: 91001063     	add	x3, x3, #0x4
  102968: b9400062     	ldr	w2, [x3]
  10296c: 2a180042     	orr	w2, w2, w24
  102970: b9000062     	str	w2, [x3]
  102974: 52803e95     	mov	w21, #0x1f4             // =500
  102978: 17ffff0b     	b	0x1025a4 <_binary_BootROM_ums512_0x100000_0x111FFF_bin_start+0x25a4>
  10297c: d2801001     	mov	x1, #0x80               // =128
  102980: f2a40401     	movk	x1, #0x2020, lsl #16
  102984: b9400022     	ldr	w2, [x1]
  102988: 121d7042     	and	w2, w2, #0xfffffff8
  10298c: b9000022     	str	w2, [x1]
  102990: b9400022     	ldr	w2, [x1]
  102994: 32000042     	orr	w2, w2, #0x1
  102998: b9000022     	str	w2, [x1]
  10299c: 52975001     	mov	w1, #0xba80             // =47744
  1029a0: 72a03181     	movk	w1, #0x18c, lsl #16
  1029a4: 6b01001f     	cmp	w0, w1
  1029a8: 540000c0     	b.eq	0x1029c0 <_binary_BootROM_ums512_0x100000_0x111FFF_bin_start+0x29c0>
  1029ac: 52975001     	mov	w1, #0xba80             // =47744
  1029b0: 72a03181     	movk	w1, #0x18c, lsl #16
  1029b4: 90fff800     	adrp	x0, 0x2000
  1029b8: b9000401     	str	w1, [x0, #0x4]
  1029bc: d65f03c0     	ret
  1029c0: 90fff800     	adrp	x0, 0x2000
  1029c4: b9000401     	str	w1, [x0, #0x4]
  1029c8: d65f03c0     	ret
  1029cc: 90fff802     	adrp	x2, 0x2000
  1029d0: 531e7400     	lsl	w0, w0, #2
  1029d4: b9400441     	ldr	w1, [x2, #0x4]
  1029d8: 1ac00820     	udiv	w0, w1, w0
  1029dc: d2800583     	mov	x3, #0x2c               // =44
  1029e0: f2ae2203     	movk	x3, #0x7110, lsl #16
  1029e4: b9400061     	ldr	w1, [x3]
  1029e8: 12105421     	and	w1, w1, #0xffff003f
  1029ec: 2a002021     	orr	w1, w1, w0, lsl #8
  1029f0: b9000061     	str	w1, [x3]
  1029f4: 91077063     	add	x3, x3, #0x1dc
  1029f8: b9400061     	ldr	w1, [x3]
  1029fc: 52840004     	mov	w4, #0x2000             // =8192
  102a00: 72a00404     	movk	w4, #0x20, lsl #16
  102a04: 2a040021     	orr	w1, w1, w4
  102a08: b9000061     	str	w1, [x3]
  102a0c: 531e7400     	lsl	w0, w0, #2
  102a10: b9400441     	ldr	w1, [x2, #0x4]
  102a14: 1ac00820     	udiv	w0, w1, w0
  102a18: d65f03c0     	ret
  102a1c: 350001e0     	cbnz	w0, 0x102a58 <_binary_BootROM_ums512_0x100000_0x111FFF_bin_start+0x2a58>
  102a20: d2800580     	mov	x0, #0x2c               // =44
  102a24: f2ae2200     	movk	x0, #0x7110, lsl #16
  102a28: b9400001     	ldr	w1, [x0]
  102a2c: 121d7821     	and	w1, w1, #0xfffffffb
  102a30: b9000001     	str	w1, [x0]
  102a34: b9400001     	ldr	w1, [x0]
  102a38: 121f7821     	and	w1, w1, #0xfffffffe
  102a3c: b9000001     	str	w1, [x0]
  102a40: d2802681     	mov	x1, #0x134              // =308
  102a44: f2a64fa1     	movk	x1, #0x327d, lsl #16
  102a48: b9400020     	ldr	w0, [x1]
  102a4c: 121d7800     	and	w0, w0, #0xfffffffb
  102a50: b9000020     	str	w0, [x1]
  102a54: d65f03c0     	ret
  102a58: a9bd7bfd     	stp	x29, x30, [sp, #-0x30]!
  102a5c: 910003fd     	mov	x29, sp
  102a60: a90153f3     	stp	x19, x20, [sp, #0x10]
  102a64: f90013f5     	str	x21, [sp, #0x20]
  102a68: d2802681     	mov	x1, #0x134              // =308
  102a6c: f2a64fa1     	movk	x1, #0x327d, lsl #16
  102a70: b9400020     	ldr	w0, [x1]
  102a74: 321e0000     	orr	w0, w0, #0x4
  102a78: b9000020     	str	w0, [x1]
  102a7c: d2800580     	mov	x0, #0x2c               // =44
  102a80: f2ae2200     	movk	x0, #0x7110, lsl #16
  102a84: b9400001     	ldr	w1, [x0]
  102a88: 32000021     	orr	w1, w1, #0x1
  102a8c: b9000001     	str	w1, [x0]
  102a90: b9400013     	ldr	w19, [x0]
  102a94: 940011cc     	bl	0x1071c4 <_binary_BootROM_ums512_0x100000_0x111FFF_bin_start+0x71c4>
  102a98: 2a0003f5     	mov	w21, w0
  102a9c: 37080133     	tbnz	w19, #0x1, 0x102ac0 <_binary_BootROM_ums512_0x100000_0x111FFF_bin_start+0x2ac0>
  102aa0: d2800594     	mov	x20, #0x2c              // =44
  102aa4: f2ae2214     	movk	x20, #0x7110, lsl #16
  102aa8: b9400293     	ldr	w19, [x20]
  102aac: 940011c6     	bl	0x1071c4 <_binary_BootROM_ums512_0x100000_0x111FFF_bin_start+0x71c4>
  102ab0: 37080093     	tbnz	w19, #0x1, 0x102ac0 <_binary_BootROM_ums512_0x100000_0x111FFF_bin_start+0x2ac0>
  102ab4: 4b150000     	sub	w0, w0, w21
  102ab8: 71018c1f     	cmp	w0, #0x63
  102abc: 54ffff69     	b.ls	0x102aa8 <_binary_BootROM_ums512_0x100000_0x111FFF_bin_start+0x2aa8>
  102ac0: d2800581     	mov	x1, #0x2c               // =44
  102ac4: f2ae2201     	movk	x1, #0x7110, lsl #16
  102ac8: b9400020     	ldr	w0, [x1]
  102acc: 321e0000     	orr	w0, w0, #0x4
  102ad0: b9000020     	str	w0, [x1]
  102ad4: a94153f3     	ldp	x19, x20, [sp, #0x10]
  102ad8: f94013f5     	ldr	x21, [sp, #0x20]
  102adc: a8c37bfd     	ldp	x29, x30, [sp], #0x30
  102ae0: d65f03c0     	ret
  102ae4: a9bd7bfd     	stp	x29, x30, [sp, #-0x30]!
  102ae8: 910003fd     	mov	x29, sp
  102aec: a90153f3     	stp	x19, x20, [sp, #0x10]
  102af0: f90013f5     	str	x21, [sp, #0x20]
  102af4: d2ae2001     	mov	x1, #0x71000000         // =1895825408
  102af8: b9400020     	ldr	w0, [x1]
  102afc: 320a0000     	orr	w0, w0, #0x400000
  102b00: b9000020     	str	w0, [x1]
  102b04: 91001021     	add	x1, x1, #0x4
  102b08: b9400020     	ldr	w0, [x1]
  102b0c: 32100000     	orr	w0, w0, #0x10000
  102b10: b9000020     	str	w0, [x1]
  102b14: 52801fe0     	mov	w0, #0xff               // =255
  102b18: 71000400     	subs	w0, w0, #0x1
  102b1c: 54ffffe1     	b.ne	0x102b18 <_binary_BootROM_ums512_0x100000_0x111FFF_bin_start+0x2b18>
  102b20: d2800081     	mov	x1, #0x4                // =4
  102b24: f2ae2001     	movk	x1, #0x7100, lsl #16
  102b28: b9400020     	ldr	w0, [x1]
  102b2c: 120f7800     	and	w0, w0, #0xfffeffff
  102b30: b9000020     	str	w0, [x1]
  102b34: 94001127     	bl	0x106fd0 <_binary_BootROM_ums512_0x100000_0x111FFF_bin_start+0x6fd0>
  102b38: d2801a00     	mov	x0, #0xd0               // =208
  102b3c: f2a648a0     	movk	x0, #0x3245, lsl #16
  102b40: b900001f     	str	wzr, [x0]
  102b44: d2801980     	mov	x0, #0xcc               // =204
  102b48: f2a648a0     	movk	x0, #0x3245, lsl #16
  102b4c: b900001f     	str	wzr, [x0]
  102b50: d2801780     	mov	x0, #0xbc               // =188
  102b54: f2a648a0     	movk	x0, #0x3245, lsl #16
  102b58: b900001f     	str	wzr, [x0]
  102b5c: 91001000     	add	x0, x0, #0x4
  102b60: b900001f     	str	wzr, [x0]
  102b64: 91001000     	add	x0, x0, #0x4
  102b68: b900001f     	str	wzr, [x0]
  102b6c: 91001000     	add	x0, x0, #0x4
  102b70: b900001f     	str	wzr, [x0]
  102b74: 52801000     	mov	w0, #0x80               // =128
  102b78: 72a00300     	movk	w0, #0x18, lsl #16
  102b7c: d2809a01     	mov	x1, #0x4d0              // =1232
  102b80: f2a648a1     	movk	x1, #0x3245, lsl #16
  102b84: b9000020     	str	w0, [x1]
  102b88: d2809981     	mov	x1, #0x4cc              // =1228
  102b8c: f2a648a1     	movk	x1, #0x3245, lsl #16
  102b90: b9000020     	str	w0, [x1]
  102b94: d2809781     	mov	x1, #0x4bc              // =1212
  102b98: f2a648a1     	movk	x1, #0x3245, lsl #16
  102b9c: b9000020     	str	w0, [x1]
  102ba0: 91001021     	add	x1, x1, #0x4
  102ba4: b9000020     	str	w0, [x1]
  102ba8: 91001021     	add	x1, x1, #0x4
  102bac: b9000020     	str	w0, [x1]
  102bb0: 52a00501     	mov	w1, #0x280000           // =2621440
  102bb4: d2809900     	mov	x0, #0x4c8              // =1224
  102bb8: f2a648a0     	movk	x0, #0x3245, lsl #16
  102bbc: b9000001     	str	w1, [x0]
  102bc0: 52975000     	mov	w0, #0xba80             // =47744
  102bc4: 72a03180     	movk	w0, #0x18c, lsl #16
  102bc8: 97ffff6d     	bl	0x10297c <_binary_BootROM_ums512_0x100000_0x111FFF_bin_start+0x297c>
  102bcc: d2800580     	mov	x0, #0x2c               // =44
  102bd0: f2ae2200     	movk	x0, #0x7110, lsl #16
  102bd4: b9400001     	ldr	w1, [x0]
  102bd8: 32080021     	orr	w1, w1, #0x1000000
  102bdc: b9000001     	str	w1, [x0]
  102be0: b9400013     	ldr	w19, [x0]
  102be4: 94001178     	bl	0x1071c4 <_binary_BootROM_ums512_0x100000_0x111FFF_bin_start+0x71c4>
  102be8: 2a0003f5     	mov	w21, w0
  102bec: 36c00133     	tbz	w19, #0x18, 0x102c10 <_binary_BootROM_ums512_0x100000_0x111FFF_bin_start+0x2c10>
  102bf0: d2800594     	mov	x20, #0x2c              // =44
  102bf4: f2ae2214     	movk	x20, #0x7110, lsl #16
  102bf8: b9400293     	ldr	w19, [x20]
  102bfc: 94001172     	bl	0x1071c4 <_binary_BootROM_ums512_0x100000_0x111FFF_bin_start+0x71c4>
  102c00: 36c00093     	tbz	w19, #0x18, 0x102c10 <_binary_BootROM_ums512_0x100000_0x111FFF_bin_start+0x2c10>
  102c04: 4b150000     	sub	w0, w0, w21
  102c08: 71018c1f     	cmp	w0, #0x63
  102c0c: 54ffff69     	b.ls	0x102bf8 <_binary_BootROM_ums512_0x100000_0x111FFF_bin_start+0x2bf8>
  102c10: a94153f3     	ldp	x19, x20, [sp, #0x10]
  102c14: f94013f5     	ldr	x21, [sp, #0x20]
  102c18: a8c37bfd     	ldp	x29, x30, [sp], #0x30
  102c1c: d65f03c0     	ret
  102c20: a9bf7bfd     	stp	x29, x30, [sp, #-0x10]!
  102c24: 910003fd     	mov	x29, sp
  102c28: 52800000     	mov	w0, #0x0                // =0
  102c2c: 97ffff7c     	bl	0x102a1c <_binary_BootROM_ums512_0x100000_0x111FFF_bin_start+0x2a1c>
  102c30: d2ae2001     	mov	x1, #0x71000000         // =1895825408
  102c34: b9400020     	ldr	w0, [x1]
  102c38: 12097800     	and	w0, w0, #0xffbfffff
  102c3c: b9000020     	str	w0, [x1]
  102c40: a8c17bfd     	ldp	x29, x30, [sp], #0x10
  102c44: d65f03c0     	ret
  102c48: d65f03c0     	ret
  102c4c: a9be7bfd     	stp	x29, x30, [sp, #-0x20]!
  102c50: 910003fd     	mov	x29, sp
  102c54: d0fff801     	adrp	x1, 0x4000
  102c58: b9400821     	ldr	w1, [x1, #0x8]
  102c5c: 7100003f     	cmp	w1, #0x0
  102c60: 910043a3     	add	x3, x29, #0x10
  102c64: d2800002     	mov	x2, #0x0                // =0
  102c68: 52804001     	mov	w1, #0x200              // =512
  102c6c: 1a810001     	csel	w1, w0, w1, eq
  102c70: 52800120     	mov	w0, #0x9                // =9
  102c74: 97fffe0d     	bl	0x1024a8 <_binary_BootROM_ums512_0x100000_0x111FFF_bin_start+0x24a8>
  102c78: 7100001f     	cmp	w0, #0x0
  102c7c: 1a9f17e0     	cset	w0, eq
  102c80: a8c27bfd     	ldp	x29, x30, [sp], #0x20
  102c84: d65f03c0     	ret
  102c88: a9bc7bfd     	stp	x29, x30, [sp, #-0x40]!
  102c8c: 910003fd     	mov	x29, sp
  102c90: a90153f3     	stp	x19, x20, [sp, #0x10]
  102c94: a9025bf5     	stp	x21, x22, [sp, #0x20]
  102c98: 9100c3a3     	add	x3, x29, #0x30
  102c9c: d2800002     	mov	x2, #0x0                // =0
  102ca0: 52800001     	mov	w1, #0x0                // =0
  102ca4: 52800000     	mov	w0, #0x0                // =0
  102ca8: 97fffe00     	bl	0x1024a8 <_binary_BootROM_ums512_0x100000_0x111FFF_bin_start+0x24a8>
  102cac: 52800001     	mov	w1, #0x0                // =0
  102cb0: 340000c0     	cbz	w0, 0x102cc8 <_binary_BootROM_ums512_0x100000_0x111FFF_bin_start+0x2cc8>
  102cb4: 2a0103e0     	mov	w0, w1
  102cb8: a94153f3     	ldp	x19, x20, [sp, #0x10]
  102cbc: a9425bf5     	ldp	x21, x22, [sp, #0x20]
  102cc0: a8c47bfd     	ldp	x29, x30, [sp], #0x40
  102cc4: d65f03c0     	ret
  102cc8: 9100c3a3     	add	x3, x29, #0x30
  102ccc: d2800002     	mov	x2, #0x0                // =0
  102cd0: 52803541     	mov	w1, #0x1aa              // =426
  102cd4: 528000a0     	mov	w0, #0x5                // =5
  102cd8: 97fffdf4     	bl	0x1024a8 <_binary_BootROM_ums512_0x100000_0x111FFF_bin_start+0x24a8>
  102cdc: 35000080     	cbnz	w0, 0x102cec <_binary_BootROM_ums512_0x100000_0x111FFF_bin_start+0x2cec>
  102ce0: 3940cfa0     	ldrb	w0, [x29, #0x33]
  102ce4: 7102a81f     	cmp	w0, #0xaa
  102ce8: 54000060     	b.eq	0x102cf4 <_binary_BootROM_ums512_0x100000_0x111FFF_bin_start+0x2cf4>
  102cec: 52800001     	mov	w1, #0x0                // =0
  102cf0: 17fffff1     	b	0x102cb4 <_binary_BootROM_ums512_0x100000_0x111FFF_bin_start+0x2cb4>
  102cf4: 3940cba0     	ldrb	w0, [x29, #0x32]
  102cf8: 7100041f     	cmp	w0, #0x1
  102cfc: 54ffff81     	b.ne	0x102cec <_binary_BootROM_ums512_0x100000_0x111FFF_bin_start+0x2cec>
  102d00: 94001131     	bl	0x1071c4 <_binary_BootROM_ums512_0x100000_0x111FFF_bin_start+0x71c4>
  102d04: 2a0003f6     	mov	w22, w0
  102d08: 528001f3     	mov	w19, #0xf               // =15
  102d0c: 52900015     	mov	w21, #0x8000            // =32768
  102d10: 72a81ff5     	movk	w21, #0x40ff, lsl #16
  102d14: 52800254     	mov	w20, #0x12              // =18
  102d18: 9100c3a3     	add	x3, x29, #0x30
  102d1c: d2800002     	mov	x2, #0x0                // =0
  102d20: 52800001     	mov	w1, #0x0                // =0
  102d24: 2a1303e0     	mov	w0, w19
  102d28: 97fffde0     	bl	0x1024a8 <_binary_BootROM_ums512_0x100000_0x111FFF_bin_start+0x24a8>
  102d2c: 350001a0     	cbnz	w0, 0x102d60 <_binary_BootROM_ums512_0x100000_0x111FFF_bin_start+0x2d60>
  102d30: 9100c3a3     	add	x3, x29, #0x30
  102d34: d2800002     	mov	x2, #0x0                // =0
  102d38: 2a1503e1     	mov	w1, w21
  102d3c: 2a1403e0     	mov	w0, w20
  102d40: 97fffdda     	bl	0x1024a8 <_binary_BootROM_ums512_0x100000_0x111FFF_bin_start+0x24a8>
  102d44: 350000e0     	cbnz	w0, 0x102d60 <_binary_BootROM_ums512_0x100000_0x111FFF_bin_start+0x2d60>
  102d48: 3940c3a0     	ldrb	w0, [x29, #0x30]
  102d4c: 373800e0     	tbnz	w0, #0x7, 0x102d68 <_binary_BootROM_ums512_0x100000_0x111FFF_bin_start+0x2d68>
  102d50: 9400111d     	bl	0x1071c4 <_binary_BootROM_ums512_0x100000_0x111FFF_bin_start+0x71c4>
  102d54: 4b160000     	sub	w0, w0, w22
  102d58: 713e801f     	cmp	w0, #0xfa0
  102d5c: 54fffde9     	b.ls	0x102d18 <_binary_BootROM_ums512_0x100000_0x111FFF_bin_start+0x2d18>
  102d60: 52800001     	mov	w1, #0x0                // =0
  102d64: 17ffffd4     	b	0x102cb4 <_binary_BootROM_ums512_0x100000_0x111FFF_bin_start+0x2cb4>
  102d68: 36300440     	tbz	w0, #0x6, 0x102df0 <_binary_BootROM_ums512_0x100000_0x111FFF_bin_start+0x2df0>
  102d6c: 52800021     	mov	w1, #0x1                // =1
  102d70: d0fff800     	adrp	x0, 0x4000
  102d74: b9000801     	str	w1, [x0, #0x8]
  102d78: 9100c3a3     	add	x3, x29, #0x30
  102d7c: d2800002     	mov	x2, #0x0                // =0
  102d80: 52800001     	mov	w1, #0x0                // =0
  102d84: 52800020     	mov	w0, #0x1                // =1
  102d88: 97fffdc8     	bl	0x1024a8 <_binary_BootROM_ums512_0x100000_0x111FFF_bin_start+0x24a8>
  102d8c: 52800001     	mov	w1, #0x0                // =0
  102d90: 35fff920     	cbnz	w0, 0x102cb4 <_binary_BootROM_ums512_0x100000_0x111FFF_bin_start+0x2cb4>
  102d94: 9100c3a3     	add	x3, x29, #0x30
  102d98: d2800002     	mov	x2, #0x0                // =0
  102d9c: 52800001     	mov	w1, #0x0                // =0
  102da0: 52800040     	mov	w0, #0x2                // =2
  102da4: 97fffdc1     	bl	0x1024a8 <_binary_BootROM_ums512_0x100000_0x111FFF_bin_start+0x24a8>
  102da8: 52800001     	mov	w1, #0x0                // =0
  102dac: 35fff840     	cbnz	w0, 0x102cb4 <_binary_BootROM_ums512_0x100000_0x111FFF_bin_start+0x2cb4>
  102db0: 3940c3a0     	ldrb	w0, [x29, #0x30]
  102db4: 53181c00     	ubfiz	w0, w0, #8, #8
  102db8: 3940c7a1     	ldrb	w1, [x29, #0x31]
  102dbc: 2a000021     	orr	w1, w1, w0
  102dc0: 9100c3a3     	add	x3, x29, #0x30
  102dc4: d2800002     	mov	x2, #0x0                // =0
  102dc8: 53103c21     	lsl	w1, w1, #16
  102dcc: 52800080     	mov	w0, #0x4                // =4
  102dd0: 97fffdb6     	bl	0x1024a8 <_binary_BootROM_ums512_0x100000_0x111FFF_bin_start+0x24a8>
  102dd4: 52800001     	mov	w1, #0x0                // =0
  102dd8: 35fff6e0     	cbnz	w0, 0x102cb4 <_binary_BootROM_ums512_0x100000_0x111FFF_bin_start+0x2cb4>
  102ddc: 52804000     	mov	w0, #0x200              // =512
  102de0: 97ffff9b     	bl	0x102c4c <_binary_BootROM_ums512_0x100000_0x111FFF_bin_start+0x2c4c>
  102de4: 7100001f     	cmp	w0, #0x0
  102de8: 1a9f07e1     	cset	w1, ne
  102dec: 17ffffb2     	b	0x102cb4 <_binary_BootROM_ums512_0x100000_0x111FFF_bin_start+0x2cb4>
  102df0: d0fff800     	adrp	x0, 0x4000
  102df4: b900081f     	str	wzr, [x0, #0x8]
  102df8: 17ffffe0     	b	0x102d78 <_binary_BootROM_ums512_0x100000_0x111FFF_bin_start+0x2d78>
  102dfc: a9bd7bfd     	stp	x29, x30, [sp, #-0x30]!
  102e00: 910003fd     	mov	x29, sp
  102e04: d0fff803     	adrp	x3, 0x4000
  102e08: b9400863     	ldr	w3, [x3, #0x8]
  102e0c: 53175804     	lsl	w4, w0, #9
  102e10: 7100007f     	cmp	w3, #0x0
  102e14: 52804003     	mov	w3, #0x200              // =512
  102e18: b9001ba3     	str	w3, [x29, #0x18]
  102e1c: b9001fa1     	str	w1, [x29, #0x1c]
  102e20: f9000ba2     	str	x2, [x29, #0x10]
  102e24: 910083a3     	add	x3, x29, #0x20
  102e28: 910043a2     	add	x2, x29, #0x10
  102e2c: 1a800081     	csel	w1, w4, w0, eq
  102e30: 528001c0     	mov	w0, #0xe                // =14
  102e34: 97fffd9d     	bl	0x1024a8 <_binary_BootROM_ums512_0x100000_0x111FFF_bin_start+0x24a8>
  102e38: 35000140     	cbnz	w0, 0x102e60 <_binary_BootROM_ums512_0x100000_0x111FFF_bin_start+0x2e60>
  102e3c: 910083a3     	add	x3, x29, #0x20
  102e40: d2800002     	mov	x2, #0x0                // =0
  102e44: 52800001     	mov	w1, #0x0                // =0
  102e48: 528000e0     	mov	w0, #0x7                // =7
  102e4c: 97fffd97     	bl	0x1024a8 <_binary_BootROM_ums512_0x100000_0x111FFF_bin_start+0x24a8>
  102e50: 7100001f     	cmp	w0, #0x0
  102e54: 1a9f17e0     	cset	w0, eq
  102e58: a8c37bfd     	ldp	x29, x30, [sp], #0x30
  102e5c: d65f03c0     	ret
  102e60: 910083a3     	add	x3, x29, #0x20
  102e64: d2800002     	mov	x2, #0x0                // =0
  102e68: 52800001     	mov	w1, #0x0                // =0
  102e6c: 528000e0     	mov	w0, #0x7                // =7
  102e70: 97fffd8e     	bl	0x1024a8 <_binary_BootROM_ums512_0x100000_0x111FFF_bin_start+0x24a8>
  102e74: 52800000     	mov	w0, #0x0                // =0
  102e78: 17fffff8     	b	0x102e58 <_binary_BootROM_ums512_0x100000_0x111FFF_bin_start+0x2e58>
  102e7c: a9bd7bfd     	stp	x29, x30, [sp, #-0x30]!
  102e80: 910003fd     	mov	x29, sp
  102e84: d0fff803     	adrp	x3, 0x4000
  102e88: b9400863     	ldr	w3, [x3, #0x8]
  102e8c: 53175804     	lsl	w4, w0, #9
  102e90: 7100007f     	cmp	w3, #0x0
  102e94: 52804003     	mov	w3, #0x200              // =512
  102e98: b9001ba3     	str	w3, [x29, #0x18]
  102e9c: b9001fa1     	str	w1, [x29, #0x1c]
  102ea0: f9000ba2     	str	x2, [x29, #0x10]
  102ea4: 910083a3     	add	x3, x29, #0x20
  102ea8: 910043a2     	add	x2, x29, #0x10
  102eac: 1a800081     	csel	w1, w4, w0, eq
  102eb0: 52800160     	mov	w0, #0xb                // =11
  102eb4: 97fffd7d     	bl	0x1024a8 <_binary_BootROM_ums512_0x100000_0x111FFF_bin_start+0x24a8>
  102eb8: 35000140     	cbnz	w0, 0x102ee0 <_binary_BootROM_ums512_0x100000_0x111FFF_bin_start+0x2ee0>
  102ebc: 910083a3     	add	x3, x29, #0x20
  102ec0: d2800002     	mov	x2, #0x0                // =0
  102ec4: 52800001     	mov	w1, #0x0                // =0
  102ec8: 528000e0     	mov	w0, #0x7                // =7
  102ecc: 97fffd77     	bl	0x1024a8 <_binary_BootROM_ums512_0x100000_0x111FFF_bin_start+0x24a8>
  102ed0: 7100001f     	cmp	w0, #0x0
  102ed4: 1a9f17e0     	cset	w0, eq
  102ed8: a8c37bfd     	ldp	x29, x30, [sp], #0x30
  102edc: d65f03c0     	ret
  102ee0: 910083a3     	add	x3, x29, #0x20
  102ee4: d2800002     	mov	x2, #0x0                // =0
  102ee8: 52800001     	mov	w1, #0x0                // =0
  102eec: 528000e0     	mov	w0, #0x7                // =7
  102ef0: 97fffd6e     	bl	0x1024a8 <_binary_BootROM_ums512_0x100000_0x111FFF_bin_start+0x24a8>
  102ef4: 52800000     	mov	w0, #0x0                // =0
  102ef8: 17fffff8     	b	0x102ed8 <_binary_BootROM_ums512_0x100000_0x111FFF_bin_start+0x2ed8>
		...
  102f08: 00000001     	udf	#0x1
		...
  102f18: 00000001     	udf	#0x1
  102f1c: 00000002     	udf	#0x2
  102f20: 00000001     	udf	#0x1
  102f24: 00000002     	udf	#0x2
  102f28: 08070000     	stxrb	w7, w0, [x0]
  102f2c: 00000000     	udf	#0x0
  102f30: 00000002     	udf	#0x2
  102f34: 00000003     	udf	#0x3
  102f38: 00000001     	udf	#0x1
  102f3c: 00000006     	udf	#0x6
  102f40: 080f0000     	stxrb	w15, w0, [x0]
  102f44: 00000000     	udf	#0x0
  102f48: 00000003     	udf	#0x3
  102f4c: 00000003     	udf	#0x3
  102f50: 00000001     	udf	#0x1
  102f54: 00000001     	udf	#0x1
  102f58: 080f0000     	stxrb	w15, w0, [x0]
  102f5c: 00000000     	udf	#0x0
  102f60: 00000004     	udf	#0x4
  102f64: 00000007     	udf	#0x7
  102f68: 00000001     	udf	#0x1
  102f6c: 00000008     	udf	#0x8
  102f70: 080f0000     	stxrb	w15, w0, [x0]
  102f74: 00000000     	udf	#0x0
  102f78: 00000005     	udf	#0x5
  102f7c: 00000008     	udf	#0x8
  102f80: 00000001     	udf	#0x1
  102f84: 00000007     	udf	#0x7
  102f88: 080f0000     	stxrb	w15, w0, [x0]
  102f8c: 00000000     	udf	#0x0
  102f90: 00000006     	udf	#0x6
  102f94: 00000009     	udf	#0x9
  102f98: 00000001     	udf	#0x1
  102f9c: 00000002     	udf	#0x2
  102fa0: 08070000     	stxrb	w7, w0, [x0]
  102fa4: 00000000     	udf	#0x0
  102fa8: 00000007     	udf	#0x7
  102fac: 0000000c     	udf	#0xc
  102fb0: 00000003     	udf	#0x3
  102fb4: 00000008     	udf	#0x8
  102fb8: 080f0000     	stxrb	w15, w0, [x0]
  102fbc: 00000000     	udf	#0x0
  102fc0: 00000008     	udf	#0x8
  102fc4: 0000000d     	udf	#0xd
  102fc8: 00000001     	udf	#0x1
  102fcc: 00000001     	udf	#0x1
  102fd0: 080f0000     	stxrb	w15, w0, [x0]
  102fd4: 00000000     	udf	#0x0
  102fd8: 00000009     	udf	#0x9
  102fdc: 00000010     	udf	#0x10
  102fe0: 00000001     	udf	#0x1
  102fe4: 00000001     	udf	#0x1
  102fe8: 080f0000     	stxrb	w15, w0, [x0]
  102fec: 00000000     	udf	#0x0
  102ff0: 0000000a     	udf	#0xa
  102ff4: 00000011     	udf	#0x11
  102ff8: 00000003     	udf	#0x3
  102ffc: 00000001     	udf	#0x1
  103000: 087f0000     	<unknown>
  103004: 00000051     	udf	#0x51
  103008: 0000000b     	udf	#0xb
  10300c: 00000012     	udf	#0x12
  103010: 00000003     	udf	#0x3
  103014: 00000001     	udf	#0x1
  103018: 087f0000     	<unknown>
  10301c: 00000073     	udf	#0x73
  103020: 0000000c     	udf	#0xc
  103024: 00000017     	udf	#0x17
  103028: 00000001     	udf	#0x1
  10302c: 00000001     	udf	#0x1
  103030: 080f0000     	stxrb	w15, w0, [x0]
  103034: 00000000     	udf	#0x0
  103038: 0000000d     	udf	#0xd
  10303c: 00000018     	udf	#0x18
  103040: 00000003     	udf	#0x3
  103044: 00000001     	udf	#0x1
  103048: 083f0000     	<unknown>
  10304c: 00000041     	udf	#0x41
  103050: 0000000e     	udf	#0xe
  103054: 00000019     	udf	#0x19
  103058: 00000003     	udf	#0x3
  10305c: 00000001     	udf	#0x1
  103060: 083f0000     	<unknown>
  103064: 00000063     	udf	#0x63
  103068: 0000000f     	udf	#0xf
  10306c: 00000037     	udf	#0x37
  103070: 00000001     	udf	#0x1
  103074: 00000001     	udf	#0x1
  103078: 080f0000     	stxrb	w15, w0, [x0]
  10307c: 00000000     	udf	#0x0
  103080: 00000010     	udf	#0x10
  103084: 00000006     	udf	#0x6
  103088: 00000001     	udf	#0x1
  10308c: 00000001     	udf	#0x1
  103090: 080f0000     	stxrb	w15, w0, [x0]
  103094: 00000000     	udf	#0x0
  103098: 00000011     	udf	#0x11
  10309c: 0000000d     	udf	#0xd
  1030a0: 00000001     	udf	#0x1
  1030a4: 00000001     	udf	#0x1
  1030a8: 080f0000     	stxrb	w15, w0, [x0]
  1030ac: 00000000     	udf	#0x0
  1030b0: 00000012     	udf	#0x12
  1030b4: 00000029     	udf	#0x29
  1030b8: 00000001     	udf	#0x1
  1030bc: 00000003     	udf	#0x3
  1030c0: 08050000     	stxrb	w5, w0, [x0]
  1030c4: 00000000     	udf	#0x0
  1030c8: 00000013     	udf	#0x13
  1030cc: 00000000     	udf	#0x0
  1030d0: 00000001     	udf	#0x1
		...
  1030e0: 34000140     	cbz	w0, 0x103108 <_binary_BootROM_ums512_0x100000_0x111FFF_bin_start+0x3108>
  1030e4: 52800c01     	mov	w1, #0x60               // =96
  1030e8: d2800020     	mov	x0, #0x1                // =1
  1030ec: f2abffe0     	movk	x0, #0x5fff, lsl #16
  1030f0: 39000001     	strb	w1, [x0]
  1030f4: 12800001     	mov	w1, #-0x1               // =-1
  1030f8: d2800160     	mov	x0, #0xb                // =11
  1030fc: f2abffe0     	movk	x0, #0x5fff, lsl #16
  103100: 39000001     	strb	w1, [x0]
  103104: d65f03c0     	ret
  103108: 52800801     	mov	w1, #0x40               // =64
  10310c: d2800020     	mov	x0, #0x1                // =1
  103110: f2abffe0     	movk	x0, #0x5fff, lsl #16
  103114: 39000001     	strb	w1, [x0]
  103118: 17fffff7     	b	0x1030f4 <_binary_BootROM_ums512_0x100000_0x111FFF_bin_start+0x30f4>
  10311c: 528000a1     	mov	w1, #0x5                // =5
  103120: d28001c0     	mov	x0, #0xe                // =14
  103124: f2abffe0     	movk	x0, #0x5fff, lsl #16
  103128: 39000001     	strb	w1, [x0]
  10312c: 52800421     	mov	w1, #0x21               // =33
  103130: d28000c0     	mov	x0, #0x6                // =6
  103134: f2abffe0     	movk	x0, #0x5fff, lsl #16
  103138: 79000001     	strh	w1, [x0]
  10313c: 52800801     	mov	w1, #0x40               // =64
  103140: 91000800     	add	x0, x0, #0x2
  103144: 79000001     	strh	w1, [x0]
  103148: 528002e1     	mov	w1, #0x17               // =23
  10314c: 91016800     	add	x0, x0, #0x5a
  103150: 39000001     	strb	w1, [x0]
  103154: 52802101     	mov	w1, #0x108              // =264
  103158: 91000800     	add	x0, x0, #0x2
  10315c: 79000001     	strh	w1, [x0]
  103160: b0fff800     	adrp	x0, 0x4000
  103164: b9400c00     	ldr	w0, [x0, #0xc]
  103168: 340005e0     	cbz	w0, 0x103224 <_binary_BootROM_ums512_0x100000_0x111FFF_bin_start+0x3224>
  10316c: 52800801     	mov	w1, #0x40               // =64
  103170: d2802a00     	mov	x0, #0x150              // =336
  103174: f2abffe0     	movk	x0, #0x5fff, lsl #16
  103178: 79000001     	strh	w1, [x0]
  10317c: 52800901     	mov	w1, #0x48               // =72
  103180: d2802a40     	mov	x0, #0x152              // =338
  103184: f2abffe0     	movk	x0, #0x5fff, lsl #16
  103188: 39000001     	strb	w1, [x0]
  10318c: d2802a61     	mov	x1, #0x153              // =339
  103190: f2abffe1     	movk	x1, #0x5fff, lsl #16
  103194: 52800400     	mov	w0, #0x20               // =32
  103198: 39000020     	strb	w0, [x1]
  10319c: 39400020     	ldrb	w0, [x1]
  1031a0: 12800d62     	mov	w2, #-0x6c              // =-108
  1031a4: 2a020000     	orr	w0, w0, w2
  1031a8: 12001c00     	and	w0, w0, #0xff
  1031ac: 39000020     	strb	w0, [x1]
  1031b0: 528000c1     	mov	w1, #0x6                // =6
  1031b4: d28001c0     	mov	x0, #0xe                // =14
  1031b8: f2abffe0     	movk	x0, #0x5fff, lsl #16
  1031bc: 39000001     	strb	w1, [x0]
  1031c0: 528002e1     	mov	w1, #0x17               // =23
  1031c4: 91015400     	add	x0, x0, #0x55
  1031c8: 39000001     	strb	w1, [x0]
  1031cc: 52800101     	mov	w1, #0x8                // =8
  1031d0: 91000c00     	add	x0, x0, #0x3
  1031d4: 79000001     	strh	w1, [x0]
  1031d8: b0fff800     	adrp	x0, 0x4000
  1031dc: b9400c00     	ldr	w0, [x0, #0xc]
  1031e0: 350002c0     	cbnz	w0, 0x103238 <_binary_BootROM_ums512_0x100000_0x111FFF_bin_start+0x3238>
  1031e4: 52804001     	mov	w1, #0x200              // =512
  1031e8: d2802c80     	mov	x0, #0x164              // =356
  1031ec: f2abffe0     	movk	x0, #0x5fff, lsl #16
  1031f0: 79000001     	strh	w1, [x0]
  1031f4: 12800de1     	mov	w1, #-0x70              // =-112
  1031f8: d2802cc0     	mov	x0, #0x166              // =358
  1031fc: f2abffe0     	movk	x0, #0x5fff, lsl #16
  103200: 39000001     	strb	w1, [x0]
  103204: d2802ce1     	mov	x1, #0x167              // =359
  103208: f2abffe1     	movk	x1, #0x5fff, lsl #16
  10320c: 39400020     	ldrb	w0, [x1]
  103210: 12800ae2     	mov	w2, #-0x58              // =-88
  103214: 2a020000     	orr	w0, w0, w2
  103218: 12001c00     	and	w0, w0, #0xff
  10321c: 39000020     	strb	w0, [x1]
  103220: d65f03c0     	ret
  103224: 52804001     	mov	w1, #0x200              // =512
  103228: d2802a00     	mov	x0, #0x150              // =336
  10322c: f2abffe0     	movk	x0, #0x5fff, lsl #16
  103230: 79000001     	strh	w1, [x0]
  103234: 17ffffd2     	b	0x10317c <_binary_BootROM_ums512_0x100000_0x111FFF_bin_start+0x317c>
  103238: 52800801     	mov	w1, #0x40               // =64
  10323c: d2802c80     	mov	x0, #0x164              // =356
  103240: f2abffe0     	movk	x0, #0x5fff, lsl #16
  103244: 79000001     	strh	w1, [x0]
  103248: 17ffffeb     	b	0x1031f4 <_binary_BootROM_ums512_0x100000_0x111FFF_bin_start+0x31f4>
  10324c: 350002c0     	cbnz	w0, 0x1032a4 <_binary_BootROM_ums512_0x100000_0x111FFF_bin_start+0x32a4>
  103250: b0fff804     	adrp	x4, 0x4000
  103254: 91146080     	add	x0, x4, #0x518
  103258: f9028c83     	str	x3, [x4, #0x518]
  10325c: 12003c42     	and	w2, w2, #0xffff
  103260: 79001002     	strh	w2, [x0, #0x8]
  103264: 52800404     	mov	w4, #0x20               // =32
  103268: 79001404     	strh	w4, [x0, #0xa]
  10326c: 39003001     	strb	w1, [x0, #0xc]
  103270: 52800021     	mov	w1, #0x1                // =1
  103274: 39003401     	strb	w1, [x0, #0xd]
  103278: 3900381f     	strb	wzr, [x0, #0xe]
  10327c: 39003c01     	strb	w1, [x0, #0xf]
  103280: b0fff801     	adrp	x1, 0x4000
  103284: 91252020     	add	x0, x1, #0x948
  103288: b900081f     	str	wzr, [x0, #0x8]
  10328c: b9094823     	str	w3, [x1, #0x948]
  103290: 79000804     	strh	w4, [x0, #0x4]
  103294: 79000c02     	strh	w2, [x0, #0x6]
  103298: 528000a1     	mov	w1, #0x5                // =5
  10329c: 39002001     	strb	w1, [x0, #0x8]
  1032a0: d65f03c0     	ret
  1032a4: b0fff804     	adrp	x4, 0x4000
  1032a8: 91256080     	add	x0, x4, #0x958
  1032ac: f904ac83     	str	x3, [x4, #0x958]
  1032b0: 12003c42     	and	w2, w2, #0xffff
  1032b4: 79001002     	strh	w2, [x0, #0x8]
  1032b8: 52800405     	mov	w5, #0x20               // =32
  1032bc: 79001405     	strh	w5, [x0, #0xa]
  1032c0: 39003001     	strb	w1, [x0, #0xc]
  1032c4: 52800024     	mov	w4, #0x1                // =1
  1032c8: 39003404     	strb	w4, [x0, #0xd]
  1032cc: 3900381f     	strb	wzr, [x0, #0xe]
  1032d0: 39003c04     	strb	w4, [x0, #0xf]
  1032d4: b0fff800     	adrp	x0, 0x4000
  1032d8: 9114a004     	add	x4, x0, #0x528
  1032dc: b900089f     	str	wzr, [x4, #0x8]
  1032e0: b9052803     	str	w3, [x0, #0x528]
  1032e4: 79000885     	strh	w5, [x4, #0x4]
  1032e8: 79000c82     	strh	w2, [x4, #0x6]
  1032ec: 528000a0     	mov	w0, #0x5                // =5
  1032f0: 39002080     	strb	w0, [x4, #0x8]
  1032f4: 11003821     	add	w1, w1, #0xe
  1032f8: 1ac02021     	lsl	w1, w1, w0
  1032fc: 52838100     	mov	w0, #0x1c08             // =7176
  103300: 72abffe0     	movk	w0, #0x5fff, lsl #16
  103304: 0b000020     	add	w0, w1, w0
  103308: 93407c00     	sxtw	x0, w0
  10330c: b9400002     	ldr	w2, [x0]
  103310: 52800283     	mov	w3, #0x14               // =20
  103314: 2a030042     	orr	w2, w2, w3
  103318: b9000002     	str	w2, [x0]
  10331c: 52838280     	mov	w0, #0x1c14             // =7188
  103320: 72abffe0     	movk	w0, #0x5fff, lsl #16
  103324: 0b000020     	add	w0, w1, w0
  103328: 93407c00     	sxtw	x0, w0
  10332c: b9000004     	str	w4, [x0]
  103330: 52838080     	mov	w0, #0x1c04             // =7172
  103334: 72abffe0     	movk	w0, #0x5fff, lsl #16
  103338: 0b000021     	add	w1, w1, w0
  10333c: 93407c21     	sxtw	x1, w1
  103340: b9400020     	ldr	w0, [x1]
  103344: 32000000     	orr	w0, w0, #0x1
  103348: b9000020     	str	w0, [x1]
  10334c: d65f03c0     	ret
  103350: a9bd7bfd     	stp	x29, x30, [sp, #-0x30]!
  103354: 910003fd     	mov	x29, sp
  103358: f9000bf3     	str	x19, [sp, #0x10]
  10335c: 12001c13     	and	w19, w0, #0xff
  103360: aa0103e3     	mov	x3, x1
  103364: 2a1303e1     	mov	w1, w19
  103368: 52800000     	mov	w0, #0x0                // =0
  10336c: 97ffffb8     	bl	0x10324c <_binary_BootROM_ums512_0x100000_0x111FFF_bin_start+0x324c>
  103370: 51000660     	sub	w0, w19, #0x1
  103374: 531b6800     	lsl	w0, w0, #5
  103378: 52838101     	mov	w1, #0x1c08             // =7176
  10337c: 72abffe1     	movk	w1, #0x5fff, lsl #16
  103380: 0b010001     	add	w1, w0, w1
  103384: 93407c21     	sxtw	x1, w1
  103388: b9400022     	ldr	w2, [x1]
  10338c: 321e0042     	orr	w2, w2, #0x4
  103390: b9000022     	str	w2, [x1]
  103394: 52838282     	mov	w2, #0x1c14             // =7188
  103398: 72abffe2     	movk	w2, #0x5fff, lsl #16
  10339c: 0b020002     	add	w2, w0, w2
  1033a0: 93407c42     	sxtw	x2, w2
  1033a4: b0fff803     	adrp	x3, 0x4000
  1033a8: 91252063     	add	x3, x3, #0x948
  1033ac: b9000043     	str	w3, [x2]
  1033b0: 52838082     	mov	w2, #0x1c04             // =7172
  1033b4: 72abffe2     	movk	w2, #0x5fff, lsl #16
  1033b8: 0b020000     	add	w0, w0, w2
  1033bc: 93407c00     	sxtw	x0, w0
  1033c0: b9400002     	ldr	w2, [x0]
  1033c4: 32000042     	orr	w2, w2, #0x1
  1033c8: b9000002     	str	w2, [x0]
  1033cc: b9400020     	ldr	w0, [x1]
  1033d0: b9002fa0     	str	w0, [x29, #0x2c]
  1033d4: b9402fa0     	ldr	w0, [x29, #0x2c]
  1033d8: 379000a0     	tbnz	w0, #0x12, 0x1033ec <_binary_BootROM_ums512_0x100000_0x111FFF_bin_start+0x33ec>
  1033dc: b9400020     	ldr	w0, [x1]
  1033e0: b9002fa0     	str	w0, [x29, #0x2c]
  1033e4: b9402fa0     	ldr	w0, [x29, #0x2c]
  1033e8: 3697ffa0     	tbz	w0, #0x12, 0x1033dc <_binary_BootROM_ums512_0x100000_0x111FFF_bin_start+0x33dc>
  1033ec: b9400020     	ldr	w0, [x1]
  1033f0: 32060000     	orr	w0, w0, #0x4000000
  1033f4: b9000020     	str	w0, [x1]
  1033f8: 52800000     	mov	w0, #0x0                // =0
  1033fc: f9400bf3     	ldr	x19, [sp, #0x10]
  103400: a8c37bfd     	ldp	x29, x30, [sp], #0x30
  103404: d65f03c0     	ret
  103408: a9bd7bfd     	stp	x29, x30, [sp, #-0x30]!
  10340c: 910003fd     	mov	x29, sp
  103410: f9000bf3     	str	x19, [sp, #0x10]
  103414: b9002bbf     	str	wzr, [x29, #0x28]
  103418: d2800240     	mov	x0, #0x12               // =18
  10341c: f2abffe0     	movk	x0, #0x5fff, lsl #16
  103420: 39400000     	ldrb	w0, [x0]
  103424: 12001c00     	and	w0, w0, #0xff
  103428: 39009fa0     	strb	w0, [x29, #0x27]
  10342c: 39409fa0     	ldrb	w0, [x29, #0x27]
  103430: 36003040     	tbz	w0, #0x0, 0x103a38 <_binary_BootROM_ums512_0x100000_0x111FFF_bin_start+0x3a38>
  103434: b9002bbf     	str	wzr, [x29, #0x28]
  103438: b9402ba0     	ldr	w0, [x29, #0x28]
  10343c: 71001c1f     	cmp	w0, #0x7
  103440: 540001e8     	b.hi	0x10347c <_binary_BootROM_ums512_0x100000_0x111FFF_bin_start+0x347c>
  103444: d2800403     	mov	x3, #0x20               // =32
  103448: f2abffe3     	movk	x3, #0x5fff, lsl #16
  10344c: b0fff802     	adrp	x2, 0x4000
  103450: 91250042     	add	x2, x2, #0x940
  103454: b9402ba1     	ldr	w1, [x29, #0x28]
  103458: 39400060     	ldrb	w0, [x3]
  10345c: 12001c00     	and	w0, w0, #0xff
  103460: 38214840     	strb	w0, [x2, w1, uxtw]
  103464: b9402ba0     	ldr	w0, [x29, #0x28]
  103468: 11000400     	add	w0, w0, #0x1
  10346c: b9002ba0     	str	w0, [x29, #0x28]
  103470: b9402ba0     	ldr	w0, [x29, #0x28]
  103474: 71001c1f     	cmp	w0, #0x7
  103478: 54fffee9     	b.ls	0x103454 <_binary_BootROM_ums512_0x100000_0x111FFF_bin_start+0x3454>
  10347c: b0fff800     	adrp	x0, 0x4000
  103480: 39650000     	ldrb	w0, [x0, #0x940]
  103484: d3451800     	ubfx	x0, x0, #5, #2
  103488: 7100041f     	cmp	w0, #0x1
  10348c: 54002280     	b.eq	0x1038dc <_binary_BootROM_ums512_0x100000_0x111FFF_bin_start+0x38dc>
  103490: 34000320     	cbz	w0, 0x1034f4 <_binary_BootROM_ums512_0x100000_0x111FFF_bin_start+0x34f4>
  103494: 7100081f     	cmp	w0, #0x2
  103498: 54002840     	b.eq	0x1039a0 <_binary_BootROM_ums512_0x100000_0x111FFF_bin_start+0x39a0>
  10349c: d2800241     	mov	x1, #0x12               // =18
  1034a0: f2abffe1     	movk	x1, #0x5fff, lsl #16
  1034a4: 39400020     	ldrb	w0, [x1]
  1034a8: 12001c00     	and	w0, w0, #0xff
  1034ac: 52800902     	mov	w2, #0x48               // =72
  1034b0: 2a020000     	orr	w0, w0, w2
  1034b4: 39000020     	strb	w0, [x1]
  1034b8: d2800040     	mov	x0, #0x2                // =2
  1034bc: f2abffe0     	movk	x0, #0x5fff, lsl #16
  1034c0: 79400000     	ldrh	w0, [x0]
  1034c4: 12003c00     	and	w0, w0, #0xffff
  1034c8: 79005fa0     	strh	w0, [x29, #0x2e]
  1034cc: 79405fa0     	ldrh	w0, [x29, #0x2e]
  1034d0: 37002b40     	tbnz	w0, #0x0, 0x103a38 <_binary_BootROM_ums512_0x100000_0x111FFF_bin_start+0x3a38>
  1034d4: d2800041     	mov	x1, #0x2                // =2
  1034d8: f2abffe1     	movk	x1, #0x5fff, lsl #16
  1034dc: 79400020     	ldrh	w0, [x1]
  1034e0: 12003c00     	and	w0, w0, #0xffff
  1034e4: 79005fa0     	strh	w0, [x29, #0x2e]
  1034e8: 79405fa0     	ldrh	w0, [x29, #0x2e]
  1034ec: 3607ff80     	tbz	w0, #0x0, 0x1034dc <_binary_BootROM_ums512_0x100000_0x111FFF_bin_start+0x34dc>
  1034f0: 14000152     	b	0x103a38 <_binary_BootROM_ums512_0x100000_0x111FFF_bin_start+0x3a38>
  1034f4: b0fff800     	adrp	x0, 0x4000
  1034f8: 91250000     	add	x0, x0, #0x940
  1034fc: 39400400     	ldrb	w0, [x0, #0x1]
  103500: 12001c00     	and	w0, w0, #0xff
  103504: 7100141f     	cmp	w0, #0x5
  103508: 54001720     	b.eq	0x1037ec <_binary_BootROM_ums512_0x100000_0x111FFF_bin_start+0x37ec>
  10350c: 54000448     	b.hi	0x103594 <_binary_BootROM_ums512_0x100000_0x111FFF_bin_start+0x3594>
  103510: 34001200     	cbz	w0, 0x103750 <_binary_BootROM_ums512_0x100000_0x111FFF_bin_start+0x3750>
  103514: 7100041f     	cmp	w0, #0x1
  103518: 54001b61     	b.ne	0x103884 <_binary_BootROM_ums512_0x100000_0x111FFF_bin_start+0x3884>
  10351c: d2800241     	mov	x1, #0x12               // =18
  103520: f2abffe1     	movk	x1, #0x5fff, lsl #16
  103524: 39400020     	ldrb	w0, [x1]
  103528: 12001c00     	and	w0, w0, #0xff
  10352c: 52800902     	mov	w2, #0x48               // =72
  103530: 2a020000     	orr	w0, w0, w2
  103534: 39000020     	strb	w0, [x1]
  103538: b0fff800     	adrp	x0, 0x4000
  10353c: 39650000     	ldrb	w0, [x0, #0x940]
  103540: 12001000     	and	w0, w0, #0x1f
  103544: 7100081f     	cmp	w0, #0x2
  103548: 54002781     	b.ne	0x103a38 <_binary_BootROM_ums512_0x100000_0x111FFF_bin_start+0x3a38>
  10354c: b0fff800     	adrp	x0, 0x4000
  103550: 91250000     	add	x0, x0, #0x940
  103554: 39401000     	ldrb	w0, [x0, #0x4]
  103558: 12001c00     	and	w0, w0, #0xff
  10355c: f240181f     	tst	x0, #0x7f
  103560: 540026c0     	b.eq	0x103a38 <_binary_BootROM_ums512_0x100000_0x111FFF_bin_start+0x3a38>
  103564: 363817c0     	tbz	w0, #0x7, 0x10385c <_binary_BootROM_ums512_0x100000_0x111FFF_bin_start+0x385c>
  103568: d2802a41     	mov	x1, #0x152              // =338
  10356c: f2abffe1     	movk	x1, #0x5fff, lsl #16
  103570: 39400020     	ldrb	w0, [x1]
  103574: 12001c00     	and	w0, w0, #0xff
  103578: 321a0000     	orr	w0, w0, #0x40
  10357c: 39000020     	strb	w0, [x1]
  103580: 39400020     	ldrb	w0, [x1]
  103584: 12001c00     	and	w0, w0, #0xff
  103588: 321d0000     	orr	w0, w0, #0x8
  10358c: 39000020     	strb	w0, [x1]
  103590: 1400012a     	b	0x103a38 <_binary_BootROM_ums512_0x100000_0x111FFF_bin_start+0x3a38>
  103594: 7100181f     	cmp	w0, #0x6
  103598: 540004c0     	b.eq	0x103630 <_binary_BootROM_ums512_0x100000_0x111FFF_bin_start+0x3630>
  10359c: 7100241f     	cmp	w0, #0x9
  1035a0: 54001721     	b.ne	0x103884 <_binary_BootROM_ums512_0x100000_0x111FFF_bin_start+0x3884>
  1035a4: d2800241     	mov	x1, #0x12               // =18
  1035a8: f2abffe1     	movk	x1, #0x5fff, lsl #16
  1035ac: 39400020     	ldrb	w0, [x1]
  1035b0: 12001c00     	and	w0, w0, #0xff
  1035b4: 52800902     	mov	w2, #0x48               // =72
  1035b8: 2a020000     	orr	w0, w0, w2
  1035bc: 39000020     	strb	w0, [x1]
  1035c0: d2800040     	mov	x0, #0x2                // =2
  1035c4: f2abffe0     	movk	x0, #0x5fff, lsl #16
  1035c8: 79400000     	ldrh	w0, [x0]
  1035cc: 12003c00     	and	w0, w0, #0xffff
  1035d0: 79005fa0     	strh	w0, [x29, #0x2e]
  1035d4: 79405fa0     	ldrh	w0, [x29, #0x2e]
  1035d8: 37000100     	tbnz	w0, #0x0, 0x1035f8 <_binary_BootROM_ums512_0x100000_0x111FFF_bin_start+0x35f8>
  1035dc: d2800041     	mov	x1, #0x2                // =2
  1035e0: f2abffe1     	movk	x1, #0x5fff, lsl #16
  1035e4: 79400020     	ldrh	w0, [x1]
  1035e8: 12003c00     	and	w0, w0, #0xffff
  1035ec: 79005fa0     	strh	w0, [x29, #0x2e]
  1035f0: 79405fa0     	ldrh	w0, [x29, #0x2e]
  1035f4: 3607ff80     	tbz	w0, #0x0, 0x1035e4 <_binary_BootROM_ums512_0x100000_0x111FFF_bin_start+0x35e4>
  1035f8: b0fff800     	adrp	x0, 0x4000
  1035fc: b9401400     	ldr	w0, [x0, #0x14]
  103600: 350021c0     	cbnz	w0, 0x103a38 <_binary_BootROM_ums512_0x100000_0x111FFF_bin_start+0x3a38>
  103604: 97fffec6     	bl	0x10311c <_binary_BootROM_ums512_0x100000_0x111FFF_bin_start+0x311c>
  103608: b0fff813     	adrp	x19, 0x4000
  10360c: 91003273     	add	x19, x19, #0xc
  103610: 91003263     	add	x3, x19, #0xc
  103614: 52808002     	mov	w2, #0x400              // =1024
  103618: 528000c1     	mov	w1, #0x6                // =6
  10361c: 52800020     	mov	w0, #0x1                // =1
  103620: 97ffff0b     	bl	0x10324c <_binary_BootROM_ums512_0x100000_0x111FFF_bin_start+0x324c>
  103624: 52800020     	mov	w0, #0x1                // =1
  103628: b9000a60     	str	w0, [x19, #0x8]
  10362c: 14000103     	b	0x103a38 <_binary_BootROM_ums512_0x100000_0x111FFF_bin_start+0x3a38>
  103630: b90023bf     	str	wzr, [x29, #0x20]
  103634: d2800241     	mov	x1, #0x12               // =18
  103638: f2abffe1     	movk	x1, #0x5fff, lsl #16
  10363c: 39400020     	ldrb	w0, [x1]
  103640: 12001c00     	and	w0, w0, #0xff
  103644: 321a0000     	orr	w0, w0, #0x40
  103648: 39000020     	strb	w0, [x1]
  10364c: b0fff800     	adrp	x0, 0x4000
  103650: 91250000     	add	x0, x0, #0x940
  103654: 39401801     	ldrb	w1, [x0, #0x6]
  103658: 12001c21     	and	w1, w1, #0xff
  10365c: 39401c02     	ldrb	w2, [x0, #0x7]
  103660: 53181c42     	ubfiz	w2, w2, #8, #8
  103664: 2a010053     	orr	w19, w2, w1
  103668: 39400c00     	ldrb	w0, [x0, #0x3]
  10366c: 12001c00     	and	w0, w0, #0xff
  103670: 7100081f     	cmp	w0, #0x2
  103674: 540004a0     	b.eq	0x103708 <_binary_BootROM_ums512_0x100000_0x111FFF_bin_start+0x3708>
  103678: 7100181f     	cmp	w0, #0x6
  10367c: 54000600     	b.eq	0x10373c <_binary_BootROM_ums512_0x100000_0x111FFF_bin_start+0x373c>
  103680: 7100041f     	cmp	w0, #0x1
  103684: 540000c0     	b.eq	0x10369c <_binary_BootROM_ums512_0x100000_0x111FFF_bin_start+0x369c>
  103688: 9400033f     	bl	0x104384 <_binary_BootROM_ums512_0x100000_0x111FFF_bin_start+0x4384>
  10368c: 71002a7f     	cmp	w19, #0xa
  103690: 52800142     	mov	w2, #0xa                // =10
  103694: 1a829262     	csel	w2, w19, w2, ls
  103698: 14000005     	b	0x1036ac <_binary_BootROM_ums512_0x100000_0x111FFF_bin_start+0x36ac>
  10369c: 94000333     	bl	0x104368 <_binary_BootROM_ums512_0x100000_0x111FFF_bin_start+0x4368>
  1036a0: 71004a7f     	cmp	w19, #0x12
  1036a4: 52800242     	mov	w2, #0x12               // =18
  1036a8: 1a829262     	csel	w2, w19, w2, ls
  1036ac: b90023bf     	str	wzr, [x29, #0x20]
  1036b0: b94023a1     	ldr	w1, [x29, #0x20]
  1036b4: 6b01005f     	cmp	w2, w1
  1036b8: 54000189     	b.ls	0x1036e8 <_binary_BootROM_ums512_0x100000_0x111FFF_bin_start+0x36e8>
  1036bc: d2800403     	mov	x3, #0x20               // =32
  1036c0: f2abffe3     	movk	x3, #0x5fff, lsl #16
  1036c4: b94023a1     	ldr	w1, [x29, #0x20]
  1036c8: 38614801     	ldrb	w1, [x0, w1, uxtw]
  1036cc: 39000061     	strb	w1, [x3]
  1036d0: b94023a1     	ldr	w1, [x29, #0x20]
  1036d4: 11000421     	add	w1, w1, #0x1
  1036d8: b90023a1     	str	w1, [x29, #0x20]
  1036dc: b94023a1     	ldr	w1, [x29, #0x20]
  1036e0: 6b02003f     	cmp	w1, w2
  1036e4: 54ffff03     	b.lo	0x1036c4 <_binary_BootROM_ums512_0x100000_0x111FFF_bin_start+0x36c4>
  1036e8: d2800241     	mov	x1, #0x12               // =18
  1036ec: f2abffe1     	movk	x1, #0x5fff, lsl #16
  1036f0: 39400020     	ldrb	w0, [x1]
  1036f4: 12001c00     	and	w0, w0, #0xff
  1036f8: 52800142     	mov	w2, #0xa                // =10
  1036fc: 2a020000     	orr	w0, w0, w2
  103700: 39000020     	strb	w0, [x1]
  103704: 140000cd     	b	0x103a38 <_binary_BootROM_ums512_0x100000_0x111FFF_bin_start+0x3a38>
  103708: 9400031b     	bl	0x104374 <_binary_BootROM_ums512_0x100000_0x111FFF_bin_start+0x4374>
  10370c: b0fff801     	adrp	x1, 0x4000
  103710: b9400c21     	ldr	w1, [x1, #0xc]
  103714: 340000c1     	cbz	w1, 0x10372c <_binary_BootROM_ums512_0x100000_0x111FFF_bin_start+0x372c>
  103718: 52800801     	mov	w1, #0x40               // =64
  10371c: 39007401     	strb	w1, [x0, #0x1d]
  103720: 39005801     	strb	w1, [x0, #0x16]
  103724: 3900781f     	strb	wzr, [x0, #0x1e]
  103728: 39005c1f     	strb	wzr, [x0, #0x17]
  10372c: 7100827f     	cmp	w19, #0x20
  103730: 52800402     	mov	w2, #0x20               // =32
  103734: 1a829262     	csel	w2, w19, w2, ls
  103738: 17ffffdd     	b	0x1036ac <_binary_BootROM_ums512_0x100000_0x111FFF_bin_start+0x36ac>
  10373c: 94000312     	bl	0x104384 <_binary_BootROM_ums512_0x100000_0x111FFF_bin_start+0x4384>
  103740: 71002a7f     	cmp	w19, #0xa
  103744: 52800142     	mov	w2, #0xa                // =10
  103748: 1a829262     	csel	w2, w19, w2, ls
  10374c: 17ffffd8     	b	0x1036ac <_binary_BootROM_ums512_0x100000_0x111FFF_bin_start+0x36ac>
  103750: d2800241     	mov	x1, #0x12               // =18
  103754: f2abffe1     	movk	x1, #0x5fff, lsl #16
  103758: 39400020     	ldrb	w0, [x1]
  10375c: 12001c00     	and	w0, w0, #0xff
  103760: 321a0000     	orr	w0, w0, #0x40
  103764: 39000020     	strb	w0, [x1]
  103768: b0fff800     	adrp	x0, 0x4000
  10376c: 91250000     	add	x0, x0, #0x940
  103770: 39401801     	ldrb	w1, [x0, #0x6]
  103774: 12001c22     	and	w2, w1, #0xff
  103778: 39401c01     	ldrb	w1, [x0, #0x7]
  10377c: 53181c21     	ubfiz	w1, w1, #8, #8
  103780: 2a020021     	orr	w1, w1, w2
  103784: b9002bbf     	str	wzr, [x29, #0x28]
  103788: b9402ba0     	ldr	w0, [x29, #0x28]
  10378c: 6b00003f     	cmp	w1, w0
  103790: 540001e9     	b.ls	0x1037cc <_binary_BootROM_ums512_0x100000_0x111FFF_bin_start+0x37cc>
  103794: b0fff802     	adrp	x2, 0x4000
  103798: 91003042     	add	x2, x2, #0xc
  10379c: d2800403     	mov	x3, #0x20               // =32
  1037a0: f2abffe3     	movk	x3, #0x5fff, lsl #16
  1037a4: b9402ba0     	ldr	w0, [x29, #0x28]
  1037a8: 8b204040     	add	x0, x2, w0, uxtw
  1037ac: 39401000     	ldrb	w0, [x0, #0x4]
  1037b0: 39000060     	strb	w0, [x3]
  1037b4: b9402ba0     	ldr	w0, [x29, #0x28]
  1037b8: 11000400     	add	w0, w0, #0x1
  1037bc: b9002ba0     	str	w0, [x29, #0x28]
  1037c0: b9402ba0     	ldr	w0, [x29, #0x28]
  1037c4: 6b00003f     	cmp	w1, w0
  1037c8: 54fffee8     	b.hi	0x1037a4 <_binary_BootROM_ums512_0x100000_0x111FFF_bin_start+0x37a4>
  1037cc: d2800241     	mov	x1, #0x12               // =18
  1037d0: f2abffe1     	movk	x1, #0x5fff, lsl #16
  1037d4: 39400020     	ldrb	w0, [x1]
  1037d8: 12001c00     	and	w0, w0, #0xff
  1037dc: 52800142     	mov	w2, #0xa                // =10
  1037e0: 2a020000     	orr	w0, w0, w2
  1037e4: 39000020     	strb	w0, [x1]
  1037e8: 14000094     	b	0x103a38 <_binary_BootROM_ums512_0x100000_0x111FFF_bin_start+0x3a38>
  1037ec: d2800241     	mov	x1, #0x12               // =18
  1037f0: f2abffe1     	movk	x1, #0x5fff, lsl #16
  1037f4: 39400020     	ldrb	w0, [x1]
  1037f8: 12001c00     	and	w0, w0, #0xff
  1037fc: 52800902     	mov	w2, #0x48               // =72
  103800: 2a020000     	orr	w0, w0, w2
  103804: 39000020     	strb	w0, [x1]
  103808: d2800040     	mov	x0, #0x2                // =2
  10380c: f2abffe0     	movk	x0, #0x5fff, lsl #16
  103810: 79400000     	ldrh	w0, [x0]
  103814: 12003c00     	and	w0, w0, #0xffff
  103818: 79005fa0     	strh	w0, [x29, #0x2e]
  10381c: 79405fa0     	ldrh	w0, [x29, #0x2e]
  103820: 37000100     	tbnz	w0, #0x0, 0x103840 <_binary_BootROM_ums512_0x100000_0x111FFF_bin_start+0x3840>
  103824: d2800041     	mov	x1, #0x2                // =2
  103828: f2abffe1     	movk	x1, #0x5fff, lsl #16
  10382c: 79400020     	ldrh	w0, [x1]
  103830: 12003c00     	and	w0, w0, #0xffff
  103834: 79005fa0     	strh	w0, [x29, #0x2e]
  103838: 79405fa0     	ldrh	w0, [x29, #0x2e]
  10383c: 3607ff80     	tbz	w0, #0x0, 0x10382c <_binary_BootROM_ums512_0x100000_0x111FFF_bin_start+0x382c>
  103840: b0fff800     	adrp	x0, 0x4000
  103844: 91250000     	add	x0, x0, #0x940
  103848: 39400800     	ldrb	w0, [x0, #0x2]
  10384c: 12001c00     	and	w0, w0, #0xff
  103850: d2abffe1     	mov	x1, #0x5fff0000         // =1610547200
  103854: 39000020     	strb	w0, [x1]
  103858: 14000078     	b	0x103a38 <_binary_BootROM_ums512_0x100000_0x111FFF_bin_start+0x3a38>
  10385c: 91055021     	add	x1, x1, #0x154
  103860: 39400020     	ldrb	w0, [x1]
  103864: 32196000     	orr	w0, w0, #0xffffff80
  103868: 12001c00     	and	w0, w0, #0xff
  10386c: 39000020     	strb	w0, [x1]
  103870: 39400020     	ldrb	w0, [x1]
  103874: 12001c00     	and	w0, w0, #0xff
  103878: 321c0000     	orr	w0, w0, #0x10
  10387c: 39000020     	strb	w0, [x1]
  103880: 1400006e     	b	0x103a38 <_binary_BootROM_ums512_0x100000_0x111FFF_bin_start+0x3a38>
  103884: d2800241     	mov	x1, #0x12               // =18
  103888: f2abffe1     	movk	x1, #0x5fff, lsl #16
  10388c: 39400020     	ldrb	w0, [x1]
  103890: 12001c00     	and	w0, w0, #0xff
  103894: 52800902     	mov	w2, #0x48               // =72
  103898: 2a020000     	orr	w0, w0, w2
  10389c: 39000020     	strb	w0, [x1]
  1038a0: d2800040     	mov	x0, #0x2                // =2
  1038a4: f2abffe0     	movk	x0, #0x5fff, lsl #16
  1038a8: 79400000     	ldrh	w0, [x0]
  1038ac: 12003c00     	and	w0, w0, #0xffff
  1038b0: 79005fa0     	strh	w0, [x29, #0x2e]
  1038b4: 79405fa0     	ldrh	w0, [x29, #0x2e]
  1038b8: 37000c00     	tbnz	w0, #0x0, 0x103a38 <_binary_BootROM_ums512_0x100000_0x111FFF_bin_start+0x3a38>
  1038bc: d2800041     	mov	x1, #0x2                // =2
  1038c0: f2abffe1     	movk	x1, #0x5fff, lsl #16
  1038c4: 79400020     	ldrh	w0, [x1]
  1038c8: 12003c00     	and	w0, w0, #0xffff
  1038cc: 79005fa0     	strh	w0, [x29, #0x2e]
  1038d0: 79405fa0     	ldrh	w0, [x29, #0x2e]
  1038d4: 3607ff80     	tbz	w0, #0x0, 0x1038c4 <_binary_BootROM_ums512_0x100000_0x111FFF_bin_start+0x38c4>
  1038d8: 14000058     	b	0x103a38 <_binary_BootROM_ums512_0x100000_0x111FFF_bin_start+0x3a38>
  1038dc: b0fff800     	adrp	x0, 0x4000
  1038e0: 39650000     	ldrb	w0, [x0, #0x940]
  1038e4: 12001000     	and	w0, w0, #0x1f
  1038e8: 7100041f     	cmp	w0, #0x1
  1038ec: 540002e1     	b.ne	0x103948 <_binary_BootROM_ums512_0x100000_0x111FFF_bin_start+0x3948>
  1038f0: d2800241     	mov	x1, #0x12               // =18
  1038f4: f2abffe1     	movk	x1, #0x5fff, lsl #16
  1038f8: 39400020     	ldrb	w0, [x1]
  1038fc: 12001c00     	and	w0, w0, #0xff
  103900: 52800902     	mov	w2, #0x48               // =72
  103904: 2a020000     	orr	w0, w0, w2
  103908: 39000020     	strb	w0, [x1]
  10390c: d2800040     	mov	x0, #0x2                // =2
  103910: f2abffe0     	movk	x0, #0x5fff, lsl #16
  103914: 79400000     	ldrh	w0, [x0]
  103918: 12003c00     	and	w0, w0, #0xffff
  10391c: 79005fa0     	strh	w0, [x29, #0x2e]
  103920: 79405fa0     	ldrh	w0, [x29, #0x2e]
  103924: 370008a0     	tbnz	w0, #0x0, 0x103a38 <_binary_BootROM_ums512_0x100000_0x111FFF_bin_start+0x3a38>
  103928: d2800041     	mov	x1, #0x2                // =2
  10392c: f2abffe1     	movk	x1, #0x5fff, lsl #16
  103930: 79400020     	ldrh	w0, [x1]
  103934: 12003c00     	and	w0, w0, #0xffff
  103938: 79005fa0     	strh	w0, [x29, #0x2e]
  10393c: 79405fa0     	ldrh	w0, [x29, #0x2e]
  103940: 3607ff80     	tbz	w0, #0x0, 0x103930 <_binary_BootROM_ums512_0x100000_0x111FFF_bin_start+0x3930>
  103944: 1400003d     	b	0x103a38 <_binary_BootROM_ums512_0x100000_0x111FFF_bin_start+0x3a38>
  103948: d2800241     	mov	x1, #0x12               // =18
  10394c: f2abffe1     	movk	x1, #0x5fff, lsl #16
  103950: 39400020     	ldrb	w0, [x1]
  103954: 12001c00     	and	w0, w0, #0xff
  103958: 52800902     	mov	w2, #0x48               // =72
  10395c: 2a020000     	orr	w0, w0, w2
  103960: 39000020     	strb	w0, [x1]
  103964: d2800040     	mov	x0, #0x2                // =2
  103968: f2abffe0     	movk	x0, #0x5fff, lsl #16
  10396c: 79400000     	ldrh	w0, [x0]
  103970: 12003c00     	and	w0, w0, #0xffff
  103974: 79005fa0     	strh	w0, [x29, #0x2e]
  103978: 79405fa0     	ldrh	w0, [x29, #0x2e]
  10397c: 370005e0     	tbnz	w0, #0x0, 0x103a38 <_binary_BootROM_ums512_0x100000_0x111FFF_bin_start+0x3a38>
  103980: d2800041     	mov	x1, #0x2                // =2
  103984: f2abffe1     	movk	x1, #0x5fff, lsl #16
  103988: 79400020     	ldrh	w0, [x1]
  10398c: 12003c00     	and	w0, w0, #0xffff
  103990: 79005fa0     	strh	w0, [x29, #0x2e]
  103994: 79405fa0     	ldrh	w0, [x29, #0x2e]
  103998: 3607ff80     	tbz	w0, #0x0, 0x103988 <_binary_BootROM_ums512_0x100000_0x111FFF_bin_start+0x3988>
  10399c: 14000027     	b	0x103a38 <_binary_BootROM_ums512_0x100000_0x111FFF_bin_start+0x3a38>
  1039a0: d2800241     	mov	x1, #0x12               // =18
  1039a4: f2abffe1     	movk	x1, #0x5fff, lsl #16
  1039a8: 39400020     	ldrb	w0, [x1]
  1039ac: 12001c00     	and	w0, w0, #0xff
  1039b0: 321a0000     	orr	w0, w0, #0x40
  1039b4: 39000020     	strb	w0, [x1]
  1039b8: b0fff800     	adrp	x0, 0x4000
  1039bc: 91250000     	add	x0, x0, #0x940
  1039c0: 39401801     	ldrb	w1, [x0, #0x6]
  1039c4: 12001c22     	and	w2, w1, #0xff
  1039c8: 39401c01     	ldrb	w1, [x0, #0x7]
  1039cc: 53181c21     	ubfiz	w1, w1, #8, #8
  1039d0: 2a020021     	orr	w1, w1, w2
  1039d4: b9002bbf     	str	wzr, [x29, #0x28]
  1039d8: b9402ba0     	ldr	w0, [x29, #0x28]
  1039dc: 6b00003f     	cmp	w1, w0
  1039e0: 540001e9     	b.ls	0x103a1c <_binary_BootROM_ums512_0x100000_0x111FFF_bin_start+0x3a1c>
  1039e4: b0fff802     	adrp	x2, 0x4000
  1039e8: 91003042     	add	x2, x2, #0xc
  1039ec: d2800403     	mov	x3, #0x20               // =32
  1039f0: f2abffe3     	movk	x3, #0x5fff, lsl #16
  1039f4: b9402ba0     	ldr	w0, [x29, #0x28]
  1039f8: 8b204040     	add	x0, x2, w0, uxtw
  1039fc: 39401000     	ldrb	w0, [x0, #0x4]
  103a00: 39000060     	strb	w0, [x3]
  103a04: b9402ba0     	ldr	w0, [x29, #0x28]
  103a08: 11000400     	add	w0, w0, #0x1
  103a0c: b9002ba0     	str	w0, [x29, #0x28]
  103a10: b9402ba0     	ldr	w0, [x29, #0x28]
  103a14: 6b00003f     	cmp	w1, w0
  103a18: 54fffee8     	b.hi	0x1039f4 <_binary_BootROM_ums512_0x100000_0x111FFF_bin_start+0x39f4>
  103a1c: d2800241     	mov	x1, #0x12               // =18
  103a20: f2abffe1     	movk	x1, #0x5fff, lsl #16
  103a24: 39400020     	ldrb	w0, [x1]
  103a28: 12001c00     	and	w0, w0, #0xff
  103a2c: 52800142     	mov	w2, #0xa                // =10
  103a30: 2a020000     	orr	w0, w0, w2
  103a34: 39000020     	strb	w0, [x1]
  103a38: f9400bf3     	ldr	x19, [sp, #0x10]
  103a3c: a8c37bfd     	ldp	x29, x30, [sp], #0x30
  103a40: d65f03c0     	ret
  103a44: a9be7bfd     	stp	x29, x30, [sp, #-0x20]!
  103a48: 910003fd     	mov	x29, sp
  103a4c: d2800140     	mov	x0, #0xa                // =10
  103a50: f2abffe0     	movk	x0, #0x5fff, lsl #16
  103a54: 39400000     	ldrb	w0, [x0]
  103a58: 12001c00     	and	w0, w0, #0xff
  103a5c: 39007fa0     	strb	w0, [x29, #0x1f]
  103a60: 39407fa0     	ldrb	w0, [x29, #0x1f]
  103a64: 36100180     	tbz	w0, #0x2, 0x103a94 <_binary_BootROM_ums512_0x100000_0x111FFF_bin_start+0x3a94>
  103a68: d2800020     	mov	x0, #0x1                // =1
  103a6c: f2abffe0     	movk	x0, #0x5fff, lsl #16
  103a70: 39400000     	ldrb	w0, [x0]
  103a74: 12001c00     	and	w0, w0, #0xff
  103a78: 39007ba0     	strb	w0, [x29, #0x1e]
  103a7c: 39407ba0     	ldrb	w0, [x29, #0x1e]
  103a80: 36200280     	tbz	w0, #0x4, 0x103ad0 <_binary_BootROM_ums512_0x100000_0x111FFF_bin_start+0x3ad0>
  103a84: b0fff800     	adrp	x0, 0x4000
  103a88: b9000c1f     	str	wzr, [x0, #0xc]
  103a8c: b0fff800     	adrp	x0, 0x4000
  103a90: b900141f     	str	wzr, [x0, #0x14]
  103a94: d2800040     	mov	x0, #0x2                // =2
  103a98: f2abffe0     	movk	x0, #0x5fff, lsl #16
  103a9c: 79400000     	ldrh	w0, [x0]
  103aa0: 12003c00     	and	w0, w0, #0xffff
  103aa4: 79003ba0     	strh	w0, [x29, #0x1c]
  103aa8: d283d100     	mov	x0, #0x1e88             // =7816
  103aac: f2abffe0     	movk	x0, #0x5fff, lsl #16
  103ab0: b9400000     	ldr	w0, [x0]
  103ab4: b9001ba0     	str	w0, [x29, #0x18]
  103ab8: 79403ba0     	ldrh	w0, [x29, #0x1c]
  103abc: 37000120     	tbnz	w0, #0x0, 0x103ae0 <_binary_BootROM_ums512_0x100000_0x111FFF_bin_start+0x3ae0>
  103ac0: b9401ba0     	ldr	w0, [x29, #0x18]
  103ac4: 37900180     	tbnz	w0, #0x12, 0x103af4 <_binary_BootROM_ums512_0x100000_0x111FFF_bin_start+0x3af4>
  103ac8: a8c27bfd     	ldp	x29, x30, [sp], #0x20
  103acc: d65f03c0     	ret
  103ad0: 52800021     	mov	w1, #0x1                // =1
  103ad4: b0fff800     	adrp	x0, 0x4000
  103ad8: b9000c01     	str	w1, [x0, #0xc]
  103adc: 17ffffec     	b	0x103a8c <_binary_BootROM_ums512_0x100000_0x111FFF_bin_start+0x3a8c>
  103ae0: d28001c0     	mov	x0, #0xe                // =14
  103ae4: f2abffe0     	movk	x0, #0x5fff, lsl #16
  103ae8: 3900001f     	strb	wzr, [x0]
  103aec: 97fffe47     	bl	0x103408 <_binary_BootROM_ums512_0x100000_0x111FFF_bin_start+0x3408>
  103af0: 17fffff4     	b	0x103ac0 <_binary_BootROM_ums512_0x100000_0x111FFF_bin_start+0x3ac0>
  103af4: b90017bf     	str	wzr, [x29, #0x14]
  103af8: d283d101     	mov	x1, #0x1e88             // =7816
  103afc: f2abffe1     	movk	x1, #0x5fff, lsl #16
  103b00: b9400020     	ldr	w0, [x1]
  103b04: 52a28002     	mov	w2, #0x14000000         // =335544320
  103b08: 2a020000     	orr	w0, w0, w2
  103b0c: b9000020     	str	w0, [x1]
  103b10: d283d200     	mov	x0, #0x1e90             // =7824
  103b14: f2abffe0     	movk	x0, #0x5fff, lsl #16
  103b18: b9400000     	ldr	w0, [x0]
  103b1c: b90013a0     	str	w0, [x29, #0x10]
  103b20: b94013a0     	ldr	w0, [x29, #0x10]
  103b24: 53107c00     	lsr	w0, w0, #16
  103b28: b90013a0     	str	w0, [x29, #0x10]
  103b2c: b94013a0     	ldr	w0, [x29, #0x10]
  103b30: 52808004     	mov	w4, #0x400              // =1024
  103b34: 4b000084     	sub	w4, w4, w0
  103b38: b90017bf     	str	wzr, [x29, #0x14]
  103b3c: b94017a0     	ldr	w0, [x29, #0x14]
  103b40: 6b00009f     	cmp	w4, w0
  103b44: 54000349     	b.ls	0x103bac <_binary_BootROM_ums512_0x100000_0x111FFF_bin_start+0x3bac>
  103b48: b0fff801     	adrp	x1, 0x4000
  103b4c: 9114e021     	add	x1, x1, #0x538
  103b50: b0fff803     	adrp	x3, 0x4000
  103b54: 91003063     	add	x3, x3, #0xc
  103b58: 91003063     	add	x3, x3, #0xc
  103b5c: 14000007     	b	0x103b78 <_binary_BootROM_ums512_0x100000_0x111FFF_bin_start+0x3b78>
  103b60: b94017a0     	ldr	w0, [x29, #0x14]
  103b64: 11000400     	add	w0, w0, #0x1
  103b68: b90017a0     	str	w0, [x29, #0x14]
  103b6c: b94017a0     	ldr	w0, [x29, #0x14]
  103b70: 6b00009f     	cmp	w4, w0
  103b74: 540001c9     	b.ls	0x103bac <_binary_BootROM_ums512_0x100000_0x111FFF_bin_start+0x3bac>
  103b78: b9400420     	ldr	w0, [x1, #0x4]
  103b7c: 11000402     	add	w2, w0, #0x1
  103b80: b9000422     	str	w2, [x1, #0x4]
  103b84: b94017a2     	ldr	w2, [x29, #0x14]
  103b88: 38624862     	ldrb	w2, [x3, w2, uxtw]
  103b8c: 12001c42     	and	w2, w2, #0xff
  103b90: 8b204020     	add	x0, x1, w0, uxtw
  103b94: 39002002     	strb	w2, [x0, #0x8]
  103b98: b9400420     	ldr	w0, [x1, #0x4]
  103b9c: 710ffc1f     	cmp	w0, #0x3ff
  103ba0: 54fffe09     	b.ls	0x103b60 <_binary_BootROM_ums512_0x100000_0x111FFF_bin_start+0x3b60>
  103ba4: b900043f     	str	wzr, [x1, #0x4]
  103ba8: 17ffffee     	b	0x103b60 <_binary_BootROM_ums512_0x100000_0x111FFF_bin_start+0x3b60>
  103bac: d283d101     	mov	x1, #0x1e88             // =7816
  103bb0: f2abffe1     	movk	x1, #0x5fff, lsl #16
  103bb4: b9400020     	ldr	w0, [x1]
  103bb8: 52800282     	mov	w2, #0x14               // =20
  103bbc: 2a020000     	orr	w0, w0, w2
  103bc0: b9000020     	str	w0, [x1]
  103bc4: 91003021     	add	x1, x1, #0xc
  103bc8: b0fff800     	adrp	x0, 0x4000
  103bcc: 9114a000     	add	x0, x0, #0x528
  103bd0: b9000020     	str	w0, [x1]
  103bd4: d283d081     	mov	x1, #0x1e84             // =7812
  103bd8: f2abffe1     	movk	x1, #0x5fff, lsl #16
  103bdc: b9400020     	ldr	w0, [x1]
  103be0: 32000000     	orr	w0, w0, #0x1
  103be4: b9000020     	str	w0, [x1]
  103be8: 17ffffb8     	b	0x103ac8 <_binary_BootROM_ums512_0x100000_0x111FFF_bin_start+0x3ac8>
  103bec: a9bb7bfd     	stp	x29, x30, [sp, #-0x50]!
  103bf0: 910003fd     	mov	x29, sp
  103bf4: a90153f3     	stp	x19, x20, [sp, #0x10]
  103bf8: a9025bf5     	stp	x21, x22, [sp, #0x20]
  103bfc: aa0003f5     	mov	x21, x0
  103c00: 39013fbf     	strb	wzr, [x29, #0x4f]
  103c04: 94000d70     	bl	0x1071c4 <_binary_BootROM_ums512_0x100000_0x111FFF_bin_start+0x71c4>
  103c08: 2a0003e0     	mov	w0, w0
  103c0c: f90023a0     	str	x0, [x29, #0x40]
  103c10: b0fff813     	adrp	x19, 0x4000
  103c14: 9114e273     	add	x19, x19, #0x538
  103c18: b0fff814     	adrp	x20, 0x4000
  103c1c: 91003294     	add	x20, x20, #0xc
  103c20: d287d016     	mov	x22, #0x3e80            // =16000
  103c24: 97ffff88     	bl	0x103a44 <_binary_BootROM_ums512_0x100000_0x111FFF_bin_start+0x3a44>
  103c28: b9400261     	ldr	w1, [x19]
  103c2c: b9400660     	ldr	w0, [x19, #0x4]
  103c30: 6b00003f     	cmp	w1, w0
  103c34: 54000181     	b.ne	0x103c64 <_binary_BootROM_ums512_0x100000_0x111FFF_bin_start+0x3c64>
  103c38: b9440e80     	ldr	w0, [x20, #0x40c]
  103c3c: 34ffff40     	cbz	w0, 0x103c24 <_binary_BootROM_ums512_0x100000_0x111FFF_bin_start+0x3c24>
  103c40: 94000d61     	bl	0x1071c4 <_binary_BootROM_ums512_0x100000_0x111FFF_bin_start+0x71c4>
  103c44: 2a0003e0     	mov	w0, w0
  103c48: f9001fa0     	str	x0, [x29, #0x38]
  103c4c: f9401fa0     	ldr	x0, [x29, #0x38]
  103c50: f94023a1     	ldr	x1, [x29, #0x40]
  103c54: cb010000     	sub	x0, x0, x1
  103c58: eb16001f     	cmp	x0, x22
  103c5c: 54fffe49     	b.ls	0x103c24 <_binary_BootROM_ums512_0x100000_0x111FFF_bin_start+0x3c24>
  103c60: 1400001c     	b	0x103cd0 <_binary_BootROM_ums512_0x100000_0x111FFF_bin_start+0x3cd0>
  103c64: b0fff800     	adrp	x0, 0x4000
  103c68: 9114e002     	add	x2, x0, #0x538
  103c6c: b9453801     	ldr	w1, [x0, #0x538]
  103c70: 8b214041     	add	x1, x2, w1, uxtw
  103c74: 39402021     	ldrb	w1, [x1, #0x8]
  103c78: 12001c21     	and	w1, w1, #0xff
  103c7c: 39013fa1     	strb	w1, [x29, #0x4f]
  103c80: b9453801     	ldr	w1, [x0, #0x538]
  103c84: 11000421     	add	w1, w1, #0x1
  103c88: b9053801     	str	w1, [x0, #0x538]
  103c8c: b9453800     	ldr	w0, [x0, #0x538]
  103c90: 710ffc1f     	cmp	w0, #0x3ff
  103c94: 54000069     	b.ls	0x103ca0 <_binary_BootROM_ums512_0x100000_0x111FFF_bin_start+0x3ca0>
  103c98: b0fff800     	adrp	x0, 0x4000
  103c9c: b905381f     	str	wzr, [x0, #0x538]
  103ca0: b0fff800     	adrp	x0, 0x4000
  103ca4: b9441800     	ldr	w0, [x0, #0x418]
  103ca8: 34000260     	cbz	w0, 0x103cf4 <_binary_BootROM_ums512_0x100000_0x111FFF_bin_start+0x3cf4>
  103cac: 94000d46     	bl	0x1071c4 <_binary_BootROM_ums512_0x100000_0x111FFF_bin_start+0x71c4>
  103cb0: 2a0003e0     	mov	w0, w0
  103cb4: f9001fa0     	str	x0, [x29, #0x38]
  103cb8: f9401fa0     	ldr	x0, [x29, #0x38]
  103cbc: f94023a1     	ldr	x1, [x29, #0x40]
  103cc0: cb010000     	sub	x0, x0, x1
  103cc4: d287d001     	mov	x1, #0x3e80             // =16000
  103cc8: eb01001f     	cmp	x0, x1
  103ccc: 54000149     	b.ls	0x103cf4 <_binary_BootROM_ums512_0x100000_0x111FFF_bin_start+0x3cf4>
  103cd0: b40000d5     	cbz	x21, 0x103ce8 <_binary_BootROM_ums512_0x100000_0x111FFF_bin_start+0x3ce8>
  103cd4: 52800020     	mov	w0, #0x1                // =1
  103cd8: b90002a0     	str	w0, [x21]
  103cdc: 94000efd     	bl	0x1078d0 <_binary_BootROM_ums512_0x100000_0x111FFF_bin_start+0x78d0>
  103ce0: d2800080     	mov	x0, #0x4                // =4
  103ce4: 94000dd6     	bl	0x10743c <_binary_BootROM_ums512_0x100000_0x111FFF_bin_start+0x743c>
  103ce8: 39413fa0     	ldrb	w0, [x29, #0x4f]
  103cec: 12001c00     	and	w0, w0, #0xff
  103cf0: 14000003     	b	0x103cfc <_binary_BootROM_ums512_0x100000_0x111FFF_bin_start+0x3cfc>
  103cf4: 39413fa0     	ldrb	w0, [x29, #0x4f]
  103cf8: 12001c00     	and	w0, w0, #0xff
  103cfc: a94153f3     	ldp	x19, x20, [sp, #0x10]
  103d00: a9425bf5     	ldp	x21, x22, [sp, #0x20]
  103d04: a8c57bfd     	ldp	x29, x30, [sp], #0x50
  103d08: d65f03c0     	ret
  103d0c: a9be7bfd     	stp	x29, x30, [sp, #-0x20]!
  103d10: 910003fd     	mov	x29, sp
  103d14: a90153f3     	stp	x19, x20, [sp, #0x10]
  103d18: aa0003f3     	mov	x19, x0
  103d1c: 2a0103f4     	mov	w20, w1
  103d20: 51000821     	sub	w1, w1, #0x2
  103d24: 94000cc9     	bl	0x107048 <_binary_BootROM_ums512_0x100000_0x111FFF_bin_start+0x7048>
  103d28: 8b34c261     	add	x1, x19, w20, sxtw
  103d2c: d3483c02     	ubfx	x2, x0, #8, #8
  103d30: 381fe022     	sturb	w2, [x1, #-0x2]
  103d34: 381ff020     	sturb	w0, [x1, #-0x1]
  103d38: 52800fc0     	mov	w0, #0x7e               // =126
  103d3c: 3834ca60     	strb	w0, [x19, w20, sxtw]
  103d40: 11000a82     	add	w2, w20, #0x2
  103d44: 7100005f     	cmp	w2, #0x0
  103d48: 540000ed     	b.le	0x103d64 <_binary_BootROM_ums512_0x100000_0x111FFF_bin_start+0x3d64>
  103d4c: 2a0203e0     	mov	w0, w2
  103d50: 8b20c263     	add	x3, x19, w0, sxtw
  103d54: 385ff063     	ldurb	w3, [x3, #-0x1]
  103d58: 3820ca63     	strb	w3, [x19, w0, sxtw]
  103d5c: 71000400     	subs	w0, w0, #0x1
  103d60: 54ffff81     	b.ne	0x103d50 <_binary_BootROM_ums512_0x100000_0x111FFF_bin_start+0x3d50>
  103d64: 52800fc0     	mov	w0, #0x7e               // =126
  103d68: 39000260     	strb	w0, [x19]
  103d6c: aa1303e1     	mov	x1, x19
  103d70: 528000a0     	mov	w0, #0x5                // =5
  103d74: 97fffd77     	bl	0x103350 <_binary_BootROM_ums512_0x100000_0x111FFF_bin_start+0x3350>
  103d78: a94153f3     	ldp	x19, x20, [sp, #0x10]
  103d7c: a8c27bfd     	ldp	x29, x30, [sp], #0x20
  103d80: d65f03c0     	ret
  103d84: a9bf7bfd     	stp	x29, x30, [sp, #-0x10]!
  103d88: 910003fd     	mov	x29, sp
  103d8c: b0fff802     	adrp	x2, 0x4000
  103d90: f944e843     	ldr	x3, [x2, #0x9d0]
  103d94: 53183c01     	ubfiz	w1, w0, #8, #16
  103d98: d3483c00     	ubfx	x0, x0, #8, #8
  103d9c: 2a000020     	orr	w0, w1, w0
  103da0: 79000060     	strh	w0, [x3]
  103da4: f944e840     	ldr	x0, [x2, #0x9d0]
  103da8: 7900041f     	strh	wzr, [x0, #0x2]
  103dac: 528000c1     	mov	w1, #0x6                // =6
  103db0: f944e840     	ldr	x0, [x2, #0x9d0]
  103db4: 97ffffd6     	bl	0x103d0c <_binary_BootROM_ums512_0x100000_0x111FFF_bin_start+0x3d0c>
  103db8: a8c17bfd     	ldp	x29, x30, [sp], #0x10
  103dbc: d65f03c0     	ret
  103dc0: a9bf7bfd     	stp	x29, x30, [sp, #-0x10]!
  103dc4: 910003fd     	mov	x29, sp
  103dc8: b0fff800     	adrp	x0, 0x4000
  103dcc: b949a000     	ldr	w0, [x0, #0x9a0]
  103dd0: 7100041f     	cmp	w0, #0x1
  103dd4: 540000c0     	b.eq	0x103dec <_binary_BootROM_ums512_0x100000_0x111FFF_bin_start+0x3dec>
  103dd8: 52801000     	mov	w0, #0x80               // =128
  103ddc: 97ffffea     	bl	0x103d84 <_binary_BootROM_ums512_0x100000_0x111FFF_bin_start+0x3d84>
  103de0: 52800021     	mov	w1, #0x1                // =1
  103de4: b0fff800     	adrp	x0, 0x4000
  103de8: b909a001     	str	w1, [x0, #0x9a0]
  103dec: 52800602     	mov	w2, #0x30               // =48
  103df0: 52800001     	mov	w1, #0x0                // =0
  103df4: b0fff800     	adrp	x0, 0x4000
  103df8: 91266000     	add	x0, x0, #0x998
  103dfc: 94000cb7     	bl	0x1070d8 <_binary_BootROM_ums512_0x100000_0x111FFF_bin_start+0x70d8>
  103e00: a8c17bfd     	ldp	x29, x30, [sp], #0x10
  103e04: d65f03c0     	ret
  103e08: a9bf7bfd     	stp	x29, x30, [sp, #-0x10]!
  103e0c: 910003fd     	mov	x29, sp
  103e10: b9400401     	ldr	w1, [x0, #0x4]
  103e14: b9400802     	ldr	w2, [x0, #0x8]
  103e18: 4ac14020     	eor	w0, w1, w1, ror #16
  103e1c: 53087c00     	lsr	w0, w0, #8
  103e20: 12009c00     	and	w0, w0, #0xff00ff
  103e24: 4ac12001     	eor	w1, w0, w1, ror #8
  103e28: b0fff800     	adrp	x0, 0x4000
  103e2c: 91266000     	add	x0, x0, #0x998
  103e30: f9001001     	str	x1, [x0, #0x20]
  103e34: f9001401     	str	x1, [x0, #0x28]
  103e38: 4ac24041     	eor	w1, w2, w2, ror #16
  103e3c: 53087c21     	lsr	w1, w1, #8
  103e40: 12009c21     	and	w1, w1, #0xff00ff
  103e44: 4ac22022     	eor	w2, w1, w2, ror #8
  103e48: f9000802     	str	x2, [x0, #0x10]
  103e4c: 52801000     	mov	w0, #0x80               // =128
  103e50: 97ffffcd     	bl	0x103d84 <_binary_BootROM_ums512_0x100000_0x111FFF_bin_start+0x3d84>
  103e54: a8c17bfd     	ldp	x29, x30, [sp], #0x10
  103e58: d65f03c0     	ret
  103e5c: a9be7bfd     	stp	x29, x30, [sp, #-0x20]!
  103e60: 910003fd     	mov	x29, sp
  103e64: a90153f3     	stp	x19, x20, [sp, #0x10]
  103e68: 79400413     	ldrh	w19, [x0, #0x2]
  103e6c: 53087e61     	lsr	w1, w19, #8
  103e70: 2a132033     	orr	w19, w1, w19, lsl #8
  103e74: 12003e73     	and	w19, w19, #0xffff
  103e78: b0fff814     	adrp	x20, 0x4000
  103e7c: 91266294     	add	x20, x20, #0x998
  103e80: 2a1303e2     	mov	w2, w19
  103e84: 91001001     	add	x1, x0, #0x4
  103e88: f9401680     	ldr	x0, [x20, #0x28]
  103e8c: 94000c8d     	bl	0x1070c0 <_binary_BootROM_ums512_0x100000_0x111FFF_bin_start+0x70c0>
  103e90: 92403e73     	and	x19, x19, #0xffff
  103e94: f9401680     	ldr	x0, [x20, #0x28]
  103e98: 8b130000     	add	x0, x0, x19
  103e9c: f9001680     	str	x0, [x20, #0x28]
  103ea0: f9400e80     	ldr	x0, [x20, #0x18]
  103ea4: 8b130013     	add	x19, x0, x19
  103ea8: f9000e93     	str	x19, [x20, #0x18]
  103eac: 52801000     	mov	w0, #0x80               // =128
  103eb0: 97ffffb5     	bl	0x103d84 <_binary_BootROM_ums512_0x100000_0x111FFF_bin_start+0x3d84>
  103eb4: a94153f3     	ldp	x19, x20, [sp, #0x10]
  103eb8: a8c27bfd     	ldp	x29, x30, [sp], #0x20
  103ebc: d65f03c0     	ret
  103ec0: a9bf7bfd     	stp	x29, x30, [sp, #-0x10]!
  103ec4: 910003fd     	mov	x29, sp
  103ec8: b0fff800     	adrp	x0, 0x4000
  103ecc: 91266000     	add	x0, x0, #0x998
  103ed0: f9400c01     	ldr	x1, [x0, #0x18]
  103ed4: f9400800     	ldr	x0, [x0, #0x10]
  103ed8: eb00003f     	cmp	x1, x0
  103edc: 54000100     	b.eq	0x103efc <_binary_BootROM_ums512_0x100000_0x111FFF_bin_start+0x3efc>
  103ee0: 528000a1     	mov	w1, #0x5                // =5
  103ee4: b0fff800     	adrp	x0, 0x4000
  103ee8: b909a001     	str	w1, [x0, #0x9a0]
  103eec: 52801160     	mov	w0, #0x8b               // =139
  103ef0: 97ffffa5     	bl	0x103d84 <_binary_BootROM_ums512_0x100000_0x111FFF_bin_start+0x3d84>
  103ef4: a8c17bfd     	ldp	x29, x30, [sp], #0x10
  103ef8: d65f03c0     	ret
  103efc: 528011e1     	mov	w1, #0x8f               // =143
  103f00: b0fff800     	adrp	x0, 0x4000
  103f04: b9099801     	str	w1, [x0, #0x998]
  103f08: 52801000     	mov	w0, #0x80               // =128
  103f0c: 97ffff9e     	bl	0x103d84 <_binary_BootROM_ums512_0x100000_0x111FFF_bin_start+0x3d84>
  103f10: 17fffff9     	b	0x103ef4 <_binary_BootROM_ums512_0x100000_0x111FFF_bin_start+0x3ef4>
  103f14: a9bf7bfd     	stp	x29, x30, [sp, #-0x10]!
  103f18: 910003fd     	mov	x29, sp
  103f1c: 52801000     	mov	w0, #0x80               // =128
  103f20: 97ffff99     	bl	0x103d84 <_binary_BootROM_ums512_0x100000_0x111FFF_bin_start+0x3d84>
  103f24: 52802580     	mov	w0, #0x12c              // =300
  103f28: 94000cab     	bl	0x1071d4 <_binary_BootROM_ums512_0x100000_0x111FFF_bin_start+0x71d4>
  103f2c: b0fff800     	adrp	x0, 0x4000
  103f30: f944dc00     	ldr	x0, [x0, #0x9b8]
  103f34: 94000f4f     	bl	0x107c70 <_binary_BootROM_ums512_0x100000_0x111FFF_bin_start+0x7c70>
  103f38: a8c17bfd     	ldp	x29, x30, [sp], #0x10
  103f3c: d65f03c0     	ret
  103f40: a9bb7bfd     	stp	x29, x30, [sp, #-0x50]!
  103f44: 910003fd     	mov	x29, sp
  103f48: a90153f3     	stp	x19, x20, [sp, #0x10]
  103f4c: a9025bf5     	stp	x21, x22, [sp, #0x20]
  103f50: f9001bf7     	str	x23, [sp, #0x30]
  103f54: 910143b4     	add	x20, x29, #0x50
  103f58: b81fce9f     	str	wzr, [x20, #-0x4]!
  103f5c: b0fff813     	adrp	x19, 0x4000
  103f60: 9125a273     	add	x19, x19, #0x968
  103f64: 52800055     	mov	w21, #0x2               // =2
  103f68: 52800037     	mov	w23, #0x1               // =1
  103f6c: 52800076     	mov	w22, #0x3               // =3
  103f70: 14000003     	b	0x103f7c <_binary_BootROM_ums512_0x100000_0x111FFF_bin_start+0x3f7c>
  103f74: 7101f81f     	cmp	w0, #0x7e
  103f78: 54000320     	b.eq	0x103fdc <_binary_BootROM_ums512_0x100000_0x111FFF_bin_start+0x3fdc>
  103f7c: b9400660     	ldr	w0, [x19, #0x4]
  103f80: 71000c1f     	cmp	w0, #0x3
  103f84: 54000620     	b.eq	0x104048 <_binary_BootROM_ums512_0x100000_0x111FFF_bin_start+0x4048>
  103f88: aa1403e0     	mov	x0, x20
  103f8c: 97ffff18     	bl	0x103bec <_binary_BootROM_ums512_0x100000_0x111FFF_bin_start+0x3bec>
  103f90: 12001c00     	and	w0, w0, #0xff
  103f94: b9400661     	ldr	w1, [x19, #0x4]
  103f98: 7100043f     	cmp	w1, #0x1
  103f9c: 54000240     	b.eq	0x103fe4 <_binary_BootROM_ums512_0x100000_0x111FFF_bin_start+0x3fe4>
  103fa0: 34fffea1     	cbz	w1, 0x103f74 <_binary_BootROM_ums512_0x100000_0x111FFF_bin_start+0x3f74>
  103fa4: 7100083f     	cmp	w1, #0x2
  103fa8: 54fffea1     	b.ne	0x103f7c <_binary_BootROM_ums512_0x100000_0x111FFF_bin_start+0x3f7c>
  103fac: 7101f81f     	cmp	w0, #0x7e
  103fb0: 540003e0     	b.eq	0x10402c <_binary_BootROM_ums512_0x100000_0x111FFF_bin_start+0x402c>
  103fb4: 7101f41f     	cmp	w0, #0x7d
  103fb8: 540003e0     	b.eq	0x104034 <_binary_BootROM_ums512_0x100000_0x111FFF_bin_start+0x4034>
  103fbc: f9401261     	ldr	x1, [x19, #0x20]
  103fc0: 91000422     	add	x2, x1, #0x1
  103fc4: f9001262     	str	x2, [x19, #0x20]
  103fc8: 39000020     	strb	w0, [x1]
  103fcc: b9401260     	ldr	w0, [x19, #0x10]
  103fd0: 11000400     	add	w0, w0, #0x1
  103fd4: b9001260     	str	w0, [x19, #0x10]
  103fd8: 17ffffe9     	b	0x103f7c <_binary_BootROM_ums512_0x100000_0x111FFF_bin_start+0x3f7c>
  103fdc: b9000677     	str	w23, [x19, #0x4]
  103fe0: 17ffffe7     	b	0x103f7c <_binary_BootROM_ums512_0x100000_0x111FFF_bin_start+0x3f7c>
  103fe4: 7101f81f     	cmp	w0, #0x7e
  103fe8: 54fffca0     	b.eq	0x103f7c <_binary_BootROM_ums512_0x100000_0x111FFF_bin_start+0x3f7c>
  103fec: 7101f41f     	cmp	w0, #0x7d
  103ff0: 54000140     	b.eq	0x104018 <_binary_BootROM_ums512_0x100000_0x111FFF_bin_start+0x4018>
  103ff4: b9000675     	str	w21, [x19, #0x4]
  103ff8: f9401261     	ldr	x1, [x19, #0x20]
  103ffc: 91000422     	add	x2, x1, #0x1
  104000: f9001262     	str	x2, [x19, #0x20]
  104004: 39000020     	strb	w0, [x1]
  104008: b9401260     	ldr	w0, [x19, #0x10]
  10400c: 11000400     	add	w0, w0, #0x1
  104010: b9001260     	str	w0, [x19, #0x10]
  104014: 17ffffda     	b	0x103f7c <_binary_BootROM_ums512_0x100000_0x111FFF_bin_start+0x3f7c>
  104018: aa1403e0     	mov	x0, x20
  10401c: 97fffef4     	bl	0x103bec <_binary_BootROM_ums512_0x100000_0x111FFF_bin_start+0x3bec>
  104020: 12001c00     	and	w0, w0, #0xff
  104024: 521b0000     	eor	w0, w0, #0x20
  104028: 17fffff3     	b	0x103ff4 <_binary_BootROM_ums512_0x100000_0x111FFF_bin_start+0x3ff4>
  10402c: b9000676     	str	w22, [x19, #0x4]
  104030: 17ffffd3     	b	0x103f7c <_binary_BootROM_ums512_0x100000_0x111FFF_bin_start+0x3f7c>
  104034: aa1403e0     	mov	x0, x20
  104038: 97fffeed     	bl	0x103bec <_binary_BootROM_ums512_0x100000_0x111FFF_bin_start+0x3bec>
  10403c: 12001c00     	and	w0, w0, #0xff
  104040: 521b0000     	eor	w0, w0, #0x20
  104044: 17ffffde     	b	0x103fbc <_binary_BootROM_ums512_0x100000_0x111FFF_bin_start+0x3fbc>
  104048: a94153f3     	ldp	x19, x20, [sp, #0x10]
  10404c: a9425bf5     	ldp	x21, x22, [sp, #0x20]
  104050: f9401bf7     	ldr	x23, [sp, #0x30]
  104054: a8c57bfd     	ldp	x29, x30, [sp], #0x50
  104058: d65f03c0     	ret
  10405c: a9bd7bfd     	stp	x29, x30, [sp, #-0x30]!
  104060: 910003fd     	mov	x29, sp
  104064: a90153f3     	stp	x19, x20, [sp, #0x10]
  104068: f90013f5     	str	x21, [sp, #0x20]
  10406c: aa0003f5     	mov	x21, x0
  104070: aa0103f4     	mov	x20, x1
  104074: 90fff813     	adrp	x19, 0x4000
  104078: 9125a273     	add	x19, x19, #0x968
  10407c: f9400e60     	ldr	x0, [x19, #0x18]
  104080: f9001260     	str	x0, [x19, #0x20]
  104084: b900127f     	str	wzr, [x19, #0x10]
  104088: b900067f     	str	wzr, [x19, #0x4]
  10408c: 97ffffad     	bl	0x103f40 <_binary_BootROM_ums512_0x100000_0x111FFF_bin_start+0x3f40>
  104090: b9401261     	ldr	w1, [x19, #0x10]
  104094: f9400e60     	ldr	x0, [x19, #0x18]
  104098: 94000bec     	bl	0x107048 <_binary_BootROM_ums512_0x100000_0x111FFF_bin_start+0x7048>
  10409c: 35000140     	cbnz	w0, 0x1040c4 <_binary_BootROM_ums512_0x100000_0x111FFF_bin_start+0x40c4>
  1040a0: f9400e61     	ldr	x1, [x19, #0x18]
  1040a4: f90002a1     	str	x1, [x21]
  1040a8: b9401260     	ldr	w0, [x19, #0x10]
  1040ac: b9000280     	str	w0, [x20]
  1040b0: 528011e0     	mov	w0, #0x8f               // =143
  1040b4: a94153f3     	ldp	x19, x20, [sp, #0x10]
  1040b8: f94013f5     	ldr	x21, [sp, #0x20]
  1040bc: a8c37bfd     	ldp	x29, x30, [sp], #0x30
  1040c0: d65f03c0     	ret
  1040c4: 52801160     	mov	w0, #0x8b               // =139
  1040c8: 17fffffb     	b	0x1040b4 <_binary_BootROM_ums512_0x100000_0x111FFF_bin_start+0x40b4>
  1040cc: a9bd7bfd     	stp	x29, x30, [sp, #-0x30]!
  1040d0: 910003fd     	mov	x29, sp
  1040d4: a90153f3     	stp	x19, x20, [sp, #0x10]
  1040d8: 90000014     	adrp	x20, 0x104000 <_binary_BootROM_ums512_0x100000_0x111FFF_bin_start+0x4000>
  1040dc: 910d0294     	add	x20, x20, #0x340
  1040e0: 90fff813     	adrp	x19, 0x4000
  1040e4: 14000006     	b	0x1040fc <_binary_BootROM_ums512_0x100000_0x111FFF_bin_start+0x40fc>
  1040e8: 97ffff27     	bl	0x103d84 <_binary_BootROM_ums512_0x100000_0x111FFF_bin_start+0x3d84>
  1040ec: 52800602     	mov	w2, #0x30               // =48
  1040f0: 52800001     	mov	w1, #0x0                // =0
  1040f4: 91266260     	add	x0, x19, #0x998
  1040f8: 94000bf8     	bl	0x1070d8 <_binary_BootROM_ums512_0x100000_0x111FFF_bin_start+0x70d8>
  1040fc: 9100b3a1     	add	x1, x29, #0x2c
  104100: 910083a0     	add	x0, x29, #0x20
  104104: 97ffffd6     	bl	0x10405c <_binary_BootROM_ums512_0x100000_0x111FFF_bin_start+0x405c>
  104108: 71023c1f     	cmp	w0, #0x8f
  10410c: 54fffee1     	b.ne	0x1040e8 <_binary_BootROM_ums512_0x100000_0x111FFF_bin_start+0x40e8>
  104110: f94013a0     	ldr	x0, [x29, #0x20]
  104114: 79400001     	ldrh	w1, [x0]
  104118: 53087c22     	lsr	w2, w1, #8
  10411c: 2a012041     	orr	w1, w2, w1, lsl #8
  104120: 92403c21     	and	x1, x1, #0xffff
  104124: f8617a82     	ldr	x2, [x20, x1, lsl #3]
  104128: b9402fa1     	ldr	w1, [x29, #0x2c]
  10412c: d63f0040     	blr	x2
  104130: 17fffff3     	b	0x1040fc <_binary_BootROM_ums512_0x100000_0x111FFF_bin_start+0x40fc>
  104134: a9bd7bfd     	stp	x29, x30, [sp, #-0x30]!
  104138: 910003fd     	mov	x29, sp
  10413c: a90153f3     	stp	x19, x20, [sp, #0x10]
  104140: 9100c3b3     	add	x19, x29, #0x30
  104144: b81fce7f     	str	wzr, [x19, #-0x4]!
  104148: d0fff7e0     	adrp	x0, 0x2000
  10414c: 9101a000     	add	x0, x0, #0x68
  104150: 90fff801     	adrp	x1, 0x4000
  104154: f904e820     	str	x0, [x1, #0x9d0]
  104158: 90fff801     	adrp	x1, 0x4000
  10415c: 91278021     	add	x1, x1, #0x9e0
  104160: 90fff800     	adrp	x0, 0x4000
  104164: f904ec01     	str	x1, [x0, #0x9d8]
  104168: 90fff800     	adrp	x0, 0x4000
  10416c: 9125a000     	add	x0, x0, #0x968
  104170: 52808002     	mov	w2, #0x400              // =1024
  104174: b9000c02     	str	w2, [x0, #0xc]
  104178: f9000c01     	str	x1, [x0, #0x18]
  10417c: 90fff800     	adrp	x0, 0x4000
  104180: 9114e001     	add	x1, x0, #0x538
  104184: b905381f     	str	wzr, [x0, #0x538]
  104188: b900043f     	str	wzr, [x1, #0x4]
  10418c: 14000004     	b	0x10419c <_binary_BootROM_ums512_0x100000_0x111FFF_bin_start+0x419c>
  104190: b9402fa0     	ldr	w0, [x29, #0x2c]
  104194: 7100041f     	cmp	w0, #0x1
  104198: 54000400     	b.eq	0x104218 <_binary_BootROM_ums512_0x100000_0x111FFF_bin_start+0x4218>
  10419c: aa1303e0     	mov	x0, x19
  1041a0: 97fffe93     	bl	0x103bec <_binary_BootROM_ums512_0x100000_0x111FFF_bin_start+0x3bec>
  1041a4: 12001c00     	and	w0, w0, #0xff
  1041a8: 7101f81f     	cmp	w0, #0x7e
  1041ac: 54ffff21     	b.ne	0x104190 <_binary_BootROM_ums512_0x100000_0x111FFF_bin_start+0x4190>
  1041b0: b9402fa0     	ldr	w0, [x29, #0x2c]
  1041b4: 35fffee0     	cbnz	w0, 0x104190 <_binary_BootROM_ums512_0x100000_0x111FFF_bin_start+0x4190>
  1041b8: 90fff813     	adrp	x19, 0x4000
  1041bc: f944ea60     	ldr	x0, [x19, #0x9d0]
  1041c0: 128fdfe1     	mov	w1, #-0x7f00            // =-32512
  1041c4: 79000001     	strh	w1, [x0]
  1041c8: f944ea74     	ldr	x20, [x19, #0x9d0]
  1041cc: 9400019d     	bl	0x104840 <_binary_BootROM_ums512_0x100000_0x111FFF_bin_start+0x4840>
  1041d0: 53183c01     	ubfiz	w1, w0, #8, #16
  1041d4: d3483c00     	ubfx	x0, x0, #8, #8
  1041d8: 2a000020     	orr	w0, w1, w0
  1041dc: 79000680     	strh	w0, [x20, #0x2]
  1041e0: f944ea74     	ldr	x20, [x19, #0x9d0]
  1041e4: 91001294     	add	x20, x20, #0x4
  1041e8: 94000196     	bl	0x104840 <_binary_BootROM_ums512_0x100000_0x111FFF_bin_start+0x4840>
  1041ec: 2a0003e2     	mov	w2, w0
  1041f0: 90000001     	adrp	x1, 0x104000 <_binary_BootROM_ums512_0x100000_0x111FFF_bin_start+0x4000>
  1041f4: 9121c021     	add	x1, x1, #0x870
  1041f8: aa1403e0     	mov	x0, x20
  1041fc: 94000bb1     	bl	0x1070c0 <_binary_BootROM_ums512_0x100000_0x111FFF_bin_start+0x70c0>
  104200: f944ea73     	ldr	x19, [x19, #0x9d0]
  104204: 9400018f     	bl	0x104840 <_binary_BootROM_ums512_0x100000_0x111FFF_bin_start+0x4840>
  104208: 11001801     	add	w1, w0, #0x6
  10420c: aa1303e0     	mov	x0, x19
  104210: 97fffebf     	bl	0x103d0c <_binary_BootROM_ums512_0x100000_0x111FFF_bin_start+0x3d0c>
  104214: 97ffffae     	bl	0x1040cc <_binary_BootROM_ums512_0x100000_0x111FFF_bin_start+0x40cc>
  104218: 52800020     	mov	w0, #0x1                // =1
  10421c: a94153f3     	ldp	x19, x20, [sp, #0x10]
  104220: a8c37bfd     	ldp	x29, x30, [sp], #0x30
  104224: d65f03c0     	ret
  104228: a9be7bfd     	stp	x29, x30, [sp, #-0x20]!
  10422c: 910003fd     	mov	x29, sp
  104230: a90153f3     	stp	x19, x20, [sp, #0x10]
  104234: 2a0003f4     	mov	w20, w0
  104238: 94000b75     	bl	0x10700c <_binary_BootROM_ums512_0x100000_0x111FFF_bin_start+0x700c>
  10423c: d2800081     	mov	x1, #0x4                // =4
  104240: f2a64fa1     	movk	x1, #0x327d, lsl #16
  104244: b9400020     	ldr	w0, [x1]
  104248: 52822002     	mov	w2, #0x1100             // =4352
  10424c: 2a020000     	orr	w0, w0, w2
  104250: b9000020     	str	w0, [x1]
  104254: 91080021     	add	x1, x1, #0x200
  104258: b9400020     	ldr	w0, [x1]
  10425c: 32080000     	orr	w0, w0, #0x1000000
  104260: b9000020     	str	w0, [x1]
  104264: d2800b00     	mov	x0, #0x58               // =88
  104268: f2a64760     	movk	x0, #0x323b, lsl #16
  10426c: b9400001     	ldr	w1, [x0]
  104270: 32100021     	orr	w1, w1, #0x10000
  104274: b9000001     	str	w1, [x0]
  104278: d2804102     	mov	x2, #0x208              // =520
  10427c: f2a64fa2     	movk	x2, #0x327d, lsl #16
  104280: b9400041     	ldr	w1, [x2]
  104284: 32020021     	orr	w1, w1, #0x40000000
  104288: b9000041     	str	w1, [x2]
  10428c: b9400001     	ldr	w1, [x0]
  104290: 32040021     	orr	w1, w1, #0x10000000
  104294: b9000001     	str	w1, [x0]
  104298: d2800213     	mov	x19, #0x10              // =16
  10429c: f2a64fb3     	movk	x19, #0x327d, lsl #16
  1042a0: b9400260     	ldr	w0, [x19]
  1042a4: 32180400     	orr	w0, w0, #0x300
  1042a8: b9000260     	str	w0, [x19]
  1042ac: 52800040     	mov	w0, #0x2                // =2
  1042b0: 94000bc9     	bl	0x1071d4 <_binary_BootROM_ums512_0x100000_0x111FFF_bin_start+0x71d4>
  1042b4: b9400260     	ldr	w0, [x19]
  1042b8: 12167400     	and	w0, w0, #0xfffffcff
  1042bc: b9000260     	str	w0, [x19]
  1042c0: 52800b40     	mov	w0, #0x5a               // =90
  1042c4: 94000d41     	bl	0x1077c8 <_binary_BootROM_ums512_0x100000_0x111FFF_bin_start+0x77c8>
  1042c8: 52800140     	mov	w0, #0xa                // =10
  1042cc: 94000bc2     	bl	0x1071d4 <_binary_BootROM_ums512_0x100000_0x111FFF_bin_start+0x71d4>
  1042d0: 2a1403e0     	mov	w0, w20
  1042d4: 97fffb83     	bl	0x1030e0 <_binary_BootROM_ums512_0x100000_0x111FFF_bin_start+0x30e0>
  1042d8: a94153f3     	ldp	x19, x20, [sp, #0x10]
  1042dc: a8c27bfd     	ldp	x29, x30, [sp], #0x20
  1042e0: d65f03c0     	ret
  1042e4: a9be7bfd     	stp	x29, x30, [sp, #-0x20]!
  1042e8: 910003fd     	mov	x29, sp
  1042ec: f9000bf3     	str	x19, [sp, #0x10]
  1042f0: 2a0003f3     	mov	w19, w0
  1042f4: 52800000     	mov	w0, #0x0                // =0
  1042f8: 94000d76     	bl	0x1078d0 <_binary_BootROM_ums512_0x100000_0x111FFF_bin_start+0x78d0>
  1042fc: 2a1303e0     	mov	w0, w19
  104300: 94000c01     	bl	0x107304 <_binary_BootROM_ums512_0x100000_0x111FFF_bin_start+0x7304>
  104304: 340000e0     	cbz	w0, 0x104320 <_binary_BootROM_ums512_0x100000_0x111FFF_bin_start+0x4320>
  104308: d2800040     	mov	x0, #0x2                // =2
  10430c: 94000c4c     	bl	0x10743c <_binary_BootROM_ums512_0x100000_0x111FFF_bin_start+0x743c>
  104310: 97ffff89     	bl	0x104134 <_binary_BootROM_ums512_0x100000_0x111FFF_bin_start+0x4134>
  104314: 7100041f     	cmp	w0, #0x1
  104318: 540000c0     	b.eq	0x104330 <_binary_BootROM_ums512_0x100000_0x111FFF_bin_start+0x4330>
  10431c: 14000000     	b	0x10431c <_binary_BootROM_ums512_0x100000_0x111FFF_bin_start+0x431c>
  104320: 94000d2e     	bl	0x1077d8 <_binary_BootROM_ums512_0x100000_0x111FFF_bin_start+0x77d8>
  104324: 2a1303e0     	mov	w0, w19
  104328: 97ffffc0     	bl	0x104228 <_binary_BootROM_ums512_0x100000_0x111FFF_bin_start+0x4228>
  10432c: 17fffff7     	b	0x104308 <_binary_BootROM_ums512_0x100000_0x111FFF_bin_start+0x4308>
  104330: f9400bf3     	ldr	x19, [sp, #0x10]
  104334: a8c27bfd     	ldp	x29, x30, [sp], #0x20
  104338: d65f03c0     	ret
  10433c: 00000000     	udf	#0x0
  104340: 00103dc0     	<unknown>
  104344: 00000000     	udf	#0x0
  104348: 00103e08     	<unknown>
  10434c: 00000000     	udf	#0x0
  104350: 00103e5c     	<unknown>
  104354: 00000000     	udf	#0x0
  104358: 00103ec0     	<unknown>
  10435c: 00000000     	udf	#0x0
  104360: 00103f14     	<unknown>
  104364: 00000000     	udf	#0x0
  104368: d0fff7e0     	adrp	x0, 0x2000
  10436c: 91002000     	add	x0, x0, #0x8
  104370: d65f03c0     	ret
  104374: d0fff7e0     	adrp	x0, 0x2000
  104378: 91002000     	add	x0, x0, #0x8
  10437c: 91005000     	add	x0, x0, #0x14
  104380: d65f03c0     	ret
  104384: d0fff7e0     	adrp	x0, 0x2000
  104388: 91002000     	add	x0, x0, #0x8
  10438c: 9100d000     	add	x0, x0, #0x34
  104390: d65f03c0     	ret
  104394: a9bf7bfd     	stp	x29, x30, [sp, #-0x10]!
  104398: 910003fd     	mov	x29, sp
  10439c: 90fff802     	adrp	x2, 0x4000
  1043a0: f944e843     	ldr	x3, [x2, #0x9d0]
  1043a4: 53183c01     	ubfiz	w1, w0, #8, #16
  1043a8: d3483c00     	ubfx	x0, x0, #8, #8
  1043ac: 2a000020     	orr	w0, w1, w0
  1043b0: 79000060     	strh	w0, [x3]
  1043b4: f944e840     	ldr	x0, [x2, #0x9d0]
  1043b8: 7900041f     	strh	wzr, [x0, #0x2]
  1043bc: 528000c1     	mov	w1, #0x6                // =6
  1043c0: f944e840     	ldr	x0, [x2, #0x9d0]
  1043c4: 9400012d     	bl	0x104878 <_binary_BootROM_ums512_0x100000_0x111FFF_bin_start+0x4878>
  1043c8: a8c17bfd     	ldp	x29, x30, [sp], #0x10
  1043cc: d65f03c0     	ret
  1043d0: a9bf7bfd     	stp	x29, x30, [sp, #-0x10]!
  1043d4: 910003fd     	mov	x29, sp
  1043d8: 52801000     	mov	w0, #0x80               // =128
  1043dc: 97ffffee     	bl	0x104394 <_binary_BootROM_ums512_0x100000_0x111FFF_bin_start+0x4394>
  1043e0: 90fff800     	adrp	x0, 0x4000
  1043e4: f944dc00     	ldr	x0, [x0, #0x9b8]
  1043e8: 94000e22     	bl	0x107c70 <_binary_BootROM_ums512_0x100000_0x111FFF_bin_start+0x7c70>
  1043ec: a8c17bfd     	ldp	x29, x30, [sp], #0x10
  1043f0: d65f03c0     	ret
  1043f4: a9bf7bfd     	stp	x29, x30, [sp, #-0x10]!
  1043f8: 910003fd     	mov	x29, sp
  1043fc: 90fff800     	adrp	x0, 0x4000
  104400: 91266000     	add	x0, x0, #0x998
  104404: f9400c01     	ldr	x1, [x0, #0x18]
  104408: f9400800     	ldr	x0, [x0, #0x10]
  10440c: eb00003f     	cmp	x1, x0
  104410: 54000100     	b.eq	0x104430 <_binary_BootROM_ums512_0x100000_0x111FFF_bin_start+0x4430>
  104414: 528000a1     	mov	w1, #0x5                // =5
  104418: 90fff800     	adrp	x0, 0x4000
  10441c: b909a001     	str	w1, [x0, #0x9a0]
  104420: 52801160     	mov	w0, #0x8b               // =139
  104424: 97ffffdc     	bl	0x104394 <_binary_BootROM_ums512_0x100000_0x111FFF_bin_start+0x4394>
  104428: a8c17bfd     	ldp	x29, x30, [sp], #0x10
  10442c: d65f03c0     	ret
  104430: 528011e1     	mov	w1, #0x8f               // =143
  104434: 90fff800     	adrp	x0, 0x4000
  104438: b9099801     	str	w1, [x0, #0x998]
  10443c: 52801000     	mov	w0, #0x80               // =128
  104440: 97ffffd5     	bl	0x104394 <_binary_BootROM_ums512_0x100000_0x111FFF_bin_start+0x4394>
  104444: 17fffff9     	b	0x104428 <_binary_BootROM_ums512_0x100000_0x111FFF_bin_start+0x4428>
  104448: a9bf7bfd     	stp	x29, x30, [sp, #-0x10]!
  10444c: 910003fd     	mov	x29, sp
  104450: b9400401     	ldr	w1, [x0, #0x4]
  104454: b9400802     	ldr	w2, [x0, #0x8]
  104458: 4ac14020     	eor	w0, w1, w1, ror #16
  10445c: 53087c00     	lsr	w0, w0, #8
  104460: 12009c00     	and	w0, w0, #0xff00ff
  104464: 4ac12001     	eor	w1, w0, w1, ror #8
  104468: 90fff800     	adrp	x0, 0x4000
  10446c: 91266000     	add	x0, x0, #0x998
  104470: f9001001     	str	x1, [x0, #0x20]
  104474: f9001401     	str	x1, [x0, #0x28]
  104478: 4ac24041     	eor	w1, w2, w2, ror #16
  10447c: 53087c21     	lsr	w1, w1, #8
  104480: 12009c21     	and	w1, w1, #0xff00ff
  104484: 4ac22022     	eor	w2, w1, w2, ror #8
  104488: f9000802     	str	x2, [x0, #0x10]
  10448c: 52801000     	mov	w0, #0x80               // =128
  104490: 97ffffc1     	bl	0x104394 <_binary_BootROM_ums512_0x100000_0x111FFF_bin_start+0x4394>
  104494: a8c17bfd     	ldp	x29, x30, [sp], #0x10
  104498: d65f03c0     	ret
  10449c: a9be7bfd     	stp	x29, x30, [sp, #-0x20]!
  1044a0: 910003fd     	mov	x29, sp
  1044a4: a90153f3     	stp	x19, x20, [sp, #0x10]
  1044a8: 79400413     	ldrh	w19, [x0, #0x2]
  1044ac: 53087e61     	lsr	w1, w19, #8
  1044b0: 2a132033     	orr	w19, w1, w19, lsl #8
  1044b4: 12003e73     	and	w19, w19, #0xffff
  1044b8: 90fff814     	adrp	x20, 0x4000
  1044bc: 91266294     	add	x20, x20, #0x998
  1044c0: 2a1303e2     	mov	w2, w19
  1044c4: 91001001     	add	x1, x0, #0x4
  1044c8: f9401680     	ldr	x0, [x20, #0x28]
  1044cc: 94000afd     	bl	0x1070c0 <_binary_BootROM_ums512_0x100000_0x111FFF_bin_start+0x70c0>
  1044d0: 92403e73     	and	x19, x19, #0xffff
  1044d4: f9401680     	ldr	x0, [x20, #0x28]
  1044d8: 8b130000     	add	x0, x0, x19
  1044dc: f9001680     	str	x0, [x20, #0x28]
  1044e0: f9400e80     	ldr	x0, [x20, #0x18]
  1044e4: 8b130013     	add	x19, x0, x19
  1044e8: f9000e93     	str	x19, [x20, #0x18]
  1044ec: 52801000     	mov	w0, #0x80               // =128
  1044f0: 97ffffa9     	bl	0x104394 <_binary_BootROM_ums512_0x100000_0x111FFF_bin_start+0x4394>
  1044f4: a94153f3     	ldp	x19, x20, [sp, #0x10]
  1044f8: a8c27bfd     	ldp	x29, x30, [sp], #0x20
  1044fc: d65f03c0     	ret
  104500: a9bf7bfd     	stp	x29, x30, [sp, #-0x10]!
  104504: 910003fd     	mov	x29, sp
  104508: 90fff800     	adrp	x0, 0x4000
  10450c: b949a000     	ldr	w0, [x0, #0x9a0]
  104510: 7100041f     	cmp	w0, #0x1
  104514: 540000c0     	b.eq	0x10452c <_binary_BootROM_ums512_0x100000_0x111FFF_bin_start+0x452c>
  104518: 52801000     	mov	w0, #0x80               // =128
  10451c: 97ffff9e     	bl	0x104394 <_binary_BootROM_ums512_0x100000_0x111FFF_bin_start+0x4394>
  104520: 52800021     	mov	w1, #0x1                // =1
  104524: 90fff800     	adrp	x0, 0x4000
  104528: b909a001     	str	w1, [x0, #0x9a0]
  10452c: 52800602     	mov	w2, #0x30               // =48
  104530: 52800001     	mov	w1, #0x0                // =0
  104534: 90fff800     	adrp	x0, 0x4000
  104538: 91266000     	add	x0, x0, #0x998
  10453c: 94000ae7     	bl	0x1070d8 <_binary_BootROM_ums512_0x100000_0x111FFF_bin_start+0x70d8>
  104540: a8c17bfd     	ldp	x29, x30, [sp], #0x10
  104544: d65f03c0     	ret
  104548: 529999a1     	mov	w1, #0xcccd             // =52429
  10454c: 72b99981     	movk	w1, #0xcccc, lsl #16
  104550: 9ba17c00     	umull	x0, w0, w1
  104554: d360fc00     	lsr	x0, x0, #32
  104558: 53047c00     	lsr	w0, w0, #4
  10455c: 7100781f     	cmp	w0, #0x1e
  104560: 540000e8     	b.hi	0x10457c <_binary_BootROM_ums512_0x100000_0x111FFF_bin_start+0x457c>
  104564: 52800021     	mov	w1, #0x1                // =1
  104568: 1ac02020     	lsl	w0, w1, w0
  10456c: 90fff801     	adrp	x1, 0x4000
  104570: b9441c21     	ldr	w1, [x1, #0x41c]
  104574: 6a01001f     	tst	w0, w1
  104578: 54000040     	b.eq	0x104580 <_binary_BootROM_ums512_0x100000_0x111FFF_bin_start+0x4580>
  10457c: d65f03c0     	ret
  104580: d2800102     	mov	x2, #0x8                // =8
  104584: f2ae0002     	movk	x2, #0x7000, lsl #16
  104588: b9400041     	ldr	w1, [x2]
  10458c: 367fffe1     	tbz	w1, #0xf, 0x104588 <_binary_BootROM_ums512_0x100000_0x111FFF_bin_start+0x4588>
  104590: 52800aa2     	mov	w2, #0x55               // =85
  104594: d2ae0001     	mov	x1, #0x70000000         // =1879048192
  104598: b9000022     	str	w2, [x1]
  10459c: d2800102     	mov	x2, #0x8                // =8
  1045a0: f2ae0202     	movk	x2, #0x7010, lsl #16
  1045a4: b9400041     	ldr	w1, [x2]
  1045a8: 367fffe1     	tbz	w1, #0xf, 0x1045a4 <_binary_BootROM_ums512_0x100000_0x111FFF_bin_start+0x45a4>
  1045ac: 52800aa2     	mov	w2, #0x55               // =85
  1045b0: d2ae0201     	mov	x1, #0x70100000         // =1880096768
  1045b4: b9000022     	str	w2, [x1]
  1045b8: 90fff802     	adrp	x2, 0x4000
  1045bc: b9441c41     	ldr	w1, [x2, #0x41c]
  1045c0: 2a000020     	orr	w0, w1, w0
  1045c4: b9041c40     	str	w0, [x2, #0x41c]
  1045c8: 17ffffed     	b	0x10457c <_binary_BootROM_ums512_0x100000_0x111FFF_bin_start+0x457c>
  1045cc: a9bb7bfd     	stp	x29, x30, [sp, #-0x50]!
  1045d0: 910003fd     	mov	x29, sp
  1045d4: a90153f3     	stp	x19, x20, [sp, #0x10]
  1045d8: a9025bf5     	stp	x21, x22, [sp, #0x20]
  1045dc: a90363f7     	stp	x23, x24, [sp, #0x30]
  1045e0: a9046bf9     	stp	x25, x26, [sp, #0x40]
  1045e4: d2800100     	mov	x0, #0x8                // =8
  1045e8: f2ae0200     	movk	x0, #0x7010, lsl #16
  1045ec: b9400000     	ldr	w0, [x0]
  1045f0: 37600100     	tbnz	w0, #0xc, 0x104610 <_binary_BootROM_ums512_0x100000_0x111FFF_bin_start+0x4610>
  1045f4: d2800082     	mov	x2, #0x4                // =4
  1045f8: f2ae0202     	movk	x2, #0x7010, lsl #16
  1045fc: d2800101     	mov	x1, #0x8                // =8
  104600: f2ae0201     	movk	x1, #0x7010, lsl #16
  104604: b9400040     	ldr	w0, [x2]
  104608: b9400020     	ldr	w0, [x1]
  10460c: 3667ffc0     	tbz	w0, #0xc, 0x104604 <_binary_BootROM_ums512_0x100000_0x111FFF_bin_start+0x4604>
  104610: d2800100     	mov	x0, #0x8                // =8
  104614: f2ae0000     	movk	x0, #0x7000, lsl #16
  104618: b9400000     	ldr	w0, [x0]
  10461c: 37600100     	tbnz	w0, #0xc, 0x10463c <_binary_BootROM_ums512_0x100000_0x111FFF_bin_start+0x463c>
  104620: d2800082     	mov	x2, #0x4                // =4
  104624: f2ae0002     	movk	x2, #0x7000, lsl #16
  104628: d2800101     	mov	x1, #0x8                // =8
  10462c: f2ae0001     	movk	x1, #0x7000, lsl #16
  104630: b9400040     	ldr	w0, [x2]
  104634: b9400020     	ldr	w0, [x1]
  104638: 3667ffc0     	tbz	w0, #0xc, 0x104630 <_binary_BootROM_ums512_0x100000_0x111FFF_bin_start+0x4630>
  10463c: 94000ae2     	bl	0x1071c4 <_binary_BootROM_ums512_0x100000_0x111FFF_bin_start+0x71c4>
  104640: 2a0003f6     	mov	w22, w0
  104644: 94000ae0     	bl	0x1071c4 <_binary_BootROM_ums512_0x100000_0x111FFF_bin_start+0x71c4>
  104648: 2a0003f3     	mov	w19, w0
  10464c: 52800000     	mov	w0, #0x0                // =0
  104650: 97ffffbe     	bl	0x104548 <_binary_BootROM_ums512_0x100000_0x111FFF_bin_start+0x4548>
  104654: 52800014     	mov	w20, #0x0               // =0
  104658: 52800015     	mov	w21, #0x0               // =0
  10465c: d2800118     	mov	x24, #0x8               // =8
  104660: f2ae0218     	movk	x24, #0x7010, lsl #16
  104664: d280009a     	mov	x26, #0x4               // =4
  104668: f2ae021a     	movk	x26, #0x7010, lsl #16
  10466c: d2800117     	mov	x23, #0x8               // =8
  104670: f2ae0017     	movk	x23, #0x7000, lsl #16
  104674: d2800099     	mov	x25, #0x4               // =4
  104678: f2ae0019     	movk	x25, #0x7000, lsl #16
  10467c: 1400000a     	b	0x1046a4 <_binary_BootROM_ums512_0x100000_0x111FFF_bin_start+0x46a4>
  104680: 71000a9f     	cmp	w20, #0x2
  104684: 540002a8     	b.hi	0x1046d8 <_binary_BootROM_ums512_0x100000_0x111FFF_bin_start+0x46d8>
  104688: 71000abf     	cmp	w21, #0x2
  10468c: 540003e8     	b.hi	0x104708 <_binary_BootROM_ums512_0x100000_0x111FFF_bin_start+0x4708>
  104690: 94000acd     	bl	0x1071c4 <_binary_BootROM_ums512_0x100000_0x111FFF_bin_start+0x71c4>
  104694: 2a0003f3     	mov	w19, w0
  104698: 4b160000     	sub	w0, w0, w22
  10469c: 7101401f     	cmp	w0, #0x50
  1046a0: 54000428     	b.hi	0x104724 <_binary_BootROM_ums512_0x100000_0x111FFF_bin_start+0x4724>
  1046a4: 4b160260     	sub	w0, w19, w22
  1046a8: 97ffffa8     	bl	0x104548 <_binary_BootROM_ums512_0x100000_0x111FFF_bin_start+0x4548>
  1046ac: b9400300     	ldr	w0, [x24]
  1046b0: 37600080     	tbnz	w0, #0xc, 0x1046c0 <_binary_BootROM_ums512_0x100000_0x111FFF_bin_start+0x46c0>
  1046b4: b9400340     	ldr	w0, [x26]
  1046b8: 7101f81f     	cmp	w0, #0x7e
  1046bc: 1a941694     	cinc	w20, w20, eq
  1046c0: b94002e0     	ldr	w0, [x23]
  1046c4: 3767fde0     	tbnz	w0, #0xc, 0x104680 <_binary_BootROM_ums512_0x100000_0x111FFF_bin_start+0x4680>
  1046c8: b9400320     	ldr	w0, [x25]
  1046cc: 7101f81f     	cmp	w0, #0x7e
  1046d0: 1a9516b5     	cinc	w21, w21, eq
  1046d4: 17ffffeb     	b	0x104680 <_binary_BootROM_ums512_0x100000_0x111FFF_bin_start+0x4680>
  1046d8: 52ae0201     	mov	w1, #0x70100000         // =1880096768
  1046dc: 90fff800     	adrp	x0, 0x4000
  1046e0: b909c801     	str	w1, [x0, #0x9c8]
  1046e4: 52800d40     	mov	w0, #0x6a               // =106
  1046e8: 94000c38     	bl	0x1077c8 <_binary_BootROM_ums512_0x100000_0x111FFF_bin_start+0x77c8>
  1046ec: 52800020     	mov	w0, #0x1                // =1
  1046f0: a94153f3     	ldp	x19, x20, [sp, #0x10]
  1046f4: a9425bf5     	ldp	x21, x22, [sp, #0x20]
  1046f8: a94363f7     	ldp	x23, x24, [sp, #0x30]
  1046fc: a9446bf9     	ldp	x25, x26, [sp, #0x40]
  104700: a8c57bfd     	ldp	x29, x30, [sp], #0x50
  104704: d65f03c0     	ret
  104708: 52ae0001     	mov	w1, #0x70000000         // =1879048192
  10470c: 90fff800     	adrp	x0, 0x4000
  104710: b909c801     	str	w1, [x0, #0x9c8]
  104714: 52800f40     	mov	w0, #0x7a               // =122
  104718: 94000c2c     	bl	0x1077c8 <_binary_BootROM_ums512_0x100000_0x111FFF_bin_start+0x77c8>
  10471c: 52800020     	mov	w0, #0x1                // =1
  104720: 17fffff4     	b	0x1046f0 <_binary_BootROM_ums512_0x100000_0x111FFF_bin_start+0x46f0>
  104724: 52800000     	mov	w0, #0x0                // =0
  104728: 17fffff2     	b	0x1046f0 <_binary_BootROM_ums512_0x100000_0x111FFF_bin_start+0x46f0>
  10472c: a9bd7bfd     	stp	x29, x30, [sp, #-0x30]!
  104730: 910003fd     	mov	x29, sp
  104734: a90153f3     	stp	x19, x20, [sp, #0x10]
  104738: 90000014     	adrp	x20, 0x104000 <_binary_BootROM_ums512_0x100000_0x111FFF_bin_start+0x4000>
  10473c: 91212294     	add	x20, x20, #0x848
  104740: 90fff813     	adrp	x19, 0x4000
  104744: 14000006     	b	0x10475c <_binary_BootROM_ums512_0x100000_0x111FFF_bin_start+0x475c>
  104748: 97ffff13     	bl	0x104394 <_binary_BootROM_ums512_0x100000_0x111FFF_bin_start+0x4394>
  10474c: 52800602     	mov	w2, #0x30               // =48
  104750: 52800001     	mov	w1, #0x0                // =0
  104754: 91266260     	add	x0, x19, #0x998
  104758: 94000a60     	bl	0x1070d8 <_binary_BootROM_ums512_0x100000_0x111FFF_bin_start+0x70d8>
  10475c: 9100b3a1     	add	x1, x29, #0x2c
  104760: 910083a0     	add	x0, x29, #0x20
  104764: 940000db     	bl	0x104ad0 <_binary_BootROM_ums512_0x100000_0x111FFF_bin_start+0x4ad0>
  104768: 71023c1f     	cmp	w0, #0x8f
  10476c: 54fffee1     	b.ne	0x104748 <_binary_BootROM_ums512_0x100000_0x111FFF_bin_start+0x4748>
  104770: f94013a0     	ldr	x0, [x29, #0x20]
  104774: 79400001     	ldrh	w1, [x0]
  104778: 53087c22     	lsr	w2, w1, #8
  10477c: 2a012041     	orr	w1, w2, w1, lsl #8
  104780: 92403c21     	and	x1, x1, #0xffff
  104784: f8617a82     	ldr	x2, [x20, x1, lsl #3]
  104788: b9402fa1     	ldr	w1, [x29, #0x2c]
  10478c: d63f0040     	blr	x2
  104790: 17fffff3     	b	0x10475c <_binary_BootROM_ums512_0x100000_0x111FFF_bin_start+0x475c>
  104794: a9be7bfd     	stp	x29, x30, [sp, #-0x20]!
  104798: 910003fd     	mov	x29, sp
  10479c: f9000bf3     	str	x19, [sp, #0x10]
  1047a0: d2800100     	mov	x0, #0x8                // =8
  1047a4: 94000b26     	bl	0x10743c <_binary_BootROM_ums512_0x100000_0x111FFF_bin_start+0x743c>
  1047a8: 90fff813     	adrp	x19, 0x4000
  1047ac: 91266273     	add	x19, x19, #0x998
  1047b0: 52800602     	mov	w2, #0x30               // =48
  1047b4: 52800001     	mov	w1, #0x0                // =0
  1047b8: aa1303e0     	mov	x0, x19
  1047bc: 94000a47     	bl	0x1070d8 <_binary_BootROM_ums512_0x100000_0x111FFF_bin_start+0x70d8>
  1047c0: b9000a7f     	str	wzr, [x19, #0x8]
  1047c4: 90fff813     	adrp	x19, 0x4000
  1047c8: d0fff7e0     	adrp	x0, 0x2000
  1047cc: 9101a000     	add	x0, x0, #0x68
  1047d0: f904ea60     	str	x0, [x19, #0x9d0]
  1047d4: 90fff800     	adrp	x0, 0x4000
  1047d8: 91278000     	add	x0, x0, #0x9e0
  1047dc: 90fff801     	adrp	x1, 0x4000
  1047e0: f904ec20     	str	x0, [x1, #0x9d8]
  1047e4: 52800602     	mov	w2, #0x30               // =48
  1047e8: 52800001     	mov	w1, #0x0                // =0
  1047ec: 90fff800     	adrp	x0, 0x4000
  1047f0: 91378000     	add	x0, x0, #0xde0
  1047f4: 94000a39     	bl	0x1070d8 <_binary_BootROM_ums512_0x100000_0x111FFF_bin_start+0x70d8>
  1047f8: 940000ef     	bl	0x104bb4 <_binary_BootROM_ums512_0x100000_0x111FFF_bin_start+0x4bb4>
  1047fc: f944ea60     	ldr	x0, [x19, #0x9d0]
  104800: 128fdfe1     	mov	w1, #-0x7f00            // =-32512
  104804: 79000001     	strh	w1, [x0]
  104808: f944ea60     	ldr	x0, [x19, #0x9d0]
  10480c: 5280c001     	mov	w1, #0x600              // =1536
  104810: 79000401     	strh	w1, [x0, #0x2]
  104814: f944ea60     	ldr	x0, [x19, #0x9d0]
  104818: 528000c2     	mov	w2, #0x6                // =6
  10481c: 90000001     	adrp	x1, 0x104000 <_binary_BootROM_ums512_0x100000_0x111FFF_bin_start+0x4000>
  104820: 91212021     	add	x1, x1, #0x848
  104824: 9100a021     	add	x1, x1, #0x28
  104828: 91001000     	add	x0, x0, #0x4
  10482c: 94000a25     	bl	0x1070c0 <_binary_BootROM_ums512_0x100000_0x111FFF_bin_start+0x70c0>
  104830: 52800181     	mov	w1, #0xc                // =12
  104834: f944ea60     	ldr	x0, [x19, #0x9d0]
  104838: 94000010     	bl	0x104878 <_binary_BootROM_ums512_0x100000_0x111FFF_bin_start+0x4878>
  10483c: 97ffffbc     	bl	0x10472c <_binary_BootROM_ums512_0x100000_0x111FFF_bin_start+0x472c>
  104840: 528000c0     	mov	w0, #0x6                // =6
  104844: d65f03c0     	ret
  104848: 00104500     	<unknown>
  10484c: 00000000     	udf	#0x0
  104850: 00104448     	<unknown>
  104854: 00000000     	udf	#0x0
  104858: 0010449c     	<unknown>
  10485c: 00000000     	udf	#0x0
  104860: 001043f4     	<unknown>
  104864: 00000000     	udf	#0x0
  104868: 001043d0     	<unknown>
  10486c: 00000000     	udf	#0x0
  104870: 44525053     	smlslb	z19.h, z2.b, z18.b
  104874: 00000033     	udf	#0x33
  104878: a9be7bfd     	stp	x29, x30, [sp, #-0x20]!
  10487c: 910003fd     	mov	x29, sp
  104880: a90153f3     	stp	x19, x20, [sp, #0x10]
  104884: aa0003f3     	mov	x19, x0
  104888: 2a0103f4     	mov	w20, w1
  10488c: 51000821     	sub	w1, w1, #0x2
  104890: 940009ee     	bl	0x107048 <_binary_BootROM_ums512_0x100000_0x111FFF_bin_start+0x7048>
  104894: 8b34c261     	add	x1, x19, w20, sxtw
  104898: d3483c02     	ubfx	x2, x0, #8, #8
  10489c: 381fe022     	sturb	w2, [x1, #-0x2]
  1048a0: 381ff020     	sturb	w0, [x1, #-0x1]
  1048a4: 52800fc0     	mov	w0, #0x7e               // =126
  1048a8: 3834ca60     	strb	w0, [x19, w20, sxtw]
  1048ac: 90fff800     	adrp	x0, 0x4000
  1048b0: b949c802     	ldr	w2, [x0, #0x9c8]
  1048b4: 91002041     	add	x1, x2, #0x8
  1048b8: b9400020     	ldr	w0, [x1]
  1048bc: 367fffe0     	tbz	w0, #0xf, 0x1048b8 <_binary_BootROM_ums512_0x100000_0x111FFF_bin_start+0x48b8>
  1048c0: 52800fc0     	mov	w0, #0x7e               // =126
  1048c4: b9000040     	str	w0, [x2]
  1048c8: 3100069f     	cmn	w20, #0x1
  1048cc: 540001c0     	b.eq	0x104904 <_binary_BootROM_ums512_0x100000_0x111FFF_bin_start+0x4904>
  1048d0: 2a1403e3     	mov	w3, w20
  1048d4: 91000463     	add	x3, x3, #0x1
  1048d8: 8b030263     	add	x3, x19, x3
  1048dc: 90fff804     	adrp	x4, 0x4000
  1048e0: 91272084     	add	x4, x4, #0x9c8
  1048e4: b9400082     	ldr	w2, [x4]
  1048e8: 91002041     	add	x1, x2, #0x8
  1048ec: b9400020     	ldr	w0, [x1]
  1048f0: 367fffe0     	tbz	w0, #0xf, 0x1048ec <_binary_BootROM_ums512_0x100000_0x111FFF_bin_start+0x48ec>
  1048f4: 38401660     	ldrb	w0, [x19], #0x1
  1048f8: b9000040     	str	w0, [x2]
  1048fc: eb03027f     	cmp	x19, x3
  104900: 54ffff21     	b.ne	0x1048e4 <_binary_BootROM_ums512_0x100000_0x111FFF_bin_start+0x48e4>
  104904: 90fff800     	adrp	x0, 0x4000
  104908: b949c801     	ldr	w1, [x0, #0x9c8]
  10490c: 91002021     	add	x1, x1, #0x8
  104910: b9400020     	ldr	w0, [x1]
  104914: 367fffe0     	tbz	w0, #0xf, 0x104910 <_binary_BootROM_ums512_0x100000_0x111FFF_bin_start+0x4910>
  104918: a94153f3     	ldp	x19, x20, [sp, #0x10]
  10491c: a8c27bfd     	ldp	x29, x30, [sp], #0x20
  104920: d65f03c0     	ret
  104924: 90fff800     	adrp	x0, 0x4000
  104928: b949c801     	ldr	w1, [x0, #0x9c8]
  10492c: 91002022     	add	x2, x1, #0x8
  104930: b9400820     	ldr	w0, [x1, #0x8]
  104934: 37600080     	tbnz	w0, #0xc, 0x104944 <_binary_BootROM_ums512_0x100000_0x111FFF_bin_start+0x4944>
  104938: b9400420     	ldr	w0, [x1, #0x4]
  10493c: b9400040     	ldr	w0, [x2]
  104940: 3667ffc0     	tbz	w0, #0xc, 0x104938 <_binary_BootROM_ums512_0x100000_0x111FFF_bin_start+0x4938>
  104944: 90fff800     	adrp	x0, 0x4000
  104948: b94de000     	ldr	w0, [x0, #0xde0]
  10494c: 7102141f     	cmp	w0, #0x85
  104950: 54000120     	b.eq	0x104974 <_binary_BootROM_ums512_0x100000_0x111FFF_bin_start+0x4974>
  104954: 90fff806     	adrp	x6, 0x4000
  104958: 913780c6     	add	x6, x6, #0xde0
  10495c: 90fff804     	adrp	x4, 0x4000
  104960: 91272084     	add	x4, x4, #0x9c8
  104964: 52800049     	mov	w9, #0x2                // =2
  104968: 52800028     	mov	w8, #0x1                // =1
  10496c: 52800067     	mov	w7, #0x3                // =3
  104970: 1400001f     	b	0x1049ec <_binary_BootROM_ums512_0x100000_0x111FFF_bin_start+0x49ec>
  104974: 90fff803     	adrp	x3, 0x4000
  104978: 91272063     	add	x3, x3, #0x9c8
  10497c: b9400062     	ldr	w2, [x3]
  104980: 91002041     	add	x1, x2, #0x8
  104984: b9400020     	ldr	w0, [x1]
  104988: 3767ffe0     	tbnz	w0, #0xc, 0x104984 <_binary_BootROM_ums512_0x100000_0x111FFF_bin_start+0x4984>
  10498c: b9400441     	ldr	w1, [x2, #0x4]
  104990: b9400840     	ldr	w0, [x2, #0x8]
  104994: 363800a0     	tbz	w0, #0x7, 0x1049a8 <_binary_BootROM_ums512_0x100000_0x111FFF_bin_start+0x49a8>
  104998: b9401440     	ldr	w0, [x2, #0x14]
  10499c: 32190000     	orr	w0, w0, #0x80
  1049a0: b9001440     	str	w0, [x2, #0x14]
  1049a4: 17fffff6     	b	0x10497c <_binary_BootROM_ums512_0x100000_0x111FFF_bin_start+0x497c>
  1049a8: 52875320     	mov	w0, #0x3a99             // =15001
  1049ac: 7101f83f     	cmp	w1, #0x7e
  1049b0: 54000080     	b.eq	0x1049c0 <_binary_BootROM_ums512_0x100000_0x111FFF_bin_start+0x49c0>
  1049b4: 71000400     	subs	w0, w0, #0x1
  1049b8: 54ffffe1     	b.ne	0x1049b4 <_binary_BootROM_ums512_0x100000_0x111FFF_bin_start+0x49b4>
  1049bc: d65f03c0     	ret
  1049c0: 52801201     	mov	w1, #0x90               // =144
  1049c4: 90fff800     	adrp	x0, 0x4000
  1049c8: b90de001     	str	w1, [x0, #0xde0]
  1049cc: d65f03c0     	ret
  1049d0: 2a0303e2     	mov	w2, w3
  1049d4: b94004c0     	ldr	w0, [x6, #0x4]
  1049d8: 7100041f     	cmp	w0, #0x1
  1049dc: 540002e0     	b.eq	0x104a38 <_binary_BootROM_ums512_0x100000_0x111FFF_bin_start+0x4a38>
  1049e0: 34000240     	cbz	w0, 0x104a28 <_binary_BootROM_ums512_0x100000_0x111FFF_bin_start+0x4a28>
  1049e4: 7100081f     	cmp	w0, #0x2
  1049e8: 540004c0     	b.eq	0x104a80 <_binary_BootROM_ums512_0x100000_0x111FFF_bin_start+0x4a80>
  1049ec: b94004c0     	ldr	w0, [x6, #0x4]
  1049f0: 71000c1f     	cmp	w0, #0x3
  1049f4: 540006c0     	b.eq	0x104acc <_binary_BootROM_ums512_0x100000_0x111FFF_bin_start+0x4acc>
  1049f8: b9400082     	ldr	w2, [x4]
  1049fc: 91002041     	add	x1, x2, #0x8
  104a00: b9400020     	ldr	w0, [x1]
  104a04: 3767ffe0     	tbnz	w0, #0xc, 0x104a00 <_binary_BootROM_ums512_0x100000_0x111FFF_bin_start+0x4a00>
  104a08: 91001045     	add	x5, x2, #0x4
  104a0c: b9400443     	ldr	w3, [x2, #0x4]
  104a10: b9400840     	ldr	w0, [x2, #0x8]
  104a14: 363ffde0     	tbz	w0, #0x7, 0x1049d0 <_binary_BootROM_ums512_0x100000_0x111FFF_bin_start+0x49d0>
  104a18: b9401440     	ldr	w0, [x2, #0x14]
  104a1c: 32190000     	orr	w0, w0, #0x80
  104a20: b9001440     	str	w0, [x2, #0x14]
  104a24: 17fffff5     	b	0x1049f8 <_binary_BootROM_ums512_0x100000_0x111FFF_bin_start+0x49f8>
  104a28: 7101f87f     	cmp	w3, #0x7e
  104a2c: 54fffe01     	b.ne	0x1049ec <_binary_BootROM_ums512_0x100000_0x111FFF_bin_start+0x49ec>
  104a30: b90004c8     	str	w8, [x6, #0x4]
  104a34: 17ffffee     	b	0x1049ec <_binary_BootROM_ums512_0x100000_0x111FFF_bin_start+0x49ec>
  104a38: 7101f87f     	cmp	w3, #0x7e
  104a3c: 54fffd80     	b.eq	0x1049ec <_binary_BootROM_ums512_0x100000_0x111FFF_bin_start+0x49ec>
  104a40: 7101f47f     	cmp	w3, #0x7d
  104a44: 54000140     	b.eq	0x104a6c <_binary_BootROM_ums512_0x100000_0x111FFF_bin_start+0x4a6c>
  104a48: b90004c9     	str	w9, [x6, #0x4]
  104a4c: f94010c0     	ldr	x0, [x6, #0x20]
  104a50: 91000401     	add	x1, x0, #0x1
  104a54: f90010c1     	str	x1, [x6, #0x20]
  104a58: 39000002     	strb	w2, [x0]
  104a5c: b94010c0     	ldr	w0, [x6, #0x10]
  104a60: 11000400     	add	w0, w0, #0x1
  104a64: b90010c0     	str	w0, [x6, #0x10]
  104a68: 17ffffe1     	b	0x1049ec <_binary_BootROM_ums512_0x100000_0x111FFF_bin_start+0x49ec>
  104a6c: b9400020     	ldr	w0, [x1]
  104a70: 3767ffe0     	tbnz	w0, #0xc, 0x104a6c <_binary_BootROM_ums512_0x100000_0x111FFF_bin_start+0x4a6c>
  104a74: b94000a2     	ldr	w2, [x5]
  104a78: 521b0042     	eor	w2, w2, #0x20
  104a7c: 17fffff3     	b	0x104a48 <_binary_BootROM_ums512_0x100000_0x111FFF_bin_start+0x4a48>
  104a80: 7101f87f     	cmp	w3, #0x7e
  104a84: 54000160     	b.eq	0x104ab0 <_binary_BootROM_ums512_0x100000_0x111FFF_bin_start+0x4ab0>
  104a88: 7101f47f     	cmp	w3, #0x7d
  104a8c: 54000160     	b.eq	0x104ab8 <_binary_BootROM_ums512_0x100000_0x111FFF_bin_start+0x4ab8>
  104a90: f94010c0     	ldr	x0, [x6, #0x20]
  104a94: 91000401     	add	x1, x0, #0x1
  104a98: f90010c1     	str	x1, [x6, #0x20]
  104a9c: 39000002     	strb	w2, [x0]
  104aa0: b94010c0     	ldr	w0, [x6, #0x10]
  104aa4: 11000400     	add	w0, w0, #0x1
  104aa8: b90010c0     	str	w0, [x6, #0x10]
  104aac: 17ffffd0     	b	0x1049ec <_binary_BootROM_ums512_0x100000_0x111FFF_bin_start+0x49ec>
  104ab0: b90004c7     	str	w7, [x6, #0x4]
  104ab4: 17ffffce     	b	0x1049ec <_binary_BootROM_ums512_0x100000_0x111FFF_bin_start+0x49ec>
  104ab8: b9400020     	ldr	w0, [x1]
  104abc: 3767ffe0     	tbnz	w0, #0xc, 0x104ab8 <_binary_BootROM_ums512_0x100000_0x111FFF_bin_start+0x4ab8>
  104ac0: b94000a2     	ldr	w2, [x5]
  104ac4: 521b0042     	eor	w2, w2, #0x20
  104ac8: 17fffff2     	b	0x104a90 <_binary_BootROM_ums512_0x100000_0x111FFF_bin_start+0x4a90>
  104acc: d65f03c0     	ret
  104ad0: a9bd7bfd     	stp	x29, x30, [sp, #-0x30]!
  104ad4: 910003fd     	mov	x29, sp
  104ad8: a90153f3     	stp	x19, x20, [sp, #0x10]
  104adc: f90013f5     	str	x21, [sp, #0x20]
  104ae0: aa0003f5     	mov	x21, x0
  104ae4: aa0103f4     	mov	x20, x1
  104ae8: 90fff813     	adrp	x19, 0x4000
  104aec: 91378273     	add	x19, x19, #0xde0
  104af0: f9400e60     	ldr	x0, [x19, #0x18]
  104af4: f9001260     	str	x0, [x19, #0x20]
  104af8: b900127f     	str	wzr, [x19, #0x10]
  104afc: b900067f     	str	wzr, [x19, #0x4]
  104b00: 97ffff89     	bl	0x104924 <_binary_BootROM_ums512_0x100000_0x111FFF_bin_start+0x4924>
  104b04: b9401261     	ldr	w1, [x19, #0x10]
  104b08: f9400e60     	ldr	x0, [x19, #0x18]
  104b0c: 9400094f     	bl	0x107048 <_binary_BootROM_ums512_0x100000_0x111FFF_bin_start+0x7048>
  104b10: 35000140     	cbnz	w0, 0x104b38 <_binary_BootROM_ums512_0x100000_0x111FFF_bin_start+0x4b38>
  104b14: f9400e61     	ldr	x1, [x19, #0x18]
  104b18: f90002a1     	str	x1, [x21]
  104b1c: b9401260     	ldr	w0, [x19, #0x10]
  104b20: b9000280     	str	w0, [x20]
  104b24: 528011e0     	mov	w0, #0x8f               // =143
  104b28: a94153f3     	ldp	x19, x20, [sp, #0x10]
  104b2c: f94013f5     	ldr	x21, [sp, #0x20]
  104b30: a8c37bfd     	ldp	x29, x30, [sp], #0x30
  104b34: d65f03c0     	ret
  104b38: 52801160     	mov	w0, #0x8b               // =139
  104b3c: 17fffffb     	b	0x104b28 <_binary_BootROM_ums512_0x100000_0x111FFF_bin_start+0x4b28>
  104b40: 11004001     	add	w1, w0, #0x10
  104b44: b900003f     	str	wzr, [x1]
  104b48: 11009001     	add	w1, w0, #0x24
  104b4c: 52801c42     	mov	w2, #0xe2               // =226
  104b50: b9000022     	str	w2, [x1]
  104b54: 2a0003e0     	mov	w0, w0
  104b58: 52800381     	mov	w1, #0x1c               // =28
  104b5c: b9001801     	str	w1, [x0, #0x18]
  104b60: b9001c1f     	str	wzr, [x0, #0x1c]
  104b64: b900201f     	str	wzr, [x0, #0x20]
  104b68: d65f03c0     	ret
  104b6c: a9bf7bfd     	stp	x29, x30, [sp, #-0x10]!
  104b70: 910003fd     	mov	x29, sp
  104b74: d2ae2002     	mov	x2, #0x71000000         // =1895825408
  104b78: b9400041     	ldr	w1, [x2]
  104b7c: 32120421     	orr	w1, w1, #0xc000
  104b80: b9000041     	str	w1, [x2]
  104b84: 2a0003e0     	mov	w0, w0
  104b88: b900101f     	str	wzr, [x0, #0x10]
  104b8c: 90fff801     	adrp	x1, 0x4000
  104b90: b94de821     	ldr	w1, [x1, #0xde8]
  104b94: b9002401     	str	w1, [x0, #0x24]
  104b98: 52800381     	mov	w1, #0x1c               // =28
  104b9c: b9001801     	str	w1, [x0, #0x18]
  104ba0: b9001c1f     	str	wzr, [x0, #0x1c]
  104ba4: b900201f     	str	wzr, [x0, #0x20]
  104ba8: 97ffff5f     	bl	0x104924 <_binary_BootROM_ums512_0x100000_0x111FFF_bin_start+0x4924>
  104bac: a8c17bfd     	ldp	x29, x30, [sp], #0x10
  104bb0: d65f03c0     	ret
  104bb4: a9be7bfd     	stp	x29, x30, [sp, #-0x20]!
  104bb8: 910003fd     	mov	x29, sp
  104bbc: a90153f3     	stp	x19, x20, [sp, #0x10]
  104bc0: 90fff813     	adrp	x19, 0x4000
  104bc4: 91378260     	add	x0, x19, #0xde0
  104bc8: 528010a1     	mov	w1, #0x85               // =133
  104bcc: b90de261     	str	w1, [x19, #0xde0]
  104bd0: 52801c41     	mov	w1, #0xe2               // =226
  104bd4: b9000801     	str	w1, [x0, #0x8]
  104bd8: 52808001     	mov	w1, #0x400              // =1024
  104bdc: b9000c01     	str	w1, [x0, #0xc]
  104be0: 90fff801     	adrp	x1, 0x4000
  104be4: f944ec21     	ldr	x1, [x1, #0x9d8]
  104be8: f9000c01     	str	x1, [x0, #0x18]
  104bec: 90fff800     	adrp	x0, 0x4000
  104bf0: b949c800     	ldr	w0, [x0, #0x9c8]
  104bf4: 97ffffde     	bl	0x104b6c <_binary_BootROM_ums512_0x100000_0x111FFF_bin_start+0x4b6c>
  104bf8: b94de260     	ldr	w0, [x19, #0xde0]
  104bfc: 7102401f     	cmp	w0, #0x90
  104c00: 54000180     	b.eq	0x104c30 <_binary_BootROM_ums512_0x100000_0x111FFF_bin_start+0x4c30>
  104c04: 91378273     	add	x19, x19, #0xde0
  104c08: 90fff814     	adrp	x20, 0x4000
  104c0c: 91272294     	add	x20, x20, #0x9c8
  104c10: b9400a60     	ldr	w0, [x19, #0x8]
  104c14: 53017c00     	lsr	w0, w0, #1
  104c18: b9000a60     	str	w0, [x19, #0x8]
  104c1c: b9400280     	ldr	w0, [x20]
  104c20: 97ffffd3     	bl	0x104b6c <_binary_BootROM_ums512_0x100000_0x111FFF_bin_start+0x4b6c>
  104c24: b9400260     	ldr	w0, [x19]
  104c28: 7102401f     	cmp	w0, #0x90
  104c2c: 54ffff21     	b.ne	0x104c10 <_binary_BootROM_ums512_0x100000_0x111FFF_bin_start+0x4c10>
  104c30: a94153f3     	ldp	x19, x20, [sp, #0x10]
  104c34: a8c27bfd     	ldp	x29, x30, [sp], #0x20
  104c38: d65f03c0     	ret
  104c3c: 34000162     	cbz	w2, 0x104c68 <_binary_BootROM_ums512_0x100000_0x111FFF_bin_start+0x4c68>
  104c40: 51000443     	sub	w3, w2, #0x1
  104c44: 91000463     	add	x3, x3, #0x1
  104c48: 8b030023     	add	x3, x1, x3
  104c4c: 2a0003e2     	mov	w2, w0
  104c50: b9400840     	ldr	w0, [x2, #0x8]
  104c54: 367fffe0     	tbz	w0, #0xf, 0x104c50 <_binary_BootROM_ums512_0x100000_0x111FFF_bin_start+0x4c50>
  104c58: 38401420     	ldrb	w0, [x1], #0x1
  104c5c: b9000040     	str	w0, [x2]
  104c60: eb03003f     	cmp	x1, x3
  104c64: 54ffff61     	b.ne	0x104c50 <_binary_BootROM_ums512_0x100000_0x111FFF_bin_start+0x4c50>
  104c68: d65f03c0     	ret
  104c6c: d2800081     	mov	x1, #0x4                // =4
  104c70: f2a64fa1     	movk	x1, #0x327d, lsl #16
  104c74: b9400020     	ldr	w0, [x1]
  104c78: 32000000     	orr	w0, w0, #0x1
  104c7c: b9000020     	str	w0, [x1]
  104c80: 91003021     	add	x1, x1, #0xc
  104c84: b9400020     	ldr	w0, [x1]
  104c88: 32000000     	orr	w0, w0, #0x1
  104c8c: b9000020     	str	w0, [x1]
  104c90: 52800c80     	mov	w0, #0x64               // =100
  104c94: 71000400     	subs	w0, w0, #0x1
  104c98: 54ffffe1     	b.ne	0x104c94 <_binary_BootROM_ums512_0x100000_0x111FFF_bin_start+0x4c94>
  104c9c: d2800201     	mov	x1, #0x10               // =16
  104ca0: f2a64fa1     	movk	x1, #0x327d, lsl #16
  104ca4: b9400020     	ldr	w0, [x1]
  104ca8: 121f7800     	and	w0, w0, #0xfffffffe
  104cac: b9000020     	str	w0, [x1]
  104cb0: d65f03c0     	ret
  104cb4: d2800081     	mov	x1, #0x4                // =4
  104cb8: f2a64fa1     	movk	x1, #0x327d, lsl #16
  104cbc: b9400020     	ldr	w0, [x1]
  104cc0: 121f7800     	and	w0, w0, #0xfffffffe
  104cc4: b9000020     	str	w0, [x1]
  104cc8: d65f03c0     	ret
  104ccc: 7100c01f     	cmp	w0, #0x30
  104cd0: 54000069     	b.ls	0x104cdc <_binary_BootROM_ums512_0x100000_0x111FFF_bin_start+0x4cdc>
  104cd4: 528000c0     	mov	w0, #0x6                // =6
  104cd8: d65f03c0     	ret
  104cdc: 529fffe4     	mov	w4, #0xffff             // =65535
  104ce0: d2800903     	mov	x3, #0x48               // =72
  104ce4: f2a64483     	movk	x3, #0x3224, lsl #16
  104ce8: b9000064     	str	w4, [x3]
  104cec: d2800a04     	mov	x4, #0x50               // =80
  104cf0: f2a64484     	movk	x4, #0x3224, lsl #16
  104cf4: b9400083     	ldr	w3, [x4]
  104cf8: 321f0063     	orr	w3, w3, #0x2
  104cfc: b9000083     	str	w3, [x4]
  104d00: 52800024     	mov	w4, #0x1                // =1
  104d04: d2800803     	mov	x3, #0x40               // =64
  104d08: f2a64483     	movk	x3, #0x3224, lsl #16
  104d0c: b9000064     	str	w4, [x3]
  104d10: 6b04005f     	cmp	w2, w4
  104d14: 540002c0     	b.eq	0x104d6c <_binary_BootROM_ums512_0x100000_0x111FFF_bin_start+0x4d6c>
  104d18: d2800803     	mov	x3, #0x40               // =64
  104d1c: f2a64483     	movk	x3, #0x3224, lsl #16
  104d20: b9400062     	ldr	w2, [x3]
  104d24: 121d7842     	and	w2, w2, #0xfffffffb
  104d28: b9000062     	str	w2, [x3]
  104d2c: d2800a82     	mov	x2, #0x54               // =84
  104d30: f2a64482     	movk	x2, #0x3224, lsl #16
  104d34: b9400043     	ldr	w3, [x2]
  104d38: 321e0063     	orr	w3, w3, #0x4
  104d3c: b9000043     	str	w3, [x2]
  104d40: 52820003     	mov	w3, #0x1000             // =4096
  104d44: 72a64483     	movk	w3, #0x3224, lsl #16
  104d48: 0b000860     	add	w0, w3, w0, lsl #2
  104d4c: 2a0003e0     	mov	w0, w0
  104d50: b9400003     	ldr	w3, [x0]
  104d54: b9400040     	ldr	w0, [x2]
  104d58: 121d7800     	and	w0, w0, #0xfffffffb
  104d5c: b9000040     	str	w0, [x2]
  104d60: b9000023     	str	w3, [x1]
  104d64: 52800000     	mov	w0, #0x0                // =0
  104d68: d65f03c0     	ret
  104d6c: b9400062     	ldr	w2, [x3]
  104d70: 321e0042     	orr	w2, w2, #0x4
  104d74: b9000062     	str	w2, [x3]
  104d78: 17ffffed     	b	0x104d2c <_binary_BootROM_ums512_0x100000_0x111FFF_bin_start+0x4d2c>
  104d7c: a9bd7bfd     	stp	x29, x30, [sp, #-0x30]!
  104d80: 910003fd     	mov	x29, sp
  104d84: a90153f3     	stp	x19, x20, [sp, #0x10]
  104d88: f90013f5     	str	x21, [sp, #0x20]
  104d8c: 91002014     	add	x20, x0, #0x8
  104d90: 52800053     	mov	w19, #0x2               // =2
  104d94: 52800035     	mov	w21, #0x1               // =1
  104d98: 2a1503e2     	mov	w2, w21
  104d9c: aa1403e1     	mov	x1, x20
  104da0: 2a1303e0     	mov	w0, w19
  104da4: 97ffffca     	bl	0x104ccc <_binary_BootROM_ums512_0x100000_0x111FFF_bin_start+0x4ccc>
  104da8: 11000673     	add	w19, w19, #0x1
  104dac: 91001294     	add	x20, x20, #0x4
  104db0: 7100927f     	cmp	w19, #0x24
  104db4: 54ffff21     	b.ne	0x104d98 <_binary_BootROM_ums512_0x100000_0x111FFF_bin_start+0x4d98>
  104db8: 52800000     	mov	w0, #0x0                // =0
  104dbc: a94153f3     	ldp	x19, x20, [sp, #0x10]
  104dc0: f94013f5     	ldr	x21, [sp, #0x20]
  104dc4: a8c37bfd     	ldp	x29, x30, [sp], #0x30
  104dc8: d65f03c0     	ret
  104dcc: a9be7bfd     	stp	x29, x30, [sp, #-0x20]!
  104dd0: 910003fd     	mov	x29, sp
  104dd4: a90153f3     	stp	x19, x20, [sp, #0x10]
  104dd8: aa0003f4     	mov	x20, x0
  104ddc: 52800013     	mov	w19, #0x0               // =0
  104de0: 52800002     	mov	w2, #0x0                // =0
  104de4: aa1403e1     	mov	x1, x20
  104de8: 2a1303e0     	mov	w0, w19
  104dec: 97ffffb8     	bl	0x104ccc <_binary_BootROM_ums512_0x100000_0x111FFF_bin_start+0x4ccc>
  104df0: 11000673     	add	w19, w19, #0x1
  104df4: 91001294     	add	x20, x20, #0x4
  104df8: 71000e7f     	cmp	w19, #0x3
  104dfc: 54ffff21     	b.ne	0x104de0 <_binary_BootROM_ums512_0x100000_0x111FFF_bin_start+0x4de0>
  104e00: 52800000     	mov	w0, #0x0                // =0
  104e04: a94153f3     	ldp	x19, x20, [sp, #0x10]
  104e08: a8c27bfd     	ldp	x29, x30, [sp], #0x20
  104e0c: d65f03c0     	ret
  104e10: 7100c01f     	cmp	w0, #0x30
  104e14: 54000069     	b.ls	0x104e20 <_binary_BootROM_ums512_0x100000_0x111FFF_bin_start+0x4e20>
  104e18: 528000c0     	mov	w0, #0x6                // =6
  104e1c: d65f03c0     	ret
  104e20: a9bd7bfd     	stp	x29, x30, [sp, #-0x30]!
  104e24: 910003fd     	mov	x29, sp
  104e28: a90153f3     	stp	x19, x20, [sp, #0x10]
  104e2c: a9025bf5     	stp	x21, x22, [sp, #0x20]
  104e30: 529fffe4     	mov	w4, #0xffff             // =65535
  104e34: d2800903     	mov	x3, #0x48               // =72
  104e38: f2a64483     	movk	x3, #0x3224, lsl #16
  104e3c: b9000064     	str	w4, [x3]
  104e40: d2800a04     	mov	x4, #0x50               // =80
  104e44: f2a64484     	movk	x4, #0x3224, lsl #16
  104e48: b9400083     	ldr	w3, [x4]
  104e4c: 321f0063     	orr	w3, w3, #0x2
  104e50: b9000083     	str	w3, [x4]
  104e54: 52800264     	mov	w4, #0x13               // =19
  104e58: d2800803     	mov	x3, #0x40               // =64
  104e5c: f2a64483     	movk	x3, #0x3224, lsl #16
  104e60: b9000064     	str	w4, [x3]
  104e64: 7100045f     	cmp	w2, #0x1
  104e68: 54000660     	b.eq	0x104f34 <_binary_BootROM_ums512_0x100000_0x111FFF_bin_start+0x4f34>
  104e6c: d2800803     	mov	x3, #0x40               // =64
  104e70: f2a64483     	movk	x3, #0x3224, lsl #16
  104e74: b9400062     	ldr	w2, [x3]
  104e78: 121d7842     	and	w2, w2, #0xfffffffb
  104e7c: b9000062     	str	w2, [x3]
  104e80: 2a0103f5     	mov	w21, w1
  104e84: 2a0003f3     	mov	w19, w0
  104e88: d2800996     	mov	x22, #0x4c              // =76
  104e8c: f2a64496     	movk	x22, #0x3224, lsl #16
  104e90: 52910200     	mov	w0, #0x8810             // =34832
  104e94: b90002c0     	str	w0, [x22]
  104e98: d2800a94     	mov	x20, #0x54              // =84
  104e9c: f2a64494     	movk	x20, #0x3224, lsl #16
  104ea0: b9400280     	ldr	w0, [x20]
  104ea4: 321e0000     	orr	w0, w0, #0x4
  104ea8: b9000280     	str	w0, [x20]
  104eac: b9400280     	ldr	w0, [x20]
  104eb0: 121e7800     	and	w0, w0, #0xfffffffd
  104eb4: b9000280     	str	w0, [x20]
  104eb8: 52800020     	mov	w0, #0x1                // =1
  104ebc: 940008c6     	bl	0x1071d4 <_binary_BootROM_ums512_0x100000_0x111FFF_bin_start+0x71d4>
  104ec0: b9400280     	ldr	w0, [x20]
  104ec4: 32000000     	orr	w0, w0, #0x1
  104ec8: b9000280     	str	w0, [x20]
  104ecc: 52800020     	mov	w0, #0x1                // =1
  104ed0: 940008c1     	bl	0x1071d4 <_binary_BootROM_ums512_0x100000_0x111FFF_bin_start+0x71d4>
  104ed4: 52820000     	mov	w0, #0x1000             // =4096
  104ed8: 72a64480     	movk	w0, #0x3224, lsl #16
  104edc: 0b130800     	add	w0, w0, w19, lsl #2
  104ee0: 2a0003e0     	mov	w0, w0
  104ee4: b9000015     	str	w21, [x0]
  104ee8: b9400280     	ldr	w0, [x20]
  104eec: 121f7800     	and	w0, w0, #0xfffffffe
  104ef0: b9000280     	str	w0, [x20]
  104ef4: 52800020     	mov	w0, #0x1                // =1
  104ef8: 940008b7     	bl	0x1071d4 <_binary_BootROM_ums512_0x100000_0x111FFF_bin_start+0x71d4>
  104efc: b9400280     	ldr	w0, [x20]
  104f00: 321f0000     	orr	w0, w0, #0x2
  104f04: b9000280     	str	w0, [x20]
  104f08: 52800020     	mov	w0, #0x1                // =1
  104f0c: 940008b2     	bl	0x1071d4 <_binary_BootROM_ums512_0x100000_0x111FFF_bin_start+0x71d4>
  104f10: b9400280     	ldr	w0, [x20]
  104f14: 121d7800     	and	w0, w0, #0xfffffffb
  104f18: b9000280     	str	w0, [x20]
  104f1c: b90002df     	str	wzr, [x22]
  104f20: 52800000     	mov	w0, #0x0                // =0
  104f24: a94153f3     	ldp	x19, x20, [sp, #0x10]
  104f28: a9425bf5     	ldp	x21, x22, [sp, #0x20]
  104f2c: a8c37bfd     	ldp	x29, x30, [sp], #0x30
  104f30: d65f03c0     	ret
  104f34: b9400062     	ldr	w2, [x3]
  104f38: 321e0042     	orr	w2, w2, #0x4
  104f3c: b9000062     	str	w2, [x3]
  104f40: 17ffffd0     	b	0x104e80 <_binary_BootROM_ums512_0x100000_0x111FFF_bin_start+0x4e80>
  104f44: a9bf7bfd     	stp	x29, x30, [sp, #-0x10]!
  104f48: 910003fd     	mov	x29, sp
  104f4c: 52800022     	mov	w2, #0x1                // =1
  104f50: 97ffffb0     	bl	0x104e10 <_binary_BootROM_ums512_0x100000_0x111FFF_bin_start+0x4e10>
  104f54: a8c17bfd     	ldp	x29, x30, [sp], #0x10
  104f58: d65f03c0     	ret
  104f5c: a9bf7bfd     	stp	x29, x30, [sp, #-0x10]!
  104f60: 910003fd     	mov	x29, sp
  104f64: 52800002     	mov	w2, #0x0                // =0
  104f68: 97ffffaa     	bl	0x104e10 <_binary_BootROM_ums512_0x100000_0x111FFF_bin_start+0x4e10>
  104f6c: a8c17bfd     	ldp	x29, x30, [sp], #0x10
  104f70: d65f03c0     	ret
  104f74: a9bb7bfd     	stp	x29, x30, [sp, #-0x50]!
  104f78: 910003fd     	mov	x29, sp
  104f7c: a90153f3     	stp	x19, x20, [sp, #0x10]
  104f80: a9025bf5     	stp	x21, x22, [sp, #0x20]
  104f84: a90363f7     	stp	x23, x24, [sp, #0x30]
  104f88: a9046bf9     	stp	x25, x26, [sp, #0x40]
  104f8c: 52800001     	mov	w1, #0x0                // =0
  104f90: 52800300     	mov	w0, #0x18               // =24
  104f94: 97ffffec     	bl	0x104f44 <_binary_BootROM_ums512_0x100000_0x111FFF_bin_start+0x4f44>
  104f98: 52800001     	mov	w1, #0x0                // =0
  104f9c: 52800320     	mov	w0, #0x19               // =25
  104fa0: 97ffffe9     	bl	0x104f44 <_binary_BootROM_ums512_0x100000_0x111FFF_bin_start+0x4f44>
  104fa4: 52800001     	mov	w1, #0x0                // =0
  104fa8: 52800340     	mov	w0, #0x1a               // =26
  104fac: 97ffffe6     	bl	0x104f44 <_binary_BootROM_ums512_0x100000_0x111FFF_bin_start+0x4f44>
  104fb0: 52800001     	mov	w1, #0x0                // =0
  104fb4: 52800360     	mov	w0, #0x1b               // =27
  104fb8: 97ffffe3     	bl	0x104f44 <_binary_BootROM_ums512_0x100000_0x111FFF_bin_start+0x4f44>
  104fbc: 52800001     	mov	w1, #0x0                // =0
  104fc0: 52800380     	mov	w0, #0x1c               // =28
  104fc4: 97ffffe0     	bl	0x104f44 <_binary_BootROM_ums512_0x100000_0x111FFF_bin_start+0x4f44>
  104fc8: 52800001     	mov	w1, #0x0                // =0
  104fcc: 528003a0     	mov	w0, #0x1d               // =29
  104fd0: 97ffffdd     	bl	0x104f44 <_binary_BootROM_ums512_0x100000_0x111FFF_bin_start+0x4f44>
  104fd4: 52800001     	mov	w1, #0x0                // =0
  104fd8: 528003c0     	mov	w0, #0x1e               // =30
  104fdc: 97ffffda     	bl	0x104f44 <_binary_BootROM_ums512_0x100000_0x111FFF_bin_start+0x4f44>
  104fe0: 52800001     	mov	w1, #0x0                // =0
  104fe4: 528003e0     	mov	w0, #0x1f               // =31
  104fe8: 97ffffd7     	bl	0x104f44 <_binary_BootROM_ums512_0x100000_0x111FFF_bin_start+0x4f44>
  104fec: 52888761     	mov	w1, #0x443b             // =17467
  104ff0: 72aaee01     	movk	w1, #0x5770, lsl #16
  104ff4: 52800200     	mov	w0, #0x10               // =16
  104ff8: 97ffffd3     	bl	0x104f44 <_binary_BootROM_ums512_0x100000_0x111FFF_bin_start+0x4f44>
  104ffc: 529553c1     	mov	w1, #0xaa9e             // =43678
  105000: 72a43541     	movk	w1, #0x21aa, lsl #16
  105004: 52800220     	mov	w0, #0x11               // =17
  105008: 97ffffcf     	bl	0x104f44 <_binary_BootROM_ums512_0x100000_0x111FFF_bin_start+0x4f44>
  10500c: 528286a1     	mov	w1, #0x1435             // =5173
  105010: 72b1d5a1     	movk	w1, #0x8ead, lsl #16
  105014: 52800240     	mov	w0, #0x12               // =18
  105018: 97ffffcb     	bl	0x104f44 <_binary_BootROM_ums512_0x100000_0x111FFF_bin_start+0x4f44>
  10501c: 529b4ee1     	mov	w1, #0xda77             // =55927
  105020: 72bbc621     	movk	w1, #0xde31, lsl #16
  105024: 52800260     	mov	w0, #0x13               // =19
  105028: 97ffffc7     	bl	0x104f44 <_binary_BootROM_ums512_0x100000_0x111FFF_bin_start+0x4f44>
  10502c: 5283ab41     	mov	w1, #0x1d5a             // =7514
  105030: 72bfd0c1     	movk	w1, #0xfe86, lsl #16
  105034: 52800280     	mov	w0, #0x14               // =20
  105038: 97ffffc3     	bl	0x104f44 <_binary_BootROM_ums512_0x100000_0x111FFF_bin_start+0x4f44>
  10503c: 529351a1     	mov	w1, #0x9a8d             // =39565
  105040: 72b63e21     	movk	w1, #0xb1f1, lsl #16
  105044: 528002a0     	mov	w0, #0x15               // =21
  105048: 97ffffbf     	bl	0x104f44 <_binary_BootROM_ums512_0x100000_0x111FFF_bin_start+0x4f44>
  10504c: 529dbda1     	mov	w1, #0xeded             // =60909
  105050: 72b69ae1     	movk	w1, #0xb4d7, lsl #16
  105054: 528002c0     	mov	w0, #0x16               // =22
  105058: 97ffffbb     	bl	0x104f44 <_binary_BootROM_ums512_0x100000_0x111FFF_bin_start+0x4f44>
  10505c: 528553a1     	mov	w1, #0x2a9d             // =10909
  105060: 72a982a1     	movk	w1, #0x4c15, lsl #16
  105064: 528002e0     	mov	w0, #0x17               // =23
  105068: 97ffffb7     	bl	0x104f44 <_binary_BootROM_ums512_0x100000_0x111FFF_bin_start+0x4f44>
  10506c: 528c50ba     	mov	w26, #0x6285            // =25221
  105070: 72a3579a     	movk	w26, #0x1abc, lsl #16
  105074: 2a1a03e1     	mov	w1, w26
  105078: 52800100     	mov	w0, #0x8                // =8
  10507c: 97ffffb2     	bl	0x104f44 <_binary_BootROM_ums512_0x100000_0x111FFF_bin_start+0x4f44>
  105080: 529ea199     	mov	w25, #0xf50c            // =62732
  105084: 72b20619     	movk	w25, #0x9030, lsl #16
  105088: 2a1903e1     	mov	w1, w25
  10508c: 52800120     	mov	w0, #0x9                // =9
  105090: 97ffffad     	bl	0x104f44 <_binary_BootROM_ums512_0x100000_0x111FFF_bin_start+0x4f44>
  105094: 5297a2f8     	mov	w24, #0xbd17            // =48407
  105098: 72a127f8     	movk	w24, #0x93f, lsl #16
  10509c: 2a1803e1     	mov	w1, w24
  1050a0: 52800140     	mov	w0, #0xa                // =10
  1050a4: 97ffffa8     	bl	0x104f44 <_binary_BootROM_ums512_0x100000_0x111FFF_bin_start+0x4f44>
  1050a8: 529817f7     	mov	w23, #0xc0bf            // =49343
  1050ac: 72b3c737     	movk	w23, #0x9e39, lsl #16
  1050b0: 2a1703e1     	mov	w1, w23
  1050b4: 52800160     	mov	w0, #0xb                // =11
  1050b8: 97ffffa3     	bl	0x104f44 <_binary_BootROM_ums512_0x100000_0x111FFF_bin_start+0x4f44>
  1050bc: 528b63f6     	mov	w22, #0x5b1f            // =23327
  1050c0: 72b32636     	movk	w22, #0x9931, lsl #16
  1050c4: 2a1603e1     	mov	w1, w22
  1050c8: 52800180     	mov	w0, #0xc                // =12
  1050cc: 97ffff9e     	bl	0x104f44 <_binary_BootROM_ums512_0x100000_0x111FFF_bin_start+0x4f44>
  1050d0: 529dfc15     	mov	w21, #0xefe0            // =61408
  1050d4: 72ab4db5     	movk	w21, #0x5a6d, lsl #16
  1050d8: 2a1503e1     	mov	w1, w21
  1050dc: 528001a0     	mov	w0, #0xd                // =13
  1050e0: 97ffff99     	bl	0x104f44 <_binary_BootROM_ums512_0x100000_0x111FFF_bin_start+0x4f44>
  1050e4: 52928174     	mov	w20, #0x940b            // =37899
  1050e8: 72ac4cd4     	movk	w20, #0x6266, lsl #16
  1050ec: 2a1403e1     	mov	w1, w20
  1050f0: 528001c0     	mov	w0, #0xe                // =14
  1050f4: 97ffff94     	bl	0x104f44 <_binary_BootROM_ums512_0x100000_0x111FFF_bin_start+0x4f44>
  1050f8: 52874473     	mov	w19, #0x3a23            // =14883
  1050fc: 72ad7493     	movk	w19, #0x6ba4, lsl #16
  105100: 2a1303e1     	mov	w1, w19
  105104: 528001e0     	mov	w0, #0xf                // =15
  105108: 97ffff8f     	bl	0x104f44 <_binary_BootROM_ums512_0x100000_0x111FFF_bin_start+0x4f44>
  10510c: 2a1a03e1     	mov	w1, w26
  105110: 52800040     	mov	w0, #0x2                // =2
  105114: 97ffff8c     	bl	0x104f44 <_binary_BootROM_ums512_0x100000_0x111FFF_bin_start+0x4f44>
  105118: 2a1903e1     	mov	w1, w25
  10511c: 52800060     	mov	w0, #0x3                // =3
  105120: 97ffff89     	bl	0x104f44 <_binary_BootROM_ums512_0x100000_0x111FFF_bin_start+0x4f44>
  105124: 2a1803e1     	mov	w1, w24
  105128: 52800080     	mov	w0, #0x4                // =4
  10512c: 97ffff86     	bl	0x104f44 <_binary_BootROM_ums512_0x100000_0x111FFF_bin_start+0x4f44>
  105130: 2a1703e1     	mov	w1, w23
  105134: 528000a0     	mov	w0, #0x5                // =5
  105138: 97ffff83     	bl	0x104f44 <_binary_BootROM_ums512_0x100000_0x111FFF_bin_start+0x4f44>
  10513c: 2a1603e1     	mov	w1, w22
  105140: 52800400     	mov	w0, #0x20               // =32
  105144: 97ffff80     	bl	0x104f44 <_binary_BootROM_ums512_0x100000_0x111FFF_bin_start+0x4f44>
  105148: 2a1503e1     	mov	w1, w21
  10514c: 52800420     	mov	w0, #0x21               // =33
  105150: 97ffff7d     	bl	0x104f44 <_binary_BootROM_ums512_0x100000_0x111FFF_bin_start+0x4f44>
  105154: 2a1403e1     	mov	w1, w20
  105158: 52800440     	mov	w0, #0x22               // =34
  10515c: 97ffff7a     	bl	0x104f44 <_binary_BootROM_ums512_0x100000_0x111FFF_bin_start+0x4f44>
  105160: 2a1303e1     	mov	w1, w19
  105164: 52800460     	mov	w0, #0x23               // =35
  105168: 97ffff77     	bl	0x104f44 <_binary_BootROM_ums512_0x100000_0x111FFF_bin_start+0x4f44>
  10516c: 52800001     	mov	w1, #0x0                // =0
  105170: 528000e0     	mov	w0, #0x7                // =7
  105174: 97ffff74     	bl	0x104f44 <_binary_BootROM_ums512_0x100000_0x111FFF_bin_start+0x4f44>
  105178: 52800041     	mov	w1, #0x2                // =2
  10517c: 72a00021     	movk	w1, #0x1, lsl #16
  105180: 528000c0     	mov	w0, #0x6                // =6
  105184: 97ffff70     	bl	0x104f44 <_binary_BootROM_ums512_0x100000_0x111FFF_bin_start+0x4f44>
  105188: 12800001     	mov	w1, #-0x1               // =-1
  10518c: 52800020     	mov	w0, #0x1                // =1
  105190: 97ffff73     	bl	0x104f5c <_binary_BootROM_ums512_0x100000_0x111FFF_bin_start+0x4f5c>
  105194: a94153f3     	ldp	x19, x20, [sp, #0x10]
  105198: a9425bf5     	ldp	x21, x22, [sp, #0x20]
  10519c: a94363f7     	ldp	x23, x24, [sp, #0x30]
  1051a0: a9446bf9     	ldp	x25, x26, [sp, #0x40]
  1051a4: a8c57bfd     	ldp	x29, x30, [sp], #0x50
  1051a8: d65f03c0     	ret
  1051ac: d2800081     	mov	x1, #0x4                // =4
  1051b0: f2ae2001     	movk	x1, #0x7100, lsl #16
  1051b4: b9400020     	ldr	w0, [x1]
  1051b8: 320c0000     	orr	w0, w0, #0x100000
  1051bc: b9000020     	str	w0, [x1]
  1051c0: 52800660     	mov	w0, #0x33               // =51
  1051c4: 71000400     	subs	w0, w0, #0x1
  1051c8: 54ffffe1     	b.ne	0x1051c4 <_binary_BootROM_ums512_0x100000_0x111FFF_bin_start+0x51c4>
  1051cc: d2800081     	mov	x1, #0x4                // =4
  1051d0: f2ae2001     	movk	x1, #0x7100, lsl #16
  1051d4: b9400020     	ldr	w0, [x1]
  1051d8: 120b7800     	and	w0, w0, #0xffefffff
  1051dc: b9000020     	str	w0, [x1]
  1051e0: d65f03c0     	ret
  1051e4: d2ae2001     	mov	x1, #0x71000000         // =1895825408
  1051e8: b9400020     	ldr	w0, [x1]
  1051ec: 32020000     	orr	w0, w0, #0x40000000
  1051f0: b9000020     	str	w0, [x1]
  1051f4: d65f03c0     	ret
  1051f8: 52803de1     	mov	w1, #0x1ef              // =495
  1051fc: 72a007e1     	movk	w1, #0x3f, lsl #16
  105200: d2800300     	mov	x0, #0x18               // =24
  105204: f2ae2c00     	movk	x0, #0x7160, lsl #16
  105208: b9000001     	str	w1, [x0]
  10520c: d65f03c0     	ret
  105210: 528203c1     	mov	w1, #0x101e             // =4126
  105214: 72a00601     	movk	w1, #0x30, lsl #16
  105218: d2800880     	mov	x0, #0x44               // =68
  10521c: f2ae2c00     	movk	x0, #0x7160, lsl #16
  105220: b9000001     	str	w1, [x0]
  105224: d65f03c0     	ret
  105228: d2800a04     	mov	x4, #0x50               // =80
  10522c: f2ae2c04     	movk	x4, #0x7160, lsl #16
  105230: b9000082     	str	w2, [x4]
  105234: 12005c63     	and	w3, w3, #0xffffff
  105238: d2800902     	mov	x2, #0x48               // =72
  10523c: f2ae2c02     	movk	x2, #0x7160, lsl #16
  105240: b9000043     	str	w3, [x2]
  105244: 91003042     	add	x2, x2, #0xc
  105248: b9000040     	str	w0, [x2]
  10524c: 12005c21     	and	w1, w1, #0xffffff
  105250: d2800980     	mov	x0, #0x4c               // =76
  105254: f2ae2c00     	movk	x0, #0x7160, lsl #16
  105258: b9000001     	str	w1, [x0]
  10525c: d65f03c0     	ret
  105260: d2800c82     	mov	x2, #0x64               // =100
  105264: f2ae2c02     	movk	x2, #0x7160, lsl #16
  105268: b9000040     	str	w0, [x2]
  10526c: d2800c00     	mov	x0, #0x60               // =96
  105270: f2ae2c00     	movk	x0, #0x7160, lsl #16
  105274: b9000001     	str	w1, [x0]
  105278: d65f03c0     	ret
  10527c: 52800021     	mov	w1, #0x1                // =1
  105280: d2800500     	mov	x0, #0x28               // =40
  105284: f2ae2c00     	movk	x0, #0x7160, lsl #16
  105288: b9000001     	str	w1, [x0]
  10528c: d65f03c0     	ret
  105290: 52800021     	mov	w1, #0x1                // =1
  105294: d2800380     	mov	x0, #0x1c               // =28
  105298: f2ae2c00     	movk	x0, #0x7160, lsl #16
  10529c: b9000001     	str	w1, [x0]
  1052a0: d65f03c0     	ret
  1052a4: d2800600     	mov	x0, #0x30               // =48
  1052a8: f2ae2c00     	movk	x0, #0x7160, lsl #16
  1052ac: b900001f     	str	wzr, [x0]
  1052b0: 91002000     	add	x0, x0, #0x8
  1052b4: b900001f     	str	wzr, [x0]
  1052b8: 91025000     	add	x0, x0, #0x94
  1052bc: b900001f     	str	wzr, [x0]
  1052c0: d65f03c0     	ret
  1052c4: a9bd7bfd     	stp	x29, x30, [sp, #-0x30]!
  1052c8: 910003fd     	mov	x29, sp
  1052cc: a90153f3     	stp	x19, x20, [sp, #0x10]
  1052d0: a9025bf5     	stp	x21, x22, [sp, #0x20]
  1052d4: d2800400     	mov	x0, #0x20               // =32
  1052d8: f2ae2c00     	movk	x0, #0x7160, lsl #16
  1052dc: b9400013     	ldr	w19, [x0]
  1052e0: 940007b9     	bl	0x1071c4 <_binary_BootROM_ums512_0x100000_0x111FFF_bin_start+0x71c4>
  1052e4: 2a0003f4     	mov	w20, w0
  1052e8: 52840020     	mov	w0, #0x2001             // =8193
  1052ec: 6a00027f     	tst	w19, w0
  1052f0: 54000161     	b.ne	0x10531c <_binary_BootROM_ums512_0x100000_0x111FFF_bin_start+0x531c>
  1052f4: d2800416     	mov	x22, #0x20              // =32
  1052f8: f2ae2c16     	movk	x22, #0x7160, lsl #16
  1052fc: 2a0003f5     	mov	w21, w0
  105300: b94002d3     	ldr	w19, [x22]
  105304: 0a150273     	and	w19, w19, w21
  105308: 940007af     	bl	0x1071c4 <_binary_BootROM_ums512_0x100000_0x111FFF_bin_start+0x71c4>
  10530c: 4b140000     	sub	w0, w0, w20
  105310: 710fa01f     	cmp	w0, #0x3e8
  105314: 540001c8     	b.hi	0x10534c <_binary_BootROM_ums512_0x100000_0x111FFF_bin_start+0x534c>
  105318: 34ffff53     	cbz	w19, 0x105300 <_binary_BootROM_ums512_0x100000_0x111FFF_bin_start+0x5300>
  10531c: d2800480     	mov	x0, #0x24               // =36
  105320: f2ae2c00     	movk	x0, #0x7160, lsl #16
  105324: b9400001     	ldr	w1, [x0]
  105328: 12800001     	mov	w1, #-0x1               // =-1
  10532c: b9000001     	str	w1, [x0]
  105330: 52800034     	mov	w20, #0x1               // =1
  105334: 97ffffdc     	bl	0x1052a4 <_binary_BootROM_ums512_0x100000_0x111FFF_bin_start+0x52a4>
  105338: 2a1403e0     	mov	w0, w20
  10533c: a94153f3     	ldp	x19, x20, [sp, #0x10]
  105340: a9425bf5     	ldp	x21, x22, [sp, #0x20]
  105344: a8c37bfd     	ldp	x29, x30, [sp], #0x30
  105348: d65f03c0     	ret
  10534c: 52800014     	mov	w20, #0x0               // =0
  105350: 34ffff33     	cbz	w19, 0x105334 <_binary_BootROM_ums512_0x100000_0x111FFF_bin_start+0x5334>
  105354: 17fffff2     	b	0x10531c <_binary_BootROM_ums512_0x100000_0x111FFF_bin_start+0x531c>
  105358: d2ae2001     	mov	x1, #0x71000000         // =1895825408
  10535c: b9400020     	ldr	w0, [x1]
  105360: 12017800     	and	w0, w0, #0xbfffffff
  105364: b9000020     	str	w0, [x1]
  105368: d65f03c0     	ret
  10536c: 52800821     	mov	w1, #0x41               // =65
  105370: d2800700     	mov	x0, #0x38               // =56
  105374: f2ae2c00     	movk	x0, #0x7160, lsl #16
  105378: b9000001     	str	w1, [x0]
  10537c: d65f03c0     	ret
  105380: a9bf7bfd     	stp	x29, x30, [sp, #-0x10]!
  105384: 910003fd     	mov	x29, sp
  105388: 2a0203e3     	mov	w3, w2
  10538c: aa0103e2     	mov	x2, x1
  105390: 52800401     	mov	w1, #0x20               // =32
  105394: 97ffffa5     	bl	0x105228 <_binary_BootROM_ums512_0x100000_0x111FFF_bin_start+0x5228>
  105398: 528203c1     	mov	w1, #0x101e             // =4126
  10539c: 72a00601     	movk	w1, #0x30, lsl #16
  1053a0: d2800880     	mov	x0, #0x44               // =68
  1053a4: f2ae2c00     	movk	x0, #0x7160, lsl #16
  1053a8: b9000001     	str	w1, [x0]
  1053ac: 52800821     	mov	w1, #0x41               // =65
  1053b0: d2800700     	mov	x0, #0x38               // =56
  1053b4: f2ae2c00     	movk	x0, #0x7160, lsl #16
  1053b8: b9000001     	str	w1, [x0]
  1053bc: 52800021     	mov	w1, #0x1                // =1
  1053c0: d2800500     	mov	x0, #0x28               // =40
  1053c4: f2ae2c00     	movk	x0, #0x7160, lsl #16
  1053c8: b9000001     	str	w1, [x0]
  1053cc: 97ffffbe     	bl	0x1052c4 <_binary_BootROM_ums512_0x100000_0x111FFF_bin_start+0x52c4>
  1053d0: a8c17bfd     	ldp	x29, x30, [sp], #0x10
  1053d4: d65f03c0     	ret
  1053d8: 51000421     	sub	w1, w1, #0x1
  1053dc: 7100003f     	cmp	w1, #0x0
  1053e0: 5400014d     	b.le	0x105408 <_binary_BootROM_ums512_0x100000_0x111FFF_bin_start+0x5408>
  1053e4: 52800002     	mov	w2, #0x0                // =0
  1053e8: 3862c803     	ldrb	w3, [x0, w2, sxtw]
  1053ec: 3861c804     	ldrb	w4, [x0, w1, sxtw]
  1053f0: 3822c804     	strb	w4, [x0, w2, sxtw]
  1053f4: 3821c803     	strb	w3, [x0, w1, sxtw]
  1053f8: 11000442     	add	w2, w2, #0x1
  1053fc: 51000421     	sub	w1, w1, #0x1
  105400: 6b01005f     	cmp	w2, w1
  105404: 54ffff2b     	b.lt	0x1053e8 <_binary_BootROM_ums512_0x100000_0x111FFF_bin_start+0x53e8>
  105408: d65f03c0     	ret
  10540c: a9bd7bfd     	stp	x29, x30, [sp, #-0x30]!
  105410: 910003fd     	mov	x29, sp
  105414: a90153f3     	stp	x19, x20, [sp, #0x10]
  105418: f90013f5     	str	x21, [sp, #0x20]
  10541c: aa0003f3     	mov	x19, x0
  105420: 2a0203f4     	mov	w20, w2
  105424: 937e7c55     	sbfiz	x21, x2, #2, #32
  105428: aa1503e2     	mov	x2, x21
  10542c: 94000e0e     	bl	0x108c64 <_binary_BootROM_ums512_0x100000_0x111FFF_bin_start+0x8c64>
  105430: 7101069f     	cmp	w20, #0x41
  105434: 5400014c     	b.gt	0x10545c <_binary_BootROM_ums512_0x100000_0x111FFF_bin_start+0x545c>
  105438: 52800822     	mov	w2, #0x41               // =65
  10543c: 4b140042     	sub	w2, w2, w20
  105440: 91000442     	add	x2, x2, #0x1
  105444: 8b150260     	add	x0, x19, x21
  105448: d2800001     	mov	x1, #0x0                // =0
  10544c: b821781f     	str	wzr, [x0, x1, lsl #2]
  105450: 91000421     	add	x1, x1, #0x1
  105454: eb02003f     	cmp	x1, x2
  105458: 54ffffa1     	b.ne	0x10544c <_binary_BootROM_ums512_0x100000_0x111FFF_bin_start+0x544c>
  10545c: a94153f3     	ldp	x19, x20, [sp, #0x10]
  105460: f94013f5     	ldr	x21, [sp, #0x20]
  105464: a8c37bfd     	ldp	x29, x30, [sp], #0x30
  105468: d65f03c0     	ret
  10546c: a9bd7bfd     	stp	x29, x30, [sp, #-0x30]!
  105470: 910003fd     	mov	x29, sp
  105474: a90153f3     	stp	x19, x20, [sp, #0x10]
  105478: f90013f5     	str	x21, [sp, #0x20]
  10547c: aa0003f5     	mov	x21, x0
  105480: aa0103f3     	mov	x19, x1
  105484: 2a0203f4     	mov	w20, w2
  105488: 2a0203e1     	mov	w1, w2
  10548c: aa1303e0     	mov	x0, x19
  105490: 97ffffd2     	bl	0x1053d8 <_binary_BootROM_ums512_0x100000_0x111FFF_bin_start+0x53d8>
  105494: 13027e82     	asr	w2, w20, #2
  105498: aa1303e1     	mov	x1, x19
  10549c: aa1503e0     	mov	x0, x21
  1054a0: 97ffffdb     	bl	0x10540c <_binary_BootROM_ums512_0x100000_0x111FFF_bin_start+0x540c>
  1054a4: 2a1403e1     	mov	w1, w20
  1054a8: aa1303e0     	mov	x0, x19
  1054ac: 97ffffcb     	bl	0x1053d8 <_binary_BootROM_ums512_0x100000_0x111FFF_bin_start+0x53d8>
  1054b0: a94153f3     	ldp	x19, x20, [sp, #0x10]
  1054b4: f94013f5     	ldr	x21, [sp, #0x20]
  1054b8: a8c37bfd     	ldp	x29, x30, [sp], #0x30
  1054bc: d65f03c0     	ret
  1054c0: d10083ff     	sub	sp, sp, #0x20
  1054c4: d280c084     	mov	x4, #0x604              // =1540
  1054c8: f2ae2c04     	movk	x4, #0x7160, lsl #16
  1054cc: 52800143     	mov	w3, #0xa                // =10
  1054d0: b9400082     	ldr	w2, [x4]
  1054d4: 4b020062     	sub	w2, w3, w2
  1054d8: 7100005f     	cmp	w2, #0x0
  1054dc: 54ffffad     	b.le	0x1054d0 <_binary_BootROM_ums512_0x100000_0x111FFF_bin_start+0x54d0>
  1054e0: b9000fe0     	str	w0, [sp, #0xc]
  1054e4: b90013e1     	str	w1, [sp, #0x10]
  1054e8: d280c000     	mov	x0, #0x600              // =1536
  1054ec: f2ae2c00     	movk	x0, #0x7160, lsl #16
  1054f0: 52a40a01     	mov	w1, #0x20500000         // =542113792
  1054f4: b9000001     	str	w1, [x0]
  1054f8: b9400fe1     	ldr	w1, [sp, #0xc]
  1054fc: b9000001     	str	w1, [x0]
  105500: b94013e1     	ldr	w1, [sp, #0x10]
  105504: b9000001     	str	w1, [x0]
  105508: 52800020     	mov	w0, #0x1                // =1
  10550c: 910083ff     	add	sp, sp, #0x20
  105510: d65f03c0     	ret
  105514: a9bc7bfd     	stp	x29, x30, [sp, #-0x40]!
  105518: 910003fd     	mov	x29, sp
  10551c: a90153f3     	stp	x19, x20, [sp, #0x10]
  105520: a9025bf5     	stp	x21, x22, [sp, #0x20]
  105524: f9001bf7     	str	x23, [sp, #0x30]
  105528: aa0003f7     	mov	x23, x0
  10552c: aa0103f6     	mov	x22, x1
  105530: aa0203f3     	mov	x19, x2
  105534: aa0303f4     	mov	x20, x3
  105538: 2a0403f5     	mov	w21, w4
  10553c: f0fff7e0     	adrp	x0, 0x4000
  105540: 91108000     	add	x0, x0, #0x420
  105544: a9007c1f     	stp	xzr, xzr, [x0]
  105548: a9017c1f     	stp	xzr, xzr, [x0, #0x10]
  10554c: f900101f     	str	xzr, [x0, #0x20]
  105550: d2810002     	mov	x2, #0x800              // =2048
  105554: 52800001     	mov	w1, #0x0                // =0
  105558: b0fff7e0     	adrp	x0, 0x2000
  10555c: 9105a000     	add	x0, x0, #0x168
  105560: 94000dba     	bl	0x108c48 <_binary_BootROM_ums512_0x100000_0x111FFF_bin_start+0x8c48>
  105564: b40000f4     	cbz	x20, 0x105580 <_binary_BootROM_ums512_0x100000_0x111FFF_bin_start+0x5580>
  105568: 52800082     	mov	w2, #0x4                // =4
  10556c: aa1403e1     	mov	x1, x20
  105570: b0fff7e0     	adrp	x0, 0x2000
  105574: 9105a000     	add	x0, x0, #0x168
  105578: 910c0000     	add	x0, x0, #0x300
  10557c: 97ffffbc     	bl	0x10546c <_binary_BootROM_ums512_0x100000_0x111FFF_bin_start+0x546c>
  105580: b40000d3     	cbz	x19, 0x105598 <_binary_BootROM_ums512_0x100000_0x111FFF_bin_start+0x5598>
  105584: 2a1503e2     	mov	w2, w21
  105588: aa1303e1     	mov	x1, x19
  10558c: b0fff7e0     	adrp	x0, 0x2000
  105590: 9105a000     	add	x0, x0, #0x168
  105594: 97ffffb6     	bl	0x10546c <_binary_BootROM_ums512_0x100000_0x111FFF_bin_start+0x546c>
  105598: b0fff7f3     	adrp	x19, 0x2000
  10559c: 9105a273     	add	x19, x19, #0x168
  1055a0: 91040274     	add	x20, x19, #0x100
  1055a4: 2a1503e2     	mov	w2, w21
  1055a8: aa1603e1     	mov	x1, x22
  1055ac: aa1403e0     	mov	x0, x20
  1055b0: 97ffffaf     	bl	0x10546c <_binary_BootROM_ums512_0x100000_0x111FFF_bin_start+0x546c>
  1055b4: f0fff7e2     	adrp	x2, 0x4000
  1055b8: 91108041     	add	x1, x2, #0x420
  1055bc: d351fe80     	lsr	x0, x20, #17
  1055c0: 531e3800     	ubfiz	w0, w0, #2, #15
  1055c4: 52800023     	mov	w3, #0x1                // =1
  1055c8: 72a1c183     	movk	w3, #0xe0c, lsl #16
  1055cc: 2a030000     	orr	w0, w0, w3
  1055d0: b9042040     	str	w0, [x2, #0x420]
  1055d4: 91080276     	add	x22, x19, #0x200
  1055d8: d351fec0     	lsr	x0, x22, #17
  1055dc: 531e3800     	ubfiz	w0, w0, #2, #15
  1055e0: 52800022     	mov	w2, #0x1                // =1
  1055e4: 72a1c202     	movk	w2, #0xe10, lsl #16
  1055e8: 2a020000     	orr	w0, w0, w2
  1055ec: b9000420     	str	w0, [x1, #0x4]
  1055f0: 531e3ea0     	ubfiz	w0, w21, #2, #16
  1055f4: 52800022     	mov	w2, #0x1                // =1
  1055f8: 72a11a02     	movk	w2, #0x8d0, lsl #16
  1055fc: 2a020000     	orr	w0, w0, w2
  105600: b9000820     	str	w0, [x1, #0x8]
  105604: 12004260     	and	w0, w19, #0x1ffff
  105608: 52b60002     	mov	w2, #-0x50000000        // =-1342177280
  10560c: 2a020000     	orr	w0, w0, w2
  105610: b9000c20     	str	w0, [x1, #0xc]
  105614: 12004294     	and	w20, w20, #0x1ffff
  105618: 52b60080     	mov	w0, #-0x4ffc0000        // =-1341915136
  10561c: 2a000294     	orr	w20, w20, w0
  105620: b9001034     	str	w20, [x1, #0x10]
  105624: 910c0273     	add	x19, x19, #0x300
  105628: 12004273     	and	w19, w19, #0x1ffff
  10562c: 52b60100     	mov	w0, #-0x4ff80000        // =-1341652992
  105630: 2a000273     	orr	w19, w19, w0
  105634: b9001433     	str	w19, [x1, #0x14]
  105638: 52821000     	mov	w0, #0x1080             // =4224
  10563c: 72ab0180     	movk	w0, #0x580c, lsl #16
  105640: b9001820     	str	w0, [x1, #0x18]
  105644: 120042c0     	and	w0, w22, #0x1ffff
  105648: 52b70182     	mov	w2, #-0x47f40000        // =-1207173120
  10564c: 2a020000     	orr	w0, w0, w2
  105650: b9001c20     	str	w0, [x1, #0x1c]
  105654: 12800000     	mov	w0, #-0x1               // =-1
  105658: b9002020     	str	w0, [x1, #0x20]
  10565c: 52800020     	mov	w0, #0x1                // =1
  105660: 72a10000     	movk	w0, #0x800, lsl #16
  105664: 97ffff97     	bl	0x1054c0 <_binary_BootROM_ums512_0x100000_0x111FFF_bin_start+0x54c0>
  105668: 97ffff17     	bl	0x1052c4 <_binary_BootROM_ums512_0x100000_0x111FFF_bin_start+0x52c4>
  10566c: 93407ea2     	sxtw	x2, w21
  105670: aa1603e1     	mov	x1, x22
  105674: aa1703e0     	mov	x0, x23
  105678: 94000d7b     	bl	0x108c64 <_binary_BootROM_ums512_0x100000_0x111FFF_bin_start+0x8c64>
  10567c: 2a1503e1     	mov	w1, w21
  105680: aa1703e0     	mov	x0, x23
  105684: 97ffff55     	bl	0x1053d8 <_binary_BootROM_ums512_0x100000_0x111FFF_bin_start+0x53d8>
  105688: a94153f3     	ldp	x19, x20, [sp, #0x10]
  10568c: a9425bf5     	ldp	x21, x22, [sp, #0x20]
  105690: f9401bf7     	ldr	x23, [sp, #0x30]
  105694: a8c47bfd     	ldp	x29, x30, [sp], #0x40
  105698: d65f03c0     	ret
  10569c: a9bc7bfd     	stp	x29, x30, [sp, #-0x40]!
  1056a0: 910003fd     	mov	x29, sp
  1056a4: a90153f3     	stp	x19, x20, [sp, #0x10]
  1056a8: a9025bf5     	stp	x21, x22, [sp, #0x20]
  1056ac: f9001bf7     	str	x23, [sp, #0x30]
  1056b0: aa0003f6     	mov	x22, x0
  1056b4: aa0103f7     	mov	x23, x1
  1056b8: aa0203f3     	mov	x19, x2
  1056bc: aa0303f5     	mov	x21, x3
  1056c0: 2a0403f4     	mov	w20, w4
  1056c4: f0fff7e0     	adrp	x0, 0x4000
  1056c8: 91108000     	add	x0, x0, #0x420
  1056cc: a9007c1f     	stp	xzr, xzr, [x0]
  1056d0: a9017c1f     	stp	xzr, xzr, [x0, #0x10]
  1056d4: f900101f     	str	xzr, [x0, #0x20]
  1056d8: d2810002     	mov	x2, #0x800              // =2048
  1056dc: 52800001     	mov	w1, #0x0                // =0
  1056e0: b0fff7e0     	adrp	x0, 0x2000
  1056e4: 9105a000     	add	x0, x0, #0x168
  1056e8: 94000d58     	bl	0x108c48 <_binary_BootROM_ums512_0x100000_0x111FFF_bin_start+0x8c48>
  1056ec: b40000f5     	cbz	x21, 0x105708 <_binary_BootROM_ums512_0x100000_0x111FFF_bin_start+0x5708>
  1056f0: 52800082     	mov	w2, #0x4                // =4
  1056f4: aa1503e1     	mov	x1, x21
  1056f8: b0fff7e0     	adrp	x0, 0x2000
  1056fc: 9105a000     	add	x0, x0, #0x168
  105700: 910c0000     	add	x0, x0, #0x300
  105704: 97ffff5a     	bl	0x10546c <_binary_BootROM_ums512_0x100000_0x111FFF_bin_start+0x546c>
  105708: b40000d3     	cbz	x19, 0x105720 <_binary_BootROM_ums512_0x100000_0x111FFF_bin_start+0x5720>
  10570c: 2a1403e2     	mov	w2, w20
  105710: aa1303e1     	mov	x1, x19
  105714: b0fff7e0     	adrp	x0, 0x2000
  105718: 9105a000     	add	x0, x0, #0x168
  10571c: 97ffff54     	bl	0x10546c <_binary_BootROM_ums512_0x100000_0x111FFF_bin_start+0x546c>
  105720: b0fff7f3     	adrp	x19, 0x2000
  105724: 9105a273     	add	x19, x19, #0x168
  105728: 91040275     	add	x21, x19, #0x100
  10572c: 2a1403e2     	mov	w2, w20
  105730: aa1703e1     	mov	x1, x23
  105734: aa1503e0     	mov	x0, x21
  105738: 97ffff4d     	bl	0x10546c <_binary_BootROM_ums512_0x100000_0x111FFF_bin_start+0x546c>
  10573c: f0fff7e3     	adrp	x3, 0x4000
  105740: 91108061     	add	x1, x3, #0x420
  105744: 91080260     	add	x0, x19, #0x200
  105748: d351fc02     	lsr	x2, x0, #17
  10574c: 531e3842     	ubfiz	w2, w2, #2, #15
  105750: 52800024     	mov	w4, #0x1                // =1
  105754: 72a1c184     	movk	w4, #0xe0c, lsl #16
  105758: 2a040042     	orr	w2, w2, w4
  10575c: b9042062     	str	w2, [x3, #0x420]
  105760: d351fea2     	lsr	x2, x21, #17
  105764: 531e3842     	ubfiz	w2, w2, #2, #15
  105768: 52800023     	mov	w3, #0x1                // =1
  10576c: 72a1c203     	movk	w3, #0xe10, lsl #16
  105770: 2a030042     	orr	w2, w2, w3
  105774: b9000422     	str	w2, [x1, #0x4]
  105778: 531e3e82     	ubfiz	w2, w20, #2, #16
  10577c: 52800023     	mov	w3, #0x1                // =1
  105780: 72a11a03     	movk	w3, #0x8d0, lsl #16
  105784: 2a030042     	orr	w2, w2, w3
  105788: b9000822     	str	w2, [x1, #0x8]
  10578c: 12004262     	and	w2, w19, #0x1ffff
  105790: 52b60003     	mov	w3, #-0x50000000        // =-1342177280
  105794: 2a030042     	orr	w2, w2, w3
  105798: b9000c22     	str	w2, [x1, #0xc]
  10579c: 910c0273     	add	x19, x19, #0x300
  1057a0: 12004273     	and	w19, w19, #0x1ffff
  1057a4: 52b60082     	mov	w2, #-0x4ffc0000        // =-1341915136
  1057a8: 2a020273     	orr	w19, w19, w2
  1057ac: b9001033     	str	w19, [x1, #0x10]
  1057b0: 12004000     	and	w0, w0, #0x1ffff
  1057b4: 52b60102     	mov	w2, #-0x4ff80000        // =-1341652992
  1057b8: 2a020000     	orr	w0, w0, w2
  1057bc: b9001420     	str	w0, [x1, #0x14]
  1057c0: 52840800     	mov	w0, #0x2040             // =8256
  1057c4: 72ab0180     	movk	w0, #0x580c, lsl #16
  1057c8: b9001820     	str	w0, [x1, #0x18]
  1057cc: 120042a0     	and	w0, w21, #0x1ffff
  1057d0: 52b70182     	mov	w2, #-0x47f40000        // =-1207173120
  1057d4: 2a020000     	orr	w0, w0, w2
  1057d8: b9001c20     	str	w0, [x1, #0x1c]
  1057dc: 12800000     	mov	w0, #-0x1               // =-1
  1057e0: b9002020     	str	w0, [x1, #0x20]
  1057e4: 52800020     	mov	w0, #0x1                // =1
  1057e8: 72a10000     	movk	w0, #0x800, lsl #16
  1057ec: 97ffff35     	bl	0x1054c0 <_binary_BootROM_ums512_0x100000_0x111FFF_bin_start+0x54c0>
  1057f0: 97fffeb5     	bl	0x1052c4 <_binary_BootROM_ums512_0x100000_0x111FFF_bin_start+0x52c4>
  1057f4: 93407e82     	sxtw	x2, w20
  1057f8: aa1503e1     	mov	x1, x21
  1057fc: aa1603e0     	mov	x0, x22
  105800: 94000d19     	bl	0x108c64 <_binary_BootROM_ums512_0x100000_0x111FFF_bin_start+0x8c64>
  105804: 2a1403e1     	mov	w1, w20
  105808: aa1603e0     	mov	x0, x22
  10580c: 97fffef3     	bl	0x1053d8 <_binary_BootROM_ums512_0x100000_0x111FFF_bin_start+0x53d8>
  105810: a94153f3     	ldp	x19, x20, [sp, #0x10]
  105814: a9425bf5     	ldp	x21, x22, [sp, #0x20]
  105818: f9401bf7     	ldr	x23, [sp, #0x30]
  10581c: a8c47bfd     	ldp	x29, x30, [sp], #0x40
  105820: d65f03c0     	ret
  105824: 52842221     	mov	w1, #0x2111             // =8465
  105828: d2800600     	mov	x0, #0x30               // =48
  10582c: f2ae2c00     	movk	x0, #0x7160, lsl #16
  105830: b9000001     	str	w1, [x0]
  105834: 528242c1     	mov	w1, #0x1216             // =4630
  105838: 72a00601     	movk	w1, #0x30, lsl #16
  10583c: 91005000     	add	x0, x0, #0x14
  105840: b9000001     	str	w1, [x0]
  105844: d65f03c0     	ret
  105848: aa0003e5     	mov	x5, x0
  10584c: 384014a4     	ldrb	w4, [x5], #0x1
  105850: 53081c84     	lsl	w4, w4, #24
  105854: 52800001     	mov	w1, #0x0                // =0
  105858: d2800d82     	mov	x2, #0x6c               // =108
  10585c: f2ae2c02     	movk	x2, #0x7160, lsl #16
  105860: cb000040     	sub	x0, x2, x0
  105864: 11000421     	add	w1, w1, #0x1
  105868: 7100403f     	cmp	w1, #0x10
  10586c: 54000180     	b.eq	0x10589c <_binary_BootROM_ums512_0x100000_0x111FFF_bin_start+0x589c>
  105870: 384014a2     	ldrb	w2, [x5], #0x1
  105874: 2a2103e3     	mvn	w3, w1
  105878: 531d0463     	ubfiz	w3, w3, #3, #2
  10587c: 1ac32042     	lsl	w2, w2, w3
  105880: 2a020084     	orr	w4, w4, w2
  105884: 12000422     	and	w2, w1, #0x3
  105888: 71000c5f     	cmp	w2, #0x3
  10588c: 54fffec1     	b.ne	0x105864 <_binary_BootROM_ums512_0x100000_0x111FFF_bin_start+0x5864>
  105890: b82068a4     	str	w4, [x5, x0]
  105894: 52800004     	mov	w4, #0x0                // =0
  105898: 17fffff3     	b	0x105864 <_binary_BootROM_ums512_0x100000_0x111FFF_bin_start+0x5864>
  10589c: d65f03c0     	ret
  1058a0: 531d1400     	ubfiz	w0, w0, #3, #6
  1058a4: 2a015400     	orr	w0, w0, w1, lsl #21
  1058a8: d2806801     	mov	x1, #0x340              // =832
  1058ac: f2ae2c01     	movk	x1, #0x7160, lsl #16
  1058b0: b9000020     	str	w0, [x1]
  1058b4: d65f03c0     	ret
  1058b8: a9be7bfd     	stp	x29, x30, [sp, #-0x20]!
  1058bc: 910003fd     	mov	x29, sp
  1058c0: a90153f3     	stp	x19, x20, [sp, #0x10]
  1058c4: aa0103e5     	mov	x5, x1
  1058c8: 2a0203e1     	mov	w1, w2
  1058cc: aa0303f4     	mov	x20, x3
  1058d0: 2a0403f3     	mov	w19, w4
  1058d4: 2a0203e3     	mov	w3, w2
  1058d8: aa0003e2     	mov	x2, x0
  1058dc: aa0503e0     	mov	x0, x5
  1058e0: 97fffe52     	bl	0x105228 <_binary_BootROM_ums512_0x100000_0x111FFF_bin_start+0x5228>
  1058e4: 97ffffd0     	bl	0x105824 <_binary_BootROM_ums512_0x100000_0x111FFF_bin_start+0x5824>
  1058e8: aa1403e0     	mov	x0, x20
  1058ec: 97ffffd7     	bl	0x105848 <_binary_BootROM_ums512_0x100000_0x111FFF_bin_start+0x5848>
  1058f0: 52800401     	mov	w1, #0x20               // =32
  1058f4: 2a1303e0     	mov	w0, w19
  1058f8: 97ffffea     	bl	0x1058a0 <_binary_BootROM_ums512_0x100000_0x111FFF_bin_start+0x58a0>
  1058fc: 52800021     	mov	w1, #0x1                // =1
  105900: d2800500     	mov	x0, #0x28               // =40
  105904: f2ae2c00     	movk	x0, #0x7160, lsl #16
  105908: b9000001     	str	w1, [x0]
  10590c: 97fffe6e     	bl	0x1052c4 <_binary_BootROM_ums512_0x100000_0x111FFF_bin_start+0x52c4>
  105910: a94153f3     	ldp	x19, x20, [sp, #0x10]
  105914: a8c27bfd     	ldp	x29, x30, [sp], #0x20
  105918: d65f03c0     	ret
  10591c: a9bf7bfd     	stp	x29, x30, [sp, #-0x10]!
  105920: 910003fd     	mov	x29, sp
  105924: 97fffe30     	bl	0x1051e4 <_binary_BootROM_ums512_0x100000_0x111FFF_bin_start+0x51e4>
  105928: 97fffe21     	bl	0x1051ac <_binary_BootROM_ums512_0x100000_0x111FFF_bin_start+0x51ac>
  10592c: 52803de1     	mov	w1, #0x1ef              // =495
  105930: 72a007e1     	movk	w1, #0x3f, lsl #16
  105934: d2800300     	mov	x0, #0x18               // =24
  105938: f2ae2c00     	movk	x0, #0x7160, lsl #16
  10593c: b9000001     	str	w1, [x0]
  105940: a8c17bfd     	ldp	x29, x30, [sp], #0x10
  105944: d65f03c0     	ret
  105948: a9bf7bfd     	stp	x29, x30, [sp, #-0x10]!
  10594c: 910003fd     	mov	x29, sp
  105950: 97fffe82     	bl	0x105358 <_binary_BootROM_ums512_0x100000_0x111FFF_bin_start+0x5358>
  105954: a8c17bfd     	ldp	x29, x30, [sp], #0x10
  105958: d65f03c0     	ret
  10595c: a9ac7bfd     	stp	x29, x30, [sp, #-0x140]!
  105960: 910003fd     	mov	x29, sp
  105964: a90153f3     	stp	x19, x20, [sp, #0x10]
  105968: a9025bf5     	stp	x21, x22, [sp, #0x20]
  10596c: a90363f7     	stp	x23, x24, [sp, #0x30]
  105970: aa0003f8     	mov	x24, x0
  105974: aa0103f7     	mov	x23, x1
  105978: aa0303f4     	mov	x20, x3
  10597c: 2a0403f5     	mov	w21, w4
  105980: aa0503f6     	mov	x22, x5
  105984: 13037c53     	asr	w19, w2, #3
  105988: 93407e62     	sxtw	x2, w19
  10598c: 52800001     	mov	w1, #0x0                // =0
  105990: 910103a0     	add	x0, x29, #0x40
  105994: 94000cad     	bl	0x108c48 <_binary_BootROM_ums512_0x100000_0x111FFF_bin_start+0x8c48>
  105998: 2a1503e3     	mov	w3, w21
  10599c: aa1403e2     	mov	x2, x20
  1059a0: 2a1303e1     	mov	w1, w19
  1059a4: 910103a0     	add	x0, x29, #0x40
  1059a8: 94000bb9     	bl	0x10888c <_binary_BootROM_ums512_0x100000_0x111FFF_bin_start+0x888c>
  1059ac: 7100001f     	cmp	w0, #0x0
  1059b0: 540001ad     	b.le	0x1059e4 <_binary_BootROM_ums512_0x100000_0x111FFF_bin_start+0x59e4>
  1059b4: 2a1303e4     	mov	w4, w19
  1059b8: aa1803e3     	mov	x3, x24
  1059bc: aa1703e2     	mov	x2, x23
  1059c0: 910103a1     	add	x1, x29, #0x40
  1059c4: aa1603e0     	mov	x0, x22
  1059c8: 97ffff35     	bl	0x10569c <_binary_BootROM_ums512_0x100000_0x111FFF_bin_start+0x569c>
  1059cc: 52800020     	mov	w0, #0x1                // =1
  1059d0: a94153f3     	ldp	x19, x20, [sp, #0x10]
  1059d4: a9425bf5     	ldp	x21, x22, [sp, #0x20]
  1059d8: a94363f7     	ldp	x23, x24, [sp, #0x30]
  1059dc: a8d47bfd     	ldp	x29, x30, [sp], #0x140
  1059e0: d65f03c0     	ret
  1059e4: 52800000     	mov	w0, #0x0                // =0
  1059e8: 17fffffa     	b	0x1059d0 <_binary_BootROM_ums512_0x100000_0x111FFF_bin_start+0x59d0>
  1059ec: a9bf7bfd     	stp	x29, x30, [sp, #-0x10]!
  1059f0: 910003fd     	mov	x29, sp
  1059f4: aa0303e6     	mov	x6, x3
  1059f8: aa0403e5     	mov	x5, x4
  1059fc: 13037c44     	asr	w4, w2, #3
  105a00: aa0003e3     	mov	x3, x0
  105a04: aa0103e2     	mov	x2, x1
  105a08: aa0603e1     	mov	x1, x6
  105a0c: aa0503e0     	mov	x0, x5
  105a10: 97fffec1     	bl	0x105514 <_binary_BootROM_ums512_0x100000_0x111FFF_bin_start+0x5514>
  105a14: 52802000     	mov	w0, #0x100              // =256
  105a18: a8c17bfd     	ldp	x29, x30, [sp], #0x10
  105a1c: d65f03c0     	ret
  105a20: a9bf7bfd     	stp	x29, x30, [sp, #-0x10]!
  105a24: 910003fd     	mov	x29, sp
  105a28: aa0203e3     	mov	x3, x2
  105a2c: 2a0103e2     	mov	w2, w1
  105a30: aa0003e1     	mov	x1, x0
  105a34: aa0303e0     	mov	x0, x3
  105a38: 97fffe52     	bl	0x105380 <_binary_BootROM_ums512_0x100000_0x111FFF_bin_start+0x5380>
  105a3c: a8c17bfd     	ldp	x29, x30, [sp], #0x10
  105a40: d65f03c0     	ret
  105a44: a9bf7bfd     	stp	x29, x30, [sp, #-0x10]!
  105a48: 910003fd     	mov	x29, sp
  105a4c: 97ffff9b     	bl	0x1058b8 <_binary_BootROM_ums512_0x100000_0x111FFF_bin_start+0x58b8>
  105a50: a8c17bfd     	ldp	x29, x30, [sp], #0x10
  105a54: d65f03c0     	ret
  105a58: 52868021     	mov	w1, #0x3401             // =13313
  105a5c: d2800600     	mov	x0, #0x30               // =48
  105a60: f2ae2c00     	movk	x0, #0x7160, lsl #16
  105a64: b9000001     	str	w1, [x0]
  105a68: 52824241     	mov	w1, #0x1212             // =4626
  105a6c: 72a00601     	movk	w1, #0x30, lsl #16
  105a70: 91005000     	add	x0, x0, #0x14
  105a74: b9000001     	str	w1, [x0]
  105a78: d65f03c0     	ret
  105a7c: d2800a04     	mov	x4, #0x50               // =80
  105a80: f2ae2c04     	movk	x4, #0x7160, lsl #16
  105a84: b9000082     	str	w2, [x4]
  105a88: 12005c63     	and	w3, w3, #0xffffff
  105a8c: d2800902     	mov	x2, #0x48               // =72
  105a90: f2ae2c02     	movk	x2, #0x7160, lsl #16
  105a94: b9000043     	str	w3, [x2]
  105a98: 91009042     	add	x2, x2, #0x24
  105a9c: b9000040     	str	w0, [x2]
  105aa0: 12001c21     	and	w1, w1, #0xff
  105aa4: d2800d00     	mov	x0, #0x68               // =104
  105aa8: f2ae2c00     	movk	x0, #0x7160, lsl #16
  105aac: b9000001     	str	w1, [x0]
  105ab0: d65f03c0     	ret
  105ab4: a9bd7bfd     	stp	x29, x30, [sp, #-0x30]!
  105ab8: 910003fd     	mov	x29, sp
  105abc: a90153f3     	stp	x19, x20, [sp, #0x10]
  105ac0: a9025bf5     	stp	x21, x22, [sp, #0x20]
  105ac4: aa0003f6     	mov	x22, x0
  105ac8: 2a0103f3     	mov	w19, w1
  105acc: 2a0203f4     	mov	w20, w2
  105ad0: aa0303f5     	mov	x21, x3
  105ad4: 97ffffe1     	bl	0x105a58 <_binary_BootROM_ums512_0x100000_0x111FFF_bin_start+0x5a58>
  105ad8: d2800a00     	mov	x0, #0x50               // =80
  105adc: f2ae2c00     	movk	x0, #0x7160, lsl #16
  105ae0: b9000016     	str	w22, [x0]
  105ae4: 12005e73     	and	w19, w19, #0xffffff
  105ae8: d2800900     	mov	x0, #0x48               // =72
  105aec: f2ae2c00     	movk	x0, #0x7160, lsl #16
  105af0: b9000013     	str	w19, [x0]
  105af4: 91009000     	add	x0, x0, #0x24
  105af8: b9000015     	str	w21, [x0]
  105afc: 52800201     	mov	w1, #0x10               // =16
  105b00: d2800d00     	mov	x0, #0x68               // =104
  105b04: f2ae2c00     	movk	x0, #0x7160, lsl #16
  105b08: b9000001     	str	w1, [x0]
  105b0c: 52800401     	mov	w1, #0x20               // =32
  105b10: 2a1403e0     	mov	w0, w20
  105b14: 97ffff63     	bl	0x1058a0 <_binary_BootROM_ums512_0x100000_0x111FFF_bin_start+0x58a0>
  105b18: 52800021     	mov	w1, #0x1                // =1
  105b1c: d2800500     	mov	x0, #0x28               // =40
  105b20: f2ae2c00     	movk	x0, #0x7160, lsl #16
  105b24: b9000001     	str	w1, [x0]
  105b28: 97fffde7     	bl	0x1052c4 <_binary_BootROM_ums512_0x100000_0x111FFF_bin_start+0x52c4>
  105b2c: a94153f3     	ldp	x19, x20, [sp, #0x10]
  105b30: a9425bf5     	ldp	x21, x22, [sp, #0x20]
  105b34: a8c37bfd     	ldp	x29, x30, [sp], #0x30
  105b38: d65f03c0     	ret
  105b3c: b900141f     	str	wzr, [x0, #0x14]
  105b40: b900181f     	str	wzr, [x0, #0x18]
  105b44: b9001c1f     	str	wzr, [x0, #0x1c]
  105b48: 52846021     	mov	w1, #0x2301             // =8961
  105b4c: 72ace8a1     	movk	w1, #0x6745, lsl #16
  105b50: b9000001     	str	w1, [x0]
  105b54: 52957121     	mov	w1, #0xab89             // =43913
  105b58: 72bdf9a1     	movk	w1, #0xefcd, lsl #16
  105b5c: b9000401     	str	w1, [x0, #0x4]
  105b60: 529b9fc1     	mov	w1, #0xdcfe             // =56574
  105b64: 72b31741     	movk	w1, #0x98ba, lsl #16
  105b68: b9000801     	str	w1, [x0, #0x8]
  105b6c: 528a8ec1     	mov	w1, #0x5476             // =21622
  105b70: 72a20641     	movk	w1, #0x1032, lsl #16
  105b74: b9000c01     	str	w1, [x0, #0xc]
  105b78: 529c3e01     	mov	w1, #0xe1f0             // =57840
  105b7c: 72b87a41     	movk	w1, #0xc3d2, lsl #16
  105b80: b9001001     	str	w1, [x0, #0x10]
  105b84: 52800000     	mov	w0, #0x0                // =0
  105b88: d65f03c0     	ret
  105b8c: 91008001     	add	x1, x0, #0x20
  105b90: 91048005     	add	x5, x0, #0x120
  105b94: b9403422     	ldr	w2, [x1, #0x34]
  105b98: b9402023     	ldr	w3, [x1, #0x20]
  105b9c: 4a030042     	eor	w2, w2, w3
  105ba0: b9400823     	ldr	w3, [x1, #0x8]
  105ba4: b9400024     	ldr	w4, [x1]
  105ba8: 4a040063     	eor	w3, w3, w4
  105bac: 4a030042     	eor	w2, w2, w3
  105bb0: 13827c42     	ror	w2, w2, #0x1f
  105bb4: b9004022     	str	w2, [x1, #0x40]
  105bb8: 91001021     	add	x1, x1, #0x4
  105bbc: eb0100bf     	cmp	x5, x1
  105bc0: 54fffea1     	b.ne	0x105b94 <_binary_BootROM_ums512_0x100000_0x111FFF_bin_start+0x5b94>
  105bc4: b9400003     	ldr	w3, [x0]
  105bc8: b9400406     	ldr	w6, [x0, #0x4]
  105bcc: b9400805     	ldr	w5, [x0, #0x8]
  105bd0: b9400c04     	ldr	w4, [x0, #0xc]
  105bd4: b9401007     	ldr	w7, [x0, #0x10]
  105bd8: b9402002     	ldr	w2, [x0, #0x20]
  105bdc: 0b0200e2     	add	w2, w7, w2
  105be0: 13836c68     	ror	w8, w3, #0x1b
  105be4: 528f3321     	mov	w1, #0x7999             // =31129
  105be8: 72ab5041     	movk	w1, #0x5a82, lsl #16
  105bec: 0b010108     	add	w8, w8, w1
  105bf0: 0b080048     	add	w8, w2, w8
  105bf4: 4a0400a2     	eor	w2, w5, w4
  105bf8: 0a060042     	and	w2, w2, w6
  105bfc: 4a040042     	eor	w2, w2, w4
  105c00: 0b080042     	add	w2, w2, w8
  105c04: 138608ca     	ror	w10, w6, #0x2
  105c08: 4a0a00a8     	eor	w8, w5, w10
  105c0c: 0a030108     	and	w8, w8, w3
  105c10: 4a050108     	eor	w8, w8, w5
  105c14: 0b010108     	add	w8, w8, w1
  105c18: b9402409     	ldr	w9, [x0, #0x24]
  105c1c: 0b090089     	add	w9, w4, w9
  105c20: 0b090108     	add	w8, w8, w9
  105c24: 13826c4c     	ror	w12, w2, #0x1b
  105c28: 0b08018c     	add	w12, w12, w8
  105c2c: 13830869     	ror	w9, w3, #0x2
  105c30: 4a090148     	eor	w8, w10, w9
  105c34: 0a020108     	and	w8, w8, w2
  105c38: 4a0a0108     	eor	w8, w8, w10
  105c3c: 0b010108     	add	w8, w8, w1
  105c40: b940280b     	ldr	w11, [x0, #0x28]
  105c44: 0b0b00ab     	add	w11, w5, w11
  105c48: 0b0b0108     	add	w8, w8, w11
  105c4c: 138c6d8b     	ror	w11, w12, #0x1b
  105c50: 0b08016b     	add	w11, w11, w8
  105c54: 13820842     	ror	w2, w2, #0x2
  105c58: 4a020128     	eor	w8, w9, w2
  105c5c: 0a0c0108     	and	w8, w8, w12
  105c60: 4a090108     	eor	w8, w8, w9
  105c64: 0b0a0108     	add	w8, w8, w10
  105c68: b9402c0a     	ldr	w10, [x0, #0x2c]
  105c6c: 0b01014a     	add	w10, w10, w1
  105c70: 0b0a0108     	add	w8, w8, w10
  105c74: 138b6d6a     	ror	w10, w11, #0x1b
  105c78: 0b08014a     	add	w10, w10, w8
  105c7c: 138c098c     	ror	w12, w12, #0x2
  105c80: 4a0c0048     	eor	w8, w2, w12
  105c84: 0a0b0108     	and	w8, w8, w11
  105c88: 4a020108     	eor	w8, w8, w2
  105c8c: 0b090108     	add	w8, w8, w9
  105c90: b9403009     	ldr	w9, [x0, #0x30]
  105c94: 0b010129     	add	w9, w9, w1
  105c98: 0b090108     	add	w8, w8, w9
  105c9c: 138a6d49     	ror	w9, w10, #0x1b
  105ca0: 0b080129     	add	w9, w9, w8
  105ca4: 138b096b     	ror	w11, w11, #0x2
  105ca8: 4a0b0188     	eor	w8, w12, w11
  105cac: 0a0a0108     	and	w8, w8, w10
  105cb0: 4a0c0108     	eor	w8, w8, w12
  105cb4: 0b020102     	add	w2, w8, w2
  105cb8: b9403408     	ldr	w8, [x0, #0x34]
  105cbc: 0b010108     	add	w8, w8, w1
  105cc0: 0b080042     	add	w2, w2, w8
  105cc4: 13896d28     	ror	w8, w9, #0x1b
  105cc8: 0b020108     	add	w8, w8, w2
  105ccc: 138a094a     	ror	w10, w10, #0x2
  105cd0: 4a0a0162     	eor	w2, w11, w10
  105cd4: 0a090042     	and	w2, w2, w9
  105cd8: 4a0b0042     	eor	w2, w2, w11
  105cdc: 0b0c0042     	add	w2, w2, w12
  105ce0: b940380c     	ldr	w12, [x0, #0x38]
  105ce4: 0b01018c     	add	w12, w12, w1
  105ce8: 0b0c0042     	add	w2, w2, w12
  105cec: 13886d0c     	ror	w12, w8, #0x1b
  105cf0: 0b02018c     	add	w12, w12, w2
  105cf4: 13890929     	ror	w9, w9, #0x2
  105cf8: 4a090142     	eor	w2, w10, w9
  105cfc: 0a080042     	and	w2, w2, w8
  105d00: 4a0a0042     	eor	w2, w2, w10
  105d04: 0b0b0042     	add	w2, w2, w11
  105d08: b9403c0b     	ldr	w11, [x0, #0x3c]
  105d0c: 0b01016b     	add	w11, w11, w1
  105d10: 0b0b0042     	add	w2, w2, w11
  105d14: 138c6d8b     	ror	w11, w12, #0x1b
  105d18: 0b02016b     	add	w11, w11, w2
  105d1c: 13880908     	ror	w8, w8, #0x2
  105d20: 4a080122     	eor	w2, w9, w8
  105d24: 0a0c0042     	and	w2, w2, w12
  105d28: 4a090042     	eor	w2, w2, w9
  105d2c: 0b0a0042     	add	w2, w2, w10
  105d30: b940400a     	ldr	w10, [x0, #0x40]
  105d34: 0b01014a     	add	w10, w10, w1
  105d38: 0b0a0042     	add	w2, w2, w10
  105d3c: 138b6d6a     	ror	w10, w11, #0x1b
  105d40: 0b02014a     	add	w10, w10, w2
  105d44: 138c098c     	ror	w12, w12, #0x2
  105d48: 4a0c0102     	eor	w2, w8, w12
  105d4c: 0a0b0042     	and	w2, w2, w11
  105d50: 4a080042     	eor	w2, w2, w8
  105d54: 0b090042     	add	w2, w2, w9
  105d58: b9404409     	ldr	w9, [x0, #0x44]
  105d5c: 0b010129     	add	w9, w9, w1
  105d60: 0b090042     	add	w2, w2, w9
  105d64: 138a6d49     	ror	w9, w10, #0x1b
  105d68: 0b020129     	add	w9, w9, w2
  105d6c: 138b096b     	ror	w11, w11, #0x2
  105d70: 4a0b0182     	eor	w2, w12, w11
  105d74: 0a0a0042     	and	w2, w2, w10
  105d78: 4a0c0042     	eor	w2, w2, w12
  105d7c: 0b080042     	add	w2, w2, w8
  105d80: b9404808     	ldr	w8, [x0, #0x48]
  105d84: 0b010108     	add	w8, w8, w1
  105d88: 0b080042     	add	w2, w2, w8
  105d8c: 13896d28     	ror	w8, w9, #0x1b
  105d90: 0b020108     	add	w8, w8, w2
  105d94: 138a094a     	ror	w10, w10, #0x2
  105d98: 4a0a0162     	eor	w2, w11, w10
  105d9c: 0a090042     	and	w2, w2, w9
  105da0: 4a0b0042     	eor	w2, w2, w11
  105da4: 0b0c0042     	add	w2, w2, w12
  105da8: b9404c0c     	ldr	w12, [x0, #0x4c]
  105dac: 0b01018c     	add	w12, w12, w1
  105db0: 0b0c0042     	add	w2, w2, w12
  105db4: 13886d0c     	ror	w12, w8, #0x1b
  105db8: 0b02018c     	add	w12, w12, w2
  105dbc: 13890929     	ror	w9, w9, #0x2
  105dc0: 4a090142     	eor	w2, w10, w9
  105dc4: 0a080042     	and	w2, w2, w8
  105dc8: 4a0a0042     	eor	w2, w2, w10
  105dcc: 0b0b0042     	add	w2, w2, w11
  105dd0: b940500b     	ldr	w11, [x0, #0x50]
  105dd4: 0b01016b     	add	w11, w11, w1
  105dd8: 0b0b0042     	add	w2, w2, w11
  105ddc: 138c6d8b     	ror	w11, w12, #0x1b
  105de0: 0b02016b     	add	w11, w11, w2
  105de4: 13880908     	ror	w8, w8, #0x2
  105de8: 4a080122     	eor	w2, w9, w8
  105dec: 0a0c0042     	and	w2, w2, w12
  105df0: 4a090042     	eor	w2, w2, w9
  105df4: 0b0a0042     	add	w2, w2, w10
  105df8: b940540a     	ldr	w10, [x0, #0x54]
  105dfc: 0b01014a     	add	w10, w10, w1
  105e00: 0b0a0042     	add	w2, w2, w10
  105e04: 138b6d6a     	ror	w10, w11, #0x1b
  105e08: 0b02014a     	add	w10, w10, w2
  105e0c: 138c098c     	ror	w12, w12, #0x2
  105e10: 4a0c0102     	eor	w2, w8, w12
  105e14: 0a0b0042     	and	w2, w2, w11
  105e18: 4a080042     	eor	w2, w2, w8
  105e1c: 0b090042     	add	w2, w2, w9
  105e20: b9405809     	ldr	w9, [x0, #0x58]
  105e24: 0b010129     	add	w9, w9, w1
  105e28: 0b090042     	add	w2, w2, w9
  105e2c: 138a6d49     	ror	w9, w10, #0x1b
  105e30: 0b020129     	add	w9, w9, w2
  105e34: 138b096b     	ror	w11, w11, #0x2
  105e38: 4a0b0182     	eor	w2, w12, w11
  105e3c: 0a0a0042     	and	w2, w2, w10
  105e40: 4a0c0042     	eor	w2, w2, w12
  105e44: 0b080042     	add	w2, w2, w8
  105e48: b9405c08     	ldr	w8, [x0, #0x5c]
  105e4c: 0b010108     	add	w8, w8, w1
  105e50: 0b080042     	add	w2, w2, w8
  105e54: 13896d28     	ror	w8, w9, #0x1b
  105e58: 0b020108     	add	w8, w8, w2
  105e5c: 138a094a     	ror	w10, w10, #0x2
  105e60: 4a0a0162     	eor	w2, w11, w10
  105e64: 0a090042     	and	w2, w2, w9
  105e68: 4a0b0042     	eor	w2, w2, w11
  105e6c: 0b0c0042     	add	w2, w2, w12
  105e70: b940600c     	ldr	w12, [x0, #0x60]
  105e74: 0b01018c     	add	w12, w12, w1
  105e78: 0b0c0042     	add	w2, w2, w12
  105e7c: 13886d0c     	ror	w12, w8, #0x1b
  105e80: 0b02018c     	add	w12, w12, w2
  105e84: 13890929     	ror	w9, w9, #0x2
  105e88: 4a090142     	eor	w2, w10, w9
  105e8c: 0a080042     	and	w2, w2, w8
  105e90: 4a0a0042     	eor	w2, w2, w10
  105e94: 0b0b0042     	add	w2, w2, w11
  105e98: b940640b     	ldr	w11, [x0, #0x64]
  105e9c: 0b01016b     	add	w11, w11, w1
  105ea0: 0b0b0042     	add	w2, w2, w11
  105ea4: 138c6d8e     	ror	w14, w12, #0x1b
  105ea8: 0b0201ce     	add	w14, w14, w2
  105eac: 13880908     	ror	w8, w8, #0x2
  105eb0: 4a080122     	eor	w2, w9, w8
  105eb4: 0a0c0042     	and	w2, w2, w12
  105eb8: 4a090042     	eor	w2, w2, w9
  105ebc: 0b0a0042     	add	w2, w2, w10
  105ec0: b940680a     	ldr	w10, [x0, #0x68]
  105ec4: 0b01014a     	add	w10, w10, w1
  105ec8: 0b0a0042     	add	w2, w2, w10
  105ecc: 138e6dcd     	ror	w13, w14, #0x1b
  105ed0: 0b0201ad     	add	w13, w13, w2
  105ed4: 138c098c     	ror	w12, w12, #0x2
  105ed8: 4a0c0102     	eor	w2, w8, w12
  105edc: 0a0e0042     	and	w2, w2, w14
  105ee0: 4a080042     	eor	w2, w2, w8
  105ee4: 0b090042     	add	w2, w2, w9
  105ee8: b9406c09     	ldr	w9, [x0, #0x6c]
  105eec: 0b010121     	add	w1, w9, w1
  105ef0: 0b010041     	add	w1, w2, w1
  105ef4: 138d6dab     	ror	w11, w13, #0x1b
  105ef8: 0b01016b     	add	w11, w11, w1
  105efc: 138e09ce     	ror	w14, w14, #0x2
  105f00: 4a0e0182     	eor	w2, w12, w14
  105f04: 4a0d0042     	eor	w2, w2, w13
  105f08: 0b080042     	add	w2, w2, w8
  105f0c: b9407008     	ldr	w8, [x0, #0x70]
  105f10: 529d7421     	mov	w1, #0xeba1             // =60321
  105f14: 72addb21     	movk	w1, #0x6ed9, lsl #16
  105f18: 0b010108     	add	w8, w8, w1
  105f1c: 0b080042     	add	w2, w2, w8
  105f20: 138b6d69     	ror	w9, w11, #0x1b
  105f24: 0b020129     	add	w9, w9, w2
  105f28: 138d09ad     	ror	w13, w13, #0x2
  105f2c: 4a0d01c2     	eor	w2, w14, w13
  105f30: 4a0b0042     	eor	w2, w2, w11
  105f34: 0b0c0042     	add	w2, w2, w12
  105f38: b9407408     	ldr	w8, [x0, #0x74]
  105f3c: 0b010108     	add	w8, w8, w1
  105f40: 0b080042     	add	w2, w2, w8
  105f44: 13896d2a     	ror	w10, w9, #0x1b
  105f48: 0b02014a     	add	w10, w10, w2
  105f4c: 138b096b     	ror	w11, w11, #0x2
  105f50: 4a0b01a2     	eor	w2, w13, w11
  105f54: 4a090042     	eor	w2, w2, w9
  105f58: 0b0e0042     	add	w2, w2, w14
  105f5c: b9407808     	ldr	w8, [x0, #0x78]
  105f60: 0b010108     	add	w8, w8, w1
  105f64: 0b080042     	add	w2, w2, w8
  105f68: 138a6d48     	ror	w8, w10, #0x1b
  105f6c: 0b020108     	add	w8, w8, w2
  105f70: 1389092e     	ror	w14, w9, #0x2
  105f74: 4a0e0162     	eor	w2, w11, w14
  105f78: 4a0a0042     	eor	w2, w2, w10
  105f7c: 0b0d0042     	add	w2, w2, w13
  105f80: b9407c09     	ldr	w9, [x0, #0x7c]
  105f84: 0b010129     	add	w9, w9, w1
  105f88: 0b090042     	add	w2, w2, w9
  105f8c: 13886d09     	ror	w9, w8, #0x1b
  105f90: 0b020129     	add	w9, w9, w2
  105f94: 138a094d     	ror	w13, w10, #0x2
  105f98: 4a0d01c2     	eor	w2, w14, w13
  105f9c: 4a080042     	eor	w2, w2, w8
  105fa0: 0b0b0042     	add	w2, w2, w11
  105fa4: b940800a     	ldr	w10, [x0, #0x80]
  105fa8: 0b01014a     	add	w10, w10, w1
  105fac: 0b0a0042     	add	w2, w2, w10
  105fb0: 13896d2a     	ror	w10, w9, #0x1b
  105fb4: 0b02014a     	add	w10, w10, w2
  105fb8: 1388090c     	ror	w12, w8, #0x2
  105fbc: 4a0c01a2     	eor	w2, w13, w12
  105fc0: 4a090042     	eor	w2, w2, w9
  105fc4: 0b0e0042     	add	w2, w2, w14
  105fc8: b9408408     	ldr	w8, [x0, #0x84]
  105fcc: 0b010108     	add	w8, w8, w1
  105fd0: 0b080042     	add	w2, w2, w8
  105fd4: 138a6d48     	ror	w8, w10, #0x1b
  105fd8: 0b020108     	add	w8, w8, w2
  105fdc: 1389092b     	ror	w11, w9, #0x2
  105fe0: 4a0b0182     	eor	w2, w12, w11
  105fe4: 4a0a0042     	eor	w2, w2, w10
  105fe8: 0b0d0042     	add	w2, w2, w13
  105fec: b9408809     	ldr	w9, [x0, #0x88]
  105ff0: 0b010129     	add	w9, w9, w1
  105ff4: 0b090042     	add	w2, w2, w9
  105ff8: 13886d09     	ror	w9, w8, #0x1b
  105ffc: 0b020129     	add	w9, w9, w2
  106000: 138a094d     	ror	w13, w10, #0x2
  106004: 4a0d0162     	eor	w2, w11, w13
  106008: 4a080042     	eor	w2, w2, w8
  10600c: 0b0c0042     	add	w2, w2, w12
  106010: b9408c0a     	ldr	w10, [x0, #0x8c]
  106014: 0b01014a     	add	w10, w10, w1
  106018: 0b0a0042     	add	w2, w2, w10
  10601c: 13896d2a     	ror	w10, w9, #0x1b
  106020: 0b02014a     	add	w10, w10, w2
  106024: 1388090c     	ror	w12, w8, #0x2
  106028: 4a0c01a2     	eor	w2, w13, w12
  10602c: 4a090042     	eor	w2, w2, w9
  106030: 0b0b0042     	add	w2, w2, w11
  106034: b9409008     	ldr	w8, [x0, #0x90]
  106038: 0b010108     	add	w8, w8, w1
  10603c: 0b080042     	add	w2, w2, w8
  106040: 138a6d48     	ror	w8, w10, #0x1b
  106044: 0b020108     	add	w8, w8, w2
  106048: 1389092b     	ror	w11, w9, #0x2
  10604c: 4a0b0182     	eor	w2, w12, w11
  106050: 4a0a0042     	eor	w2, w2, w10
  106054: 0b0d0042     	add	w2, w2, w13
  106058: b9409409     	ldr	w9, [x0, #0x94]
  10605c: 0b010129     	add	w9, w9, w1
  106060: 0b090042     	add	w2, w2, w9
  106064: 13886d09     	ror	w9, w8, #0x1b
  106068: 0b020129     	add	w9, w9, w2
  10606c: 138a094d     	ror	w13, w10, #0x2
  106070: 4a0d0162     	eor	w2, w11, w13
  106074: 4a080042     	eor	w2, w2, w8
  106078: 0b0c0042     	add	w2, w2, w12
  10607c: b940980a     	ldr	w10, [x0, #0x98]
  106080: 0b01014a     	add	w10, w10, w1
  106084: 0b0a0042     	add	w2, w2, w10
  106088: 13896d2a     	ror	w10, w9, #0x1b
  10608c: 0b02014a     	add	w10, w10, w2
  106090: 1388090c     	ror	w12, w8, #0x2
  106094: 4a0c01a2     	eor	w2, w13, w12
  106098: 4a090042     	eor	w2, w2, w9
  10609c: 0b0b0042     	add	w2, w2, w11
  1060a0: b9409c08     	ldr	w8, [x0, #0x9c]
  1060a4: 0b010108     	add	w8, w8, w1
  1060a8: 0b080042     	add	w2, w2, w8
  1060ac: 138a6d48     	ror	w8, w10, #0x1b
  1060b0: 0b020108     	add	w8, w8, w2
  1060b4: 1389092b     	ror	w11, w9, #0x2
  1060b8: 4a0b0182     	eor	w2, w12, w11
  1060bc: 4a0a0042     	eor	w2, w2, w10
  1060c0: 0b0d0042     	add	w2, w2, w13
  1060c4: b940a009     	ldr	w9, [x0, #0xa0]
  1060c8: 0b010129     	add	w9, w9, w1
  1060cc: 0b090042     	add	w2, w2, w9
  1060d0: 13886d09     	ror	w9, w8, #0x1b
  1060d4: 0b020129     	add	w9, w9, w2
  1060d8: 138a094d     	ror	w13, w10, #0x2
  1060dc: 4a0d0162     	eor	w2, w11, w13
  1060e0: 4a080042     	eor	w2, w2, w8
  1060e4: 0b0c0042     	add	w2, w2, w12
  1060e8: b940a40a     	ldr	w10, [x0, #0xa4]
  1060ec: 0b01014a     	add	w10, w10, w1
  1060f0: 0b0a0042     	add	w2, w2, w10
  1060f4: 13896d2a     	ror	w10, w9, #0x1b
  1060f8: 0b02014a     	add	w10, w10, w2
  1060fc: 1388090c     	ror	w12, w8, #0x2
  106100: 4a0c01a2     	eor	w2, w13, w12
  106104: 4a090042     	eor	w2, w2, w9
  106108: 0b0b0042     	add	w2, w2, w11
  10610c: b940a808     	ldr	w8, [x0, #0xa8]
  106110: 0b010108     	add	w8, w8, w1
  106114: 0b080042     	add	w2, w2, w8
  106118: 138a6d48     	ror	w8, w10, #0x1b
  10611c: 0b020108     	add	w8, w8, w2
  106120: 1389092b     	ror	w11, w9, #0x2
  106124: 4a0b0182     	eor	w2, w12, w11
  106128: 4a0a0042     	eor	w2, w2, w10
  10612c: 0b0d0042     	add	w2, w2, w13
  106130: b940ac09     	ldr	w9, [x0, #0xac]
  106134: 0b010129     	add	w9, w9, w1
  106138: 0b090042     	add	w2, w2, w9
  10613c: 13886d09     	ror	w9, w8, #0x1b
  106140: 0b020129     	add	w9, w9, w2
  106144: 138a094a     	ror	w10, w10, #0x2
  106148: 4a0a0162     	eor	w2, w11, w10
  10614c: 4a080042     	eor	w2, w2, w8
  106150: 0b0c0042     	add	w2, w2, w12
  106154: b940b00c     	ldr	w12, [x0, #0xb0]
  106158: 0b01018c     	add	w12, w12, w1
  10615c: 0b0c0042     	add	w2, w2, w12
  106160: 13896d2c     	ror	w12, w9, #0x1b
  106164: 0b020182     	add	w2, w12, w2
  106168: 1388090e     	ror	w14, w8, #0x2
  10616c: 4a0e0148     	eor	w8, w10, w14
  106170: 4a090108     	eor	w8, w8, w9
  106174: 0b0b0108     	add	w8, w8, w11
  106178: b940b40b     	ldr	w11, [x0, #0xb4]
  10617c: 0b01016b     	add	w11, w11, w1
  106180: 0b0b0108     	add	w8, w8, w11
  106184: 13826c4b     	ror	w11, w2, #0x1b
  106188: 0b08016b     	add	w11, w11, w8
  10618c: 1389092d     	ror	w13, w9, #0x2
  106190: 4a0d01c8     	eor	w8, w14, w13
  106194: 4a020108     	eor	w8, w8, w2
  106198: 0b0a0108     	add	w8, w8, w10
  10619c: b940b809     	ldr	w9, [x0, #0xb8]
  1061a0: 0b010129     	add	w9, w9, w1
  1061a4: 0b090108     	add	w8, w8, w9
  1061a8: 138b6d6a     	ror	w10, w11, #0x1b
  1061ac: 0b08014a     	add	w10, w10, w8
  1061b0: 1382084c     	ror	w12, w2, #0x2
  1061b4: 4a0c01a8     	eor	w8, w13, w12
  1061b8: 4a0b0108     	eor	w8, w8, w11
  1061bc: 0b0e0108     	add	w8, w8, w14
  1061c0: b940bc02     	ldr	w2, [x0, #0xbc]
  1061c4: 0b010041     	add	w1, w2, w1
  1061c8: 0b010101     	add	w1, w8, w1
  1061cc: 138a6d49     	ror	w9, w10, #0x1b
  1061d0: 0b010129     	add	w9, w9, w1
  1061d4: 138b096b     	ror	w11, w11, #0x2
  1061d8: 2a0b0182     	orr	w2, w12, w11
  1061dc: 0a0a0042     	and	w2, w2, w10
  1061e0: 0a0b0181     	and	w1, w12, w11
  1061e4: 2a010042     	orr	w2, w2, w1
  1061e8: 0b0d0042     	add	w2, w2, w13
  1061ec: b940c008     	ldr	w8, [x0, #0xc0]
  1061f0: 52979b81     	mov	w1, #0xbcdc             // =48348
  1061f4: 72b1e361     	movk	w1, #0x8f1b, lsl #16
  1061f8: 0b010108     	add	w8, w8, w1
  1061fc: 0b080042     	add	w2, w2, w8
  106200: 13896d28     	ror	w8, w9, #0x1b
  106204: 0b020108     	add	w8, w8, w2
  106208: 138a094a     	ror	w10, w10, #0x2
  10620c: 2a0a0162     	orr	w2, w11, w10
  106210: 0a090042     	and	w2, w2, w9
  106214: 0a0a016d     	and	w13, w11, w10
  106218: 2a0d0042     	orr	w2, w2, w13
  10621c: 0b0c0042     	add	w2, w2, w12
  106220: b940c40c     	ldr	w12, [x0, #0xc4]
  106224: 0b01018c     	add	w12, w12, w1
  106228: 0b0c0042     	add	w2, w2, w12
  10622c: 13886d0c     	ror	w12, w8, #0x1b
  106230: 0b02018c     	add	w12, w12, w2
  106234: 13890929     	ror	w9, w9, #0x2
  106238: 2a090142     	orr	w2, w10, w9
  10623c: 0a080042     	and	w2, w2, w8
  106240: 0a09014d     	and	w13, w10, w9
  106244: 2a0d0042     	orr	w2, w2, w13
  106248: 0b0b0042     	add	w2, w2, w11
  10624c: b940c80b     	ldr	w11, [x0, #0xc8]
  106250: 0b01016b     	add	w11, w11, w1
  106254: 0b0b0042     	add	w2, w2, w11
  106258: 138c6d8b     	ror	w11, w12, #0x1b
  10625c: 0b02016b     	add	w11, w11, w2
  106260: 13880908     	ror	w8, w8, #0x2
  106264: 2a080122     	orr	w2, w9, w8
  106268: 0a0c0042     	and	w2, w2, w12
  10626c: 0a08012d     	and	w13, w9, w8
  106270: 2a0d0042     	orr	w2, w2, w13
  106274: 0b0a0042     	add	w2, w2, w10
  106278: b940cc0a     	ldr	w10, [x0, #0xcc]
  10627c: 0b01014a     	add	w10, w10, w1
  106280: 0b0a0042     	add	w2, w2, w10
  106284: 138b6d6a     	ror	w10, w11, #0x1b
  106288: 0b02014a     	add	w10, w10, w2
  10628c: 138c098c     	ror	w12, w12, #0x2
  106290: 2a0c0102     	orr	w2, w8, w12
  106294: 0a0b0042     	and	w2, w2, w11
  106298: 0a0c010d     	and	w13, w8, w12
  10629c: 2a0d0042     	orr	w2, w2, w13
  1062a0: 0b090042     	add	w2, w2, w9
  1062a4: b940d009     	ldr	w9, [x0, #0xd0]
  1062a8: 0b010129     	add	w9, w9, w1
  1062ac: 0b090042     	add	w2, w2, w9
  1062b0: 138a6d49     	ror	w9, w10, #0x1b
  1062b4: 0b020129     	add	w9, w9, w2
  1062b8: 138b096b     	ror	w11, w11, #0x2
  1062bc: 2a0b0182     	orr	w2, w12, w11
  1062c0: 0a0a0042     	and	w2, w2, w10
  1062c4: 0a0b018d     	and	w13, w12, w11
  1062c8: 2a0d0042     	orr	w2, w2, w13
  1062cc: 0b080042     	add	w2, w2, w8
  1062d0: b940d408     	ldr	w8, [x0, #0xd4]
  1062d4: 0b010108     	add	w8, w8, w1
  1062d8: 0b080042     	add	w2, w2, w8
  1062dc: 13896d28     	ror	w8, w9, #0x1b
  1062e0: 0b020108     	add	w8, w8, w2
  1062e4: 138a094a     	ror	w10, w10, #0x2
  1062e8: 2a0a0162     	orr	w2, w11, w10
  1062ec: 0a090042     	and	w2, w2, w9
  1062f0: 0a0a016d     	and	w13, w11, w10
  1062f4: 2a0d0042     	orr	w2, w2, w13
  1062f8: 0b0c0042     	add	w2, w2, w12
  1062fc: b940d80c     	ldr	w12, [x0, #0xd8]
  106300: 0b01018c     	add	w12, w12, w1
  106304: 0b0c0042     	add	w2, w2, w12
  106308: 13886d0c     	ror	w12, w8, #0x1b
  10630c: 0b02018c     	add	w12, w12, w2
  106310: 13890929     	ror	w9, w9, #0x2
  106314: 2a090142     	orr	w2, w10, w9
  106318: 0a080042     	and	w2, w2, w8
  10631c: 0a09014d     	and	w13, w10, w9
  106320: 2a0d0042     	orr	w2, w2, w13
  106324: 0b0b0042     	add	w2, w2, w11
  106328: b940dc0b     	ldr	w11, [x0, #0xdc]
  10632c: 0b01016b     	add	w11, w11, w1
  106330: 0b0b0042     	add	w2, w2, w11
  106334: 138c6d8b     	ror	w11, w12, #0x1b
  106338: 0b02016b     	add	w11, w11, w2
  10633c: 13880908     	ror	w8, w8, #0x2
  106340: 2a080122     	orr	w2, w9, w8
  106344: 0a0c0042     	and	w2, w2, w12
  106348: 0a08012d     	and	w13, w9, w8
  10634c: 2a0d0042     	orr	w2, w2, w13
  106350: 0b0a0042     	add	w2, w2, w10
  106354: b940e00a     	ldr	w10, [x0, #0xe0]
  106358: 0b01014a     	add	w10, w10, w1
  10635c: 0b0a0042     	add	w2, w2, w10
  106360: 138b6d6a     	ror	w10, w11, #0x1b
  106364: 0b02014a     	add	w10, w10, w2
  106368: 138c098c     	ror	w12, w12, #0x2
  10636c: 2a0c0102     	orr	w2, w8, w12
  106370: 0a0b0042     	and	w2, w2, w11
  106374: 0a0c010d     	and	w13, w8, w12
  106378: 2a0d0042     	orr	w2, w2, w13
  10637c: 0b090042     	add	w2, w2, w9
  106380: b940e409     	ldr	w9, [x0, #0xe4]
  106384: 0b010129     	add	w9, w9, w1
  106388: 0b090042     	add	w2, w2, w9
  10638c: 138a6d49     	ror	w9, w10, #0x1b
  106390: 0b020129     	add	w9, w9, w2
  106394: 138b096b     	ror	w11, w11, #0x2
  106398: 2a0b0182     	orr	w2, w12, w11
  10639c: 0a0a0042     	and	w2, w2, w10
  1063a0: 0a0b018d     	and	w13, w12, w11
  1063a4: 2a0d0042     	orr	w2, w2, w13
  1063a8: 0b080042     	add	w2, w2, w8
  1063ac: b940e808     	ldr	w8, [x0, #0xe8]
  1063b0: 0b010108     	add	w8, w8, w1
  1063b4: 0b080042     	add	w2, w2, w8
  1063b8: 13896d28     	ror	w8, w9, #0x1b
  1063bc: 0b020108     	add	w8, w8, w2
  1063c0: 138a094a     	ror	w10, w10, #0x2
  1063c4: 2a0a0162     	orr	w2, w11, w10
  1063c8: 0a090042     	and	w2, w2, w9
  1063cc: 0a0a016d     	and	w13, w11, w10
  1063d0: 2a0d0042     	orr	w2, w2, w13
  1063d4: 0b0c0042     	add	w2, w2, w12
  1063d8: b940ec0c     	ldr	w12, [x0, #0xec]
  1063dc: 0b01018c     	add	w12, w12, w1
  1063e0: 0b0c0042     	add	w2, w2, w12
  1063e4: 13886d0c     	ror	w12, w8, #0x1b
  1063e8: 0b02018c     	add	w12, w12, w2
  1063ec: 13890929     	ror	w9, w9, #0x2
  1063f0: 2a090142     	orr	w2, w10, w9
  1063f4: 0a080042     	and	w2, w2, w8
  1063f8: 0a09014d     	and	w13, w10, w9
  1063fc: 2a0d0042     	orr	w2, w2, w13
  106400: 0b0b0042     	add	w2, w2, w11
  106404: b940f00b     	ldr	w11, [x0, #0xf0]
  106408: 0b01016b     	add	w11, w11, w1
  10640c: 0b0b0042     	add	w2, w2, w11
  106410: 138c6d8b     	ror	w11, w12, #0x1b
  106414: 0b02016b     	add	w11, w11, w2
  106418: 13880908     	ror	w8, w8, #0x2
  10641c: 2a080122     	orr	w2, w9, w8
  106420: 0a0c0042     	and	w2, w2, w12
  106424: 0a08012d     	and	w13, w9, w8
  106428: 2a0d0042     	orr	w2, w2, w13
  10642c: 0b0a0042     	add	w2, w2, w10
  106430: b940f40a     	ldr	w10, [x0, #0xf4]
  106434: 0b01014a     	add	w10, w10, w1
  106438: 0b0a0042     	add	w2, w2, w10
  10643c: 138b6d6a     	ror	w10, w11, #0x1b
  106440: 0b02014a     	add	w10, w10, w2
  106444: 138c098c     	ror	w12, w12, #0x2
  106448: 2a0c0102     	orr	w2, w8, w12
  10644c: 0a0b0042     	and	w2, w2, w11
  106450: 0a0c010d     	and	w13, w8, w12
  106454: 2a0d0042     	orr	w2, w2, w13
  106458: 0b090042     	add	w2, w2, w9
  10645c: b940f809     	ldr	w9, [x0, #0xf8]
  106460: 0b010129     	add	w9, w9, w1
  106464: 0b090042     	add	w2, w2, w9
  106468: 138a6d49     	ror	w9, w10, #0x1b
  10646c: 0b020129     	add	w9, w9, w2
  106470: 138b096b     	ror	w11, w11, #0x2
  106474: 2a0b0182     	orr	w2, w12, w11
  106478: 0a0a0042     	and	w2, w2, w10
  10647c: 0a0b018d     	and	w13, w12, w11
  106480: 2a0d0042     	orr	w2, w2, w13
  106484: 0b080042     	add	w2, w2, w8
  106488: b940fc08     	ldr	w8, [x0, #0xfc]
  10648c: 0b010108     	add	w8, w8, w1
  106490: 0b080042     	add	w2, w2, w8
  106494: 13896d28     	ror	w8, w9, #0x1b
  106498: 0b020108     	add	w8, w8, w2
  10649c: 138a094a     	ror	w10, w10, #0x2
  1064a0: 2a0a0162     	orr	w2, w11, w10
  1064a4: 0a090042     	and	w2, w2, w9
  1064a8: 0a0a016d     	and	w13, w11, w10
  1064ac: 2a0d0042     	orr	w2, w2, w13
  1064b0: 0b0c0042     	add	w2, w2, w12
  1064b4: b941000c     	ldr	w12, [x0, #0x100]
  1064b8: 0b01018c     	add	w12, w12, w1
  1064bc: 0b0c0042     	add	w2, w2, w12
  1064c0: 13886d0c     	ror	w12, w8, #0x1b
  1064c4: 0b02018c     	add	w12, w12, w2
  1064c8: 13890929     	ror	w9, w9, #0x2
  1064cc: 2a090142     	orr	w2, w10, w9
  1064d0: 0a080042     	and	w2, w2, w8
  1064d4: 0a09014d     	and	w13, w10, w9
  1064d8: 2a0d0042     	orr	w2, w2, w13
  1064dc: 0b0b0042     	add	w2, w2, w11
  1064e0: b941040b     	ldr	w11, [x0, #0x104]
  1064e4: 0b01016b     	add	w11, w11, w1
  1064e8: 0b0b0042     	add	w2, w2, w11
  1064ec: 138c6d8e     	ror	w14, w12, #0x1b
  1064f0: 0b0201ce     	add	w14, w14, w2
  1064f4: 13880908     	ror	w8, w8, #0x2
  1064f8: 2a080122     	orr	w2, w9, w8
  1064fc: 0a0c0042     	and	w2, w2, w12
  106500: 0a08012b     	and	w11, w9, w8
  106504: 2a0b0042     	orr	w2, w2, w11
  106508: 0b0a0042     	add	w2, w2, w10
  10650c: b941080a     	ldr	w10, [x0, #0x108]
  106510: 0b01014a     	add	w10, w10, w1
  106514: 0b0a0042     	add	w2, w2, w10
  106518: 138e6dcd     	ror	w13, w14, #0x1b
  10651c: 0b0201ad     	add	w13, w13, w2
  106520: 138c098c     	ror	w12, w12, #0x2
  106524: 2a0c0102     	orr	w2, w8, w12
  106528: 0a0e0042     	and	w2, w2, w14
  10652c: 0a0c010a     	and	w10, w8, w12
  106530: 2a0a0042     	orr	w2, w2, w10
  106534: 0b090042     	add	w2, w2, w9
  106538: b9410c09     	ldr	w9, [x0, #0x10c]
  10653c: 0b010121     	add	w1, w9, w1
  106540: 0b010041     	add	w1, w2, w1
  106544: 138d6dab     	ror	w11, w13, #0x1b
  106548: 0b01016b     	add	w11, w11, w1
  10654c: 138e09ce     	ror	w14, w14, #0x2
  106550: 4a0e0182     	eor	w2, w12, w14
  106554: 4a0d0042     	eor	w2, w2, w13
  106558: 0b080042     	add	w2, w2, w8
  10655c: b9411008     	ldr	w8, [x0, #0x110]
  106560: 52983ac1     	mov	w1, #0xc1d6             // =49622
  106564: 72b94c41     	movk	w1, #0xca62, lsl #16
  106568: 0b010108     	add	w8, w8, w1
  10656c: 0b080042     	add	w2, w2, w8
  106570: 138b6d6a     	ror	w10, w11, #0x1b
  106574: 0b02014a     	add	w10, w10, w2
  106578: 138d09ad     	ror	w13, w13, #0x2
  10657c: 4a0d01c2     	eor	w2, w14, w13
  106580: 4a0b0042     	eor	w2, w2, w11
  106584: 0b0c0042     	add	w2, w2, w12
  106588: b9411408     	ldr	w8, [x0, #0x114]
  10658c: 0b010108     	add	w8, w8, w1
  106590: 0b080042     	add	w2, w2, w8
  106594: 138a6d49     	ror	w9, w10, #0x1b
  106598: 0b020129     	add	w9, w9, w2
  10659c: 138b096b     	ror	w11, w11, #0x2
  1065a0: 4a0b01a2     	eor	w2, w13, w11
  1065a4: 4a0a0042     	eor	w2, w2, w10
  1065a8: 0b0e0042     	add	w2, w2, w14
  1065ac: b9411808     	ldr	w8, [x0, #0x118]
  1065b0: 0b010108     	add	w8, w8, w1
  1065b4: 0b080042     	add	w2, w2, w8
  1065b8: 13896d28     	ror	w8, w9, #0x1b
  1065bc: 0b020108     	add	w8, w8, w2
  1065c0: 138a094e     	ror	w14, w10, #0x2
  1065c4: 4a0e0162     	eor	w2, w11, w14
  1065c8: 4a090042     	eor	w2, w2, w9
  1065cc: 0b0d0042     	add	w2, w2, w13
  1065d0: b9411c0a     	ldr	w10, [x0, #0x11c]
  1065d4: 0b01014a     	add	w10, w10, w1
  1065d8: 0b0a0042     	add	w2, w2, w10
  1065dc: 13886d0a     	ror	w10, w8, #0x1b
  1065e0: 0b02014a     	add	w10, w10, w2
  1065e4: 1389092c     	ror	w12, w9, #0x2
  1065e8: 4a0c01c2     	eor	w2, w14, w12
  1065ec: 4a080042     	eor	w2, w2, w8
  1065f0: 0b0b0042     	add	w2, w2, w11
  1065f4: b9412009     	ldr	w9, [x0, #0x120]
  1065f8: 0b010129     	add	w9, w9, w1
  1065fc: 0b090042     	add	w2, w2, w9
  106600: 138a6d49     	ror	w9, w10, #0x1b
  106604: 0b020129     	add	w9, w9, w2
  106608: 1388090d     	ror	w13, w8, #0x2
  10660c: 4a0d0182     	eor	w2, w12, w13
  106610: 4a0a0042     	eor	w2, w2, w10
  106614: 0b0e0042     	add	w2, w2, w14
  106618: b9412408     	ldr	w8, [x0, #0x124]
  10661c: 0b010108     	add	w8, w8, w1
  106620: 0b080042     	add	w2, w2, w8
  106624: 13896d28     	ror	w8, w9, #0x1b
  106628: 0b020108     	add	w8, w8, w2
  10662c: 138a094b     	ror	w11, w10, #0x2
  106630: 4a0b01a2     	eor	w2, w13, w11
  106634: 4a090042     	eor	w2, w2, w9
  106638: 0b0c0042     	add	w2, w2, w12
  10663c: b941280a     	ldr	w10, [x0, #0x128]
  106640: 0b01014a     	add	w10, w10, w1
  106644: 0b0a0042     	add	w2, w2, w10
  106648: 13886d0a     	ror	w10, w8, #0x1b
  10664c: 0b02014a     	add	w10, w10, w2
  106650: 1389092c     	ror	w12, w9, #0x2
  106654: 4a0c0162     	eor	w2, w11, w12
  106658: 4a080042     	eor	w2, w2, w8
  10665c: 0b0d0042     	add	w2, w2, w13
  106660: b9412c09     	ldr	w9, [x0, #0x12c]
  106664: 0b010129     	add	w9, w9, w1
  106668: 0b090042     	add	w2, w2, w9
  10666c: 138a6d49     	ror	w9, w10, #0x1b
  106670: 0b020129     	add	w9, w9, w2
  106674: 1388090d     	ror	w13, w8, #0x2
  106678: 4a0d0182     	eor	w2, w12, w13
  10667c: 4a0a0042     	eor	w2, w2, w10
  106680: 0b0b0042     	add	w2, w2, w11
  106684: b9413008     	ldr	w8, [x0, #0x130]
  106688: 0b010108     	add	w8, w8, w1
  10668c: 0b080042     	add	w2, w2, w8
  106690: 13896d28     	ror	w8, w9, #0x1b
  106694: 0b020108     	add	w8, w8, w2
  106698: 138a094b     	ror	w11, w10, #0x2
  10669c: 4a0b01a2     	eor	w2, w13, w11
  1066a0: 4a090042     	eor	w2, w2, w9
  1066a4: 0b0c0042     	add	w2, w2, w12
  1066a8: b941340a     	ldr	w10, [x0, #0x134]
  1066ac: 0b01014a     	add	w10, w10, w1
  1066b0: 0b0a0042     	add	w2, w2, w10
  1066b4: 13886d0a     	ror	w10, w8, #0x1b
  1066b8: 0b02014a     	add	w10, w10, w2
  1066bc: 1389092c     	ror	w12, w9, #0x2
  1066c0: 4a0c0162     	eor	w2, w11, w12
  1066c4: 4a080042     	eor	w2, w2, w8
  1066c8: 0b0d0042     	add	w2, w2, w13
  1066cc: b9413809     	ldr	w9, [x0, #0x138]
  1066d0: 0b010129     	add	w9, w9, w1
  1066d4: 0b090042     	add	w2, w2, w9
  1066d8: 138a6d49     	ror	w9, w10, #0x1b
  1066dc: 0b020129     	add	w9, w9, w2
  1066e0: 1388090d     	ror	w13, w8, #0x2
  1066e4: 4a0d0182     	eor	w2, w12, w13
  1066e8: 4a0a0042     	eor	w2, w2, w10
  1066ec: 0b0b0042     	add	w2, w2, w11
  1066f0: b9413c08     	ldr	w8, [x0, #0x13c]
  1066f4: 0b010108     	add	w8, w8, w1
  1066f8: 0b080042     	add	w2, w2, w8
  1066fc: 13896d28     	ror	w8, w9, #0x1b
  106700: 0b020108     	add	w8, w8, w2
  106704: 138a094b     	ror	w11, w10, #0x2
  106708: 4a0b01a2     	eor	w2, w13, w11
  10670c: 4a090042     	eor	w2, w2, w9
  106710: 0b0c0042     	add	w2, w2, w12
  106714: b941400a     	ldr	w10, [x0, #0x140]
  106718: 0b01014a     	add	w10, w10, w1
  10671c: 0b0a0042     	add	w2, w2, w10
  106720: 13886d0a     	ror	w10, w8, #0x1b
  106724: 0b02014a     	add	w10, w10, w2
  106728: 1389092c     	ror	w12, w9, #0x2
  10672c: 4a0c0162     	eor	w2, w11, w12
  106730: 4a080042     	eor	w2, w2, w8
  106734: 0b0d0042     	add	w2, w2, w13
  106738: b9414409     	ldr	w9, [x0, #0x144]
  10673c: 0b010129     	add	w9, w9, w1
  106740: 0b090042     	add	w2, w2, w9
  106744: 138a6d49     	ror	w9, w10, #0x1b
  106748: 0b020129     	add	w9, w9, w2
  10674c: 1388090d     	ror	w13, w8, #0x2
  106750: 4a0d0182     	eor	w2, w12, w13
  106754: 4a0a0042     	eor	w2, w2, w10
  106758: 0b0b0042     	add	w2, w2, w11
  10675c: b9414808     	ldr	w8, [x0, #0x148]
  106760: 0b010108     	add	w8, w8, w1
  106764: 0b080042     	add	w2, w2, w8
  106768: 13896d28     	ror	w8, w9, #0x1b
  10676c: 0b020108     	add	w8, w8, w2
  106770: 138a094b     	ror	w11, w10, #0x2
  106774: 4a0b01a2     	eor	w2, w13, w11
  106778: 4a090042     	eor	w2, w2, w9
  10677c: 0b0c0042     	add	w2, w2, w12
  106780: b9414c0a     	ldr	w10, [x0, #0x14c]
  106784: 0b01014a     	add	w10, w10, w1
  106788: 0b0a0042     	add	w2, w2, w10
  10678c: 13886d0a     	ror	w10, w8, #0x1b
  106790: 0b02014a     	add	w10, w10, w2
  106794: 1389092c     	ror	w12, w9, #0x2
  106798: 4a0c0162     	eor	w2, w11, w12
  10679c: 4a080042     	eor	w2, w2, w8
  1067a0: 0b0d0042     	add	w2, w2, w13
  1067a4: b9415009     	ldr	w9, [x0, #0x150]
  1067a8: 0b010129     	add	w9, w9, w1
  1067ac: 0b090042     	add	w2, w2, w9
  1067b0: 138a6d49     	ror	w9, w10, #0x1b
  1067b4: 0b020129     	add	w9, w9, w2
  1067b8: 13880908     	ror	w8, w8, #0x2
  1067bc: 4a080182     	eor	w2, w12, w8
  1067c0: 4a0a0042     	eor	w2, w2, w10
  1067c4: 0b0b0042     	add	w2, w2, w11
  1067c8: b941540b     	ldr	w11, [x0, #0x154]
  1067cc: 0b01016b     	add	w11, w11, w1
  1067d0: 0b0b0042     	add	w2, w2, w11
  1067d4: 13896d2b     	ror	w11, w9, #0x1b
  1067d8: 0b020162     	add	w2, w11, w2
  1067dc: 138a094b     	ror	w11, w10, #0x2
  1067e0: 4a0b010a     	eor	w10, w8, w11
  1067e4: 4a09014a     	eor	w10, w10, w9
  1067e8: 0b0c014a     	add	w10, w10, w12
  1067ec: b941580c     	ldr	w12, [x0, #0x158]
  1067f0: 0b01018c     	add	w12, w12, w1
  1067f4: 0b0c014a     	add	w10, w10, w12
  1067f8: 13826c4c     	ror	w12, w2, #0x1b
  1067fc: 0b0a018c     	add	w12, w12, w10
  106800: 13890929     	ror	w9, w9, #0x2
  106804: 4a09016a     	eor	w10, w11, w9
  106808: 4a02014a     	eor	w10, w10, w2
  10680c: 138c6d8d     	ror	w13, w12, #0x1b
  106810: 0b0d014a     	add	w10, w10, w13
  106814: b9415c0d     	ldr	w13, [x0, #0x15c]
  106818: 0b0d0063     	add	w3, w3, w13
  10681c: 0b010101     	add	w1, w8, w1
  106820: 0b010061     	add	w1, w3, w1
  106824: 0b010141     	add	w1, w10, w1
  106828: b9000001     	str	w1, [x0]
  10682c: 0b0c00c6     	add	w6, w6, w12
  106830: b9000406     	str	w6, [x0, #0x4]
  106834: 13820842     	ror	w2, w2, #0x2
  106838: 0b050045     	add	w5, w2, w5
  10683c: b9000805     	str	w5, [x0, #0x8]
  106840: 0b090089     	add	w9, w4, w9
  106844: b9000c09     	str	w9, [x0, #0xc]
  106848: 0b0b00e7     	add	w7, w7, w11
  10684c: b9001007     	str	w7, [x0, #0x10]
  106850: 52800000     	mov	w0, #0x0                // =0
  106854: d65f03c0     	ret
  106858: a9bd7bfd     	stp	x29, x30, [sp, #-0x30]!
  10685c: 910003fd     	mov	x29, sp
  106860: a90153f3     	stp	x19, x20, [sp, #0x10]
  106864: f90013f5     	str	x21, [sp, #0x20]
  106868: aa0003f3     	mov	x19, x0
  10686c: aa0103f4     	mov	x20, x1
  106870: 8b224835     	add	x21, x1, w2, uxtw #2
  106874: 14000003     	b	0x106880 <_binary_BootROM_ums512_0x100000_0x111FFF_bin_start+0x6880>
  106878: 7100403f     	cmp	w1, #0x10
  10687c: 54000220     	b.eq	0x1068c0 <_binary_BootROM_ums512_0x100000_0x111FFF_bin_start+0x68c0>
  106880: eb15029f     	cmp	x20, x21
  106884: 54000260     	b.eq	0x1068d0 <_binary_BootROM_ums512_0x100000_0x111FFF_bin_start+0x68d0>
  106888: b9401e60     	ldr	w0, [x19, #0x1c]
  10688c: 11000401     	add	w1, w0, #0x1
  106890: b9001e61     	str	w1, [x19, #0x1c]
  106894: b8404682     	ldr	w2, [x20], #0x4
  106898: 8b204a60     	add	x0, x19, w0, uxtw #2
  10689c: b9002002     	str	w2, [x0, #0x20]
  1068a0: b9401660     	ldr	w0, [x19, #0x14]
  1068a4: 11008000     	add	w0, w0, #0x20
  1068a8: b9001660     	str	w0, [x19, #0x14]
  1068ac: 35fffe60     	cbnz	w0, 0x106878 <_binary_BootROM_ums512_0x100000_0x111FFF_bin_start+0x6878>
  1068b0: b9401a60     	ldr	w0, [x19, #0x18]
  1068b4: 11000400     	add	w0, w0, #0x1
  1068b8: b9001a60     	str	w0, [x19, #0x18]
  1068bc: 17ffffef     	b	0x106878 <_binary_BootROM_ums512_0x100000_0x111FFF_bin_start+0x6878>
  1068c0: aa1303e0     	mov	x0, x19
  1068c4: 97fffcb2     	bl	0x105b8c <_binary_BootROM_ums512_0x100000_0x111FFF_bin_start+0x5b8c>
  1068c8: b9001e7f     	str	wzr, [x19, #0x1c]
  1068cc: 17ffffed     	b	0x106880 <_binary_BootROM_ums512_0x100000_0x111FFF_bin_start+0x6880>
  1068d0: 52800000     	mov	w0, #0x0                // =0
  1068d4: a94153f3     	ldp	x19, x20, [sp, #0x10]
  1068d8: f94013f5     	ldr	x21, [sp, #0x20]
  1068dc: a8c37bfd     	ldp	x29, x30, [sp], #0x30
  1068e0: d65f03c0     	ret
  1068e4: a9be7bfd     	stp	x29, x30, [sp, #-0x20]!
  1068e8: 910003fd     	mov	x29, sp
  1068ec: f9000bf3     	str	x19, [sp, #0x10]
  1068f0: aa0003f3     	mov	x19, x0
  1068f4: b9401c03     	ldr	w3, [x0, #0x1c]
  1068f8: 11000462     	add	w2, w3, #0x1
  1068fc: 8b234800     	add	x0, x0, w3, uxtw #2
  106900: 52b00001     	mov	w1, #-0x80000000        // =-2147483648
  106904: b9002001     	str	w1, [x0, #0x20]
  106908: 71003c5f     	cmp	w2, #0xf
  10690c: 54000188     	b.hi	0x10693c <_binary_BootROM_ums512_0x100000_0x111FFF_bin_start+0x693c>
  106910: 2a0203e4     	mov	w4, w2
  106914: 8b040a60     	add	x0, x19, x4, lsl #2
  106918: 528001c1     	mov	w1, #0xe                // =14
  10691c: 4b030021     	sub	w1, w1, w3
  106920: 8b040021     	add	x1, x1, x4
  106924: 91000421     	add	x1, x1, #0x1
  106928: 8b010a61     	add	x1, x19, x1, lsl #2
  10692c: b900201f     	str	wzr, [x0, #0x20]
  106930: 91001000     	add	x0, x0, #0x4
  106934: eb01001f     	cmp	x0, x1
  106938: 54ffffa1     	b.ne	0x10692c <_binary_BootROM_ums512_0x100000_0x111FFF_bin_start+0x692c>
  10693c: 7100385f     	cmp	w2, #0xe
  106940: 54000168     	b.hi	0x10696c <_binary_BootROM_ums512_0x100000_0x111FFF_bin_start+0x696c>
  106944: b9401a60     	ldr	w0, [x19, #0x18]
  106948: b9005a60     	str	w0, [x19, #0x58]
  10694c: b9401660     	ldr	w0, [x19, #0x14]
  106950: b9005e60     	str	w0, [x19, #0x5c]
  106954: aa1303e0     	mov	x0, x19
  106958: 97fffc8d     	bl	0x105b8c <_binary_BootROM_ums512_0x100000_0x111FFF_bin_start+0x5b8c>
  10695c: 52800000     	mov	w0, #0x0                // =0
  106960: f9400bf3     	ldr	x19, [sp, #0x10]
  106964: a8c27bfd     	ldp	x29, x30, [sp], #0x20
  106968: d65f03c0     	ret
  10696c: aa1303e0     	mov	x0, x19
  106970: 97fffc87     	bl	0x105b8c <_binary_BootROM_ums512_0x100000_0x111FFF_bin_start+0x5b8c>
  106974: 91008260     	add	x0, x19, #0x20
  106978: 91016261     	add	x1, x19, #0x58
  10697c: b800441f     	str	wzr, [x0], #0x4
  106980: eb01001f     	cmp	x0, x1
  106984: 54ffffc1     	b.ne	0x10697c <_binary_BootROM_ums512_0x100000_0x111FFF_bin_start+0x697c>
  106988: 17ffffef     	b	0x106944 <_binary_BootROM_ums512_0x100000_0x111FFF_bin_start+0x6944>
  10698c: a9be7bfd     	stp	x29, x30, [sp, #-0x20]!
  106990: 910003fd     	mov	x29, sp
  106994: a90153f3     	stp	x19, x20, [sp, #0x10]
  106998: aa0003f3     	mov	x19, x0
  10699c: aa0103f4     	mov	x20, x1
  1069a0: 97ffffd1     	bl	0x1068e4 <_binary_BootROM_ums512_0x100000_0x111FFF_bin_start+0x68e4>
  1069a4: 91008260     	add	x0, x19, #0x20
  1069a8: 91018261     	add	x1, x19, #0x60
  1069ac: b800441f     	str	wzr, [x0], #0x4
  1069b0: eb01001f     	cmp	x0, x1
  1069b4: 54ffffc1     	b.ne	0x1069ac <_binary_BootROM_ums512_0x100000_0x111FFF_bin_start+0x69ac>
  1069b8: b900167f     	str	wzr, [x19, #0x14]
  1069bc: b9001a7f     	str	wzr, [x19, #0x18]
  1069c0: d2800000     	mov	x0, #0x0                // =0
  1069c4: 13027c03     	asr	w3, w0, #2
  1069c8: 2a2003e1     	mvn	w1, w0
  1069cc: 531d0422     	ubfiz	w2, w1, #3, #2
  1069d0: b863da61     	ldr	w1, [x19, w3, sxtw #2]
  1069d4: 1ac22421     	lsr	w1, w1, w2
  1069d8: 38206a81     	strb	w1, [x20, x0]
  1069dc: 91000400     	add	x0, x0, #0x1
  1069e0: f100501f     	cmp	x0, #0x14
  1069e4: 54ffff01     	b.ne	0x1069c4 <_binary_BootROM_ums512_0x100000_0x111FFF_bin_start+0x69c4>
  1069e8: 52800000     	mov	w0, #0x0                // =0
  1069ec: a94153f3     	ldp	x19, x20, [sp, #0x10]
  1069f0: a8c27bfd     	ldp	x29, x30, [sp], #0x20
  1069f4: d65f03c0     	ret
  1069f8: f100003f     	cmp	x1, #0x0
  1069fc: fa401864     	ccmp	x3, #0x0, #0x4, ne
  106a00: 54000061     	b.ne	0x106a0c <_binary_BootROM_ums512_0x100000_0x111FFF_bin_start+0x6a0c>
  106a04: 129fff00     	mov	w0, #-0xfff9            // =-65529
  106a08: d65f03c0     	ret
  106a0c: a9b57bfd     	stp	x29, x30, [sp, #-0xb0]!
  106a10: 910003fd     	mov	x29, sp
  106a14: a90153f3     	stp	x19, x20, [sp, #0x10]
  106a18: a9025bf5     	stp	x21, x22, [sp, #0x20]
  106a1c: a90363f7     	stp	x23, x24, [sp, #0x30]
  106a20: a9046bf9     	stp	x25, x26, [sp, #0x40]
  106a24: a90573fb     	stp	x27, x28, [sp, #0x50]
  106a28: 2a0003e5     	mov	w5, w0
  106a2c: aa0203f8     	mov	x24, x2
  106a30: aa0303f4     	mov	x20, x3
  106a34: aa0403f3     	mov	x19, x4
  106a38: 529fffc2     	mov	w2, #0xfffe             // =65534
  106a3c: 72bfbfe2     	movk	w2, #0xfdff, lsl #16
  106a40: 0b020002     	add	w2, w0, w2
  106a44: 129fff00     	mov	w0, #-0xfff9            // =-65529
  106a48: 7100085f     	cmp	w2, #0x2
  106a4c: 54000109     	b.ls	0x106a6c <_binary_BootROM_ums512_0x100000_0x111FFF_bin_start+0x6a6c>
  106a50: a94153f3     	ldp	x19, x20, [sp, #0x10]
  106a54: a9425bf5     	ldp	x21, x22, [sp, #0x20]
  106a58: a94363f7     	ldp	x23, x24, [sp, #0x30]
  106a5c: a9446bf9     	ldp	x25, x26, [sp, #0x40]
  106a60: a94573fb     	ldp	x27, x28, [sp, #0x50]
  106a64: a8cb7bfd     	ldp	x29, x30, [sp], #0xb0
  106a68: d65f03c0     	ret
  106a6c: 52800020     	mov	w0, #0x1                // =1
  106a70: 72a04000     	movk	w0, #0x200, lsl #16
  106a74: 6b0000bf     	cmp	w5, w0
  106a78: 54000300     	b.eq	0x106ad8 <_binary_BootROM_ums512_0x100000_0x111FFF_bin_start+0x6ad8>
  106a7c: 11000400     	add	w0, w0, #0x1
  106a80: 6b0000bf     	cmp	w5, w0
  106a84: 54000720     	b.eq	0x106b68 <_binary_BootROM_ums512_0x100000_0x111FFF_bin_start+0x6b68>
  106a88: 11000400     	add	w0, w0, #0x1
  106a8c: 6b0000bf     	cmp	w5, w0
  106a90: 54000700     	b.eq	0x106b70 <_binary_BootROM_ums512_0x100000_0x111FFF_bin_start+0x6b70>
  106a94: 11000400     	add	w0, w0, #0x1
  106a98: 6b0000bf     	cmp	w5, w0
  106a9c: 540006e0     	b.eq	0x106b78 <_binary_BootROM_ums512_0x100000_0x111FFF_bin_start+0x6b78>
  106aa0: 11000400     	add	w0, w0, #0x1
  106aa4: 6b0000bf     	cmp	w5, w0
  106aa8: 540006c0     	b.eq	0x106b80 <_binary_BootROM_ums512_0x100000_0x111FFF_bin_start+0x6b80>
  106aac: 11000400     	add	w0, w0, #0x1
  106ab0: 6b0000bf     	cmp	w5, w0
  106ab4: 540006a0     	b.eq	0x106b88 <_binary_BootROM_ums512_0x100000_0x111FFF_bin_start+0x6b88>
  106ab8: 11000400     	add	w0, w0, #0x1
  106abc: 6b0000bf     	cmp	w5, w0
  106ac0: 54000680     	b.eq	0x106b90 <_binary_BootROM_ums512_0x100000_0x111FFF_bin_start+0x6b90>
  106ac4: 11000400     	add	w0, w0, #0x1
  106ac8: 6b0000bf     	cmp	w5, w0
  106acc: 9a9f17f5     	cset	x21, eq
  106ad0: d37beab5     	lsl	x21, x21, #5
  106ad4: 14000002     	b	0x106adc <_binary_BootROM_ums512_0x100000_0x111FFF_bin_start+0x6adc>
  106ad8: d2800215     	mov	x21, #0x10              // =16
  106adc: aa1803e2     	mov	x2, x24
  106ae0: 9101a3a0     	add	x0, x29, #0x68
  106ae4: 94000860     	bl	0x108c64 <_binary_BootROM_ums512_0x100000_0x111FFF_bin_start+0x8c64>
  106ae8: b4000593     	cbz	x19, 0x106b98 <_binary_BootROM_ums512_0x100000_0x111FFF_bin_start+0x6b98>
  106aec: 52800017     	mov	w23, #0x0               // =0
  106af0: 9101a3b9     	add	x25, x29, #0x68
  106af4: 9101a7bc     	add	x28, x29, #0x69
  106af8: 9101abbb     	add	x27, x29, #0x6a
  106afc: 9101afba     	add	x26, x29, #0x6b
  106b00: 910243b6     	add	x22, x29, #0x90
  106b04: 53187ee0     	lsr	w0, w23, #24
  106b08: 38386b20     	strb	w0, [x25, x24]
  106b0c: 53107ee0     	lsr	w0, w23, #16
  106b10: 38386b80     	strb	w0, [x28, x24]
  106b14: 53087ee0     	lsr	w0, w23, #8
  106b18: 38386b60     	strb	w0, [x27, x24]
  106b1c: 38386b57     	strb	w23, [x26, x24]
  106b20: 110006f7     	add	w23, w23, #0x1
  106b24: aa1603e2     	mov	x2, x22
  106b28: 11001301     	add	w1, w24, #0x4
  106b2c: aa1903e0     	mov	x0, x25
  106b30: 9400051a     	bl	0x107f98 <_binary_BootROM_ums512_0x100000_0x111FFF_bin_start+0x7f98>
  106b34: f10002bf     	cmp	x21, #0x0
  106b38: fa401a64     	ccmp	x19, #0x0, #0x4, ne
  106b3c: 54000100     	b.eq	0x106b5c <_binary_BootROM_ums512_0x100000_0x111FFF_bin_start+0x6b5c>
  106b40: d2800000     	mov	x0, #0x0                // =0
  106b44: 38766801     	ldrb	w1, [x0, x22]
  106b48: 38001681     	strb	w1, [x20], #0x1
  106b4c: 91000400     	add	x0, x0, #0x1
  106b50: f1000673     	subs	x19, x19, #0x1
  106b54: fa4012a0     	ccmp	x21, x0, #0x0, ne
  106b58: 54ffff68     	b.hi	0x106b44 <_binary_BootROM_ums512_0x100000_0x111FFF_bin_start+0x6b44>
  106b5c: b5fffd53     	cbnz	x19, 0x106b04 <_binary_BootROM_ums512_0x100000_0x111FFF_bin_start+0x6b04>
  106b60: 52800000     	mov	w0, #0x0                // =0
  106b64: 17ffffbb     	b	0x106a50 <_binary_BootROM_ums512_0x100000_0x111FFF_bin_start+0x6a50>
  106b68: d2800295     	mov	x21, #0x14              // =20
  106b6c: 17ffffdc     	b	0x106adc <_binary_BootROM_ums512_0x100000_0x111FFF_bin_start+0x6adc>
  106b70: d2800395     	mov	x21, #0x1c              // =28
  106b74: 17ffffda     	b	0x106adc <_binary_BootROM_ums512_0x100000_0x111FFF_bin_start+0x6adc>
  106b78: d2800415     	mov	x21, #0x20              // =32
  106b7c: 17ffffd8     	b	0x106adc <_binary_BootROM_ums512_0x100000_0x111FFF_bin_start+0x6adc>
  106b80: d2800615     	mov	x21, #0x30              // =48
  106b84: 17ffffd6     	b	0x106adc <_binary_BootROM_ums512_0x100000_0x111FFF_bin_start+0x6adc>
  106b88: d2800815     	mov	x21, #0x40              // =64
  106b8c: 17ffffd4     	b	0x106adc <_binary_BootROM_ums512_0x100000_0x111FFF_bin_start+0x6adc>
  106b90: d2800395     	mov	x21, #0x1c              // =28
  106b94: 17ffffd2     	b	0x106adc <_binary_BootROM_ums512_0x100000_0x111FFF_bin_start+0x6adc>
  106b98: 52800000     	mov	w0, #0x0                // =0
  106b9c: 17ffffad     	b	0x106a50 <_binary_BootROM_ums512_0x100000_0x111FFF_bin_start+0x6a50>
  106ba0: d11243ff     	sub	sp, sp, #0x490
  106ba4: a9007bfd     	stp	x29, x30, [sp]
  106ba8: 910003fd     	mov	x29, sp
  106bac: a90153f3     	stp	x19, x20, [sp, #0x10]
  106bb0: a9025bf5     	stp	x21, x22, [sp, #0x20]
  106bb4: a90363f7     	stp	x23, x24, [sp, #0x30]
  106bb8: a9046bf9     	stp	x25, x26, [sp, #0x40]
  106bbc: a90573fb     	stp	x27, x28, [sp, #0x50]
  106bc0: f9424bb3     	ldr	x19, [x29, #0x490]
  106bc4: f100001f     	cmp	x0, #0x0
  106bc8: fa401a64     	ccmp	x19, #0x0, #0x4, ne
  106bcc: 129fff14     	mov	w20, #-0xfff9           // =-65529
  106bd0: 54000141     	b.ne	0x106bf8 <_binary_BootROM_ums512_0x100000_0x111FFF_bin_start+0x6bf8>
  106bd4: 2a1403e0     	mov	w0, w20
  106bd8: a94153f3     	ldp	x19, x20, [sp, #0x10]
  106bdc: a9425bf5     	ldp	x21, x22, [sp, #0x20]
  106be0: a94363f7     	ldp	x23, x24, [sp, #0x30]
  106be4: a9446bf9     	ldp	x25, x26, [sp, #0x40]
  106be8: a94573fb     	ldp	x27, x28, [sp, #0x50]
  106bec: a9407bfd     	ldp	x29, x30, [sp]
  106bf0: 911243ff     	add	sp, sp, #0x490
  106bf4: d65f03c0     	ret
  106bf8: 12800008     	mov	w8, #-0x1               // =-1
  106bfc: b9000268     	str	w8, [x19]
  106c00: 529fffc8     	mov	w8, #0xfffe             // =65534
  106c04: 72bfbfe8     	movk	w8, #0xfdff, lsl #16
  106c08: 0b0800a8     	add	w8, w5, w8
  106c0c: 129fff14     	mov	w20, #-0xfff9           // =-65529
  106c10: 7100091f     	cmp	w8, #0x2
  106c14: 54fffe08     	b.hi	0x106bd4 <_binary_BootROM_ums512_0x100000_0x111FFF_bin_start+0x6bd4>
  106c18: 52800028     	mov	w8, #0x1                // =1
  106c1c: 72a04008     	movk	w8, #0x200, lsl #16
  106c20: 6b0800bf     	cmp	w5, w8
  106c24: 54000300     	b.eq	0x106c84 <_binary_BootROM_ums512_0x100000_0x111FFF_bin_start+0x6c84>
  106c28: 11000508     	add	w8, w8, #0x1
  106c2c: 6b0800bf     	cmp	w5, w8
  106c30: 54000c00     	b.eq	0x106db0 <_binary_BootROM_ums512_0x100000_0x111FFF_bin_start+0x6db0>
  106c34: 11000508     	add	w8, w8, #0x1
  106c38: 6b0800bf     	cmp	w5, w8
  106c3c: 54000be0     	b.eq	0x106db8 <_binary_BootROM_ums512_0x100000_0x111FFF_bin_start+0x6db8>
  106c40: 11000508     	add	w8, w8, #0x1
  106c44: 6b0800bf     	cmp	w5, w8
  106c48: 54000bc0     	b.eq	0x106dc0 <_binary_BootROM_ums512_0x100000_0x111FFF_bin_start+0x6dc0>
  106c4c: 11000508     	add	w8, w8, #0x1
  106c50: 6b0800bf     	cmp	w5, w8
  106c54: 54000ba0     	b.eq	0x106dc8 <_binary_BootROM_ums512_0x100000_0x111FFF_bin_start+0x6dc8>
  106c58: 11000508     	add	w8, w8, #0x1
  106c5c: 6b0800bf     	cmp	w5, w8
  106c60: 54000b80     	b.eq	0x106dd0 <_binary_BootROM_ums512_0x100000_0x111FFF_bin_start+0x6dd0>
  106c64: 11000508     	add	w8, w8, #0x1
  106c68: 6b0800bf     	cmp	w5, w8
  106c6c: 54000b60     	b.eq	0x106dd8 <_binary_BootROM_ums512_0x100000_0x111FFF_bin_start+0x6dd8>
  106c70: 11000508     	add	w8, w8, #0x1
  106c74: 6b0800bf     	cmp	w5, w8
  106c78: 1a9f17f8     	cset	w24, eq
  106c7c: 531b6b18     	lsl	w24, w24, #5
  106c80: 14000002     	b	0x106c88 <_binary_BootROM_ums512_0x100000_0x111FFF_bin_start+0x6c88>
  106c84: 52800218     	mov	w24, #0x10              // =16
  106c88: 510004f5     	sub	w21, w7, #0x1
  106c8c: f2400abf     	tst	x21, #0x7
  106c90: 53037eb7     	lsr	w23, w21, #3
  106c94: 1a9706f7     	cinc	w23, w23, ne
  106c98: 129fff14     	mov	w20, #-0xfff9           // =-65529
  106c9c: 6b0402ff     	cmp	w23, w4
  106ca0: 54fff9a3     	b.lo	0x106bd4 <_binary_BootROM_ums512_0x100000_0x111FFF_bin_start+0x6bd4>
  106ca4: 11000885     	add	w5, w4, #0x2
  106ca8: 0b1800a5     	add	w5, w5, w24
  106cac: 6b0502ff     	cmp	w23, w5
  106cb0: 54fff923     	b.lo	0x106bd4 <_binary_BootROM_ums512_0x100000_0x111FFF_bin_start+0x6bd4>
  106cb4: 51000463     	sub	w3, w3, #0x1
  106cb8: 38634843     	ldrb	w3, [x2, w3, uxtw]
  106cbc: 129ffef4     	mov	w20, #-0xfff8           // =-65528
  106cc0: 7102f07f     	cmp	w3, #0xbc
  106cc4: 54fff881     	b.ne	0x106bd4 <_binary_BootROM_ums512_0x100000_0x111FFF_bin_start+0x6bd4>
  106cc8: b90067a6     	str	w6, [x29, #0x64]
  106ccc: 2a0403f6     	mov	w22, w4
  106cd0: aa0203f4     	mov	x20, x2
  106cd4: 2a0103fc     	mov	w28, w1
  106cd8: f90037a0     	str	x0, [x29, #0x68]
  106cdc: 510006f9     	sub	w25, w23, #0x1
  106ce0: 4b180339     	sub	w25, w25, w24
  106ce4: 2a1903fb     	mov	w27, w25
  106ce8: aa1b03e2     	mov	x2, x27
  106cec: aa1403e1     	mov	x1, x20
  106cf0: 910e43a0     	add	x0, x29, #0x390
  106cf4: 940007dc     	bl	0x108c64 <_binary_BootROM_ums512_0x100000_0x111FFF_bin_start+0x8c64>
  106cf8: 2a1803fa     	mov	w26, w24
  106cfc: aa1a03e2     	mov	x2, x26
  106d00: 8b1b0281     	add	x1, x20, x27
  106d04: 910243a0     	add	x0, x29, #0x90
  106d08: 940007d7     	bl	0x108c64 <_binary_BootROM_ums512_0x100000_0x111FFF_bin_start+0x8c64>
  106d0c: 531d72e0     	lsl	w0, w23, #3
  106d10: 4b150015     	sub	w21, w0, w21
  106d14: 52801fe0     	mov	w0, #0xff               // =255
  106d18: 1ad52815     	asr	w21, w0, w21
  106d1c: 39400280     	ldrb	w0, [x20]
  106d20: 129ffef4     	mov	w20, #-0xfff8           // =-65528
  106d24: 6a35001f     	bics	wzr, w0, w21
  106d28: 54fff561     	b.ne	0x106bd4 <_binary_BootROM_ums512_0x100000_0x111FFF_bin_start+0x6bd4>
  106d2c: aa1b03e4     	mov	x4, x27
  106d30: 910643a3     	add	x3, x29, #0x190
  106d34: aa1a03e2     	mov	x2, x26
  106d38: 910243a1     	add	x1, x29, #0x90
  106d3c: b94067a0     	ldr	w0, [x29, #0x64]
  106d40: 97ffff2e     	bl	0x1069f8 <_binary_BootROM_ums512_0x100000_0x111FFF_bin_start+0x69f8>
  106d44: 2a0003f4     	mov	w20, w0
  106d48: 35fff460     	cbnz	w0, 0x106bd4 <_binary_BootROM_ums512_0x100000_0x111FFF_bin_start+0x6bd4>
  106d4c: 340001b9     	cbz	w25, 0x106d80 <_binary_BootROM_ums512_0x100000_0x111FFF_bin_start+0x6d80>
  106d50: 51000724     	sub	w4, w25, #0x1
  106d54: 91000484     	add	x4, x4, #0x1
  106d58: d2800000     	mov	x0, #0x0                // =0
  106d5c: 910e43a2     	add	x2, x29, #0x390
  106d60: 910643a5     	add	x5, x29, #0x190
  106d64: 38626801     	ldrb	w1, [x0, x2]
  106d68: 38656803     	ldrb	w3, [x0, x5]
  106d6c: 4a030021     	eor	w1, w1, w3
  106d70: 38226801     	strb	w1, [x0, x2]
  106d74: 91000400     	add	x0, x0, #0x1
  106d78: eb00009f     	cmp	x4, x0
  106d7c: 54ffff41     	b.ne	0x106d64 <_binary_BootROM_ums512_0x100000_0x111FFF_bin_start+0x6d64>
  106d80: 394e43a1     	ldrb	w1, [x29, #0x390]
  106d84: 0a0102a1     	and	w1, w21, w1
  106d88: 12001c21     	and	w1, w1, #0xff
  106d8c: 390e43a1     	strb	w1, [x29, #0x390]
  106d90: 4b1602e0     	sub	w0, w23, w22
  106d94: 51000800     	sub	w0, w0, #0x2
  106d98: 6b180018     	subs	w24, w0, w24
  106d9c: 54000680     	b.eq	0x106e6c <_binary_BootROM_ums512_0x100000_0x111FFF_bin_start+0x6e6c>
  106da0: 350006a1     	cbnz	w1, 0x106e74 <_binary_BootROM_ums512_0x100000_0x111FFF_bin_start+0x6e74>
  106da4: 910e47a1     	add	x1, x29, #0x391
  106da8: 2a1403e0     	mov	w0, w20
  106dac: 1400000f     	b	0x106de8 <_binary_BootROM_ums512_0x100000_0x111FFF_bin_start+0x6de8>
  106db0: 52800298     	mov	w24, #0x14              // =20
  106db4: 17ffffb5     	b	0x106c88 <_binary_BootROM_ums512_0x100000_0x111FFF_bin_start+0x6c88>
  106db8: 52800398     	mov	w24, #0x1c              // =28
  106dbc: 17ffffb3     	b	0x106c88 <_binary_BootROM_ums512_0x100000_0x111FFF_bin_start+0x6c88>
  106dc0: 52800418     	mov	w24, #0x20              // =32
  106dc4: 17ffffb1     	b	0x106c88 <_binary_BootROM_ums512_0x100000_0x111FFF_bin_start+0x6c88>
  106dc8: 52800618     	mov	w24, #0x30              // =48
  106dcc: 17ffffaf     	b	0x106c88 <_binary_BootROM_ums512_0x100000_0x111FFF_bin_start+0x6c88>
  106dd0: 52800818     	mov	w24, #0x40              // =64
  106dd4: 17ffffad     	b	0x106c88 <_binary_BootROM_ums512_0x100000_0x111FFF_bin_start+0x6c88>
  106dd8: 52800398     	mov	w24, #0x1c              // =28
  106ddc: 17ffffab     	b	0x106c88 <_binary_BootROM_ums512_0x100000_0x111FFF_bin_start+0x6c88>
  106de0: 38401422     	ldrb	w2, [x1], #0x1
  106de4: 350004c2     	cbnz	w2, 0x106e7c <_binary_BootROM_ums512_0x100000_0x111FFF_bin_start+0x6e7c>
  106de8: 11000400     	add	w0, w0, #0x1
  106dec: 6b18001f     	cmp	w0, w24
  106df0: 54ffff83     	b.lo	0x106de0 <_binary_BootROM_ums512_0x100000_0x111FFF_bin_start+0x6de0>
  106df4: 11000417     	add	w23, w0, #0x1
  106df8: 910e43a1     	add	x1, x29, #0x390
  106dfc: 38604820     	ldrb	w0, [x1, w0, uxtw]
  106e00: 7100041f     	cmp	w0, #0x1
  106e04: 54000401     	b.ne	0x106e84 <_binary_BootROM_ums512_0x100000_0x111FFF_bin_start+0x6e84>
  106e08: f900cbbf     	str	xzr, [x29, #0x190]
  106e0c: 2a1c03f5     	mov	w21, w28
  106e10: aa1503e2     	mov	x2, x21
  106e14: f94037a1     	ldr	x1, [x29, #0x68]
  106e18: 910663a0     	add	x0, x29, #0x198
  106e1c: 94000792     	bl	0x108c64 <_binary_BootROM_ums512_0x100000_0x111FFF_bin_start+0x8c64>
  106e20: 910022a0     	add	x0, x21, #0x8
  106e24: 2a1603e2     	mov	w2, w22
  106e28: 910e43a1     	add	x1, x29, #0x390
  106e2c: 8b374021     	add	x1, x1, w23, uxtw
  106e30: 910643a3     	add	x3, x29, #0x190
  106e34: 8b000060     	add	x0, x3, x0
  106e38: 9400078b     	bl	0x108c64 <_binary_BootROM_ums512_0x100000_0x111FFF_bin_start+0x8c64>
  106e3c: 11002381     	add	w1, w28, #0x8
  106e40: 9101c3a2     	add	x2, x29, #0x70
  106e44: 0b160021     	add	w1, w1, w22
  106e48: 910643a0     	add	x0, x29, #0x190
  106e4c: 94000453     	bl	0x107f98 <_binary_BootROM_ums512_0x100000_0x111FFF_bin_start+0x7f98>
  106e50: aa1a03e2     	mov	x2, x26
  106e54: 910243a1     	add	x1, x29, #0x90
  106e58: 9101c3a0     	add	x0, x29, #0x70
  106e5c: 9400078a     	bl	0x108c84 <_binary_BootROM_ums512_0x100000_0x111FFF_bin_start+0x8c84>
  106e60: 35ffeba0     	cbnz	w0, 0x106bd4 <_binary_BootROM_ums512_0x100000_0x111FFF_bin_start+0x6bd4>
  106e64: b900027f     	str	wzr, [x19]
  106e68: 17ffff5b     	b	0x106bd4 <_binary_BootROM_ums512_0x100000_0x111FFF_bin_start+0x6bd4>
  106e6c: 2a1803e0     	mov	w0, w24
  106e70: 17ffffe1     	b	0x106df4 <_binary_BootROM_ums512_0x100000_0x111FFF_bin_start+0x6df4>
  106e74: 129ffef4     	mov	w20, #-0xfff8           // =-65528
  106e78: 17ffff57     	b	0x106bd4 <_binary_BootROM_ums512_0x100000_0x111FFF_bin_start+0x6bd4>
  106e7c: 129ffef4     	mov	w20, #-0xfff8           // =-65528
  106e80: 17ffff55     	b	0x106bd4 <_binary_BootROM_ums512_0x100000_0x111FFF_bin_start+0x6bd4>
  106e84: 129ffef4     	mov	w20, #-0xfff8           // =-65528
  106e88: 17ffff53     	b	0x106bd4 <_binary_BootROM_ums512_0x100000_0x111FFF_bin_start+0x6bd4>
  106e8c: 12001c00     	and	w0, w0, #0xff
  106e90: 51018001     	sub	w1, w0, #0x60
  106e94: 12001c21     	and	w1, w1, #0xff
  106e98: 71007c3f     	cmp	w1, #0x1f
  106e9c: 540001c9     	b.ls	0x106ed4 <_binary_BootROM_ums512_0x100000_0x111FFF_bin_start+0x6ed4>
  106ea0: d2840103     	mov	x3, #0x2008             // =8200
  106ea4: f2a65003     	movk	x3, #0x3280, lsl #16
  106ea8: b9400062     	ldr	w2, [x3]
  106eac: 52800021     	mov	w1, #0x1                // =1
  106eb0: 1ac02020     	lsl	w0, w1, w0
  106eb4: 2a000041     	orr	w1, w2, w0
  106eb8: b9000061     	str	w1, [x3]
  106ebc: d2840501     	mov	x1, #0x2028             // =8232
  106ec0: f2a65001     	movk	x1, #0x3280, lsl #16
  106ec4: b9400022     	ldr	w2, [x1]
  106ec8: 2a020000     	orr	w0, w0, w2
  106ecc: b9000020     	str	w0, [x1]
  106ed0: d65f03c0     	ret
  106ed4: d2840283     	mov	x3, #0x2014             // =8212
  106ed8: f2a65003     	movk	x3, #0x3280, lsl #16
  106edc: b9400062     	ldr	w2, [x3]
  106ee0: 12001000     	and	w0, w0, #0x1f
  106ee4: 52800021     	mov	w1, #0x1                // =1
  106ee8: 1ac02020     	lsl	w0, w1, w0
  106eec: 2a000041     	orr	w1, w2, w0
  106ef0: b9000061     	str	w1, [x3]
  106ef4: d2840681     	mov	x1, #0x2034             // =8244
  106ef8: f2a65001     	movk	x1, #0x3280, lsl #16
  106efc: b9400022     	ldr	w2, [x1]
  106f00: 2a020000     	orr	w0, w0, w2
  106f04: b9000020     	str	w0, [x1]
  106f08: d65f03c0     	ret
  106f0c: a9bf7bfd     	stp	x29, x30, [sp, #-0x10]!
  106f10: 910003fd     	mov	x29, sp
  106f14: 5280aa01     	mov	w1, #0x550              // =1360
  106f18: d2840000     	mov	x0, #0x2000             // =8192
  106f1c: f2a65000     	movk	x0, #0x3280, lsl #16
  106f20: b9000001     	str	w1, [x0]
  106f24: 5282aa01     	mov	w1, #0x1550             // =5456
  106f28: 91001000     	add	x0, x0, #0x4
  106f2c: b9000001     	str	w1, [x0]
  106f30: 52800020     	mov	w0, #0x1                // =1
  106f34: 97ffffd6     	bl	0x106e8c <_binary_BootROM_ums512_0x100000_0x111FFF_bin_start+0x6e8c>
  106f38: 528000e0     	mov	w0, #0x7                // =7
  106f3c: 97ffffd4     	bl	0x106e8c <_binary_BootROM_ums512_0x100000_0x111FFF_bin_start+0x6e8c>
  106f40: 52800100     	mov	w0, #0x8                // =8
  106f44: 97ffffd2     	bl	0x106e8c <_binary_BootROM_ums512_0x100000_0x111FFF_bin_start+0x6e8c>
  106f48: 52800120     	mov	w0, #0x9                // =9
  106f4c: 97ffffd0     	bl	0x106e8c <_binary_BootROM_ums512_0x100000_0x111FFF_bin_start+0x6e8c>
  106f50: a8c17bfd     	ldp	x29, x30, [sp], #0x10
  106f54: d65f03c0     	ret
  106f58: a9bf7bfd     	stp	x29, x30, [sp, #-0x10]!
  106f5c: 910003fd     	mov	x29, sp
  106f60: d2900001     	mov	x1, #0x8000             // =32768
  106f64: f2a65001     	movk	x1, #0x3280, lsl #16
  106f68: b9400020     	ldr	w0, [x1]
  106f6c: 32000400     	orr	w0, w0, #0x3
  106f70: b9000020     	str	w0, [x1]
  106f74: 91001021     	add	x1, x1, #0x4
  106f78: b9400020     	ldr	w0, [x1]
  106f7c: 32000400     	orr	w0, w0, #0x3
  106f80: b9000020     	str	w0, [x1]
  106f84: 528001a0     	mov	w0, #0xd                // =13
  106f88: 97ffffc1     	bl	0x106e8c <_binary_BootROM_ums512_0x100000_0x111FFF_bin_start+0x6e8c>
  106f8c: a8c17bfd     	ldp	x29, x30, [sp], #0x10
  106f90: d65f03c0     	ret
  106f94: a9bf7bfd     	stp	x29, x30, [sp, #-0x10]!
  106f98: 910003fd     	mov	x29, sp
  106f9c: d2900001     	mov	x1, #0x8000             // =32768
  106fa0: f2a65001     	movk	x1, #0x3280, lsl #16
  106fa4: b9400020     	ldr	w0, [x1]
  106fa8: 32120400     	orr	w0, w0, #0xc000
  106fac: b9000020     	str	w0, [x1]
  106fb0: 91001021     	add	x1, x1, #0x4
  106fb4: b9400020     	ldr	w0, [x1]
  106fb8: 32120400     	orr	w0, w0, #0xc000
  106fbc: b9000020     	str	w0, [x1]
  106fc0: 528001a0     	mov	w0, #0xd                // =13
  106fc4: 97ffffb2     	bl	0x106e8c <_binary_BootROM_ums512_0x100000_0x111FFF_bin_start+0x6e8c>
  106fc8: a8c17bfd     	ldp	x29, x30, [sp], #0x10
  106fcc: d65f03c0     	ret
  106fd0: a9bf7bfd     	stp	x29, x30, [sp, #-0x10]!
  106fd4: 910003fd     	mov	x29, sp
  106fd8: d2900001     	mov	x1, #0x8000             // =32768
  106fdc: f2a65001     	movk	x1, #0x3280, lsl #16
  106fe0: b9400020     	ldr	w0, [x1]
  106fe4: 320c0400     	orr	w0, w0, #0x300000
  106fe8: b9000020     	str	w0, [x1]
  106fec: 91001021     	add	x1, x1, #0x4
  106ff0: b9400020     	ldr	w0, [x1]
  106ff4: 320c0400     	orr	w0, w0, #0x300000
  106ff8: b9000020     	str	w0, [x1]
  106ffc: 52800140     	mov	w0, #0xa                // =10
  107000: 97ffffa3     	bl	0x106e8c <_binary_BootROM_ums512_0x100000_0x111FFF_bin_start+0x6e8c>
  107004: a8c17bfd     	ldp	x29, x30, [sp], #0x10
  107008: d65f03c0     	ret
  10700c: a9bf7bfd     	stp	x29, x30, [sp, #-0x10]!
  107010: 910003fd     	mov	x29, sp
  107014: d2860001     	mov	x1, #0x3000             // =12288
  107018: f2a65001     	movk	x1, #0x3280, lsl #16
  10701c: b9400020     	ldr	w0, [x1]
  107020: 320b0000     	orr	w0, w0, #0x200000
  107024: b9000020     	str	w0, [x1]
  107028: 91001021     	add	x1, x1, #0x4
  10702c: b9400020     	ldr	w0, [x1]
  107030: 320b0000     	orr	w0, w0, #0x200000
  107034: b9000020     	str	w0, [x1]
  107038: 52800e20     	mov	w0, #0x71               // =113
  10703c: 97ffff94     	bl	0x106e8c <_binary_BootROM_ums512_0x100000_0x111FFF_bin_start+0x6e8c>
  107040: a8c17bfd     	ldp	x29, x30, [sp], #0x10
  107044: d65f03c0     	ret
  107048: aa0003e5     	mov	x5, x0
  10704c: 51000426     	sub	w6, w1, #0x1
  107050: 34000341     	cbz	w1, 0x1070b8 <_binary_BootROM_ums512_0x100000_0x111FFF_bin_start+0x70b8>
  107054: 2a0603e6     	mov	w6, w6
  107058: 910004c6     	add	x6, x6, #0x1
  10705c: 8b060006     	add	x6, x0, x6
  107060: 52800000     	mov	w0, #0x0                // =0
  107064: 52820424     	mov	w4, #0x1021             // =4129
  107068: 14000010     	b	0x1070a8 <_binary_BootROM_ums512_0x100000_0x111FFF_bin_start+0x70a8>
  10706c: 531f3800     	ubfiz	w0, w0, #1, #15
  107070: 4a040000     	eor	w0, w0, w4
  107074: 14000006     	b	0x10708c <_binary_BootROM_ums512_0x100000_0x111FFF_bin_start+0x708c>
  107078: 53017c21     	lsr	w1, w1, #1
  10707c: 71000442     	subs	w2, w2, #0x1
  107080: 540000e0     	b.eq	0x10709c <_binary_BootROM_ums512_0x100000_0x111FFF_bin_start+0x709c>
  107084: 377fff40     	tbnz	w0, #0xf, 0x10706c <_binary_BootROM_ums512_0x100000_0x111FFF_bin_start+0x706c>
  107088: 531f3800     	ubfiz	w0, w0, #1, #15
  10708c: 6a01007f     	tst	w3, w1
  107090: 54ffff40     	b.eq	0x107078 <_binary_BootROM_ums512_0x100000_0x111FFF_bin_start+0x7078>
  107094: 4a040000     	eor	w0, w0, w4
  107098: 17fffff8     	b	0x107078 <_binary_BootROM_ums512_0x100000_0x111FFF_bin_start+0x7078>
  10709c: 910004a5     	add	x5, x5, #0x1
  1070a0: eb0600bf     	cmp	x5, x6
  1070a4: 540000c0     	b.eq	0x1070bc <_binary_BootROM_ums512_0x100000_0x111FFF_bin_start+0x70bc>
  1070a8: 394000a3     	ldrb	w3, [x5]
  1070ac: 52800102     	mov	w2, #0x8                // =8
  1070b0: 52801001     	mov	w1, #0x80               // =128
  1070b4: 17fffff4     	b	0x107084 <_binary_BootROM_ums512_0x100000_0x111FFF_bin_start+0x7084>
  1070b8: 52800000     	mov	w0, #0x0                // =0
  1070bc: d65f03c0     	ret
  1070c0: a9bf7bfd     	stp	x29, x30, [sp, #-0x10]!
  1070c4: 910003fd     	mov	x29, sp
  1070c8: 2a0203e2     	mov	w2, w2
  1070cc: 940006e6     	bl	0x108c64 <_binary_BootROM_ums512_0x100000_0x111FFF_bin_start+0x8c64>
  1070d0: a8c17bfd     	ldp	x29, x30, [sp], #0x10
  1070d4: d65f03c0     	ret
  1070d8: a9bf7bfd     	stp	x29, x30, [sp, #-0x10]!
  1070dc: 910003fd     	mov	x29, sp
  1070e0: 2a0203e2     	mov	w2, w2
  1070e4: 12001c21     	and	w1, w1, #0xff
  1070e8: 940006d8     	bl	0x108c48 <_binary_BootROM_ums512_0x100000_0x111FFF_bin_start+0x8c48>
  1070ec: a8c17bfd     	ldp	x29, x30, [sp], #0x10
  1070f0: d65f03c0     	ret
  1070f4: 71000c3f     	cmp	w1, #0x3
  1070f8: 5400032d     	b.le	0x10715c <_binary_BootROM_ums512_0x100000_0x111FFF_bin_start+0x715c>
  1070fc: 51001025     	sub	w5, w1, #0x4
  107100: 53027ca5     	lsr	w5, w5, #2
  107104: d37e74a4     	ubfiz	x4, x5, #2, #30
  107108: 91001084     	add	x4, x4, #0x4
  10710c: 8b040004     	add	x4, x0, x4
  107110: 52800002     	mov	w2, #0x0                // =0
  107114: b8404403     	ldr	w3, [x0], #0x4
  107118: 0b030042     	add	w2, w2, w3
  10711c: eb04001f     	cmp	x0, x4
  107120: 54ffffa1     	b.ne	0x107114 <_binary_BootROM_ums512_0x100000_0x111FFF_bin_start+0x7114>
  107124: 51001021     	sub	w1, w1, #0x4
  107128: 4b050821     	sub	w1, w1, w5, lsl #2
  10712c: aa0003e3     	mov	x3, x0
  107130: 36080061     	tbz	w1, #0x1, 0x10713c <_binary_BootROM_ums512_0x100000_0x111FFF_bin_start+0x713c>
  107134: 78402460     	ldrh	w0, [x3], #0x2
  107138: 0b000042     	add	w2, w2, w0
  10713c: 36000061     	tbz	w1, #0x0, 0x107148 <_binary_BootROM_ums512_0x100000_0x111FFF_bin_start+0x7148>
  107140: 39400060     	ldrb	w0, [x3]
  107144: 0b000042     	add	w2, w2, w0
  107148: 12003c40     	and	w0, w2, #0xffff
  10714c: 0b424002     	add	w2, w0, w2, lsr #16
  107150: 0b424042     	add	w2, w2, w2, lsr #16
  107154: 2a2203e0     	mvn	w0, w2
  107158: d65f03c0     	ret
  10715c: 52800002     	mov	w2, #0x0                // =0
  107160: 17fffff3     	b	0x10712c <_binary_BootROM_ums512_0x100000_0x111FFF_bin_start+0x712c>
  107164: d2800081     	mov	x1, #0x4                // =4
  107168: f2a64fa1     	movk	x1, #0x327d, lsl #16
  10716c: b9400020     	ldr	w0, [x1]
  107170: 321b0000     	orr	w0, w0, #0x20
  107174: b9000020     	str	w0, [x1]
  107178: 91005021     	add	x1, x1, #0x14
  10717c: b9400020     	ldr	w0, [x1]
  107180: 321d0000     	orr	w0, w0, #0x8
  107184: b9000020     	str	w0, [x1]
  107188: d65f03c0     	ret
  10718c: 5281ffe1     	mov	w1, #0xfff              // =4095
  107190: d2800200     	mov	x0, #0x10               // =16
  107194: f2a644a0     	movk	x0, #0x3225, lsl #16
  107198: b9000001     	str	w1, [x0]
  10719c: d2800081     	mov	x1, #0x4                // =4
  1071a0: f2a64fa1     	movk	x1, #0x327d, lsl #16
  1071a4: b9400020     	ldr	w0, [x1]
  1071a8: 121c7800     	and	w0, w0, #0xfffffff7
  1071ac: b9000020     	str	w0, [x1]
  1071b0: 91005021     	add	x1, x1, #0x14
  1071b4: b9400020     	ldr	w0, [x1]
  1071b8: 121e7800     	and	w0, w0, #0xfffffffd
  1071bc: b9000020     	str	w0, [x1]
  1071c0: d65f03c0     	ret
  1071c4: d2800180     	mov	x0, #0xc                // =12
  1071c8: f2a645c0     	movk	x0, #0x322e, lsl #16
  1071cc: b9400000     	ldr	w0, [x0]
  1071d0: d65f03c0     	ret
  1071d4: d2800181     	mov	x1, #0xc                // =12
  1071d8: f2a645c1     	movk	x1, #0x322e, lsl #16
  1071dc: b9400021     	ldr	w1, [x1]
  1071e0: 0b010000     	add	w0, w0, w1
  1071e4: d2800182     	mov	x2, #0xc                // =12
  1071e8: f2a645c2     	movk	x2, #0x322e, lsl #16
  1071ec: b9400041     	ldr	w1, [x2]
  1071f0: 6b01001f     	cmp	w0, w1
  1071f4: 54ffffc8     	b.hi	0x1071ec <_binary_BootROM_ums512_0x100000_0x111FFF_bin_start+0x71ec>
  1071f8: d65f03c0     	ret
  1071fc: a9bf7bfd     	stp	x29, x30, [sp, #-0x10]!
  107200: 910003fd     	mov	x29, sp
  107204: 52800280     	mov	w0, #0x14               // =20
  107208: 97fffff3     	bl	0x1071d4 <_binary_BootROM_ums512_0x100000_0x111FFF_bin_start+0x71d4>
  10720c: d2800100     	mov	x0, #0x8                // =8
  107210: f2a644a0     	movk	x0, #0x3225, lsl #16
  107214: b9400002     	ldr	w2, [x0]
  107218: b0fff7e0     	adrp	x0, 0x4000
  10721c: 91112001     	add	x1, x0, #0x448
  107220: b9044802     	str	w2, [x0, #0x448]
  107224: d2800580     	mov	x0, #0x2c               // =44
  107228: f2a644a0     	movk	x0, #0x3225, lsl #16
  10722c: b9400000     	ldr	w0, [x0]
  107230: b9000420     	str	w0, [x1, #0x4]
  107234: 97ffffd6     	bl	0x10718c <_binary_BootROM_ums512_0x100000_0x111FFF_bin_start+0x718c>
  107238: a8c17bfd     	ldp	x29, x30, [sp], #0x10
  10723c: d65f03c0     	ret
  107240: aa0003e6     	mov	x6, x0
  107244: d2800581     	mov	x1, #0x2c               // =44
  107248: f2a64fa1     	movk	x1, #0x327d, lsl #16
  10724c: b9400021     	ldr	w1, [x1]
  107250: 36200401     	tbz	w1, #0x4, 0x1072d0 <_binary_BootROM_ums512_0x100000_0x111FFF_bin_start+0x72d0>
  107254: b0fff7e1     	adrp	x1, 0x4000
  107258: b9444823     	ldr	w3, [x1, #0x448]
  10725c: 52800000     	mov	w0, #0x0                // =0
  107260: 72000c63     	ands	w3, w3, #0xf
  107264: 54000380     	b.eq	0x1072d4 <_binary_BootROM_ums512_0x100000_0x111FFF_bin_start+0x72d4>
  107268: b0fff7e0     	adrp	x0, 0x4000
  10726c: b9444c07     	ldr	w7, [x0, #0x44c]
  107270: 52800005     	mov	w5, #0x0                // =0
  107274: 52800001     	mov	w1, #0x0                // =0
  107278: 52800024     	mov	w4, #0x1                // =1
  10727c: 52800ee0     	mov	w0, #0x77               // =119
  107280: 14000004     	b	0x107290 <_binary_BootROM_ums512_0x100000_0x111FFF_bin_start+0x7290>
  107284: 11000421     	add	w1, w1, #0x1
  107288: 7100103f     	cmp	w1, #0x4
  10728c: 54000140     	b.eq	0x1072b4 <_binary_BootROM_ums512_0x100000_0x111FFF_bin_start+0x72b4>
  107290: 1ac12082     	lsl	w2, w4, w1
  107294: 6a03005f     	tst	w2, w3
  107298: 54ffff60     	b.eq	0x107284 <_binary_BootROM_ums512_0x100000_0x111FFF_bin_start+0x7284>
  10729c: 531d7022     	lsl	w2, w1, #3
  1072a0: 1ac224e2     	lsr	w2, w7, w2
  1072a4: 0a000042     	and	w2, w2, w0
  1072a8: 7100005f     	cmp	w2, #0x0
  1072ac: 1a8410a5     	csel	w5, w5, w4, ne
  1072b0: 17fffff5     	b	0x107284 <_binary_BootROM_ums512_0x100000_0x111FFF_bin_start+0x7284>
  1072b4: 52800000     	mov	w0, #0x0                // =0
  1072b8: 710004bf     	cmp	w5, #0x1
  1072bc: 540000c1     	b.ne	0x1072d4 <_binary_BootROM_ums512_0x100000_0x111FFF_bin_start+0x72d4>
  1072c0: 52800021     	mov	w1, #0x1                // =1
  1072c4: b90000c1     	str	w1, [x6]
  1072c8: 2a0103e0     	mov	w0, w1
  1072cc: d65f03c0     	ret
  1072d0: 52800020     	mov	w0, #0x1                // =1
  1072d4: d65f03c0     	ret
  1072d8: d2810780     	mov	x0, #0x83c              // =2108
  1072dc: f2a64fa0     	movk	x0, #0x327d, lsl #16
  1072e0: b9400000     	ldr	w0, [x0]
  1072e4: 12000000     	and	w0, w0, #0x1
  1072e8: d65f03c0     	ret
  1072ec: d2810780     	mov	x0, #0x83c              // =2108
  1072f0: f2a64fa0     	movk	x0, #0x327d, lsl #16
  1072f4: b9400000     	ldr	w0, [x0]
  1072f8: d2750000     	eor	x0, x0, #0x800
  1072fc: d34b2c00     	ubfx	x0, x0, #11, #1
  107300: d65f03c0     	ret
  107304: a9be7bfd     	stp	x29, x30, [sp, #-0x20]!
  107308: 910003fd     	mov	x29, sp
  10730c: a90153f3     	stp	x19, x20, [sp, #0x10]
  107310: d2810781     	mov	x1, #0x83c              // =2108
  107314: f2a64fa1     	movk	x1, #0x327d, lsl #16
  107318: b9400021     	ldr	w1, [x1]
  10731c: 52800013     	mov	w19, #0x0               // =0
  107320: 378800a1     	tbnz	w1, #0x11, 0x107334 <_binary_BootROM_ums512_0x100000_0x111FFF_bin_start+0x7334>
  107324: 2a1303e0     	mov	w0, w19
  107328: a94153f3     	ldp	x19, x20, [sp, #0x10]
  10732c: a8c27bfd     	ldp	x29, x30, [sp], #0x20
  107330: d65f03c0     	ret
  107334: 2a0003f4     	mov	w20, w0
  107338: d28aa003     	mov	x3, #0x5500             // =21760
  10733c: 52800202     	mov	w2, #0x10               // =16
  107340: 52801001     	mov	w1, #0x80               // =128
  107344: 52800000     	mov	w0, #0x0                // =0
  107348: 97ffe72e     	bl	0x101000 <_binary_BootROM_ums512_0x100000_0x111FFF_bin_start+0x1000>
  10734c: 2a0003f3     	mov	w19, w0
  107350: 7100041f     	cmp	w0, #0x1
  107354: 54000060     	b.eq	0x107360 <_binary_BootROM_ums512_0x100000_0x111FFF_bin_start+0x7360>
  107358: 52800013     	mov	w19, #0x0               // =0
  10735c: 17fffff2     	b	0x107324 <_binary_BootROM_ums512_0x100000_0x111FFF_bin_start+0x7324>
  107360: b0fff7c0     	adrp	x0, 0x0
  107364: f9400401     	ldr	x1, [x0, #0x8]
  107368: d289ea40     	mov	x0, #0x4f52             // =20306
  10736c: f2aa09a0     	movk	x0, #0x504d, lsl #16
  107370: f2ca8820     	movk	x0, #0x5441, lsl #32
  107374: f2e90860     	movk	x0, #0x4843, lsl #48
  107378: eb00003f     	cmp	x1, x0
  10737c: 54000060     	b.eq	0x107388 <_binary_BootROM_ums512_0x100000_0x111FFF_bin_start+0x7388>
  107380: 52800013     	mov	w19, #0x0               // =0
  107384: 17ffffe8     	b	0x107324 <_binary_BootROM_ums512_0x100000_0x111FFF_bin_start+0x7324>
  107388: b0fff7c0     	adrp	x0, 0x0
  10738c: f9400801     	ldr	x1, [x0, #0x10]
  107390: 2a1403e0     	mov	w0, w20
  107394: d63f0020     	blr	x1
  107398: 17ffffe3     	b	0x107324 <_binary_BootROM_ums512_0x100000_0x111FFF_bin_start+0x7324>
  10739c: b0fff7e0     	adrp	x0, 0x4000
  1073a0: 7948d400     	ldrh	w0, [x0, #0x46a]
  1073a4: 12000000     	and	w0, w0, #0x1
  1073a8: d65f03c0     	ret
  1073ac: a9be7bfd     	stp	x29, x30, [sp, #-0x20]!
  1073b0: 910003fd     	mov	x29, sp
  1073b4: 910083a1     	add	x1, x29, #0x20
  1073b8: b81fcc3f     	str	wzr, [x1, #-0x4]!
  1073bc: 52800022     	mov	w2, #0x1                // =1
  1073c0: 528005a0     	mov	w0, #0x2d               // =45
  1073c4: 97fff642     	bl	0x104ccc <_binary_BootROM_ums512_0x100000_0x111FFF_bin_start+0x4ccc>
  1073c8: b9401fa0     	ldr	w0, [x29, #0x1c]
  1073cc: 36f00280     	tbz	w0, #0x1e, 0x10741c <_binary_BootROM_ums512_0x100000_0x111FFF_bin_start+0x741c>
  1073d0: d2800082     	mov	x2, #0x4                // =4
  1073d4: f2a64fa2     	movk	x2, #0x327d, lsl #16
  1073d8: b9400041     	ldr	w1, [x2]
  1073dc: 32140021     	orr	w1, w1, #0x1000
  1073e0: b9000041     	str	w1, [x2]
  1073e4: d2800c83     	mov	x3, #0x64               // =100
  1073e8: f2a64763     	movk	x3, #0x323b, lsl #16
  1073ec: b9400061     	ldr	w1, [x3]
  1073f0: d3556802     	ubfx	x2, x0, #21, #6
  1073f4: 52863fe4     	mov	w4, #0x31ff             // =12799
  1073f8: 72bfc004     	movk	w4, #0xfe00, lsl #16
  1073fc: 0a040021     	and	w1, w1, w4
  107400: 2a024c22     	orr	w2, w1, w2, lsl #19
  107404: d35b7401     	ubfx	x1, x0, #27, #3
  107408: d3505000     	ubfx	x0, x0, #16, #5
  10740c: 53124400     	lsl	w0, w0, #14
  107410: 2a012400     	orr	w0, w0, w1, lsl #9
  107414: 2a020000     	orr	w0, w0, w2
  107418: b9000060     	str	w0, [x3]
  10741c: a8c27bfd     	ldp	x29, x30, [sp], #0x20
  107420: d65f03c0     	ret
  107424: d65f03c0     	ret
  107428: d2800580     	mov	x0, #0x2c               // =44
  10742c: f2a64fa0     	movk	x0, #0x327d, lsl #16
  107430: b9400000     	ldr	w0, [x0]
  107434: d3430c00     	ubfx	x0, x0, #3, #1
  107438: d65f03c0     	ret
  10743c: d0fff7e2     	adrp	x2, 0x5000
  107440: f9401041     	ldr	x1, [x2, #0x20]
  107444: aa000020     	orr	x0, x1, x0
  107448: f9001040     	str	x0, [x2, #0x20]
  10744c: d65f03c0     	ret
  107450: a9be7bfd     	stp	x29, x30, [sp, #-0x20]!
  107454: 910003fd     	mov	x29, sp
  107458: f9000bf3     	str	x19, [sp, #0x10]
  10745c: d2803f81     	mov	x1, #0x1fc              // =508
  107460: f2a64fa1     	movk	x1, #0x327d, lsl #16
  107464: b9400020     	ldr	w0, [x1]
  107468: 121e7800     	and	w0, w0, #0xfffffffd
  10746c: b9000020     	str	w0, [x1]
  107470: 97fffea7     	bl	0x106f0c <_binary_BootROM_ums512_0x100000_0x111FFF_bin_start+0x6f0c>
  107474: 97fff5fe     	bl	0x104c6c <_binary_BootROM_ums512_0x100000_0x111FFF_bin_start+0x4c6c>
  107478: 97ffffcd     	bl	0x1073ac <_binary_BootROM_ums512_0x100000_0x111FFF_bin_start+0x73ac>
  10747c: d2800081     	mov	x1, #0x4                // =4
  107480: f2a64fa1     	movk	x1, #0x327d, lsl #16
  107484: b9400020     	ldr	w0, [x1]
  107488: 32150000     	orr	w0, w0, #0x800
  10748c: b9000020     	str	w0, [x1]
  107490: d280b800     	mov	x0, #0x5c0              // =1472
  107494: f2a648a0     	movk	x0, #0x3245, lsl #16
  107498: b9400001     	ldr	w1, [x0]
  10749c: 12187421     	and	w1, w1, #0xffffff3f
  1074a0: b9000001     	str	w1, [x0]
  1074a4: b9400001     	ldr	w1, [x0]
  1074a8: 32140021     	orr	w1, w1, #0x1000
  1074ac: b9000001     	str	w1, [x0]
  1074b0: 91001000     	add	x0, x0, #0x4
  1074b4: b9400001     	ldr	w1, [x0]
  1074b8: 12187421     	and	w1, w1, #0xffffff3f
  1074bc: b9000001     	str	w1, [x0]
  1074c0: b9400001     	ldr	w1, [x0]
  1074c4: 32140021     	orr	w1, w1, #0x1000
  1074c8: b9000001     	str	w1, [x0]
  1074cc: d280b681     	mov	x1, #0x5b4              // =1460
  1074d0: f2a648a1     	movk	x1, #0x3245, lsl #16
  1074d4: b9400020     	ldr	w0, [x1]
  1074d8: 12197800     	and	w0, w0, #0xffffffbf
  1074dc: b9000020     	str	w0, [x1]
  1074e0: 91001021     	add	x1, x1, #0x4
  1074e4: b9400020     	ldr	w0, [x1]
  1074e8: 12197800     	and	w0, w0, #0xffffffbf
  1074ec: b9000020     	str	w0, [x1]
  1074f0: 97ffff1d     	bl	0x107164 <_binary_BootROM_ums512_0x100000_0x111FFF_bin_start+0x7164>
  1074f4: d2ae2001     	mov	x1, #0x71000000         // =1895825408
  1074f8: b9400020     	ldr	w0, [x1]
  1074fc: 32120000     	orr	w0, w0, #0x4000
  107500: b9000020     	str	w0, [x1]
  107504: 91001021     	add	x1, x1, #0x4
  107508: b9400020     	ldr	w0, [x1]
  10750c: 32130000     	orr	w0, w0, #0x2000
  107510: b9000020     	str	w0, [x1]
  107514: 52800660     	mov	w0, #0x33               // =51
  107518: 71000400     	subs	w0, w0, #0x1
  10751c: 54ffffe1     	b.ne	0x107518 <_binary_BootROM_ums512_0x100000_0x111FFF_bin_start+0x7518>
  107520: d2800093     	mov	x19, #0x4               // =4
  107524: f2ae2013     	movk	x19, #0x7100, lsl #16
  107528: b9400260     	ldr	w0, [x19]
  10752c: 12127800     	and	w0, w0, #0xffffdfff
  107530: b9000260     	str	w0, [x19]
  107534: 52ae0000     	mov	w0, #0x70000000         // =1879048192
  107538: 97fff582     	bl	0x104b40 <_binary_BootROM_ums512_0x100000_0x111FFF_bin_start+0x4b40>
  10753c: d2ae2001     	mov	x1, #0x71000000         // =1895825408
  107540: b9400020     	ldr	w0, [x1]
  107544: 32110000     	orr	w0, w0, #0x8000
  107548: b9000020     	str	w0, [x1]
  10754c: b9400260     	ldr	w0, [x19]
  107550: 32120000     	orr	w0, w0, #0x4000
  107554: b9000260     	str	w0, [x19]
  107558: 52800660     	mov	w0, #0x33               // =51
  10755c: 71000400     	subs	w0, w0, #0x1
  107560: 54ffffe1     	b.ne	0x10755c <_binary_BootROM_ums512_0x100000_0x111FFF_bin_start+0x755c>
  107564: d2800081     	mov	x1, #0x4                // =4
  107568: f2ae2001     	movk	x1, #0x7100, lsl #16
  10756c: b9400020     	ldr	w0, [x1]
  107570: 12117800     	and	w0, w0, #0xffffbfff
  107574: b9000020     	str	w0, [x1]
  107578: 52ae0200     	mov	w0, #0x70100000         // =1880096768
  10757c: 97fff571     	bl	0x104b40 <_binary_BootROM_ums512_0x100000_0x111FFF_bin_start+0x4b40>
  107580: d2800081     	mov	x1, #0x4                // =4
  107584: f2a64fa1     	movk	x1, #0x327d, lsl #16
  107588: b9400020     	ldr	w0, [x1]
  10758c: 321d0000     	orr	w0, w0, #0x8
  107590: b9000020     	str	w0, [x1]
  107594: 91005021     	add	x1, x1, #0x14
  107598: b9400020     	ldr	w0, [x1]
  10759c: 321f0000     	orr	w0, w0, #0x2
  1075a0: b9000020     	str	w0, [x1]
  1075a4: d2800200     	mov	x0, #0x10               // =16
  1075a8: f2a64fa0     	movk	x0, #0x327d, lsl #16
  1075ac: b9400001     	ldr	w1, [x0]
  1075b0: 321d0021     	orr	w1, w1, #0x8
  1075b4: b9000001     	str	w1, [x0]
  1075b8: b9400001     	ldr	w1, [x0]
  1075bc: 121c7821     	and	w1, w1, #0xfffffff7
  1075c0: b9000001     	str	w1, [x0]
  1075c4: 5281ffe1     	mov	w1, #0xfff              // =4095
  1075c8: d2800200     	mov	x0, #0x10               // =16
  1075cc: f2a644a0     	movk	x0, #0x3225, lsl #16
  1075d0: b9000001     	str	w1, [x0]
  1075d4: 529fffe1     	mov	w1, #0xffff             // =65535
  1075d8: 91002000     	add	x0, x0, #0x8
  1075dc: b9000001     	str	w1, [x0]
  1075e0: 91004000     	add	x0, x0, #0x10
  1075e4: b900001f     	str	wzr, [x0]
  1075e8: 528001e1     	mov	w1, #0xf                // =15
  1075ec: d2800380     	mov	x0, #0x1c               // =28
  1075f0: f2a644a0     	movk	x0, #0x3225, lsl #16
  1075f4: b9000001     	str	w1, [x0]
  1075f8: d2a644a0     	mov	x0, #0x32250000         // =841285632
  1075fc: b9400001     	ldr	w1, [x0]
  107600: 52806002     	mov	w2, #0x300              // =768
  107604: 72a00062     	movk	w2, #0x3, lsl #16
  107608: 2a020021     	orr	w1, w1, w2
  10760c: b9000001     	str	w1, [x0]
  107610: b9400001     	ldr	w1, [x0]
  107614: 11000442     	add	w2, w2, #0x1
  107618: 2a020021     	orr	w1, w1, w2
  10761c: b9000001     	str	w1, [x0]
  107620: 97fff8bf     	bl	0x10591c <_binary_BootROM_ums512_0x100000_0x111FFF_bin_start+0x591c>
  107624: d2800400     	mov	x0, #0x20               // =32
  107628: 97ffff85     	bl	0x10743c <_binary_BootROM_ums512_0x100000_0x111FFF_bin_start+0x743c>
  10762c: f9400bf3     	ldr	x19, [sp, #0x10]
  107630: a8c27bfd     	ldp	x29, x30, [sp], #0x20
  107634: d65f03c0     	ret
  107638: a9be7bfd     	stp	x29, x30, [sp, #-0x20]!
  10763c: 910003fd     	mov	x29, sp
  107640: f9000bf3     	str	x19, [sp, #0x10]
  107644: b0fff7f3     	adrp	x19, 0x4000
  107648: 91142273     	add	x19, x19, #0x508
  10764c: aa1303e0     	mov	x0, x19
  107650: 97fff5df     	bl	0x104dcc <_binary_BootROM_ums512_0x100000_0x111FFF_bin_start+0x4dcc>
  107654: b9400660     	ldr	w0, [x19, #0x4]
  107658: 12103c00     	and	w0, w0, #0xffff0000
  10765c: 3140401f     	cmn	w0, #0x10, lsl #12      // =0x10000
  107660: 54000221     	b.ne	0x1076a4 <_binary_BootROM_ums512_0x100000_0x111FFF_bin_start+0x76a4>
  107664: b0fff7e0     	adrp	x0, 0x4000
  107668: b9446800     	ldr	w0, [x0, #0x468]
  10766c: 36080400     	tbz	w0, #0x1, 0x1076ec <_binary_BootROM_ums512_0x100000_0x111FFF_bin_start+0x76ec>
  107670: b0fff7e0     	adrp	x0, 0x4000
  107674: b9450800     	ldr	w0, [x0, #0x508]
  107678: 121c1c00     	and	w0, w0, #0xff0
  10767c: 713fc01f     	cmp	w0, #0xff0
  107680: 540000a1     	b.ne	0x107694 <_binary_BootROM_ums512_0x100000_0x111FFF_bin_start+0x7694>
  107684: b0fff7e0     	adrp	x0, 0x4000
  107688: 39544000     	ldrb	w0, [x0, #0x510]
  10768c: 7103fc1f     	cmp	w0, #0xff
  107690: 54000160     	b.eq	0x1076bc <_binary_BootROM_ums512_0x100000_0x111FFF_bin_start+0x76bc>
  107694: d2c40000     	mov	x0, #0x200000000000     // =35184372088832
  107698: 97ffff69     	bl	0x10743c <_binary_BootROM_ums512_0x100000_0x111FFF_bin_start+0x743c>
  10769c: 52800000     	mov	w0, #0x0                // =0
  1076a0: 14000004     	b	0x1076b0 <_binary_BootROM_ums512_0x100000_0x111FFF_bin_start+0x76b0>
  1076a4: d2c10000     	mov	x0, #0x80000000000      // =8796093022208
  1076a8: 97ffff65     	bl	0x10743c <_binary_BootROM_ums512_0x100000_0x111FFF_bin_start+0x743c>
  1076ac: 52800000     	mov	w0, #0x0                // =0
  1076b0: f9400bf3     	ldr	x19, [sp, #0x10]
  1076b4: a8c27bfd     	ldp	x29, x30, [sp], #0x20
  1076b8: d65f03c0     	ret
  1076bc: b0fff7e0     	adrp	x0, 0x4000
  1076c0: 91138000     	add	x0, x0, #0x4e0
  1076c4: b0fff7e1     	adrp	x1, 0x4000
  1076c8: 91114021     	add	x1, x1, #0x450
  1076cc: a9408c22     	ldp	x2, x3, [x1, #0x8]
  1076d0: a9000c02     	stp	x2, x3, [x0]
  1076d4: a9480c22     	ldp	x2, x3, [x1, #0x80]
  1076d8: a9010c02     	stp	x2, x3, [x0, #0x10]
  1076dc: d2d00000     	mov	x0, #0x800000000000     // =140737488355328
  1076e0: 97ffff57     	bl	0x10743c <_binary_BootROM_ums512_0x100000_0x111FFF_bin_start+0x743c>
  1076e4: 52800020     	mov	w0, #0x1                // =1
  1076e8: 17fffff2     	b	0x1076b0 <_binary_BootROM_ums512_0x100000_0x111FFF_bin_start+0x76b0>
  1076ec: b0fff7e0     	adrp	x0, 0x4000
  1076f0: b9450800     	ldr	w0, [x0, #0x508]
  1076f4: 12103c00     	and	w0, w0, #0xffff0000
  1076f8: 3140401f     	cmn	w0, #0x10, lsl #12      // =0x10000
  1076fc: 540000a0     	b.eq	0x107710 <_binary_BootROM_ums512_0x100000_0x111FFF_bin_start+0x7710>
  107700: d2c20000     	mov	x0, #0x100000000000     // =17592186044416
  107704: 97ffff4e     	bl	0x10743c <_binary_BootROM_ums512_0x100000_0x111FFF_bin_start+0x743c>
  107708: 52800000     	mov	w0, #0x0                // =0
  10770c: 17ffffe9     	b	0x1076b0 <_binary_BootROM_ums512_0x100000_0x111FFF_bin_start+0x76b0>
  107710: d2c80000     	mov	x0, #0x400000000000     // =70368744177664
  107714: 97ffff4a     	bl	0x10743c <_binary_BootROM_ums512_0x100000_0x111FFF_bin_start+0x743c>
  107718: 52800020     	mov	w0, #0x1                // =1
  10771c: 17ffffe5     	b	0x1076b0 <_binary_BootROM_ums512_0x100000_0x111FFF_bin_start+0x76b0>
  107720: d0fff7e2     	adrp	x2, 0x5000
  107724: f9401041     	ldr	x1, [x2, #0x20]
  107728: 8a200020     	bic	x0, x1, x0
  10772c: f9001040     	str	x0, [x2, #0x20]
  107730: d65f03c0     	ret
  107734: b0fff7e0     	adrp	x0, 0x4000
  107738: 91112001     	add	x1, x0, #0x448
  10773c: b9400426     	ldr	w6, [x1, #0x4]
  107740: b9444802     	ldr	w2, [x0, #0x448]
  107744: 52800000     	mov	w0, #0x0                // =0
  107748: 72000c42     	ands	w2, w2, #0xf
  10774c: 540002e0     	b.eq	0x1077a8 <_binary_BootROM_ums512_0x100000_0x111FFF_bin_start+0x77a8>
  107750: 52800005     	mov	w5, #0x0                // =0
  107754: 52800007     	mov	w7, #0x0                // =0
  107758: 52800023     	mov	w3, #0x1                // =1
  10775c: 52800ee4     	mov	w4, #0x77               // =119
  107760: 14000005     	b	0x107774 <_binary_BootROM_ums512_0x100000_0x111FFF_bin_start+0x7774>
  107764: 2a0303e7     	mov	w7, w3
  107768: 11000400     	add	w0, w0, #0x1
  10776c: 7100101f     	cmp	w0, #0x4
  107770: 54000160     	b.eq	0x10779c <_binary_BootROM_ums512_0x100000_0x111FFF_bin_start+0x779c>
  107774: 1ac02061     	lsl	w1, w3, w0
  107778: 6a02003f     	tst	w1, w2
  10777c: 54ffff60     	b.eq	0x107768 <_binary_BootROM_ums512_0x100000_0x111FFF_bin_start+0x7768>
  107780: 531d7001     	lsl	w1, w0, #3
  107784: 1ac124c1     	lsr	w1, w6, w1
  107788: 6a040021     	ands	w1, w1, w4
  10778c: 54fffec0     	b.eq	0x107764 <_binary_BootROM_ums512_0x100000_0x111FFF_bin_start+0x7764>
  107790: 7100043f     	cmp	w1, #0x1
  107794: 1a8310a5     	csel	w5, w5, w3, ne
  107798: 17fffff4     	b	0x107768 <_binary_BootROM_ums512_0x100000_0x111FFF_bin_start+0x7768>
  10779c: 710004bf     	cmp	w5, #0x1
  1077a0: 7a4108e0     	ccmp	w7, #0x1, #0x0, eq
  1077a4: 1a9f17e0     	cset	w0, eq
  1077a8: d65f03c0     	ret
  1077ac: d2800580     	mov	x0, #0x2c               // =44
  1077b0: f2a64fa0     	movk	x0, #0x327d, lsl #16
  1077b4: b9400000     	ldr	w0, [x0]
  1077b8: 121e0000     	and	w0, w0, #0x4
  1077bc: 7100001f     	cmp	w0, #0x0
  1077c0: 1a9f17e0     	cset	w0, eq
  1077c4: d65f03c0     	ret
  1077c8: 53185c00     	lsl	w0, w0, #8
  1077cc: d0fff7e1     	adrp	x1, 0x5000
  1077d0: b9002820     	str	w0, [x1, #0x28]
  1077d4: d65f03c0     	ret
  1077d8: d2800081     	mov	x1, #0x4                // =4
  1077dc: f2a64fa1     	movk	x1, #0x327d, lsl #16
  1077e0: b9400020     	ldr	w0, [x1]
  1077e4: 32130000     	orr	w0, w0, #0x2000
  1077e8: b9000020     	str	w0, [x1]
  1077ec: d2806201     	mov	x1, #0x310              // =784
  1077f0: f2a64101     	movk	x1, #0x3208, lsl #16
  1077f4: b9400020     	ldr	w0, [x1]
  1077f8: 121d7000     	and	w0, w0, #0xfffffff8
  1077fc: 32000400     	orr	w0, w0, #0x3
  107800: b9000020     	str	w0, [x1]
  107804: d2804401     	mov	x1, #0x220              // =544
  107808: f2a64101     	movk	x1, #0x3208, lsl #16
  10780c: b9400020     	ldr	w0, [x1]
  107810: 32000800     	orr	w0, w0, #0x7
  107814: b9000020     	str	w0, [x1]
  107818: 91034021     	add	x1, x1, #0xd0
  10781c: b9400020     	ldr	w0, [x1]
  107820: 121e7400     	and	w0, w0, #0xfffffffc
  107824: 321f0000     	orr	w0, w0, #0x2
  107828: b9000020     	str	w0, [x1]
  10782c: d2800780     	mov	x0, #0x3c               // =60
  107830: f2a65100     	movk	x0, #0x3288, lsl #16
  107834: b9400001     	ldr	w1, [x0]
  107838: 12017021     	and	w1, w1, #0x8fffffff
  10783c: 32040421     	orr	w1, w1, #0x30000000
  107840: b9000001     	str	w1, [x0]
  107844: b9400001     	ldr	w1, [x0]
  107848: 12067421     	and	w1, w1, #0xfcffffff
  10784c: 32070021     	orr	w1, w1, #0x2000000
  107850: b9000001     	str	w1, [x0]
  107854: b9400001     	ldr	w1, [x0]
  107858: 12097021     	and	w1, w1, #0xff8fffff
  10785c: 320c0421     	orr	w1, w1, #0x300000
  107860: b9000001     	str	w1, [x0]
  107864: b9400001     	ldr	w1, [x0]
  107868: 32100421     	orr	w1, w1, #0x30000
  10786c: b9000001     	str	w1, [x0]
  107870: d2800700     	mov	x0, #0x38               // =56
  107874: f2a65100     	movk	x0, #0x3288, lsl #16
  107878: b9400001     	ldr	w1, [x0]
  10787c: 12197021     	and	w1, w1, #0xffffff8f
  107880: 321b0021     	orr	w1, w1, #0x20
  107884: b9000001     	str	w1, [x0]
  107888: b9400001     	ldr	w1, [x0]
  10788c: 121d7021     	and	w1, w1, #0xfffffff8
  107890: 32000021     	orr	w1, w1, #0x1
  107894: b9000001     	str	w1, [x0]
  107898: b9400001     	ldr	w1, [x0]
  10789c: 12117021     	and	w1, w1, #0xffff8fff
  1078a0: b9000001     	str	w1, [x0]
  1078a4: d2800581     	mov	x1, #0x2c               // =44
  1078a8: f2a65101     	movk	x1, #0x3288, lsl #16
  1078ac: b9400020     	ldr	w0, [x1]
  1078b0: 12197000     	and	w0, w0, #0xffffff8f
  1078b4: 321b0000     	orr	w0, w0, #0x20
  1078b8: b9000020     	str	w0, [x1]
  1078bc: b9400020     	ldr	w0, [x1]
  1078c0: 121d7000     	and	w0, w0, #0xfffffff8
  1078c4: 321f0000     	orr	w0, w0, #0x2
  1078c8: b9000020     	str	w0, [x1]
  1078cc: d65f03c0     	ret
  1078d0: 340001a0     	cbz	w0, 0x107904 <_binary_BootROM_ums512_0x100000_0x111FFF_bin_start+0x7904>
  1078d4: 90000001     	adrp	x1, 0x107000 <_binary_BootROM_ums512_0x100000_0x111FFF_bin_start+0x7000>
  1078d8: 91254021     	add	x1, x1, #0x950
  1078dc: 91004021     	add	x1, x1, #0x10
  1078e0: 52800022     	mov	w2, #0x1                // =1
  1078e4: 39400023     	ldrb	w3, [x1]
  1078e8: 6b00007f     	cmp	w3, w0
  1078ec: 540000e0     	b.eq	0x107908 <_binary_BootROM_ums512_0x100000_0x111FFF_bin_start+0x7908>
  1078f0: 11000442     	add	w2, w2, #0x1
  1078f4: 91004021     	add	x1, x1, #0x10
  1078f8: 7100845f     	cmp	w2, #0x21
  1078fc: 54ffff41     	b.ne	0x1078e4 <_binary_BootROM_ums512_0x100000_0x111FFF_bin_start+0x78e4>
  107900: d65f03c0     	ret
  107904: 52800002     	mov	w2, #0x0                // =0
  107908: a9bf7bfd     	stp	x29, x30, [sp, #-0x10]!
  10790c: 910003fd     	mov	x29, sp
  107910: d37c7c42     	ubfiz	x2, x2, #4, #32
  107914: 90000000     	adrp	x0, 0x107000 <_binary_BootROM_ums512_0x100000_0x111FFF_bin_start+0x7000>
  107918: 91254000     	add	x0, x0, #0x950
  10791c: 8b020000     	add	x0, x0, x2
  107920: 52800062     	mov	w2, #0x3                // =3
  107924: f9400401     	ldr	x1, [x0, #0x8]
  107928: 52ae0200     	mov	w0, #0x70100000         // =1880096768
  10792c: 97fff4c4     	bl	0x104c3c <_binary_BootROM_ums512_0x100000_0x111FFF_bin_start+0x4c3c>
  107930: 52800042     	mov	w2, #0x2                // =2
  107934: 90000001     	adrp	x1, 0x107000 <_binary_BootROM_ums512_0x100000_0x111FFF_bin_start+0x7000>
  107938: 912d8021     	add	x1, x1, #0xb60
  10793c: 52ae0200     	mov	w0, #0x70100000         // =1880096768
  107940: 97fff4bf     	bl	0x104c3c <_binary_BootROM_ums512_0x100000_0x111FFF_bin_start+0x4c3c>
  107944: a8c17bfd     	ldp	x29, x30, [sp], #0x10
  107948: d65f03c0     	ret
		...
  107958: 00107b68     	<unknown>
  10795c: 00000000     	udf	#0x0
  107960: 00000001     	udf	#0x1
  107964: 00000000     	udf	#0x0
  107968: 00107b70     	<unknown>
  10796c: 00000000     	udf	#0x0
  107970: 00000002     	udf	#0x2
  107974: 00000000     	udf	#0x0
  107978: 00107b78     	<unknown>
  10797c: 00000000     	udf	#0x0
  107980: 00000003     	udf	#0x3
  107984: 00000000     	udf	#0x0
  107988: 00107b80     	<unknown>
  10798c: 00000000     	udf	#0x0
  107990: 00000004     	udf	#0x4
  107994: 00000000     	udf	#0x0
  107998: 00107b88     	<unknown>
  10799c: 00000000     	udf	#0x0
  1079a0: 00000005     	udf	#0x5
  1079a4: 00000000     	udf	#0x0
  1079a8: 00107b90     	<unknown>
  1079ac: 00000000     	udf	#0x0
  1079b0: 00000006     	udf	#0x6
  1079b4: 00000000     	udf	#0x0
  1079b8: 00107b98     	<unknown>
  1079bc: 00000000     	udf	#0x0
  1079c0: 00000007     	udf	#0x7
  1079c4: 00000000     	udf	#0x0
  1079c8: 00107ba0     	<unknown>
  1079cc: 00000000     	udf	#0x0
  1079d0: 00000008     	udf	#0x8
  1079d4: 00000000     	udf	#0x0
  1079d8: 00107ba8     	<unknown>
  1079dc: 00000000     	udf	#0x0
  1079e0: 00000009     	udf	#0x9
  1079e4: 00000000     	udf	#0x0
  1079e8: 00107bb0     	<unknown>
  1079ec: 00000000     	udf	#0x0
  1079f0: 0000000a     	udf	#0xa
  1079f4: 00000000     	udf	#0x0
  1079f8: 00107bb8     	<unknown>
  1079fc: 00000000     	udf	#0x0
  107a00: 0000000b     	udf	#0xb
  107a04: 00000000     	udf	#0x0
  107a08: 00107bc0     	<unknown>
  107a0c: 00000000     	udf	#0x0
  107a10: 0000000c     	udf	#0xc
  107a14: 00000000     	udf	#0x0
  107a18: 00107bc8     	<unknown>
  107a1c: 00000000     	udf	#0x0
  107a20: 0000000d     	udf	#0xd
  107a24: 00000000     	udf	#0x0
  107a28: 00107bd0     	<unknown>
  107a2c: 00000000     	udf	#0x0
  107a30: 0000000e     	udf	#0xe
  107a34: 00000000     	udf	#0x0
  107a38: 00107bd8     	<unknown>
  107a3c: 00000000     	udf	#0x0
  107a40: 0000000f     	udf	#0xf
  107a44: 00000000     	udf	#0x0
  107a48: 00107be0     	<unknown>
  107a4c: 00000000     	udf	#0x0
  107a50: 00000010     	udf	#0x10
  107a54: 00000000     	udf	#0x0
  107a58: 00107be8     	<unknown>
  107a5c: 00000000     	udf	#0x0
  107a60: 00000011     	udf	#0x11
  107a64: 00000000     	udf	#0x0
  107a68: 00107bf0     	<unknown>
  107a6c: 00000000     	udf	#0x0
  107a70: 00000012     	udf	#0x12
  107a74: 00000000     	udf	#0x0
  107a78: 00107bf8     	<unknown>
  107a7c: 00000000     	udf	#0x0
  107a80: 00000013     	udf	#0x13
  107a84: 00000000     	udf	#0x0
  107a88: 00107c00     	<unknown>
  107a8c: 00000000     	udf	#0x0
  107a90: 00000014     	udf	#0x14
  107a94: 00000000     	udf	#0x0
  107a98: 00107c08     	<unknown>
  107a9c: 00000000     	udf	#0x0
  107aa0: 00000015     	udf	#0x15
  107aa4: 00000000     	udf	#0x0
  107aa8: 00107c10     	<unknown>
  107aac: 00000000     	udf	#0x0
  107ab0: 00000016     	udf	#0x16
  107ab4: 00000000     	udf	#0x0
  107ab8: 00107c18     	<unknown>
  107abc: 00000000     	udf	#0x0
  107ac0: 00000017     	udf	#0x17
  107ac4: 00000000     	udf	#0x0
  107ac8: 00107c20     	<unknown>
  107acc: 00000000     	udf	#0x0
  107ad0: 00000018     	udf	#0x18
  107ad4: 00000000     	udf	#0x0
  107ad8: 00107c28     	<unknown>
  107adc: 00000000     	udf	#0x0
  107ae0: 00000019     	udf	#0x19
  107ae4: 00000000     	udf	#0x0
  107ae8: 00107c30     	<unknown>
  107aec: 00000000     	udf	#0x0
  107af0: 0000001a     	udf	#0x1a
  107af4: 00000000     	udf	#0x0
  107af8: 00107c38     	<unknown>
  107afc: 00000000     	udf	#0x0
  107b00: 0000001b     	udf	#0x1b
  107b04: 00000000     	udf	#0x0
  107b08: 00107c40     	<unknown>
  107b0c: 00000000     	udf	#0x0
  107b10: 0000001c     	udf	#0x1c
  107b14: 00000000     	udf	#0x0
  107b18: 00107c48     	<unknown>
  107b1c: 00000000     	udf	#0x0
  107b20: 0000001d     	udf	#0x1d
  107b24: 00000000     	udf	#0x0
  107b28: 00107c50     	<unknown>
  107b2c: 00000000     	udf	#0x0
  107b30: 0000001e     	udf	#0x1e
  107b34: 00000000     	udf	#0x0
  107b38: 00107c58     	<unknown>
  107b3c: 00000000     	udf	#0x0
  107b40: 0000001f     	udf	#0x1f
  107b44: 00000000     	udf	#0x0
  107b48: 00107c60     	<unknown>
  107b4c: 00000000     	udf	#0x0
  107b50: 00000020     	udf	#0x20
  107b54: 00000000     	udf	#0x0
  107b58: 00107c68     	<unknown>
  107b5c: 00000000     	udf	#0x0
  107b60: 00000a0d     	udf	#0xa0d
  107b64: 00000000     	udf	#0x0
  107b68: 00444255     	<unknown>
  107b6c: 00000000     	udf	#0x0
  107b70: 00544255     	<unknown>
  107b74: 00000000     	udf	#0x0
  107b78: 00454255     	<unknown>
  107b7c: 00000000     	udf	#0x0
  107b80: 00535348     	<unknown>
  107b84: 00000000     	udf	#0x0
  107b88: 00465348     	<unknown>
  107b8c: 00000000     	udf	#0x0
  107b90: 00534945     	<unknown>
  107b94: 00000000     	udf	#0x0
  107b98: 00464945     	<unknown>
  107b9c: 00000000     	udf	#0x0
  107ba0: 00565245     	<unknown>
  107ba4: 00000000     	udf	#0x0
  107ba8: 00465245     	<unknown>
  107bac: 00000000     	udf	#0x0
  107bb0: 00464345     	<unknown>
  107bb4: 00000000     	udf	#0x0
  107bb8: 00535245     	<unknown>
  107bbc: 00000000     	udf	#0x0
  107bc0: 004d4f52     	<unknown>
  107bc4: 00000000     	udf	#0x0
  107bc8: 00464953     	<unknown>
  107bcc: 00000000     	udf	#0x0
  107bd0: 00534953     	<unknown>
  107bd4: 00000000     	udf	#0x0
  107bd8: 00465253     	<unknown>
  107bdc: 00000000     	udf	#0x0
  107be0: 00535253     	<unknown>
  107be4: 00000000     	udf	#0x0
  107be8: 00464353     	<unknown>
  107bec: 00000000     	udf	#0x0
  107bf0: 00534353     	<unknown>
  107bf4: 00000000     	udf	#0x0
  107bf8: 00464955     	<unknown>
  107bfc: 00000000     	udf	#0x0
  107c00: 00534955     	<unknown>
  107c04: 00000000     	udf	#0x0
  107c08: 00535255     	<unknown>
  107c0c: 00000000     	udf	#0x0
  107c10: 00465255     	<unknown>
  107c14: 00000000     	udf	#0x0
  107c18: 004c4543     	<unknown>
  107c1c: 00000000     	udf	#0x0
  107c20: 00464c42     	<unknown>
  107c24: 00000000     	udf	#0x0
  107c28: 00464453     	<unknown>
  107c2c: 00000000     	udf	#0x0
  107c30: 00474443     	<unknown>
  107c34: 00000000     	udf	#0x0
  107c38: 00534252     	<unknown>
  107c3c: 00000000     	udf	#0x0
  107c40: 00464552     	<unknown>
  107c44: 00000000     	udf	#0x0
  107c48: 00444145     	<unknown>
  107c4c: 00000000     	udf	#0x0
  107c50: 004b504e     	<unknown>
  107c54: 00000000     	udf	#0x0
  107c58: 00454253     	<unknown>
  107c5c: 00000000     	udf	#0x0
  107c60: 00464253     	<unknown>
  107c64: 00000000     	udf	#0x0
  107c68: 00454453     	<unknown>
  107c6c: 00000000     	udf	#0x0
  107c70: a9be7bfd     	stp	x29, x30, [sp, #-0x20]!
  107c74: 910003fd     	mov	x29, sp
  107c78: f9000bf3     	str	x19, [sp, #0x10]
  107c7c: aa0003f3     	mov	x19, x0
  107c80: d2c00020     	mov	x0, #0x100000000        // =4294967296
  107c84: 97fffdee     	bl	0x10743c <_binary_BootROM_ums512_0x100000_0x111FFF_bin_start+0x743c>
  107c88: b0fff7e0     	adrp	x0, 0x4000
  107c8c: 91114000     	add	x0, x0, #0x450
  107c90: a9007c1f     	stp	xzr, xzr, [x0]
  107c94: a9017c1f     	stp	xzr, xzr, [x0, #0x10]
  107c98: a9027c1f     	stp	xzr, xzr, [x0, #0x20]
  107c9c: a9037c1f     	stp	xzr, xzr, [x0, #0x30]
  107ca0: a9047c1f     	stp	xzr, xzr, [x0, #0x40]
  107ca4: a9057c1f     	stp	xzr, xzr, [x0, #0x50]
  107ca8: a9067c1f     	stp	xzr, xzr, [x0, #0x60]
  107cac: a9077c1f     	stp	xzr, xzr, [x0, #0x70]
  107cb0: a9087c1f     	stp	xzr, xzr, [x0, #0x80]
  107cb4: 97fff432     	bl	0x104d7c <_binary_BootROM_ums512_0x100000_0x111FFF_bin_start+0x4d7c>
  107cb8: 35000740     	cbnz	w0, 0x107da0 <_binary_BootROM_ums512_0x100000_0x111FFF_bin_start+0x7da0>
  107cbc: b0fff7e0     	adrp	x0, 0x4000
  107cc0: b9446800     	ldr	w0, [x0, #0x468]
  107cc4: 37000080     	tbnz	w0, #0x0, 0x107cd4 <_binary_BootROM_ums512_0x100000_0x111FFF_bin_start+0x7cd4>
  107cc8: 97fffd84     	bl	0x1072d8 <_binary_BootROM_ums512_0x100000_0x111FFF_bin_start+0x72d8>
  107ccc: 7100041f     	cmp	w0, #0x1
  107cd0: 54000200     	b.eq	0x107d10 <_binary_BootROM_ums512_0x100000_0x111FFF_bin_start+0x7d10>
  107cd4: 52800380     	mov	w0, #0x1c               // =28
  107cd8: 97fffefe     	bl	0x1078d0 <_binary_BootROM_ums512_0x100000_0x111FFF_bin_start+0x78d0>
  107cdc: 92800000     	mov	x0, #-0x1               // =-1
  107ce0: 94000275     	bl	0x1086b4 <_binary_BootROM_ums512_0x100000_0x111FFF_bin_start+0x86b4>
  107ce4: 97fffd7d     	bl	0x1072d8 <_binary_BootROM_ums512_0x100000_0x111FFF_bin_start+0x72d8>
  107ce8: 7100041f     	cmp	w0, #0x1
  107cec: 540004a0     	b.eq	0x107d80 <_binary_BootROM_ums512_0x100000_0x111FFF_bin_start+0x7d80>
  107cf0: d2f00000     	mov	x0, #-0x8000000000000000 // =-9223372036854775808
  107cf4: 97fffdd2     	bl	0x10743c <_binary_BootROM_ums512_0x100000_0x111FFF_bin_start+0x743c>
  107cf8: 52800340     	mov	w0, #0x1a               // =26
  107cfc: 97fffef5     	bl	0x1078d0 <_binary_BootROM_ums512_0x100000_0x111FFF_bin_start+0x78d0>
  107d00: 97fff712     	bl	0x105948 <_binary_BootROM_ums512_0x100000_0x111FFF_bin_start+0x5948>
  107d04: 11080260     	add	w0, w19, #0x200
  107d08: 97ffe119     	bl	0x10016c <_binary_BootROM_ums512_0x100000_0x111FFF_bin_start+0x16c>
  107d0c: 14000029     	b	0x107db0 <_binary_BootROM_ums512_0x100000_0x111FFF_bin_start+0x7db0>
  107d10: 97fffe4a     	bl	0x107638 <_binary_BootROM_ums512_0x100000_0x111FFF_bin_start+0x7638>
  107d14: 7100041f     	cmp	w0, #0x1
  107d18: 54000080     	b.eq	0x107d28 <_binary_BootROM_ums512_0x100000_0x111FFF_bin_start+0x7d28>
  107d1c: 92800000     	mov	x0, #-0x1               // =-1
  107d20: 94000265     	bl	0x1086b4 <_binary_BootROM_ums512_0x100000_0x111FFF_bin_start+0x86b4>
  107d24: 17fffff3     	b	0x107cf0 <_binary_BootROM_ums512_0x100000_0x111FFF_bin_start+0x7cf0>
  107d28: aa1303e0     	mov	x0, x19
  107d2c: 9400017a     	bl	0x108314 <_binary_BootROM_ums512_0x100000_0x111FFF_bin_start+0x8314>
  107d30: 7100041f     	cmp	w0, #0x1
  107d34: 540000c0     	b.eq	0x107d4c <_binary_BootROM_ums512_0x100000_0x111FFF_bin_start+0x7d4c>
  107d38: d2c00800     	mov	x0, #0x4000000000       // =274877906944
  107d3c: 97fffdc0     	bl	0x10743c <_binary_BootROM_ums512_0x100000_0x111FFF_bin_start+0x743c>
  107d40: 528003e0     	mov	w0, #0x1f               // =31
  107d44: 97fffee3     	bl	0x1078d0 <_binary_BootROM_ums512_0x100000_0x111FFF_bin_start+0x78d0>
  107d48: 1400001a     	b	0x107db0 <_binary_BootROM_ums512_0x100000_0x111FFF_bin_start+0x7db0>
  107d4c: 97fffd94     	bl	0x10739c <_binary_BootROM_ums512_0x100000_0x111FFF_bin_start+0x739c>
  107d50: 7100041f     	cmp	w0, #0x1
  107d54: 54fffce1     	b.ne	0x107cf0 <_binary_BootROM_ums512_0x100000_0x111FFF_bin_start+0x7cf0>
  107d58: aa1303e0     	mov	x0, x19
  107d5c: 94000273     	bl	0x108728 <_binary_BootROM_ums512_0x100000_0x111FFF_bin_start+0x8728>
  107d60: 35fffc80     	cbnz	w0, 0x107cf0 <_binary_BootROM_ums512_0x100000_0x111FFF_bin_start+0x7cf0>
  107d64: 52800300     	mov	w0, #0x18               // =24
  107d68: 97fffeda     	bl	0x1078d0 <_binary_BootROM_ums512_0x100000_0x111FFF_bin_start+0x78d0>
  107d6c: d2c04000     	mov	x0, #0x20000000000      // =2199023255552
  107d70: 97fffdb3     	bl	0x10743c <_binary_BootROM_ums512_0x100000_0x111FFF_bin_start+0x743c>
  107d74: d2800000     	mov	x0, #0x0                // =0
  107d78: 9400024f     	bl	0x1086b4 <_binary_BootROM_ums512_0x100000_0x111FFF_bin_start+0x86b4>
  107d7c: 17ffffdd     	b	0x107cf0 <_binary_BootROM_ums512_0x100000_0x111FFF_bin_start+0x7cf0>
  107d80: 97fffe2e     	bl	0x107638 <_binary_BootROM_ums512_0x100000_0x111FFF_bin_start+0x7638>
  107d84: 7100041f     	cmp	w0, #0x1
  107d88: 54fffb41     	b.ne	0x107cf0 <_binary_BootROM_ums512_0x100000_0x111FFF_bin_start+0x7cf0>
  107d8c: aa1303e0     	mov	x0, x19
  107d90: 94000161     	bl	0x108314 <_binary_BootROM_ums512_0x100000_0x111FFF_bin_start+0x8314>
  107d94: 7100041f     	cmp	w0, #0x1
  107d98: 540000c1     	b.ne	0x107db0 <_binary_BootROM_ums512_0x100000_0x111FFF_bin_start+0x7db0>
  107d9c: 17ffffd5     	b	0x107cf0 <_binary_BootROM_ums512_0x100000_0x111FFF_bin_start+0x7cf0>
  107da0: 52800360     	mov	w0, #0x1b               // =27
  107da4: 97fffecb     	bl	0x1078d0 <_binary_BootROM_ums512_0x100000_0x111FFF_bin_start+0x78d0>
  107da8: d2800800     	mov	x0, #0x40               // =64
  107dac: 97fffda4     	bl	0x10743c <_binary_BootROM_ums512_0x100000_0x111FFF_bin_start+0x743c>
  107db0: f9400bf3     	ldr	x19, [sp, #0x10]
  107db4: a8c27bfd     	ldp	x29, x30, [sp], #0x20
  107db8: d65f03c0     	ret
  107dbc: a9bf7bfd     	stp	x29, x30, [sp, #-0x10]!
  107dc0: 910003fd     	mov	x29, sp
  107dc4: d2802000     	mov	x0, #0x100              // =256
  107dc8: f2a07e00     	movk	x0, #0x3f0, lsl #16
  107dcc: 97fffe55     	bl	0x107720 <_binary_BootROM_ums512_0x100000_0x111FFF_bin_start+0x7720>
  107dd0: 97ffe96f     	bl	0x10238c <_binary_BootROM_ums512_0x100000_0x111FFF_bin_start+0x238c>
  107dd4: d2804602     	mov	x2, #0x230              // =560
  107dd8: f2a64102     	movk	x2, #0x3208, lsl #16
  107ddc: b9400041     	ldr	w1, [x2]
  107de0: 32000021     	orr	w1, w1, #0x1
  107de4: b9000041     	str	w1, [x2]
  107de8: 7100041f     	cmp	w0, #0x1
  107dec: 54000060     	b.eq	0x107df8 <_binary_BootROM_ums512_0x100000_0x111FFF_bin_start+0x7df8>
  107df0: a8c17bfd     	ldp	x29, x30, [sp], #0x10
  107df4: d65f03c0     	ret
  107df8: d2dfffe0     	mov	x0, #0xffff00000000     // =281470681743360
  107dfc: 97fffe49     	bl	0x107720 <_binary_BootROM_ums512_0x100000_0x111FFF_bin_start+0x7720>
  107e00: d28aa000     	mov	x0, #0x5500             // =21760
  107e04: 97ffff9b     	bl	0x107c70 <_binary_BootROM_ums512_0x100000_0x111FFF_bin_start+0x7c70>
  107e08: 14000000     	b	0x107e08 <_binary_BootROM_ums512_0x100000_0x111FFF_bin_start+0x7e08>
  107e0c: a9bf7bfd     	stp	x29, x30, [sp, #-0x10]!
  107e10: 910003fd     	mov	x29, sp
  107e14: 97ffe95e     	bl	0x10238c <_binary_BootROM_ums512_0x100000_0x111FFF_bin_start+0x238c>
  107e18: 7100041f     	cmp	w0, #0x1
  107e1c: 540000e0     	b.eq	0x107e38 <_binary_BootROM_ums512_0x100000_0x111FFF_bin_start+0x7e38>
  107e20: b0fff7e0     	adrp	x0, 0x4000
  107e24: b904181f     	str	wzr, [x0, #0x418]
  107e28: 52800020     	mov	w0, #0x1                // =1
  107e2c: 97fff12e     	bl	0x1042e4 <_binary_BootROM_ums512_0x100000_0x111FFF_bin_start+0x42e4>
  107e30: a8c17bfd     	ldp	x29, x30, [sp], #0x10
  107e34: d65f03c0     	ret
  107e38: d2dfffe0     	mov	x0, #0xffff00000000     // =281470681743360
  107e3c: 97fffe39     	bl	0x107720 <_binary_BootROM_ums512_0x100000_0x111FFF_bin_start+0x7720>
  107e40: d28aa000     	mov	x0, #0x5500             // =21760
  107e44: 97ffff8b     	bl	0x107c70 <_binary_BootROM_ums512_0x100000_0x111FFF_bin_start+0x7c70>
  107e48: 17fffffa     	b	0x107e30 <_binary_BootROM_ums512_0x100000_0x111FFF_bin_start+0x7e30>
  107e4c: a9bb7bfd     	stp	x29, x30, [sp, #-0x50]!
  107e50: 910003fd     	mov	x29, sp
  107e54: a90153f3     	stp	x19, x20, [sp, #0x10]
  107e58: a9025bf5     	stp	x21, x22, [sp, #0x20]
  107e5c: a90363f7     	stp	x23, x24, [sp, #0x30]
  107e60: f90023f9     	str	x25, [sp, #0x40]
  107e64: 52800013     	mov	w19, #0x0               // =0
  107e68: d29ee016     	mov	x22, #0xf700            // =63232
  107e6c: f2a00076     	movk	x22, #0x3, lsl #16
  107e70: d2804615     	mov	x21, #0x230             // =560
  107e74: f2a64115     	movk	x21, #0x3208, lsl #16
  107e78: 52800179     	mov	w25, #0xb               // =11
  107e7c: d2dffff8     	mov	x24, #0xffff00000000    // =281470681743360
  107e80: d28aa017     	mov	x23, #0x5500            // =21760
  107e84: aa1603e0     	mov	x0, x22
  107e88: 97fffe26     	bl	0x107720 <_binary_BootROM_ums512_0x100000_0x111FFF_bin_start+0x7720>
  107e8c: 2a1303e0     	mov	w0, w19
  107e90: 97ffe4b8     	bl	0x101170 <_binary_BootROM_ums512_0x100000_0x111FFF_bin_start+0x1170>
  107e94: 2a0003f4     	mov	w20, w0
  107e98: b94002a0     	ldr	w0, [x21]
  107e9c: 32000000     	orr	w0, w0, #0x1
  107ea0: b90002a0     	str	w0, [x21]
  107ea4: 7100069f     	cmp	w20, #0x1
  107ea8: 540001a0     	b.eq	0x107edc <_binary_BootROM_ums512_0x100000_0x111FFF_bin_start+0x7edc>
  107eac: 11000673     	add	w19, w19, #0x1
  107eb0: 71000a7f     	cmp	w19, #0x2
  107eb4: 54fffe81     	b.ne	0x107e84 <_binary_BootROM_ums512_0x100000_0x111FFF_bin_start+0x7e84>
  107eb8: 7100069f     	cmp	w20, #0x1
  107ebc: 54000040     	b.eq	0x107ec4 <_binary_BootROM_ums512_0x100000_0x111FFF_bin_start+0x7ec4>
  107ec0: 97ffffd3     	bl	0x107e0c <_binary_BootROM_ums512_0x100000_0x111FFF_bin_start+0x7e0c>
  107ec4: a94153f3     	ldp	x19, x20, [sp, #0x10]
  107ec8: a9425bf5     	ldp	x21, x22, [sp, #0x20]
  107ecc: a94363f7     	ldp	x23, x24, [sp, #0x30]
  107ed0: f94023f9     	ldr	x25, [sp, #0x40]
  107ed4: a8c57bfd     	ldp	x29, x30, [sp], #0x50
  107ed8: d65f03c0     	ret
  107edc: 2a1903e0     	mov	w0, w25
  107ee0: 97fffe7c     	bl	0x1078d0 <_binary_BootROM_ums512_0x100000_0x111FFF_bin_start+0x78d0>
  107ee4: aa1803e0     	mov	x0, x24
  107ee8: 97fffe0e     	bl	0x107720 <_binary_BootROM_ums512_0x100000_0x111FFF_bin_start+0x7720>
  107eec: aa1703e0     	mov	x0, x23
  107ef0: 97ffff60     	bl	0x107c70 <_binary_BootROM_ums512_0x100000_0x111FFF_bin_start+0x7c70>
  107ef4: 17ffffee     	b	0x107eac <_binary_BootROM_ums512_0x100000_0x111FFF_bin_start+0x7eac>
  107ef8: a9bf7bfd     	stp	x29, x30, [sp, #-0x10]!
  107efc: 910003fd     	mov	x29, sp
  107f00: d2a64fa1     	mov	x1, #0x327d0000         // =847052800
  107f04: b9400020     	ldr	w0, [x1]
  107f08: 321a0000     	orr	w0, w0, #0x40
  107f0c: b9000020     	str	w0, [x1]
  107f10: 91001021     	add	x1, x1, #0x4
  107f14: b9400020     	ldr	w0, [x1]
  107f18: 32130000     	orr	w0, w0, #0x2000
  107f1c: b9000020     	str	w0, [x1]
  107f20: d2804601     	mov	x1, #0x230              // =560
  107f24: f2a64101     	movk	x1, #0x3208, lsl #16
  107f28: b9400020     	ldr	w0, [x1]
  107f2c: 121b6800     	and	w0, w0, #0xffffffe0
  107f30: b9000020     	str	w0, [x1]
  107f34: 97fffd47     	bl	0x107450 <_binary_BootROM_ums512_0x100000_0x111FFF_bin_start+0x7450>
  107f38: 97fffcb1     	bl	0x1071fc <_binary_BootROM_ums512_0x100000_0x111FFF_bin_start+0x71fc>
  107f3c: 97fffdfe     	bl	0x107734 <_binary_BootROM_ums512_0x100000_0x111FFF_bin_start+0x7734>
  107f40: 7100041f     	cmp	w0, #0x1
  107f44: 540001e0     	b.eq	0x107f80 <_binary_BootROM_ums512_0x100000_0x111FFF_bin_start+0x7f80>
  107f48: b0fff7e0     	adrp	x0, 0x4000
  107f4c: 91106000     	add	x0, x0, #0x418
  107f50: 97fffcbc     	bl	0x107240 <_binary_BootROM_ums512_0x100000_0x111FFF_bin_start+0x7240>
  107f54: 7100041f     	cmp	w0, #0x1
  107f58: 54000180     	b.eq	0x107f88 <_binary_BootROM_ums512_0x100000_0x111FFF_bin_start+0x7f88>
  107f5c: 97fff19c     	bl	0x1045cc <_binary_BootROM_ums512_0x100000_0x111FFF_bin_start+0x45cc>
  107f60: 7100041f     	cmp	w0, #0x1
  107f64: 54000160     	b.eq	0x107f90 <_binary_BootROM_ums512_0x100000_0x111FFF_bin_start+0x7f90>
  107f68: 97fffe11     	bl	0x1077ac <_binary_BootROM_ums512_0x100000_0x111FFF_bin_start+0x77ac>
  107f6c: f0fff7c1     	adrp	x1, 0x2000
  107f70: 91012021     	add	x1, x1, #0x48
  107f74: f8605820     	ldr	x0, [x1, w0, uxtw #3]
  107f78: d63f0000     	blr	x0
  107f7c: 14000000     	b	0x107f7c <_binary_BootROM_ums512_0x100000_0x111FFF_bin_start+0x7f7c>
  107f80: 97ffff8f     	bl	0x107dbc <_binary_BootROM_ums512_0x100000_0x111FFF_bin_start+0x7dbc>
  107f84: 17fffff9     	b	0x107f68 <_binary_BootROM_ums512_0x100000_0x111FFF_bin_start+0x7f68>
  107f88: 97fff0d7     	bl	0x1042e4 <_binary_BootROM_ums512_0x100000_0x111FFF_bin_start+0x42e4>
  107f8c: 17fffff7     	b	0x107f68 <_binary_BootROM_ums512_0x100000_0x111FFF_bin_start+0x7f68>
  107f90: 97fff201     	bl	0x104794 <_binary_BootROM_ums512_0x100000_0x111FFF_bin_start+0x4794>
  107f94: 17fffff5     	b	0x107f68 <_binary_BootROM_ums512_0x100000_0x111FFF_bin_start+0x7f68>
  107f98: a9be7bfd     	stp	x29, x30, [sp, #-0x20]!
  107f9c: 910003fd     	mov	x29, sp
  107fa0: a90153f3     	stp	x19, x20, [sp, #0x10]
  107fa4: aa0203f4     	mov	x20, x2
  107fa8: f0fff7d3     	adrp	x19, 0x2000
  107fac: 9125a273     	add	x19, x19, #0x968
  107fb0: a9007e7f     	stp	xzr, xzr, [x19]
  107fb4: a9017e7f     	stp	xzr, xzr, [x19, #0x10]
  107fb8: aa1303e2     	mov	x2, x19
  107fbc: 97fff699     	bl	0x105a20 <_binary_BootROM_ums512_0x100000_0x111FFF_bin_start+0x5a20>
  107fc0: 52800402     	mov	w2, #0x20               // =32
  107fc4: aa1303e1     	mov	x1, x19
  107fc8: aa1403e0     	mov	x0, x20
  107fcc: 97fffc3d     	bl	0x1070c0 <_binary_BootROM_ums512_0x100000_0x111FFF_bin_start+0x70c0>
  107fd0: a94153f3     	ldp	x19, x20, [sp, #0x10]
  107fd4: a8c27bfd     	ldp	x29, x30, [sp], #0x20
  107fd8: d65f03c0     	ret
  107fdc: a9bb7bfd     	stp	x29, x30, [sp, #-0x50]!
  107fe0: 910003fd     	mov	x29, sp
  107fe4: a90153f3     	stp	x19, x20, [sp, #0x10]
  107fe8: a9025bf5     	stp	x21, x22, [sp, #0x20]
  107fec: a90363f7     	stp	x23, x24, [sp, #0x30]
  107ff0: f90023f9     	str	x25, [sp, #0x40]
  107ff4: aa0003f5     	mov	x21, x0
  107ff8: aa0103f7     	mov	x23, x1
  107ffc: 2a0203f8     	mov	w24, w2
  108000: aa0303f9     	mov	x25, x3
  108004: aa0403f6     	mov	x22, x4
  108008: d0fff7d3     	adrp	x19, 0x2000
  10800c: 9125a273     	add	x19, x19, #0x968
  108010: 91008273     	add	x19, x19, #0x20
  108014: d2802014     	mov	x20, #0x100             // =256
  108018: aa1403e2     	mov	x2, x20
  10801c: 52800001     	mov	w1, #0x0                // =0
  108020: aa1303e0     	mov	x0, x19
  108024: 94000309     	bl	0x108c48 <_binary_BootROM_ums512_0x100000_0x111FFF_bin_start+0x8c48>
  108028: aa1303e4     	mov	x4, x19
  10802c: aa1903e3     	mov	x3, x25
  108030: 2a1803e2     	mov	w2, w24
  108034: aa1703e1     	mov	x1, x23
  108038: aa1503e0     	mov	x0, x21
  10803c: 97fff66c     	bl	0x1059ec <_binary_BootROM_ums512_0x100000_0x111FFF_bin_start+0x59ec>
  108040: 2a0003f5     	mov	w21, w0
  108044: 2a1403e2     	mov	w2, w20
  108048: aa1303e1     	mov	x1, x19
  10804c: aa1603e0     	mov	x0, x22
  108050: 97fffc1c     	bl	0x1070c0 <_binary_BootROM_ums512_0x100000_0x111FFF_bin_start+0x70c0>
  108054: 2a1503e0     	mov	w0, w21
  108058: a94153f3     	ldp	x19, x20, [sp, #0x10]
  10805c: a9425bf5     	ldp	x21, x22, [sp, #0x20]
  108060: a94363f7     	ldp	x23, x24, [sp, #0x30]
  108064: f94023f9     	ldr	x25, [sp, #0x40]
  108068: a8c57bfd     	ldp	x29, x30, [sp], #0x50
  10806c: d65f03c0     	ret
  108070: a9bd7bfd     	stp	x29, x30, [sp, #-0x30]!
  108074: 910003fd     	mov	x29, sp
  108078: a90153f3     	stp	x19, x20, [sp, #0x10]
  10807c: f90013f5     	str	x21, [sp, #0x20]
  108080: aa0303f5     	mov	x21, x3
  108084: d0fff7d3     	adrp	x19, 0x2000
  108088: 9125a273     	add	x19, x19, #0x968
  10808c: 91048273     	add	x19, x19, #0x120
  108090: a9007e7f     	stp	xzr, xzr, [x19]
  108094: aa1303e3     	mov	x3, x19
  108098: 12001c42     	and	w2, w2, #0xff
  10809c: 97fff686     	bl	0x105ab4 <_binary_BootROM_ums512_0x100000_0x111FFF_bin_start+0x5ab4>
  1080a0: 2a0003f4     	mov	w20, w0
  1080a4: 52800402     	mov	w2, #0x20               // =32
  1080a8: aa1303e1     	mov	x1, x19
  1080ac: aa1503e0     	mov	x0, x21
  1080b0: 97fffc04     	bl	0x1070c0 <_binary_BootROM_ums512_0x100000_0x111FFF_bin_start+0x70c0>
  1080b4: 2a1403e0     	mov	w0, w20
  1080b8: a94153f3     	ldp	x19, x20, [sp, #0x10]
  1080bc: f94013f5     	ldr	x21, [sp, #0x20]
  1080c0: a8c37bfd     	ldp	x29, x30, [sp], #0x30
  1080c4: d65f03c0     	ret
  1080c8: d10643ff     	sub	sp, sp, #0x190
  1080cc: a9017bfd     	stp	x29, x30, [sp, #0x10]
  1080d0: 910043fd     	add	x29, sp, #0x10
  1080d4: a90253f3     	stp	x19, x20, [sp, #0x20]
  1080d8: a9035bf5     	stp	x21, x22, [sp, #0x30]
  1080dc: aa0003f6     	mov	x22, x0
  1080e0: aa0103f5     	mov	x21, x1
  1080e4: aa0203f3     	mov	x19, x2
  1080e8: 39400054     	ldrb	w20, [x2]
  1080ec: d2802002     	mov	x2, #0x100              // =256
  1080f0: 52800001     	mov	w1, #0x0                // =0
  1080f4: 9101e3a0     	add	x0, x29, #0x78
  1080f8: 940002d4     	bl	0x108c48 <_binary_BootROM_ums512_0x100000_0x111FFF_bin_start+0x8c48>
  1080fc: a905ffbf     	stp	xzr, xzr, [x29, #0x58]
  108100: a906ffbf     	stp	xzr, xzr, [x29, #0x68]
  108104: 7100069f     	cmp	w20, #0x1
  108108: 54000129     	b.ls	0x10812c <_binary_BootROM_ums512_0x100000_0x111FFF_bin_start+0x812c>
  10810c: d2c00200     	mov	x0, #0x1000000000       // =68719476736
  108110: 97fffccb     	bl	0x10743c <_binary_BootROM_ums512_0x100000_0x111FFF_bin_start+0x743c>
  108114: 52800000     	mov	w0, #0x0                // =0
  108118: a94253f3     	ldp	x19, x20, [sp, #0x20]
  10811c: a9435bf5     	ldp	x21, x22, [sp, #0x30]
  108120: a9417bfd     	ldp	x29, x30, [sp, #0x10]
  108124: 910643ff     	add	sp, sp, #0x190
  108128: d65f03c0     	ret
  10812c: 540001a0     	b.eq	0x108160 <_binary_BootROM_ums512_0x100000_0x111FFF_bin_start+0x8160>
  108130: b9412e60     	ldr	w0, [x19, #0x12c]
  108134: 7100041f     	cmp	w0, #0x1
  108138: 540000c1     	b.ne	0x108150 <_binary_BootROM_ums512_0x100000_0x111FFF_bin_start+0x8150>
  10813c: b9413261     	ldr	w1, [x19, #0x130]
  108140: 90fff7e0     	adrp	x0, 0x4000
  108144: b9446c00     	ldr	w0, [x0, #0x46c]
  108148: 6b00003f     	cmp	w1, w0
  10814c: 54000882     	b.hs	0x10825c <_binary_BootROM_ums512_0x100000_0x111FFF_bin_start+0x825c>
  108150: d2c01000     	mov	x0, #0x8000000000       // =549755813888
  108154: 97fffcba     	bl	0x10743c <_binary_BootROM_ums512_0x100000_0x111FFF_bin_start+0x743c>
  108158: 52800000     	mov	w0, #0x0                // =0
  10815c: 17ffffef     	b	0x108118 <_binary_BootROM_ums512_0x100000_0x111FFF_bin_start+0x8118>
  108160: b9414e60     	ldr	w0, [x19, #0x14c]
  108164: 7100041f     	cmp	w0, #0x1
  108168: 540000c1     	b.ne	0x108180 <_binary_BootROM_ums512_0x100000_0x111FFF_bin_start+0x8180>
  10816c: b9415261     	ldr	w1, [x19, #0x150]
  108170: 90fff7e0     	adrp	x0, 0x4000
  108174: b9446c00     	ldr	w0, [x0, #0x46c]
  108178: 6b00003f     	cmp	w1, w0
  10817c: 540000a2     	b.hs	0x108190 <_binary_BootROM_ums512_0x100000_0x111FFF_bin_start+0x8190>
  108180: d2c01000     	mov	x0, #0x8000000000       // =549755813888
  108184: 97fffcae     	bl	0x10743c <_binary_BootROM_ums512_0x100000_0x111FFF_bin_start+0x743c>
  108188: 52800000     	mov	w0, #0x0                // =0
  10818c: 17ffffe3     	b	0x108118 <_binary_BootROM_ums512_0x100000_0x111FFF_bin_start+0x8118>
  108190: aa1303e0     	mov	x0, x19
  108194: b8404c01     	ldr	w1, [x0, #0x4]!
  108198: 53037c21     	lsr	w1, w1, #3
  10819c: 910163a2     	add	x2, x29, #0x58
  1081a0: 11002021     	add	w1, w1, #0x8
  1081a4: 97ffff7d     	bl	0x107f98 <_binary_BootROM_ums512_0x100000_0x111FFF_bin_start+0x7f98>
  1081a8: 91043274     	add	x20, x19, #0x10c
  1081ac: d2800402     	mov	x2, #0x20               // =32
  1081b0: aa1403e1     	mov	x1, x20
  1081b4: aa1503e0     	mov	x0, x21
  1081b8: 940002b3     	bl	0x108c84 <_binary_BootROM_ums512_0x100000_0x111FFF_bin_start+0x8c84>
  1081bc: 350000c0     	cbnz	w0, 0x1081d4 <_binary_BootROM_ums512_0x100000_0x111FFF_bin_start+0x81d4>
  1081c0: d2800402     	mov	x2, #0x20               // =32
  1081c4: 910163a1     	add	x1, x29, #0x58
  1081c8: aa1603e0     	mov	x0, x22
  1081cc: 940002ae     	bl	0x108c84 <_binary_BootROM_ums512_0x100000_0x111FFF_bin_start+0x8c84>
  1081d0: 340000a0     	cbz	w0, 0x1081e4 <_binary_BootROM_ums512_0x100000_0x111FFF_bin_start+0x81e4>
  1081d4: d2c00080     	mov	x0, #0x400000000        // =17179869184
  1081d8: 97fffc99     	bl	0x10743c <_binary_BootROM_ums512_0x100000_0x111FFF_bin_start+0x743c>
  1081dc: 52800000     	mov	w0, #0x0                // =0
  1081e0: 17ffffce     	b	0x108118 <_binary_BootROM_ums512_0x100000_0x111FFF_bin_start+0x8118>
  1081e4: 9101e3a4     	add	x4, x29, #0x78
  1081e8: 91055263     	add	x3, x19, #0x154
  1081ec: b9400662     	ldr	w2, [x19, #0x4]
  1081f0: 91003261     	add	x1, x19, #0xc
  1081f4: 91002260     	add	x0, x19, #0x8
  1081f8: 97ffff79     	bl	0x107fdc <_binary_BootROM_ums512_0x100000_0x111FFF_bin_start+0x7fdc>
  1081fc: b9017fa0     	str	w0, [x29, #0x17c]
  108200: 9100e3a2     	add	x2, x29, #0x38
  108204: 52800901     	mov	w1, #0x48               // =72
  108208: aa1403e0     	mov	x0, x20
  10820c: 97ffff63     	bl	0x107f98 <_binary_BootROM_ums512_0x100000_0x111FFF_bin_start+0x7f98>
  108210: 52800085     	mov	w5, #0x4                // =4
  108214: 72a04005     	movk	w5, #0x200, lsl #16
  108218: 9105f3a0     	add	x0, x29, #0x17c
  10821c: f90003e0     	str	x0, [sp]
  108220: 52810007     	mov	w7, #0x800              // =2048
  108224: 2a0503e6     	mov	w6, w5
  108228: 52800404     	mov	w4, #0x20               // =32
  10822c: 52802003     	mov	w3, #0x100              // =256
  108230: 9101e3a2     	add	x2, x29, #0x78
  108234: 2a0403e1     	mov	w1, w4
  108238: 9100e3a0     	add	x0, x29, #0x38
  10823c: 97fffa59     	bl	0x106ba0 <_binary_BootROM_ums512_0x100000_0x111FFF_bin_start+0x6ba0>
  108240: b9417fa1     	ldr	w1, [x29, #0x17c]
  108244: 52800020     	mov	w0, #0x1                // =1
  108248: 34fff681     	cbz	w1, 0x108118 <_binary_BootROM_ums512_0x100000_0x111FFF_bin_start+0x8118>
  10824c: d2c00400     	mov	x0, #0x2000000000       // =137438953472
  108250: 97fffc7b     	bl	0x10743c <_binary_BootROM_ums512_0x100000_0x111FFF_bin_start+0x743c>
  108254: 52800000     	mov	w0, #0x0                // =0
  108258: 17ffffb0     	b	0x108118 <_binary_BootROM_ums512_0x100000_0x111FFF_bin_start+0x8118>
  10825c: aa1303e0     	mov	x0, x19
  108260: b8404c01     	ldr	w1, [x0, #0x4]!
  108264: 53037c21     	lsr	w1, w1, #3
  108268: 910163a2     	add	x2, x29, #0x58
  10826c: 11002021     	add	w1, w1, #0x8
  108270: 97ffff4a     	bl	0x107f98 <_binary_BootROM_ums512_0x100000_0x111FFF_bin_start+0x7f98>
  108274: 91043274     	add	x20, x19, #0x10c
  108278: d2800402     	mov	x2, #0x20               // =32
  10827c: aa1403e1     	mov	x1, x20
  108280: aa1503e0     	mov	x0, x21
  108284: 94000280     	bl	0x108c84 <_binary_BootROM_ums512_0x100000_0x111FFF_bin_start+0x8c84>
  108288: 350003e0     	cbnz	w0, 0x108304 <_binary_BootROM_ums512_0x100000_0x111FFF_bin_start+0x8304>
  10828c: 9101e3a4     	add	x4, x29, #0x78
  108290: 9104d263     	add	x3, x19, #0x134
  108294: b9400662     	ldr	w2, [x19, #0x4]
  108298: 91003261     	add	x1, x19, #0xc
  10829c: 91002260     	add	x0, x19, #0x8
  1082a0: 97ffff4f     	bl	0x107fdc <_binary_BootROM_ums512_0x100000_0x111FFF_bin_start+0x7fdc>
  1082a4: b9017fa0     	str	w0, [x29, #0x17c]
  1082a8: 9100e3a2     	add	x2, x29, #0x38
  1082ac: 52800901     	mov	w1, #0x48               // =72
  1082b0: aa1403e0     	mov	x0, x20
  1082b4: 97ffff39     	bl	0x107f98 <_binary_BootROM_ums512_0x100000_0x111FFF_bin_start+0x7f98>
  1082b8: 52800085     	mov	w5, #0x4                // =4
  1082bc: 72a04005     	movk	w5, #0x200, lsl #16
  1082c0: 9105f3a0     	add	x0, x29, #0x17c
  1082c4: f90003e0     	str	x0, [sp]
  1082c8: 52810007     	mov	w7, #0x800              // =2048
  1082cc: 2a0503e6     	mov	w6, w5
  1082d0: 52800404     	mov	w4, #0x20               // =32
  1082d4: 52802003     	mov	w3, #0x100              // =256
  1082d8: 9101e3a2     	add	x2, x29, #0x78
  1082dc: 2a0403e1     	mov	w1, w4
  1082e0: 9100e3a0     	add	x0, x29, #0x38
  1082e4: 97fffa2f     	bl	0x106ba0 <_binary_BootROM_ums512_0x100000_0x111FFF_bin_start+0x6ba0>
  1082e8: b9417fa1     	ldr	w1, [x29, #0x17c]
  1082ec: 52800020     	mov	w0, #0x1                // =1
  1082f0: 34fff141     	cbz	w1, 0x108118 <_binary_BootROM_ums512_0x100000_0x111FFF_bin_start+0x8118>
  1082f4: d2c00400     	mov	x0, #0x2000000000       // =137438953472
  1082f8: 97fffc51     	bl	0x10743c <_binary_BootROM_ums512_0x100000_0x111FFF_bin_start+0x743c>
  1082fc: 52800000     	mov	w0, #0x0                // =0
  108300: 17ffff86     	b	0x108118 <_binary_BootROM_ums512_0x100000_0x111FFF_bin_start+0x8118>
  108304: d2c00080     	mov	x0, #0x400000000        // =17179869184
  108308: 97fffc4d     	bl	0x10743c <_binary_BootROM_ums512_0x100000_0x111FFF_bin_start+0x743c>
  10830c: 52800000     	mov	w0, #0x0                // =0
  108310: 17ffff82     	b	0x108118 <_binary_BootROM_ums512_0x100000_0x111FFF_bin_start+0x8118>
  108314: a9bb7bfd     	stp	x29, x30, [sp, #-0x50]!
  108318: 910003fd     	mov	x29, sp
  10831c: a90153f3     	stp	x19, x20, [sp, #0x10]
  108320: a9025bf5     	stp	x21, x22, [sp, #0x20]
  108324: aa0003f4     	mov	x20, x0
  108328: 90fff7f3     	adrp	x19, 0x4000
  10832c: 91114273     	add	x19, x19, #0x450
  108330: b9403000     	ldr	w0, [x0, #0x30]
  108334: 91080000     	add	x0, x0, #0x200
  108338: 8b000280     	add	x0, x20, x0
  10833c: f9005a60     	str	x0, [x19, #0xb0]
  108340: a9037fbf     	stp	xzr, xzr, [x29, #0x30]
  108344: a9047fbf     	stp	xzr, xzr, [x29, #0x40]
  108348: 528003c0     	mov	w0, #0x1e               // =30
  10834c: 97fffd61     	bl	0x1078d0 <_binary_BootROM_ums512_0x100000_0x111FFF_bin_start+0x78d0>
  108350: d2c08000     	mov	x0, #0x40000000000      // =4398046511104
  108354: 97fffc3a     	bl	0x10743c <_binary_BootROM_ums512_0x100000_0x111FFF_bin_start+0x743c>
  108358: b9401a60     	ldr	w0, [x19, #0x18]
  10835c: 370806e0     	tbnz	w0, #0x1, 0x108438 <_binary_BootROM_ums512_0x100000_0x111FFF_bin_start+0x8438>
  108360: 90fff7f3     	adrp	x19, 0x4000
  108364: 91114273     	add	x19, x19, #0x450
  108368: 91008273     	add	x19, x19, #0x20
  10836c: 90fff7e0     	adrp	x0, 0x4000
  108370: f9428000     	ldr	x0, [x0, #0x500]
  108374: f9401000     	ldr	x0, [x0, #0x20]
  108378: b4000680     	cbz	x0, 0x108448 <_binary_BootROM_ums512_0x100000_0x111FFF_bin_start+0x8448>
  10837c: 91080295     	add	x21, x20, #0x200
  108380: 9100c3a2     	add	x2, x29, #0x30
  108384: b9403281     	ldr	w1, [x20, #0x30]
  108388: aa1503e0     	mov	x0, x21
  10838c: 97ffff03     	bl	0x107f98 <_binary_BootROM_ums512_0x100000_0x111FFF_bin_start+0x7f98>
  108390: 90fff7e0     	adrp	x0, 0x4000
  108394: f9428000     	ldr	x0, [x0, #0x500]
  108398: f9401402     	ldr	x2, [x0, #0x28]
  10839c: 8b020282     	add	x2, x20, x2
  1083a0: 9100c3a1     	add	x1, x29, #0x30
  1083a4: aa1303e0     	mov	x0, x19
  1083a8: 97ffff48     	bl	0x1080c8 <_binary_BootROM_ums512_0x100000_0x111FFF_bin_start+0x80c8>
  1083ac: 2a0003f3     	mov	w19, w0
  1083b0: 34000520     	cbz	w0, 0x108454 <_binary_BootROM_ums512_0x100000_0x111FFF_bin_start+0x8454>
  1083b4: 97fffbce     	bl	0x1072ec <_binary_BootROM_ums512_0x100000_0x111FFF_bin_start+0x72ec>
  1083b8: 340004e0     	cbz	w0, 0x108454 <_binary_BootROM_ums512_0x100000_0x111FFF_bin_start+0x8454>
  1083bc: 90fff7e0     	adrp	x0, 0x4000
  1083c0: 794a1801     	ldrh	w1, [x0, #0x50c]
  1083c4: 529fffe0     	mov	w0, #0xffff             // =65535
  1083c8: 6b00003f     	cmp	w1, w0
  1083cc: 54000441     	b.ne	0x108454 <_binary_BootROM_ums512_0x100000_0x111FFF_bin_start+0x8454>
  1083d0: 90fff7e0     	adrp	x0, 0x4000
  1083d4: b9446800     	ldr	w0, [x0, #0x468]
  1083d8: 370003e0     	tbnz	w0, #0x0, 0x108454 <_binary_BootROM_ums512_0x100000_0x111FFF_bin_start+0x8454>
  1083dc: d0fff7d6     	adrp	x22, 0x2000
  1083e0: 9125a2d6     	add	x22, x22, #0x968
  1083e4: 9104c2d6     	add	x22, x22, #0x130
  1083e8: 52800402     	mov	w2, #0x20               // =32
  1083ec: 9100d281     	add	x1, x20, #0x34
  1083f0: aa1603e0     	mov	x0, x22
  1083f4: 97fffb33     	bl	0x1070c0 <_binary_BootROM_ums512_0x100000_0x111FFF_bin_start+0x70c0>
  1083f8: b9400ac0     	ldr	w0, [x22, #0x8]
  1083fc: b9400281     	ldr	w1, [x20]
  108400: 4a010000     	eor	w0, w0, w1
  108404: b9000ac0     	str	w0, [x22, #0x8]
  108408: b9403282     	ldr	w2, [x20, #0x30]
  10840c: b9400ec0     	ldr	w0, [x22, #0xc]
  108410: 4a020000     	eor	w0, w0, w2
  108414: b9000ec0     	str	w0, [x22, #0xc]
  108418: 52800204     	mov	w4, #0x10               // =16
  10841c: aa1603e3     	mov	x3, x22
  108420: aa1503e1     	mov	x1, x21
  108424: aa1503e0     	mov	x0, x21
  108428: 97fff587     	bl	0x105a44 <_binary_BootROM_ums512_0x100000_0x111FFF_bin_start+0x5a44>
  10842c: d2e80000     	mov	x0, #0x4000000000000000 // =4611686018427387904
  108430: 97fffc03     	bl	0x10743c <_binary_BootROM_ums512_0x100000_0x111FFF_bin_start+0x743c>
  108434: 14000008     	b	0x108454 <_binary_BootROM_ums512_0x100000_0x111FFF_bin_start+0x8454>
  108438: 90fff7f3     	adrp	x19, 0x4000
  10843c: 91114273     	add	x19, x19, #0x450
  108440: 91024273     	add	x19, x19, #0x90
  108444: 17ffffca     	b	0x10836c <_binary_BootROM_ums512_0x100000_0x111FFF_bin_start+0x836c>
  108448: d2c00100     	mov	x0, #0x800000000        // =34359738368
  10844c: 97fffbfc     	bl	0x10743c <_binary_BootROM_ums512_0x100000_0x111FFF_bin_start+0x743c>
  108450: 52800013     	mov	w19, #0x0               // =0
  108454: 2a1303e0     	mov	w0, w19
  108458: a94153f3     	ldp	x19, x20, [sp, #0x10]
  10845c: a9425bf5     	ldp	x21, x22, [sp, #0x20]
  108460: a8c57bfd     	ldp	x29, x30, [sp], #0x50
  108464: d65f03c0     	ret
  108468: d106c3ff     	sub	sp, sp, #0x1b0
  10846c: a9017bfd     	stp	x29, x30, [sp, #0x10]
  108470: 910043fd     	add	x29, sp, #0x10
  108474: a90253f3     	stp	x19, x20, [sp, #0x20]
  108478: a9035bf5     	stp	x21, x22, [sp, #0x30]
  10847c: aa0003f5     	mov	x21, x0
  108480: aa0103f4     	mov	x20, x1
  108484: aa0203f6     	mov	x22, x2
  108488: 2a0303f3     	mov	w19, w3
  10848c: 910403a0     	add	x0, x29, #0x100
  108490: a9087c1f     	stp	xzr, xzr, [x0, #0x80]
  108494: 910403a0     	add	x0, x29, #0x100
  108498: a9097c1f     	stp	xzr, xzr, [x0, #0x90]
  10849c: d2802002     	mov	x2, #0x100              // =256
  1084a0: 52800001     	mov	w1, #0x0                // =0
  1084a4: 9100e3a0     	add	x0, x29, #0x38
  1084a8: 940001e8     	bl	0x108c48 <_binary_BootROM_ums512_0x100000_0x111FFF_bin_start+0x8c48>
  1084ac: 34000153     	cbz	w19, 0x1084d4 <_binary_BootROM_ums512_0x100000_0x111FFF_bin_start+0x84d4>
  1084b0: 52800021     	mov	w1, #0x1                // =1
  1084b4: 6b01027f     	cmp	w19, w1
  1084b8: 54000580     	b.eq	0x108568 <_binary_BootROM_ums512_0x100000_0x111FFF_bin_start+0x8568>
  1084bc: 2a0103e0     	mov	w0, w1
  1084c0: a94253f3     	ldp	x19, x20, [sp, #0x20]
  1084c4: a9435bf5     	ldp	x21, x22, [sp, #0x30]
  1084c8: a9417bfd     	ldp	x29, x30, [sp, #0x10]
  1084cc: 9106c3ff     	add	sp, sp, #0x1b0
  1084d0: d65f03c0     	ret
  1084d4: 910603a2     	add	x2, x29, #0x180
  1084d8: 52802101     	mov	w1, #0x108              // =264
  1084dc: 91001280     	add	x0, x20, #0x4
  1084e0: 97fffeae     	bl	0x107f98 <_binary_BootROM_ums512_0x100000_0x111FFF_bin_start+0x7f98>
  1084e4: d2800402     	mov	x2, #0x20               // =32
  1084e8: 910603a1     	add	x1, x29, #0x180
  1084ec: 9104b2c0     	add	x0, x22, #0x12c
  1084f0: 940001e5     	bl	0x108c84 <_binary_BootROM_ums512_0x100000_0x111FFF_bin_start+0x8c84>
  1084f4: 52800001     	mov	w1, #0x0                // =0
  1084f8: 35fffe20     	cbnz	w0, 0x1084bc <_binary_BootROM_ums512_0x100000_0x111FFF_bin_start+0x84bc>
  1084fc: 9100e3a4     	add	x4, x29, #0x38
  108500: 9104e283     	add	x3, x20, #0x138
  108504: b9400682     	ldr	w2, [x20, #0x4]
  108508: 91003281     	add	x1, x20, #0xc
  10850c: 91002280     	add	x0, x20, #0x8
  108510: 97fffeb3     	bl	0x107fdc <_binary_BootROM_ums512_0x100000_0x111FFF_bin_start+0x7fdc>
  108514: b9013fa0     	str	w0, [x29, #0x13c]
  108518: 910583a2     	add	x2, x29, #0x160
  10851c: 52800581     	mov	w1, #0x2c               // =44
  108520: 91043280     	add	x0, x20, #0x10c
  108524: 97fffe9d     	bl	0x107f98 <_binary_BootROM_ums512_0x100000_0x111FFF_bin_start+0x7f98>
  108528: 52800085     	mov	w5, #0x4                // =4
  10852c: 72a04005     	movk	w5, #0x200, lsl #16
  108530: 9104f3a0     	add	x0, x29, #0x13c
  108534: f90003e0     	str	x0, [sp]
  108538: 52810007     	mov	w7, #0x800              // =2048
  10853c: 2a0503e6     	mov	w6, w5
  108540: 52800404     	mov	w4, #0x20               // =32
  108544: 52802003     	mov	w3, #0x100              // =256
  108548: 9100e3a2     	add	x2, x29, #0x38
  10854c: 2a0403e1     	mov	w1, w4
  108550: 910583a0     	add	x0, x29, #0x160
  108554: 97fff993     	bl	0x106ba0 <_binary_BootROM_ums512_0x100000_0x111FFF_bin_start+0x6ba0>
  108558: b9413fa0     	ldr	w0, [x29, #0x13c]
  10855c: 7100001f     	cmp	w0, #0x0
  108560: 1a9f17e1     	cset	w1, eq
  108564: 17ffffd6     	b	0x1084bc <_binary_BootROM_ums512_0x100000_0x111FFF_bin_start+0x84bc>
  108568: 910603a2     	add	x2, x29, #0x180
  10856c: 52802101     	mov	w1, #0x108              // =264
  108570: 910012a0     	add	x0, x21, #0x4
  108574: 97fffe89     	bl	0x107f98 <_binary_BootROM_ums512_0x100000_0x111FFF_bin_start+0x7f98>
  108578: d2800402     	mov	x2, #0x20               // =32
  10857c: 910603a1     	add	x1, x29, #0x180
  108580: 91043280     	add	x0, x20, #0x10c
  108584: 940001c0     	bl	0x108c84 <_binary_BootROM_ums512_0x100000_0x111FFF_bin_start+0x8c84>
  108588: 52800001     	mov	w1, #0x0                // =0
  10858c: 35fff980     	cbnz	w0, 0x1084bc <_binary_BootROM_ums512_0x100000_0x111FFF_bin_start+0x84bc>
  108590: 9100e3a4     	add	x4, x29, #0x38
  108594: 9104d2a3     	add	x3, x21, #0x134
  108598: b94006a2     	ldr	w2, [x21, #0x4]
  10859c: 910032a1     	add	x1, x21, #0xc
  1085a0: 910022a0     	add	x0, x21, #0x8
  1085a4: 97fffe8e     	bl	0x107fdc <_binary_BootROM_ums512_0x100000_0x111FFF_bin_start+0x7fdc>
  1085a8: b9013fa0     	str	w0, [x29, #0x13c]
  1085ac: 910503a2     	add	x2, x29, #0x140
  1085b0: 52800501     	mov	w1, #0x28               // =40
  1085b4: 910432a0     	add	x0, x21, #0x10c
  1085b8: 97fffe78     	bl	0x107f98 <_binary_BootROM_ums512_0x100000_0x111FFF_bin_start+0x7f98>
  1085bc: 52800085     	mov	w5, #0x4                // =4
  1085c0: 72a04005     	movk	w5, #0x200, lsl #16
  1085c4: 9104f3a0     	add	x0, x29, #0x13c
  1085c8: f90003e0     	str	x0, [sp]
  1085cc: 52810007     	mov	w7, #0x800              // =2048
  1085d0: 2a0503e6     	mov	w6, w5
  1085d4: 52800404     	mov	w4, #0x20               // =32
  1085d8: 52802003     	mov	w3, #0x100              // =256
  1085dc: 9100e3a2     	add	x2, x29, #0x38
  1085e0: 2a0403e1     	mov	w1, w4
  1085e4: 910503a0     	add	x0, x29, #0x140
  1085e8: 97fff96e     	bl	0x106ba0 <_binary_BootROM_ums512_0x100000_0x111FFF_bin_start+0x6ba0>
  1085ec: b9413fa0     	ldr	w0, [x29, #0x13c]
  1085f0: 7100001f     	cmp	w0, #0x0
  1085f4: 1a9f17e1     	cset	w1, eq
  1085f8: 17ffffb1     	b	0x1084bc <_binary_BootROM_ums512_0x100000_0x111FFF_bin_start+0x84bc>
  1085fc: a9bd7bfd     	stp	x29, x30, [sp, #-0x30]!
  108600: 910003fd     	mov	x29, sp
  108604: a90153f3     	stp	x19, x20, [sp, #0x10]
  108608: f90013f5     	str	x21, [sp, #0x20]
  10860c: aa0003f4     	mov	x20, x0
  108610: d0fff7c0     	adrp	x0, 0x2000
  108614: 912aa000     	add	x0, x0, #0xaa8
  108618: a9027c1f     	stp	xzr, xzr, [x0, #0x20]
  10861c: a9037c1f     	stp	xzr, xzr, [x0, #0x30]
  108620: a9047c1f     	stp	xzr, xzr, [x0, #0x40]
  108624: b900501f     	str	wzr, [x0, #0x50]
  108628: 90fff7e0     	adrp	x0, 0x4000
  10862c: b9446802     	ldr	w2, [x0, #0x468]
  108630: 90fff7e0     	adrp	x0, 0x4000
  108634: 9111c001     	add	x1, x0, #0x470
  108638: 90fff7e0     	adrp	x0, 0x4000
  10863c: 91138000     	add	x0, x0, #0x4e0
  108640: f27f005f     	tst	x2, #0x2
  108644: 9a811000     	csel	x0, x0, x1, ne
  108648: d0fff7d3     	adrp	x19, 0x2000
  10864c: 912aa273     	add	x19, x19, #0xaa8
  108650: a9400c02     	ldp	x2, x3, [x0]
  108654: a9000e62     	stp	x2, x3, [x19]
  108658: a9410400     	ldp	x0, x1, [x0, #0x10]
  10865c: a9010660     	stp	x0, x1, [x19, #0x10]
  108660: 9100c260     	add	x0, x19, #0x30
  108664: 52800021     	mov	w1, #0x1                // =1
  108668: 3900c261     	strb	w1, [x19, #0x30]
  10866c: 52800921     	mov	w1, #0x49               // =73
  108670: 39000401     	strb	w1, [x0, #0x1]
  108674: 12800fe1     	mov	w1, #-0x80              // =-128
  108678: 39008c01     	strb	w1, [x0, #0x23]
  10867c: 91008263     	add	x3, x19, #0x20
  108680: 52800302     	mov	w2, #0x18               // =24
  108684: 52800481     	mov	w1, #0x24               // =36
  108688: 97fffe7a     	bl	0x108070 <_binary_BootROM_ums512_0x100000_0x111FFF_bin_start+0x8070>
  10868c: 2a0003f5     	mov	w21, w0
  108690: aa1403e2     	mov	x2, x20
  108694: 52800601     	mov	w1, #0x30               // =48
  108698: aa1303e0     	mov	x0, x19
  10869c: 97fffe3f     	bl	0x107f98 <_binary_BootROM_ums512_0x100000_0x111FFF_bin_start+0x7f98>
  1086a0: 2a1503e0     	mov	w0, w21
  1086a4: a94153f3     	ldp	x19, x20, [sp, #0x10]
  1086a8: f94013f5     	ldr	x21, [sp, #0x20]
  1086ac: a8c37bfd     	ldp	x29, x30, [sp], #0x30
  1086b0: d65f03c0     	ret
  1086b4: b100041f     	cmn	x0, #0x1
  1086b8: 54000220     	b.eq	0x1086fc <_binary_BootROM_ums512_0x100000_0x111FFF_bin_start+0x86fc>
  1086bc: d3444002     	ubfx	x2, x0, #4, #13
  1086c0: 92400c03     	and	x3, x0, #0xf
  1086c4: d2800081     	mov	x1, #0x4                // =4
  1086c8: f2a65121     	movk	x1, #0x3289, lsl #16
  1086cc: b9000023     	str	w3, [x1]
  1086d0: d351fc01     	lsr	x1, x0, #17
  1086d4: d3630821     	ubfiz	x1, x1, #29, #3
  1086d8: aa020021     	orr	x1, x1, x2
  1086dc: d2800102     	mov	x2, #0x8                // =8
  1086e0: f2a65122     	movk	x2, #0x3289, lsl #16
  1086e4: b9000041     	str	w1, [x2]
  1086e8: d3545400     	ubfx	x0, x0, #20, #2
  1086ec: d2800181     	mov	x1, #0xc                // =12
  1086f0: f2a65121     	movk	x1, #0x3289, lsl #16
  1086f4: b9000020     	str	w0, [x1]
  1086f8: d65f03c0     	ret
  1086fc: 528001e1     	mov	w1, #0xf                // =15
  108700: d2800080     	mov	x0, #0x4                // =4
  108704: f2a65120     	movk	x0, #0x3289, lsl #16
  108708: b9000001     	str	w1, [x0]
  10870c: 32033fe1     	mov	w1, #-0x1fffe001        // =-536862721
  108710: 91001000     	add	x0, x0, #0x4
  108714: b9000001     	str	w1, [x0]
  108718: 52800061     	mov	w1, #0x3                // =3
  10871c: 91001000     	add	x0, x0, #0x4
  108720: b9000001     	str	w1, [x0]
  108724: d65f03c0     	ret
  108728: a9ba7bfd     	stp	x29, x30, [sp, #-0x60]!
  10872c: 910003fd     	mov	x29, sp
  108730: a90153f3     	stp	x19, x20, [sp, #0x10]
  108734: a9025bf5     	stp	x21, x22, [sp, #0x20]
  108738: f9001bf7     	str	x23, [sp, #0x30]
  10873c: aa0003f4     	mov	x20, x0
  108740: a9047fbf     	stp	xzr, xzr, [x29, #0x40]
  108744: a9057fbf     	stp	xzr, xzr, [x29, #0x50]
  108748: b9403013     	ldr	w19, [x0, #0x30]
  10874c: 91080273     	add	x19, x19, #0x200
  108750: 8b130013     	add	x19, x0, x19
  108754: f9402e75     	ldr	x21, [x19, #0x58]
  108758: f9402676     	ldr	x22, [x19, #0x48]
  10875c: f9401677     	ldr	x23, [x19, #0x28]
  108760: 52800400     	mov	w0, #0x20               // =32
  108764: 97fffc5b     	bl	0x1078d0 <_binary_BootROM_ums512_0x100000_0x111FFF_bin_start+0x78d0>
  108768: d2c02000     	mov	x0, #0x10000000000      // =1099511627776
  10876c: 97fffb34     	bl	0x10743c <_binary_BootROM_ums512_0x100000_0x111FFF_bin_start+0x743c>
  108770: f9402260     	ldr	x0, [x19, #0x40]
  108774: 52800013     	mov	w19, #0x0               // =0
  108778: b50000e0     	cbnz	x0, 0x108794 <_binary_BootROM_ums512_0x100000_0x111FFF_bin_start+0x8794>
  10877c: 2a1303e0     	mov	w0, w19
  108780: a94153f3     	ldp	x19, x20, [sp, #0x10]
  108784: a9425bf5     	ldp	x21, x22, [sp, #0x20]
  108788: f9401bf7     	ldr	x23, [sp, #0x30]
  10878c: a8c67bfd     	ldp	x29, x30, [sp], #0x60
  108790: d65f03c0     	ret
  108794: 8b150295     	add	x21, x20, x21
  108798: 8b160296     	add	x22, x20, x22
  10879c: 8b170294     	add	x20, x20, x23
  1087a0: 52800003     	mov	w3, #0x0                // =0
  1087a4: aa1403e2     	mov	x2, x20
  1087a8: aa1603e1     	mov	x1, x22
  1087ac: aa1503e0     	mov	x0, x21
  1087b0: 97ffff2e     	bl	0x108468 <_binary_BootROM_ums512_0x100000_0x111FFF_bin_start+0x8468>
  1087b4: 52800013     	mov	w19, #0x0               // =0
  1087b8: 7100041f     	cmp	w0, #0x1
  1087bc: 54fffe01     	b.ne	0x10877c <_binary_BootROM_ums512_0x100000_0x111FFF_bin_start+0x877c>
  1087c0: 52800023     	mov	w3, #0x1                // =1
  1087c4: aa1403e2     	mov	x2, x20
  1087c8: aa1603e1     	mov	x1, x22
  1087cc: aa1503e0     	mov	x0, x21
  1087d0: 97ffff26     	bl	0x108468 <_binary_BootROM_ums512_0x100000_0x111FFF_bin_start+0x8468>
  1087d4: 7100041f     	cmp	w0, #0x1
  1087d8: 54fffd21     	b.ne	0x10877c <_binary_BootROM_ums512_0x100000_0x111FFF_bin_start+0x877c>
  1087dc: 910103a0     	add	x0, x29, #0x40
  1087e0: 97ffff87     	bl	0x1085fc <_binary_BootROM_ums512_0x100000_0x111FFF_bin_start+0x85fc>
  1087e4: 2a0003f3     	mov	w19, w0
  1087e8: 7100041f     	cmp	w0, #0x1
  1087ec: 54000060     	b.eq	0x1087f8 <_binary_BootROM_ums512_0x100000_0x111FFF_bin_start+0x87f8>
  1087f0: 52800013     	mov	w19, #0x0               // =0
  1087f4: 17ffffe2     	b	0x10877c <_binary_BootROM_ums512_0x100000_0x111FFF_bin_start+0x877c>
  1087f8: d2800402     	mov	x2, #0x20               // =32
  1087fc: 910103a1     	add	x1, x29, #0x40
  108800: 910452a0     	add	x0, x21, #0x114
  108804: 94000120     	bl	0x108c84 <_binary_BootROM_ums512_0x100000_0x111FFF_bin_start+0x8c84>
  108808: 34000060     	cbz	w0, 0x108814 <_binary_BootROM_ums512_0x100000_0x111FFF_bin_start+0x8814>
  10880c: 52800013     	mov	w19, #0x0               // =0
  108810: 17ffffdb     	b	0x10877c <_binary_BootROM_ums512_0x100000_0x111FFF_bin_start+0x877c>
  108814: 910802b5     	add	x21, x21, #0x200
  108818: 910802d6     	add	x22, x22, #0x200
  10881c: f850c2a1     	ldur	x1, [x21, #-0xf4]
  108820: f852c2c0     	ldur	x0, [x22, #-0xd4]
  108824: 8a000020     	and	x0, x1, x0
  108828: 97ffffa3     	bl	0x1086b4 <_binary_BootROM_ums512_0x100000_0x111FFF_bin_start+0x86b4>
  10882c: 17ffffd4     	b	0x10877c <_binary_BootROM_ums512_0x100000_0x111FFF_bin_start+0x877c>
  108830: 51000421     	sub	w1, w1, #0x1
  108834: 7100003f     	cmp	w1, #0x0
  108838: 5400014d     	b.le	0x108860 <_binary_BootROM_ums512_0x100000_0x111FFF_bin_start+0x8860>
  10883c: 52800002     	mov	w2, #0x0                // =0
  108840: 3862c803     	ldrb	w3, [x0, w2, sxtw]
  108844: 3861c804     	ldrb	w4, [x0, w1, sxtw]
  108848: 3822c804     	strb	w4, [x0, w2, sxtw]
  10884c: 3821c803     	strb	w3, [x0, w1, sxtw]
  108850: 11000442     	add	w2, w2, #0x1
  108854: 51000421     	sub	w1, w1, #0x1
  108858: 6b01005f     	cmp	w2, w1
  10885c: 54ffff2b     	b.lt	0x108840 <_binary_BootROM_ums512_0x100000_0x111FFF_bin_start+0x8840>
  108860: d65f03c0     	ret
  108864: 7100003f     	cmp	w1, #0x0
  108868: 540000ed     	b.le	0x108884 <_binary_BootROM_ums512_0x100000_0x111FFF_bin_start+0x8884>
  10886c: d2800002     	mov	x2, #0x0                // =0
  108870: 12800aa3     	mov	w3, #-0x56              // =-86
  108874: 38226803     	strb	w3, [x0, x2]
  108878: 91000442     	add	x2, x2, #0x1
  10887c: 6b02003f     	cmp	w1, w2
  108880: 54ffffac     	b.gt	0x108874 <_binary_BootROM_ums512_0x100000_0x111FFF_bin_start+0x8874>
  108884: 52800020     	mov	w0, #0x1                // =1
  108888: d65f03c0     	ret
  10888c: 51002c24     	sub	w4, w1, #0xb
  108890: 6b03009f     	cmp	w4, w3
  108894: 5400006a     	b.ge	0x1088a0 <_binary_BootROM_ums512_0x100000_0x111FFF_bin_start+0x88a0>
  108898: 52800000     	mov	w0, #0x0                // =0
  10889c: d65f03c0     	ret
  1088a0: a9bc7bfd     	stp	x29, x30, [sp, #-0x40]!
  1088a4: 910003fd     	mov	x29, sp
  1088a8: a90153f3     	stp	x19, x20, [sp, #0x10]
  1088ac: a9025bf5     	stp	x21, x22, [sp, #0x20]
  1088b0: f9001bf7     	str	x23, [sp, #0x30]
  1088b4: 2a0303f4     	mov	w20, w3
  1088b8: aa0203f6     	mov	x22, x2
  1088bc: aa0003f5     	mov	x21, x0
  1088c0: 380026bf     	strb	wzr, [x21], #0x2
  1088c4: 52800022     	mov	w2, #0x1                // =1
  1088c8: 39000402     	strb	w2, [x0, #0x1]
  1088cc: 51000c33     	sub	w19, w1, #0x3
  1088d0: 4b030273     	sub	w19, w19, w3
  1088d4: 93407e77     	sxtw	x23, w19
  1088d8: aa1703e2     	mov	x2, x23
  1088dc: 52801fe1     	mov	w1, #0xff               // =255
  1088e0: aa1503e0     	mov	x0, x21
  1088e4: 940000d9     	bl	0x108c48 <_binary_BootROM_ums512_0x100000_0x111FFF_bin_start+0x8c48>
  1088e8: 8b1702a0     	add	x0, x21, x23
  1088ec: 3833cabf     	strb	wzr, [x21, w19, sxtw]
  1088f0: 2a1403e2     	mov	w2, w20
  1088f4: aa1603e1     	mov	x1, x22
  1088f8: 91000400     	add	x0, x0, #0x1
  1088fc: 940000da     	bl	0x108c64 <_binary_BootROM_ums512_0x100000_0x111FFF_bin_start+0x8c64>
  108900: 52800020     	mov	w0, #0x1                // =1
  108904: a94153f3     	ldp	x19, x20, [sp, #0x10]
  108908: a9425bf5     	ldp	x21, x22, [sp, #0x20]
  10890c: f9401bf7     	ldr	x23, [sp, #0x30]
  108910: a8c47bfd     	ldp	x29, x30, [sp], #0x40
  108914: d65f03c0     	ret
  108918: a9be7bfd     	stp	x29, x30, [sp, #-0x20]!
  10891c: 910003fd     	mov	x29, sp
  108920: f9000bf3     	str	x19, [sp, #0x10]
  108924: 11000465     	add	w5, w3, #0x1
  108928: 6b0400bf     	cmp	w5, w4
  10892c: 540004e1     	b.ne	0x1089c8 <_binary_BootROM_ums512_0x100000_0x111FFF_bin_start+0x89c8>
  108930: 91000444     	add	x4, x2, #0x1
  108934: 39400045     	ldrb	w5, [x2]
  108938: 710004bf     	cmp	w5, #0x1
  10893c: 540004a1     	b.ne	0x1089d0 <_binary_BootROM_ums512_0x100000_0x111FFF_bin_start+0x89d0>
  108940: 51000466     	sub	w6, w3, #0x1
  108944: 710000df     	cmp	w6, #0x0
  108948: 5400048d     	b.le	0x1089d8 <_binary_BootROM_ums512_0x100000_0x111FFF_bin_start+0x89d8>
  10894c: 39400445     	ldrb	w5, [x2, #0x1]
  108950: 7103fcbf     	cmp	w5, #0xff
  108954: 54000361     	b.ne	0x1089c0 <_binary_BootROM_ums512_0x100000_0x111FFF_bin_start+0x89c0>
  108958: 51000463     	sub	w3, w3, #0x1
  10895c: 52800002     	mov	w2, #0x0                // =0
  108960: 91000484     	add	x4, x4, #0x1
  108964: 11000442     	add	w2, w2, #0x1
  108968: 6b03005f     	cmp	w2, w3
  10896c: 540000c0     	b.eq	0x108984 <_binary_BootROM_ums512_0x100000_0x111FFF_bin_start+0x8984>
  108970: 39400085     	ldrb	w5, [x4]
  108974: 7103fcbf     	cmp	w5, #0xff
  108978: 54ffff40     	b.eq	0x108960 <_binary_BootROM_ums512_0x100000_0x111FFF_bin_start+0x8960>
  10897c: 35000325     	cbnz	w5, 0x1089e0 <_binary_BootROM_ums512_0x100000_0x111FFF_bin_start+0x89e0>
  108980: 91000484     	add	x4, x4, #0x1
  108984: 71001c5f     	cmp	w2, #0x7
  108988: 12800013     	mov	w19, #-0x1              // =-1
  10898c: 7a42c0c4     	ccmp	w6, w2, #0x4, gt
  108990: 54000100     	b.eq	0x1089b0 <_binary_BootROM_ums512_0x100000_0x111FFF_bin_start+0x89b0>
  108994: 11000442     	add	w2, w2, #0x1
  108998: 4b0200d3     	sub	w19, w6, w2
  10899c: 6b01027f     	cmp	w19, w1
  1089a0: 5400024c     	b.gt	0x1089e8 <_binary_BootROM_ums512_0x100000_0x111FFF_bin_start+0x89e8>
  1089a4: 2a1303e2     	mov	w2, w19
  1089a8: aa0403e1     	mov	x1, x4
  1089ac: 940000ae     	bl	0x108c64 <_binary_BootROM_ums512_0x100000_0x111FFF_bin_start+0x8c64>
  1089b0: 2a1303e0     	mov	w0, w19
  1089b4: f9400bf3     	ldr	x19, [sp, #0x10]
  1089b8: a8c27bfd     	ldp	x29, x30, [sp], #0x20
  1089bc: d65f03c0     	ret
  1089c0: 52800002     	mov	w2, #0x0                // =0
  1089c4: 17ffffee     	b	0x10897c <_binary_BootROM_ums512_0x100000_0x111FFF_bin_start+0x897c>
  1089c8: 12800013     	mov	w19, #-0x1              // =-1
  1089cc: 17fffff9     	b	0x1089b0 <_binary_BootROM_ums512_0x100000_0x111FFF_bin_start+0x89b0>
  1089d0: 12800013     	mov	w19, #-0x1              // =-1
  1089d4: 17fffff7     	b	0x1089b0 <_binary_BootROM_ums512_0x100000_0x111FFF_bin_start+0x89b0>
  1089d8: 12800013     	mov	w19, #-0x1              // =-1
  1089dc: 17fffff5     	b	0x1089b0 <_binary_BootROM_ums512_0x100000_0x111FFF_bin_start+0x89b0>
  1089e0: 12800013     	mov	w19, #-0x1              // =-1
  1089e4: 17fffff3     	b	0x1089b0 <_binary_BootROM_ums512_0x100000_0x111FFF_bin_start+0x89b0>
  1089e8: 12800013     	mov	w19, #-0x1              // =-1
  1089ec: 17fffff1     	b	0x1089b0 <_binary_BootROM_ums512_0x100000_0x111FFF_bin_start+0x89b0>
  1089f0: 51002c24     	sub	w4, w1, #0xb
  1089f4: 6b03009f     	cmp	w4, w3
  1089f8: 5400006a     	b.ge	0x108a04 <_binary_BootROM_ums512_0x100000_0x111FFF_bin_start+0x8a04>
  1089fc: 52800000     	mov	w0, #0x0                // =0
  108a00: d65f03c0     	ret
  108a04: a9bc7bfd     	stp	x29, x30, [sp, #-0x40]!
  108a08: 910003fd     	mov	x29, sp
  108a0c: a90153f3     	stp	x19, x20, [sp, #0x10]
  108a10: a9025bf5     	stp	x21, x22, [sp, #0x20]
  108a14: f9001bf7     	str	x23, [sp, #0x30]
  108a18: 2a0303f5     	mov	w21, w3
  108a1c: aa0203f6     	mov	x22, x2
  108a20: aa0003f3     	mov	x19, x0
  108a24: 3800267f     	strb	wzr, [x19], #0x2
  108a28: 52800042     	mov	w2, #0x2                // =2
  108a2c: 39000402     	strb	w2, [x0, #0x1]
  108a30: 51000c34     	sub	w20, w1, #0x3
  108a34: 4b030294     	sub	w20, w20, w3
  108a38: 2a1403e1     	mov	w1, w20
  108a3c: aa1303e0     	mov	x0, x19
  108a40: 97ffff89     	bl	0x108864 <_binary_BootROM_ums512_0x100000_0x111FFF_bin_start+0x8864>
  108a44: 7100001f     	cmp	w0, #0x0
  108a48: 5400038d     	b.le	0x108ab8 <_binary_BootROM_ums512_0x100000_0x111FFF_bin_start+0x8ab8>
  108a4c: 7100029f     	cmp	w20, #0x0
  108a50: 5400026d     	b.le	0x108a9c <_binary_BootROM_ums512_0x100000_0x111FFF_bin_start+0x8a9c>
  108a54: 51000694     	sub	w20, w20, #0x1
  108a58: 91000694     	add	x20, x20, #0x1
  108a5c: 8b140274     	add	x20, x19, x20
  108a60: 52800037     	mov	w23, #0x1               // =1
  108a64: 14000004     	b	0x108a74 <_binary_BootROM_ums512_0x100000_0x111FFF_bin_start+0x8a74>
  108a68: 91000673     	add	x19, x19, #0x1
  108a6c: eb13029f     	cmp	x20, x19
  108a70: 54000160     	b.eq	0x108a9c <_binary_BootROM_ums512_0x100000_0x111FFF_bin_start+0x8a9c>
  108a74: 39400260     	ldrb	w0, [x19]
  108a78: 35ffff80     	cbnz	w0, 0x108a68 <_binary_BootROM_ums512_0x100000_0x111FFF_bin_start+0x8a68>
  108a7c: 2a1703e1     	mov	w1, w23
  108a80: aa1303e0     	mov	x0, x19
  108a84: 97ffff78     	bl	0x108864 <_binary_BootROM_ums512_0x100000_0x111FFF_bin_start+0x8864>
  108a88: 7100001f     	cmp	w0, #0x0
  108a8c: 540001ad     	b.le	0x108ac0 <_binary_BootROM_ums512_0x100000_0x111FFF_bin_start+0x8ac0>
  108a90: 39400260     	ldrb	w0, [x19]
  108a94: 34ffff40     	cbz	w0, 0x108a7c <_binary_BootROM_ums512_0x100000_0x111FFF_bin_start+0x8a7c>
  108a98: 17fffff4     	b	0x108a68 <_binary_BootROM_ums512_0x100000_0x111FFF_bin_start+0x8a68>
  108a9c: aa1303e0     	mov	x0, x19
  108aa0: 3800141f     	strb	wzr, [x0], #0x1
  108aa4: 2a1503e2     	mov	w2, w21
  108aa8: aa1603e1     	mov	x1, x22
  108aac: 9400006e     	bl	0x108c64 <_binary_BootROM_ums512_0x100000_0x111FFF_bin_start+0x8c64>
  108ab0: 52800020     	mov	w0, #0x1                // =1
  108ab4: 14000004     	b	0x108ac4 <_binary_BootROM_ums512_0x100000_0x111FFF_bin_start+0x8ac4>
  108ab8: 52800000     	mov	w0, #0x0                // =0
  108abc: 14000002     	b	0x108ac4 <_binary_BootROM_ums512_0x100000_0x111FFF_bin_start+0x8ac4>
  108ac0: 52800000     	mov	w0, #0x0                // =0
  108ac4: a94153f3     	ldp	x19, x20, [sp, #0x10]
  108ac8: a9425bf5     	ldp	x21, x22, [sp, #0x20]
  108acc: f9401bf7     	ldr	x23, [sp, #0x30]
  108ad0: a8c47bfd     	ldp	x29, x30, [sp], #0x40
  108ad4: d65f03c0     	ret
  108ad8: a9be7bfd     	stp	x29, x30, [sp, #-0x20]!
  108adc: 910003fd     	mov	x29, sp
  108ae0: f9000bf3     	str	x19, [sp, #0x10]
  108ae4: 11000465     	add	w5, w3, #0x1
  108ae8: 6b0400bf     	cmp	w5, w4
  108aec: 54000441     	b.ne	0x108b74 <_binary_BootROM_ums512_0x100000_0x111FFF_bin_start+0x8b74>
  108af0: 39400044     	ldrb	w4, [x2]
  108af4: 7100089f     	cmp	w4, #0x2
  108af8: 54000421     	b.ne	0x108b7c <_binary_BootROM_ums512_0x100000_0x111FFF_bin_start+0x8b7c>
  108afc: 51000467     	sub	w7, w3, #0x1
  108b00: 710000ff     	cmp	w7, #0x0
  108b04: 5400040d     	b.le	0x108b84 <_binary_BootROM_ums512_0x100000_0x111FFF_bin_start+0x8b84>
  108b08: 91000845     	add	x5, x2, #0x2
  108b0c: 39400442     	ldrb	w2, [x2, #0x1]
  108b10: 340003e2     	cbz	w2, 0x108b8c <_binary_BootROM_ums512_0x100000_0x111FFF_bin_start+0x8b8c>
  108b14: 2a0703e3     	mov	w3, w7
  108b18: 52800004     	mov	w4, #0x0                // =0
  108b1c: 11000482     	add	w2, w4, #0x1
  108b20: 6b03005f     	cmp	w2, w3
  108b24: 540000a0     	b.eq	0x108b38 <_binary_BootROM_ums512_0x100000_0x111FFF_bin_start+0x8b38>
  108b28: 384014a6     	ldrb	w6, [x5], #0x1
  108b2c: 34000066     	cbz	w6, 0x108b38 <_binary_BootROM_ums512_0x100000_0x111FFF_bin_start+0x8b38>
  108b30: 2a0203e4     	mov	w4, w2
  108b34: 17fffffa     	b	0x108b1c <_binary_BootROM_ums512_0x100000_0x111FFF_bin_start+0x8b1c>
  108b38: 71001c5f     	cmp	w2, #0x7
  108b3c: 12800013     	mov	w19, #-0x1              // =-1
  108b40: 7a42c0e4     	ccmp	w7, w2, #0x4, gt
  108b44: 54000100     	b.eq	0x108b64 <_binary_BootROM_ums512_0x100000_0x111FFF_bin_start+0x8b64>
  108b48: 11000884     	add	w4, w4, #0x2
  108b4c: 4b0400f3     	sub	w19, w7, w4
  108b50: 6b01027f     	cmp	w19, w1
  108b54: 5400020c     	b.gt	0x108b94 <_binary_BootROM_ums512_0x100000_0x111FFF_bin_start+0x8b94>
  108b58: 2a1303e2     	mov	w2, w19
  108b5c: aa0503e1     	mov	x1, x5
  108b60: 94000041     	bl	0x108c64 <_binary_BootROM_ums512_0x100000_0x111FFF_bin_start+0x8c64>
  108b64: 2a1303e0     	mov	w0, w19
  108b68: f9400bf3     	ldr	x19, [sp, #0x10]
  108b6c: a8c27bfd     	ldp	x29, x30, [sp], #0x20
  108b70: d65f03c0     	ret
  108b74: 12800013     	mov	w19, #-0x1              // =-1
  108b78: 17fffffb     	b	0x108b64 <_binary_BootROM_ums512_0x100000_0x111FFF_bin_start+0x8b64>
  108b7c: 12800013     	mov	w19, #-0x1              // =-1
  108b80: 17fffff9     	b	0x108b64 <_binary_BootROM_ums512_0x100000_0x111FFF_bin_start+0x8b64>
  108b84: 12800013     	mov	w19, #-0x1              // =-1
  108b88: 17fffff7     	b	0x108b64 <_binary_BootROM_ums512_0x100000_0x111FFF_bin_start+0x8b64>
  108b8c: 12800013     	mov	w19, #-0x1              // =-1
  108b90: 17fffff5     	b	0x108b64 <_binary_BootROM_ums512_0x100000_0x111FFF_bin_start+0x8b64>
  108b94: 12800013     	mov	w19, #-0x1              // =-1
  108b98: 17fffff3     	b	0x108b64 <_binary_BootROM_ums512_0x100000_0x111FFF_bin_start+0x8b64>
  108b9c: 52800000     	mov	w0, #0x0                // =0
  108ba0: d65f03c0     	ret
  108ba4: 14000000     	b	0x108ba4 <_binary_BootROM_ums512_0x100000_0x111FFF_bin_start+0x8ba4>
  108ba8: d2800002     	mov	x2, #0x0                // =0
  108bac: 38626823     	ldrb	w3, [x1, x2]
  108bb0: 38226803     	strb	w3, [x0, x2]
  108bb4: 91000442     	add	x2, x2, #0x1
  108bb8: 35ffffa3     	cbnz	w3, 0x108bac <_binary_BootROM_ums512_0x100000_0x111FFF_bin_start+0x8bac>
  108bbc: d65f03c0     	ret
  108bc0: 39400002     	ldrb	w2, [x0]
  108bc4: 34000142     	cbz	w2, 0x108bec <_binary_BootROM_ums512_0x100000_0x111FFF_bin_start+0x8bec>
  108bc8: aa0003e4     	mov	x4, x0
  108bcc: 38401c82     	ldrb	w2, [x4, #0x1]!
  108bd0: 35ffffe2     	cbnz	w2, 0x108bcc <_binary_BootROM_ums512_0x100000_0x111FFF_bin_start+0x8bcc>
  108bd4: d2800002     	mov	x2, #0x0                // =0
  108bd8: 38626823     	ldrb	w3, [x1, x2]
  108bdc: 38226883     	strb	w3, [x4, x2]
  108be0: 91000442     	add	x2, x2, #0x1
  108be4: 35ffffa3     	cbnz	w3, 0x108bd8 <_binary_BootROM_ums512_0x100000_0x111FFF_bin_start+0x8bd8>
  108be8: d65f03c0     	ret
  108bec: aa0003e4     	mov	x4, x0
  108bf0: 17fffff9     	b	0x108bd4 <_binary_BootROM_ums512_0x100000_0x111FFF_bin_start+0x8bd4>
  108bf4: d2800002     	mov	x2, #0x0                // =0
  108bf8: 38626803     	ldrb	w3, [x0, x2]
  108bfc: 38626824     	ldrb	w4, [x1, x2]
  108c00: 6b04007f     	cmp	w3, w4
  108c04: 540000a1     	b.ne	0x108c18 <_binary_BootROM_ums512_0x100000_0x111FFF_bin_start+0x8c18>
  108c08: 91000442     	add	x2, x2, #0x1
  108c0c: 35ffff63     	cbnz	w3, 0x108bf8 <_binary_BootROM_ums512_0x100000_0x111FFF_bin_start+0x8bf8>
  108c10: 52800000     	mov	w0, #0x0                // =0
  108c14: d65f03c0     	ret
  108c18: 52800020     	mov	w0, #0x1                // =1
  108c1c: 5a802400     	cneg	w0, w0, lo
  108c20: d65f03c0     	ret
  108c24: 39400001     	ldrb	w1, [x0]
  108c28: 340000c1     	cbz	w1, 0x108c40 <_binary_BootROM_ums512_0x100000_0x111FFF_bin_start+0x8c40>
  108c2c: aa0003e1     	mov	x1, x0
  108c30: 38401c22     	ldrb	w2, [x1, #0x1]!
  108c34: 35ffffe2     	cbnz	w2, 0x108c30 <_binary_BootROM_ums512_0x100000_0x111FFF_bin_start+0x8c30>
  108c38: cb000020     	sub	x0, x1, x0
  108c3c: d65f03c0     	ret
  108c40: aa0003e1     	mov	x1, x0
  108c44: 17fffffd     	b	0x108c38 <_binary_BootROM_ums512_0x100000_0x111FFF_bin_start+0x8c38>
  108c48: b40000c2     	cbz	x2, 0x108c60 <_binary_BootROM_ums512_0x100000_0x111FFF_bin_start+0x8c60>
  108c4c: 8b020002     	add	x2, x0, x2
  108c50: aa0003e3     	mov	x3, x0
  108c54: 38001461     	strb	w1, [x3], #0x1
  108c58: eb03005f     	cmp	x2, x3
  108c5c: 54ffffc1     	b.ne	0x108c54 <_binary_BootROM_ums512_0x100000_0x111FFF_bin_start+0x8c54>
  108c60: d65f03c0     	ret
  108c64: b40000e2     	cbz	x2, 0x108c80 <_binary_BootROM_ums512_0x100000_0x111FFF_bin_start+0x8c80>
  108c68: d2800003     	mov	x3, #0x0                // =0
  108c6c: 38636824     	ldrb	w4, [x1, x3]
  108c70: 38236804     	strb	w4, [x0, x3]
  108c74: 91000463     	add	x3, x3, #0x1
  108c78: eb02007f     	cmp	x3, x2
  108c7c: 54ffff81     	b.ne	0x108c6c <_binary_BootROM_ums512_0x100000_0x111FFF_bin_start+0x8c6c>
  108c80: d65f03c0     	ret
  108c84: aa0003e6     	mov	x6, x0
  108c88: b4000202     	cbz	x2, 0x108cc8 <_binary_BootROM_ums512_0x100000_0x111FFF_bin_start+0x8cc8>
  108c8c: 39400000     	ldrb	w0, [x0]
  108c90: 39400023     	ldrb	w3, [x1]
  108c94: 6b030000     	subs	w0, w0, w3
  108c98: 54000141     	b.ne	0x108cc0 <_binary_BootROM_ums512_0x100000_0x111FFF_bin_start+0x8cc0>
  108c9c: d2800023     	mov	x3, #0x1                // =1
  108ca0: eb02007f     	cmp	x3, x2
  108ca4: 54000100     	b.eq	0x108cc4 <_binary_BootROM_ums512_0x100000_0x111FFF_bin_start+0x8cc4>
  108ca8: 386368c4     	ldrb	w4, [x6, x3]
  108cac: 38636825     	ldrb	w5, [x1, x3]
  108cb0: 91000463     	add	x3, x3, #0x1
  108cb4: 6b050084     	subs	w4, w4, w5
  108cb8: 54ffff40     	b.eq	0x108ca0 <_binary_BootROM_ums512_0x100000_0x111FFF_bin_start+0x8ca0>
  108cbc: 2a0403e0     	mov	w0, w4
  108cc0: d65f03c0     	ret
  108cc4: d65f03c0     	ret
  108cc8: 52800000     	mov	w0, #0x0                // =0
  108ccc: d65f03c0     	ret
  108cd0: ffffffff     	<unknown>
  108cd4: ffffffff     	<unknown>
  108cd8: ffffffff     	<unknown>
  108cdc: ffffffff     	<unknown>
  108ce0: ffffffff     	<unknown>
  108ce4: ffffffff     	<unknown>
  108ce8: ffffffff     	<unknown>
  108cec: ffffffff     	<unknown>
  108cf0: ffffffff     	<unknown>
  108cf4: ffffffff     	<unknown>
  108cf8: ffffffff     	<unknown>
  108cfc: ffffffff     	<unknown>
  108d00: ffffffff     	<unknown>
  108d04: ffffffff     	<unknown>
  108d08: ffffffff     	<unknown>
  108d0c: ffffffff     	<unknown>
  108d10: ffffffff     	<unknown>
  108d14: ffffffff     	<unknown>
  108d18: ffffffff     	<unknown>
  108d1c: ffffffff     	<unknown>
  108d20: ffffffff     	<unknown>
  108d24: ffffffff     	<unknown>
  108d28: ffffffff     	<unknown>
  108d2c: ffffffff     	<unknown>
  108d30: ffffffff     	<unknown>
  108d34: ffffffff     	<unknown>
  108d38: ffffffff     	<unknown>
  108d3c: ffffffff     	<unknown>
  108d40: ffffffff     	<unknown>
  108d44: ffffffff     	<unknown>
  108d48: ffffffff     	<unknown>
  108d4c: ffffffff     	<unknown>
  108d50: ffffffff     	<unknown>
  108d54: ffffffff     	<unknown>
  108d58: ffffffff     	<unknown>
  108d5c: ffffffff     	<unknown>
  108d60: ffffffff     	<unknown>
  108d64: ffffffff     	<unknown>
  108d68: ffffffff     	<unknown>
  108d6c: ffffffff     	<unknown>
  108d70: ffffffff     	<unknown>
  108d74: ffffffff     	<unknown>
  108d78: ffffffff     	<unknown>
  108d7c: ffffffff     	<unknown>
  108d80: ffffffff     	<unknown>
  108d84: ffffffff     	<unknown>
  108d88: ffffffff     	<unknown>
  108d8c: ffffffff     	<unknown>
  108d90: ffffffff     	<unknown>
  108d94: ffffffff     	<unknown>
  108d98: ffffffff     	<unknown>
  108d9c: ffffffff     	<unknown>
  108da0: ffffffff     	<unknown>
  108da4: ffffffff     	<unknown>
  108da8: ffffffff     	<unknown>
  108dac: ffffffff     	<unknown>
  108db0: ffffffff     	<unknown>
  108db4: ffffffff     	<unknown>
  108db8: ffffffff     	<unknown>
  108dbc: ffffffff     	<unknown>
  108dc0: ffffffff     	<unknown>
  108dc4: ffffffff     	<unknown>
  108dc8: ffffffff     	<unknown>
  108dcc: ffffffff     	<unknown>
  108dd0: ffffffff     	<unknown>
  108dd4: ffffffff     	<unknown>
  108dd8: ffffffff     	<unknown>
  108ddc: ffffffff     	<unknown>
  108de0: ffffffff     	<unknown>
  108de4: ffffffff     	<unknown>
  108de8: ffffffff     	<unknown>
  108dec: ffffffff     	<unknown>
  108df0: ffffffff     	<unknown>
  108df4: ffffffff     	<unknown>
  108df8: ffffffff     	<unknown>
  108dfc: ffffffff     	<unknown>
  108e00: ffffffff     	<unknown>
  108e04: ffffffff     	<unknown>
  108e08: ffffffff     	<unknown>
  108e0c: ffffffff     	<unknown>
  108e10: ffffffff     	<unknown>
  108e14: ffffffff     	<unknown>
  108e18: ffffffff     	<unknown>
  108e1c: ffffffff     	<unknown>
  108e20: ffffffff     	<unknown>
  108e24: ffffffff     	<unknown>
  108e28: ffffffff     	<unknown>
  108e2c: ffffffff     	<unknown>
  108e30: ffffffff     	<unknown>
  108e34: ffffffff     	<unknown>
  108e38: ffffffff     	<unknown>
  108e3c: ffffffff     	<unknown>
  108e40: ffffffff     	<unknown>
  108e44: ffffffff     	<unknown>
  108e48: ffffffff     	<unknown>
  108e4c: ffffffff     	<unknown>
  108e50: ffffffff     	<unknown>
  108e54: ffffffff     	<unknown>
  108e58: ffffffff     	<unknown>
  108e5c: ffffffff     	<unknown>
  108e60: ffffffff     	<unknown>
  108e64: ffffffff     	<unknown>
  108e68: ffffffff     	<unknown>
  108e6c: ffffffff     	<unknown>
  108e70: ffffffff     	<unknown>
  108e74: ffffffff     	<unknown>
  108e78: ffffffff     	<unknown>
  108e7c: ffffffff     	<unknown>
  108e80: ffffffff     	<unknown>
  108e84: ffffffff     	<unknown>
  108e88: ffffffff     	<unknown>
  108e8c: ffffffff     	<unknown>
  108e90: ffffffff     	<unknown>
  108e94: ffffffff     	<unknown>
  108e98: ffffffff     	<unknown>
  108e9c: ffffffff     	<unknown>
  108ea0: ffffffff     	<unknown>
  108ea4: ffffffff     	<unknown>
  108ea8: ffffffff     	<unknown>
  108eac: ffffffff     	<unknown>
  108eb0: ffffffff     	<unknown>
  108eb4: ffffffff     	<unknown>
  108eb8: ffffffff     	<unknown>
  108ebc: ffffffff     	<unknown>
  108ec0: ffffffff     	<unknown>
  108ec4: ffffffff     	<unknown>
  108ec8: ffffffff     	<unknown>
  108ecc: ffffffff     	<unknown>
  108ed0: ffffffff     	<unknown>
  108ed4: ffffffff     	<unknown>
  108ed8: ffffffff     	<unknown>
  108edc: ffffffff     	<unknown>
  108ee0: ffffffff     	<unknown>
  108ee4: ffffffff     	<unknown>
  108ee8: ffffffff     	<unknown>
  108eec: ffffffff     	<unknown>
  108ef0: ffffffff     	<unknown>
  108ef4: ffffffff     	<unknown>
  108ef8: ffffffff     	<unknown>
  108efc: ffffffff     	<unknown>
  108f00: ffffffff     	<unknown>
  108f04: ffffffff     	<unknown>
  108f08: ffffffff     	<unknown>
  108f0c: ffffffff     	<unknown>
  108f10: ffffffff     	<unknown>
  108f14: ffffffff     	<unknown>
  108f18: ffffffff     	<unknown>
  108f1c: ffffffff     	<unknown>
  108f20: ffffffff     	<unknown>
  108f24: ffffffff     	<unknown>
  108f28: ffffffff     	<unknown>
  108f2c: ffffffff     	<unknown>
  108f30: ffffffff     	<unknown>
  108f34: ffffffff     	<unknown>
  108f38: ffffffff     	<unknown>
  108f3c: ffffffff     	<unknown>
  108f40: ffffffff     	<unknown>
  108f44: ffffffff     	<unknown>
  108f48: ffffffff     	<unknown>
  108f4c: ffffffff     	<unknown>
  108f50: ffffffff     	<unknown>
  108f54: ffffffff     	<unknown>
  108f58: ffffffff     	<unknown>
  108f5c: ffffffff     	<unknown>
  108f60: ffffffff     	<unknown>
  108f64: ffffffff     	<unknown>
  108f68: ffffffff     	<unknown>
  108f6c: ffffffff     	<unknown>
  108f70: ffffffff     	<unknown>
  108f74: ffffffff     	<unknown>
  108f78: ffffffff     	<unknown>
  108f7c: ffffffff     	<unknown>
  108f80: ffffffff     	<unknown>
  108f84: ffffffff     	<unknown>
  108f88: ffffffff     	<unknown>
  108f8c: ffffffff     	<unknown>
  108f90: ffffffff     	<unknown>
  108f94: ffffffff     	<unknown>
  108f98: ffffffff     	<unknown>
  108f9c: ffffffff     	<unknown>
  108fa0: ffffffff     	<unknown>
  108fa4: ffffffff     	<unknown>
  108fa8: ffffffff     	<unknown>
  108fac: ffffffff     	<unknown>
  108fb0: ffffffff     	<unknown>
  108fb4: ffffffff     	<unknown>
  108fb8: ffffffff     	<unknown>
  108fbc: ffffffff     	<unknown>
  108fc0: ffffffff     	<unknown>
  108fc4: ffffffff     	<unknown>
  108fc8: ffffffff     	<unknown>
  108fcc: ffffffff     	<unknown>
  108fd0: ffffffff     	<unknown>
  108fd4: ffffffff     	<unknown>
  108fd8: ffffffff     	<unknown>
  108fdc: ffffffff     	<unknown>
  108fe0: ffffffff     	<unknown>
  108fe4: ffffffff     	<unknown>
  108fe8: ffffffff     	<unknown>
  108fec: ffffffff     	<unknown>
  108ff0: ffffffff     	<unknown>
  108ff4: ffffffff     	<unknown>
  108ff8: ffffffff     	<unknown>
  108ffc: ffffffff     	<unknown>
  109000: ffffffff     	<unknown>
  109004: ffffffff     	<unknown>
  109008: ffffffff     	<unknown>
  10900c: ffffffff     	<unknown>
  109010: ffffffff     	<unknown>
  109014: ffffffff     	<unknown>
  109018: ffffffff     	<unknown>
  10901c: ffffffff     	<unknown>
  109020: ffffffff     	<unknown>
  109024: ffffffff     	<unknown>
  109028: ffffffff     	<unknown>
  10902c: ffffffff     	<unknown>
  109030: ffffffff     	<unknown>
  109034: ffffffff     	<unknown>
  109038: ffffffff     	<unknown>
  10903c: ffffffff     	<unknown>
  109040: ffffffff     	<unknown>
  109044: ffffffff     	<unknown>
  109048: ffffffff     	<unknown>
  10904c: ffffffff     	<unknown>
  109050: ffffffff     	<unknown>
  109054: ffffffff     	<unknown>
  109058: ffffffff     	<unknown>
  10905c: ffffffff     	<unknown>
  109060: ffffffff     	<unknown>
  109064: ffffffff     	<unknown>
  109068: ffffffff     	<unknown>
  10906c: ffffffff     	<unknown>
  109070: ffffffff     	<unknown>
  109074: ffffffff     	<unknown>
  109078: ffffffff     	<unknown>
  10907c: ffffffff     	<unknown>
  109080: ffffffff     	<unknown>
  109084: ffffffff     	<unknown>
  109088: ffffffff     	<unknown>
  10908c: ffffffff     	<unknown>
  109090: ffffffff     	<unknown>
  109094: ffffffff     	<unknown>
  109098: ffffffff     	<unknown>
  10909c: ffffffff     	<unknown>
  1090a0: ffffffff     	<unknown>
  1090a4: ffffffff     	<unknown>
  1090a8: ffffffff     	<unknown>
  1090ac: ffffffff     	<unknown>
  1090b0: ffffffff     	<unknown>
  1090b4: ffffffff     	<unknown>
  1090b8: ffffffff     	<unknown>
  1090bc: ffffffff     	<unknown>
  1090c0: ffffffff     	<unknown>
  1090c4: ffffffff     	<unknown>
  1090c8: ffffffff     	<unknown>
  1090cc: ffffffff     	<unknown>
  1090d0: ffffffff     	<unknown>
  1090d4: ffffffff     	<unknown>
  1090d8: ffffffff     	<unknown>
  1090dc: ffffffff     	<unknown>
  1090e0: ffffffff     	<unknown>
  1090e4: ffffffff     	<unknown>
  1090e8: ffffffff     	<unknown>
  1090ec: ffffffff     	<unknown>
  1090f0: ffffffff     	<unknown>
  1090f4: ffffffff     	<unknown>
  1090f8: ffffffff     	<unknown>
  1090fc: ffffffff     	<unknown>
  109100: ffffffff     	<unknown>
  109104: ffffffff     	<unknown>
  109108: ffffffff     	<unknown>
  10910c: ffffffff     	<unknown>
  109110: ffffffff     	<unknown>
  109114: ffffffff     	<unknown>
  109118: ffffffff     	<unknown>
  10911c: ffffffff     	<unknown>
  109120: ffffffff     	<unknown>
  109124: ffffffff     	<unknown>
  109128: ffffffff     	<unknown>
  10912c: ffffffff     	<unknown>
  109130: ffffffff     	<unknown>
  109134: ffffffff     	<unknown>
  109138: ffffffff     	<unknown>
  10913c: ffffffff     	<unknown>
  109140: ffffffff     	<unknown>
  109144: ffffffff     	<unknown>
  109148: ffffffff     	<unknown>
  10914c: ffffffff     	<unknown>
  109150: ffffffff     	<unknown>
  109154: ffffffff     	<unknown>
  109158: ffffffff     	<unknown>
  10915c: ffffffff     	<unknown>
  109160: ffffffff     	<unknown>
  109164: ffffffff     	<unknown>
  109168: ffffffff     	<unknown>
  10916c: ffffffff     	<unknown>
  109170: ffffffff     	<unknown>
  109174: ffffffff     	<unknown>
  109178: ffffffff     	<unknown>
  10917c: ffffffff     	<unknown>
  109180: ffffffff     	<unknown>
  109184: ffffffff     	<unknown>
  109188: ffffffff     	<unknown>
  10918c: ffffffff     	<unknown>
  109190: ffffffff     	<unknown>
  109194: ffffffff     	<unknown>
  109198: ffffffff     	<unknown>
  10919c: ffffffff     	<unknown>
  1091a0: ffffffff     	<unknown>
  1091a4: ffffffff     	<unknown>
  1091a8: ffffffff     	<unknown>
  1091ac: ffffffff     	<unknown>
  1091b0: ffffffff     	<unknown>
  1091b4: ffffffff     	<unknown>
  1091b8: ffffffff     	<unknown>
  1091bc: ffffffff     	<unknown>
  1091c0: ffffffff     	<unknown>
  1091c4: ffffffff     	<unknown>
  1091c8: ffffffff     	<unknown>
  1091cc: ffffffff     	<unknown>
  1091d0: ffffffff     	<unknown>
  1091d4: ffffffff     	<unknown>
  1091d8: ffffffff     	<unknown>
  1091dc: ffffffff     	<unknown>
  1091e0: ffffffff     	<unknown>
  1091e4: ffffffff     	<unknown>
  1091e8: ffffffff     	<unknown>
  1091ec: ffffffff     	<unknown>
  1091f0: ffffffff     	<unknown>
  1091f4: ffffffff     	<unknown>
  1091f8: ffffffff     	<unknown>
  1091fc: ffffffff     	<unknown>
  109200: ffffffff     	<unknown>
  109204: ffffffff     	<unknown>
  109208: ffffffff     	<unknown>
  10920c: ffffffff     	<unknown>
  109210: ffffffff     	<unknown>
  109214: ffffffff     	<unknown>
  109218: ffffffff     	<unknown>
  10921c: ffffffff     	<unknown>
  109220: ffffffff     	<unknown>
  109224: ffffffff     	<unknown>
  109228: ffffffff     	<unknown>
  10922c: ffffffff     	<unknown>
  109230: ffffffff     	<unknown>
  109234: ffffffff     	<unknown>
  109238: ffffffff     	<unknown>
  10923c: ffffffff     	<unknown>
  109240: ffffffff     	<unknown>
  109244: ffffffff     	<unknown>
  109248: ffffffff     	<unknown>
  10924c: ffffffff     	<unknown>
  109250: ffffffff     	<unknown>
  109254: ffffffff     	<unknown>
  109258: ffffffff     	<unknown>
  10925c: ffffffff     	<unknown>
  109260: ffffffff     	<unknown>
  109264: ffffffff     	<unknown>
  109268: ffffffff     	<unknown>
  10926c: ffffffff     	<unknown>
  109270: ffffffff     	<unknown>
  109274: ffffffff     	<unknown>
  109278: ffffffff     	<unknown>
  10927c: ffffffff     	<unknown>
  109280: ffffffff     	<unknown>
  109284: ffffffff     	<unknown>
  109288: ffffffff     	<unknown>
  10928c: ffffffff     	<unknown>
  109290: ffffffff     	<unknown>
  109294: ffffffff     	<unknown>
  109298: ffffffff     	<unknown>
  10929c: ffffffff     	<unknown>
  1092a0: ffffffff     	<unknown>
  1092a4: ffffffff     	<unknown>
  1092a8: ffffffff     	<unknown>
  1092ac: ffffffff     	<unknown>
  1092b0: ffffffff     	<unknown>
  1092b4: ffffffff     	<unknown>
  1092b8: ffffffff     	<unknown>
  1092bc: ffffffff     	<unknown>
  1092c0: ffffffff     	<unknown>
  1092c4: ffffffff     	<unknown>
  1092c8: ffffffff     	<unknown>
  1092cc: ffffffff     	<unknown>
  1092d0: ffffffff     	<unknown>
  1092d4: ffffffff     	<unknown>
  1092d8: ffffffff     	<unknown>
  1092dc: ffffffff     	<unknown>
  1092e0: ffffffff     	<unknown>
  1092e4: ffffffff     	<unknown>
  1092e8: ffffffff     	<unknown>
  1092ec: ffffffff     	<unknown>
  1092f0: ffffffff     	<unknown>
  1092f4: ffffffff     	<unknown>
  1092f8: ffffffff     	<unknown>
  1092fc: ffffffff     	<unknown>
  109300: ffffffff     	<unknown>
  109304: ffffffff     	<unknown>
  109308: ffffffff     	<unknown>
  10930c: ffffffff     	<unknown>
  109310: ffffffff     	<unknown>
  109314: ffffffff     	<unknown>
  109318: ffffffff     	<unknown>
  10931c: ffffffff     	<unknown>
  109320: ffffffff     	<unknown>
  109324: ffffffff     	<unknown>
  109328: ffffffff     	<unknown>
  10932c: ffffffff     	<unknown>
  109330: ffffffff     	<unknown>
  109334: ffffffff     	<unknown>
  109338: ffffffff     	<unknown>
  10933c: ffffffff     	<unknown>
  109340: ffffffff     	<unknown>
  109344: ffffffff     	<unknown>
  109348: ffffffff     	<unknown>
  10934c: ffffffff     	<unknown>
  109350: ffffffff     	<unknown>
  109354: ffffffff     	<unknown>
  109358: ffffffff     	<unknown>
  10935c: ffffffff     	<unknown>
  109360: ffffffff     	<unknown>
  109364: ffffffff     	<unknown>
  109368: ffffffff     	<unknown>
  10936c: ffffffff     	<unknown>
  109370: ffffffff     	<unknown>
  109374: ffffffff     	<unknown>
  109378: ffffffff     	<unknown>
  10937c: ffffffff     	<unknown>
  109380: ffffffff     	<unknown>
  109384: ffffffff     	<unknown>
  109388: ffffffff     	<unknown>
  10938c: ffffffff     	<unknown>
  109390: ffffffff     	<unknown>
  109394: ffffffff     	<unknown>
  109398: ffffffff     	<unknown>
  10939c: ffffffff     	<unknown>
  1093a0: ffffffff     	<unknown>
  1093a4: ffffffff     	<unknown>
  1093a8: ffffffff     	<unknown>
  1093ac: ffffffff     	<unknown>
  1093b0: ffffffff     	<unknown>
  1093b4: ffffffff     	<unknown>
  1093b8: ffffffff     	<unknown>
  1093bc: ffffffff     	<unknown>
  1093c0: ffffffff     	<unknown>
  1093c4: ffffffff     	<unknown>
  1093c8: ffffffff     	<unknown>
  1093cc: ffffffff     	<unknown>
  1093d0: ffffffff     	<unknown>
  1093d4: ffffffff     	<unknown>
  1093d8: ffffffff     	<unknown>
  1093dc: ffffffff     	<unknown>
  1093e0: ffffffff     	<unknown>
  1093e4: ffffffff     	<unknown>
  1093e8: ffffffff     	<unknown>
  1093ec: ffffffff     	<unknown>
  1093f0: ffffffff     	<unknown>
  1093f4: ffffffff     	<unknown>
  1093f8: ffffffff     	<unknown>
  1093fc: ffffffff     	<unknown>
  109400: ffffffff     	<unknown>
  109404: ffffffff     	<unknown>
  109408: ffffffff     	<unknown>
  10940c: ffffffff     	<unknown>
  109410: ffffffff     	<unknown>
  109414: ffffffff     	<unknown>
  109418: ffffffff     	<unknown>
  10941c: ffffffff     	<unknown>
  109420: ffffffff     	<unknown>
  109424: ffffffff     	<unknown>
  109428: ffffffff     	<unknown>
  10942c: ffffffff     	<unknown>
  109430: ffffffff     	<unknown>
  109434: ffffffff     	<unknown>
  109438: ffffffff     	<unknown>
  10943c: ffffffff     	<unknown>
  109440: ffffffff     	<unknown>
  109444: ffffffff     	<unknown>
  109448: ffffffff     	<unknown>
  10944c: ffffffff     	<unknown>
  109450: ffffffff     	<unknown>
  109454: ffffffff     	<unknown>
  109458: ffffffff     	<unknown>
  10945c: ffffffff     	<unknown>
  109460: ffffffff     	<unknown>
  109464: ffffffff     	<unknown>
  109468: ffffffff     	<unknown>
  10946c: ffffffff     	<unknown>
  109470: ffffffff     	<unknown>
  109474: ffffffff     	<unknown>
  109478: ffffffff     	<unknown>
  10947c: ffffffff     	<unknown>
  109480: ffffffff     	<unknown>
  109484: ffffffff     	<unknown>
  109488: ffffffff     	<unknown>
  10948c: ffffffff     	<unknown>
  109490: ffffffff     	<unknown>
  109494: ffffffff     	<unknown>
  109498: ffffffff     	<unknown>
  10949c: ffffffff     	<unknown>
  1094a0: ffffffff     	<unknown>
  1094a4: ffffffff     	<unknown>
  1094a8: ffffffff     	<unknown>
  1094ac: ffffffff     	<unknown>
  1094b0: ffffffff     	<unknown>
  1094b4: ffffffff     	<unknown>
  1094b8: ffffffff     	<unknown>
  1094bc: ffffffff     	<unknown>
  1094c0: ffffffff     	<unknown>
  1094c4: ffffffff     	<unknown>
  1094c8: ffffffff     	<unknown>
  1094cc: ffffffff     	<unknown>
  1094d0: ffffffff     	<unknown>
  1094d4: ffffffff     	<unknown>
  1094d8: ffffffff     	<unknown>
  1094dc: ffffffff     	<unknown>
  1094e0: ffffffff     	<unknown>
  1094e4: ffffffff     	<unknown>
  1094e8: ffffffff     	<unknown>
  1094ec: ffffffff     	<unknown>
  1094f0: ffffffff     	<unknown>
  1094f4: ffffffff     	<unknown>
  1094f8: ffffffff     	<unknown>
  1094fc: ffffffff     	<unknown>
  109500: ffffffff     	<unknown>
  109504: ffffffff     	<unknown>
  109508: ffffffff     	<unknown>
  10950c: ffffffff     	<unknown>
  109510: ffffffff     	<unknown>
  109514: ffffffff     	<unknown>
  109518: ffffffff     	<unknown>
  10951c: ffffffff     	<unknown>
  109520: ffffffff     	<unknown>
  109524: ffffffff     	<unknown>
  109528: ffffffff     	<unknown>
  10952c: ffffffff     	<unknown>
  109530: ffffffff     	<unknown>
  109534: ffffffff     	<unknown>
  109538: ffffffff     	<unknown>
  10953c: ffffffff     	<unknown>
  109540: ffffffff     	<unknown>
  109544: ffffffff     	<unknown>
  109548: ffffffff     	<unknown>
  10954c: ffffffff     	<unknown>
  109550: ffffffff     	<unknown>
  109554: ffffffff     	<unknown>
  109558: ffffffff     	<unknown>
  10955c: ffffffff     	<unknown>
  109560: ffffffff     	<unknown>
  109564: ffffffff     	<unknown>
  109568: ffffffff     	<unknown>
  10956c: ffffffff     	<unknown>
  109570: ffffffff     	<unknown>
  109574: ffffffff     	<unknown>
  109578: ffffffff     	<unknown>
  10957c: ffffffff     	<unknown>
  109580: ffffffff     	<unknown>
  109584: ffffffff     	<unknown>
  109588: ffffffff     	<unknown>
  10958c: ffffffff     	<unknown>
  109590: ffffffff     	<unknown>
  109594: ffffffff     	<unknown>
  109598: ffffffff     	<unknown>
  10959c: ffffffff     	<unknown>
  1095a0: ffffffff     	<unknown>
  1095a4: ffffffff     	<unknown>
  1095a8: ffffffff     	<unknown>
  1095ac: ffffffff     	<unknown>
  1095b0: ffffffff     	<unknown>
  1095b4: ffffffff     	<unknown>
  1095b8: ffffffff     	<unknown>
  1095bc: ffffffff     	<unknown>
  1095c0: ffffffff     	<unknown>
  1095c4: ffffffff     	<unknown>
  1095c8: ffffffff     	<unknown>
  1095cc: ffffffff     	<unknown>
  1095d0: ffffffff     	<unknown>
  1095d4: ffffffff     	<unknown>
  1095d8: ffffffff     	<unknown>
  1095dc: ffffffff     	<unknown>
  1095e0: ffffffff     	<unknown>
  1095e4: ffffffff     	<unknown>
  1095e8: ffffffff     	<unknown>
  1095ec: ffffffff     	<unknown>
  1095f0: ffffffff     	<unknown>
  1095f4: ffffffff     	<unknown>
  1095f8: ffffffff     	<unknown>
  1095fc: ffffffff     	<unknown>
  109600: ffffffff     	<unknown>
  109604: ffffffff     	<unknown>
  109608: ffffffff     	<unknown>
  10960c: ffffffff     	<unknown>
  109610: ffffffff     	<unknown>
  109614: ffffffff     	<unknown>
  109618: ffffffff     	<unknown>
  10961c: ffffffff     	<unknown>
  109620: ffffffff     	<unknown>
  109624: ffffffff     	<unknown>
  109628: ffffffff     	<unknown>
  10962c: ffffffff     	<unknown>
  109630: ffffffff     	<unknown>
  109634: ffffffff     	<unknown>
  109638: ffffffff     	<unknown>
  10963c: ffffffff     	<unknown>
  109640: ffffffff     	<unknown>
  109644: ffffffff     	<unknown>
  109648: ffffffff     	<unknown>
  10964c: ffffffff     	<unknown>
  109650: ffffffff     	<unknown>
  109654: ffffffff     	<unknown>
  109658: ffffffff     	<unknown>
  10965c: ffffffff     	<unknown>
  109660: ffffffff     	<unknown>
  109664: ffffffff     	<unknown>
  109668: ffffffff     	<unknown>
  10966c: ffffffff     	<unknown>
  109670: ffffffff     	<unknown>
  109674: ffffffff     	<unknown>
  109678: ffffffff     	<unknown>
  10967c: ffffffff     	<unknown>
  109680: ffffffff     	<unknown>
  109684: ffffffff     	<unknown>
  109688: ffffffff     	<unknown>
  10968c: ffffffff     	<unknown>
  109690: ffffffff     	<unknown>
  109694: ffffffff     	<unknown>
  109698: ffffffff     	<unknown>
  10969c: ffffffff     	<unknown>
  1096a0: ffffffff     	<unknown>
  1096a4: ffffffff     	<unknown>
  1096a8: ffffffff     	<unknown>
  1096ac: ffffffff     	<unknown>
  1096b0: ffffffff     	<unknown>
  1096b4: ffffffff     	<unknown>
  1096b8: ffffffff     	<unknown>
  1096bc: ffffffff     	<unknown>
  1096c0: ffffffff     	<unknown>
  1096c4: ffffffff     	<unknown>
  1096c8: ffffffff     	<unknown>
  1096cc: ffffffff     	<unknown>
  1096d0: ffffffff     	<unknown>
  1096d4: ffffffff     	<unknown>
  1096d8: ffffffff     	<unknown>
  1096dc: ffffffff     	<unknown>
  1096e0: ffffffff     	<unknown>
  1096e4: ffffffff     	<unknown>
  1096e8: ffffffff     	<unknown>
  1096ec: ffffffff     	<unknown>
  1096f0: ffffffff     	<unknown>
  1096f4: ffffffff     	<unknown>
  1096f8: ffffffff     	<unknown>
  1096fc: ffffffff     	<unknown>
  109700: ffffffff     	<unknown>
  109704: ffffffff     	<unknown>
  109708: ffffffff     	<unknown>
  10970c: ffffffff     	<unknown>
  109710: ffffffff     	<unknown>
  109714: ffffffff     	<unknown>
  109718: ffffffff     	<unknown>
  10971c: ffffffff     	<unknown>
  109720: ffffffff     	<unknown>
  109724: ffffffff     	<unknown>
  109728: ffffffff     	<unknown>
  10972c: ffffffff     	<unknown>
  109730: ffffffff     	<unknown>
  109734: ffffffff     	<unknown>
  109738: ffffffff     	<unknown>
  10973c: ffffffff     	<unknown>
  109740: ffffffff     	<unknown>
  109744: ffffffff     	<unknown>
  109748: ffffffff     	<unknown>
  10974c: ffffffff     	<unknown>
  109750: ffffffff     	<unknown>
  109754: ffffffff     	<unknown>
  109758: ffffffff     	<unknown>
  10975c: ffffffff     	<unknown>
  109760: ffffffff     	<unknown>
  109764: ffffffff     	<unknown>
  109768: ffffffff     	<unknown>
  10976c: ffffffff     	<unknown>
  109770: ffffffff     	<unknown>
  109774: ffffffff     	<unknown>
  109778: ffffffff     	<unknown>
  10977c: ffffffff     	<unknown>
  109780: ffffffff     	<unknown>
  109784: ffffffff     	<unknown>
  109788: ffffffff     	<unknown>
  10978c: ffffffff     	<unknown>
  109790: ffffffff     	<unknown>
  109794: ffffffff     	<unknown>
  109798: ffffffff     	<unknown>
  10979c: ffffffff     	<unknown>
  1097a0: ffffffff     	<unknown>
  1097a4: ffffffff     	<unknown>
  1097a8: ffffffff     	<unknown>
  1097ac: ffffffff     	<unknown>
  1097b0: ffffffff     	<unknown>
  1097b4: ffffffff     	<unknown>
  1097b8: ffffffff     	<unknown>
  1097bc: ffffffff     	<unknown>
  1097c0: ffffffff     	<unknown>
  1097c4: ffffffff     	<unknown>
  1097c8: ffffffff     	<unknown>
  1097cc: ffffffff     	<unknown>
  1097d0: ffffffff     	<unknown>
  1097d4: ffffffff     	<unknown>
  1097d8: ffffffff     	<unknown>
  1097dc: ffffffff     	<unknown>
  1097e0: ffffffff     	<unknown>
  1097e4: ffffffff     	<unknown>
  1097e8: ffffffff     	<unknown>
  1097ec: ffffffff     	<unknown>
  1097f0: ffffffff     	<unknown>
  1097f4: ffffffff     	<unknown>
  1097f8: ffffffff     	<unknown>
  1097fc: ffffffff     	<unknown>
  109800: ffffffff     	<unknown>
  109804: ffffffff     	<unknown>
  109808: ffffffff     	<unknown>
  10980c: ffffffff     	<unknown>
  109810: ffffffff     	<unknown>
  109814: ffffffff     	<unknown>
  109818: ffffffff     	<unknown>
  10981c: ffffffff     	<unknown>
  109820: ffffffff     	<unknown>
  109824: ffffffff     	<unknown>
  109828: ffffffff     	<unknown>
  10982c: ffffffff     	<unknown>
  109830: ffffffff     	<unknown>
  109834: ffffffff     	<unknown>
  109838: ffffffff     	<unknown>
  10983c: ffffffff     	<unknown>
  109840: ffffffff     	<unknown>
  109844: ffffffff     	<unknown>
  109848: ffffffff     	<unknown>
  10984c: ffffffff     	<unknown>
  109850: ffffffff     	<unknown>
  109854: ffffffff     	<unknown>
  109858: ffffffff     	<unknown>
  10985c: ffffffff     	<unknown>
  109860: ffffffff     	<unknown>
  109864: ffffffff     	<unknown>
  109868: ffffffff     	<unknown>
  10986c: ffffffff     	<unknown>
  109870: ffffffff     	<unknown>
  109874: ffffffff     	<unknown>
  109878: ffffffff     	<unknown>
  10987c: ffffffff     	<unknown>
  109880: ffffffff     	<unknown>
  109884: ffffffff     	<unknown>
  109888: ffffffff     	<unknown>
  10988c: ffffffff     	<unknown>
  109890: ffffffff     	<unknown>
  109894: ffffffff     	<unknown>
  109898: ffffffff     	<unknown>
  10989c: ffffffff     	<unknown>
  1098a0: ffffffff     	<unknown>
  1098a4: ffffffff     	<unknown>
  1098a8: ffffffff     	<unknown>
  1098ac: ffffffff     	<unknown>
  1098b0: ffffffff     	<unknown>
  1098b4: ffffffff     	<unknown>
  1098b8: ffffffff     	<unknown>
  1098bc: ffffffff     	<unknown>
  1098c0: ffffffff     	<unknown>
  1098c4: ffffffff     	<unknown>
  1098c8: ffffffff     	<unknown>
  1098cc: ffffffff     	<unknown>
  1098d0: ffffffff     	<unknown>
  1098d4: ffffffff     	<unknown>
  1098d8: ffffffff     	<unknown>
  1098dc: ffffffff     	<unknown>
  1098e0: ffffffff     	<unknown>
  1098e4: ffffffff     	<unknown>
  1098e8: ffffffff     	<unknown>
  1098ec: ffffffff     	<unknown>
  1098f0: ffffffff     	<unknown>
  1098f4: ffffffff     	<unknown>
  1098f8: ffffffff     	<unknown>
  1098fc: ffffffff     	<unknown>
  109900: ffffffff     	<unknown>
  109904: ffffffff     	<unknown>
  109908: ffffffff     	<unknown>
  10990c: ffffffff     	<unknown>
  109910: ffffffff     	<unknown>
  109914: ffffffff     	<unknown>
  109918: ffffffff     	<unknown>
  10991c: ffffffff     	<unknown>
  109920: ffffffff     	<unknown>
  109924: ffffffff     	<unknown>
  109928: ffffffff     	<unknown>
  10992c: ffffffff     	<unknown>
  109930: ffffffff     	<unknown>
  109934: ffffffff     	<unknown>
  109938: ffffffff     	<unknown>
  10993c: ffffffff     	<unknown>
  109940: ffffffff     	<unknown>
  109944: ffffffff     	<unknown>
  109948: ffffffff     	<unknown>
  10994c: ffffffff     	<unknown>
  109950: ffffffff     	<unknown>
  109954: ffffffff     	<unknown>
  109958: ffffffff     	<unknown>
  10995c: ffffffff     	<unknown>
  109960: ffffffff     	<unknown>
  109964: ffffffff     	<unknown>
  109968: ffffffff     	<unknown>
  10996c: ffffffff     	<unknown>
  109970: ffffffff     	<unknown>
  109974: ffffffff     	<unknown>
  109978: ffffffff     	<unknown>
  10997c: ffffffff     	<unknown>
  109980: ffffffff     	<unknown>
  109984: ffffffff     	<unknown>
  109988: ffffffff     	<unknown>
  10998c: ffffffff     	<unknown>
  109990: ffffffff     	<unknown>
  109994: ffffffff     	<unknown>
  109998: ffffffff     	<unknown>
  10999c: ffffffff     	<unknown>
  1099a0: ffffffff     	<unknown>
  1099a4: ffffffff     	<unknown>
  1099a8: ffffffff     	<unknown>
  1099ac: ffffffff     	<unknown>
  1099b0: ffffffff     	<unknown>
  1099b4: ffffffff     	<unknown>
  1099b8: ffffffff     	<unknown>
  1099bc: ffffffff     	<unknown>
  1099c0: ffffffff     	<unknown>
  1099c4: ffffffff     	<unknown>
  1099c8: ffffffff     	<unknown>
  1099cc: ffffffff     	<unknown>
  1099d0: ffffffff     	<unknown>
  1099d4: ffffffff     	<unknown>
  1099d8: ffffffff     	<unknown>
  1099dc: ffffffff     	<unknown>
  1099e0: ffffffff     	<unknown>
  1099e4: ffffffff     	<unknown>
  1099e8: ffffffff     	<unknown>
  1099ec: ffffffff     	<unknown>
  1099f0: ffffffff     	<unknown>
  1099f4: ffffffff     	<unknown>
  1099f8: ffffffff     	<unknown>
  1099fc: ffffffff     	<unknown>
  109a00: ffffffff     	<unknown>
  109a04: ffffffff     	<unknown>
  109a08: ffffffff     	<unknown>
  109a0c: ffffffff     	<unknown>
  109a10: ffffffff     	<unknown>
  109a14: ffffffff     	<unknown>
  109a18: ffffffff     	<unknown>
  109a1c: ffffffff     	<unknown>
  109a20: ffffffff     	<unknown>
  109a24: ffffffff     	<unknown>
  109a28: ffffffff     	<unknown>
  109a2c: ffffffff     	<unknown>
  109a30: ffffffff     	<unknown>
  109a34: ffffffff     	<unknown>
  109a38: ffffffff     	<unknown>
  109a3c: ffffffff     	<unknown>
  109a40: ffffffff     	<unknown>
  109a44: ffffffff     	<unknown>
  109a48: ffffffff     	<unknown>
  109a4c: ffffffff     	<unknown>
  109a50: ffffffff     	<unknown>
  109a54: ffffffff     	<unknown>
  109a58: ffffffff     	<unknown>
  109a5c: ffffffff     	<unknown>
  109a60: ffffffff     	<unknown>
  109a64: ffffffff     	<unknown>
  109a68: ffffffff     	<unknown>
  109a6c: ffffffff     	<unknown>
  109a70: ffffffff     	<unknown>
  109a74: ffffffff     	<unknown>
  109a78: ffffffff     	<unknown>
  109a7c: ffffffff     	<unknown>
  109a80: ffffffff     	<unknown>
  109a84: ffffffff     	<unknown>
  109a88: ffffffff     	<unknown>
  109a8c: ffffffff     	<unknown>
  109a90: ffffffff     	<unknown>
  109a94: ffffffff     	<unknown>
  109a98: ffffffff     	<unknown>
  109a9c: ffffffff     	<unknown>
  109aa0: ffffffff     	<unknown>
  109aa4: ffffffff     	<unknown>
  109aa8: ffffffff     	<unknown>
  109aac: ffffffff     	<unknown>
  109ab0: ffffffff     	<unknown>
  109ab4: ffffffff     	<unknown>
  109ab8: ffffffff     	<unknown>
  109abc: ffffffff     	<unknown>
  109ac0: ffffffff     	<unknown>
  109ac4: ffffffff     	<unknown>
  109ac8: ffffffff     	<unknown>
  109acc: ffffffff     	<unknown>
  109ad0: ffffffff     	<unknown>
  109ad4: ffffffff     	<unknown>
  109ad8: ffffffff     	<unknown>
  109adc: ffffffff     	<unknown>
  109ae0: ffffffff     	<unknown>
  109ae4: ffffffff     	<unknown>
  109ae8: ffffffff     	<unknown>
  109aec: ffffffff     	<unknown>
  109af0: ffffffff     	<unknown>
  109af4: ffffffff     	<unknown>
  109af8: ffffffff     	<unknown>
  109afc: ffffffff     	<unknown>
  109b00: ffffffff     	<unknown>
  109b04: ffffffff     	<unknown>
  109b08: ffffffff     	<unknown>
  109b0c: ffffffff     	<unknown>
  109b10: ffffffff     	<unknown>
  109b14: ffffffff     	<unknown>
  109b18: ffffffff     	<unknown>
  109b1c: ffffffff     	<unknown>
  109b20: ffffffff     	<unknown>
  109b24: ffffffff     	<unknown>
  109b28: ffffffff     	<unknown>
  109b2c: ffffffff     	<unknown>
  109b30: ffffffff     	<unknown>
  109b34: ffffffff     	<unknown>
  109b38: ffffffff     	<unknown>
  109b3c: ffffffff     	<unknown>
  109b40: ffffffff     	<unknown>
  109b44: ffffffff     	<unknown>
  109b48: ffffffff     	<unknown>
  109b4c: ffffffff     	<unknown>
  109b50: ffffffff     	<unknown>
  109b54: ffffffff     	<unknown>
  109b58: ffffffff     	<unknown>
  109b5c: ffffffff     	<unknown>
  109b60: ffffffff     	<unknown>
  109b64: ffffffff     	<unknown>
  109b68: ffffffff     	<unknown>
  109b6c: ffffffff     	<unknown>
  109b70: ffffffff     	<unknown>
  109b74: ffffffff     	<unknown>
  109b78: ffffffff     	<unknown>
  109b7c: ffffffff     	<unknown>
  109b80: ffffffff     	<unknown>
  109b84: ffffffff     	<unknown>
  109b88: ffffffff     	<unknown>
  109b8c: ffffffff     	<unknown>
  109b90: ffffffff     	<unknown>
  109b94: ffffffff     	<unknown>
  109b98: ffffffff     	<unknown>
  109b9c: ffffffff     	<unknown>
  109ba0: ffffffff     	<unknown>
  109ba4: ffffffff     	<unknown>
  109ba8: ffffffff     	<unknown>
  109bac: ffffffff     	<unknown>
  109bb0: ffffffff     	<unknown>
  109bb4: ffffffff     	<unknown>
  109bb8: ffffffff     	<unknown>
  109bbc: ffffffff     	<unknown>
  109bc0: ffffffff     	<unknown>
  109bc4: ffffffff     	<unknown>
  109bc8: ffffffff     	<unknown>
  109bcc: ffffffff     	<unknown>
  109bd0: ffffffff     	<unknown>
  109bd4: ffffffff     	<unknown>
  109bd8: ffffffff     	<unknown>
  109bdc: ffffffff     	<unknown>
  109be0: ffffffff     	<unknown>
  109be4: ffffffff     	<unknown>
  109be8: ffffffff     	<unknown>
  109bec: ffffffff     	<unknown>
  109bf0: ffffffff     	<unknown>
  109bf4: ffffffff     	<unknown>
  109bf8: ffffffff     	<unknown>
  109bfc: ffffffff     	<unknown>
  109c00: ffffffff     	<unknown>
  109c04: ffffffff     	<unknown>
  109c08: ffffffff     	<unknown>
  109c0c: ffffffff     	<unknown>
  109c10: ffffffff     	<unknown>
  109c14: ffffffff     	<unknown>
  109c18: ffffffff     	<unknown>
  109c1c: ffffffff     	<unknown>
  109c20: ffffffff     	<unknown>
  109c24: ffffffff     	<unknown>
  109c28: ffffffff     	<unknown>
  109c2c: ffffffff     	<unknown>
  109c30: ffffffff     	<unknown>
  109c34: ffffffff     	<unknown>
  109c38: ffffffff     	<unknown>
  109c3c: ffffffff     	<unknown>
  109c40: ffffffff     	<unknown>
  109c44: ffffffff     	<unknown>
  109c48: ffffffff     	<unknown>
  109c4c: ffffffff     	<unknown>
  109c50: ffffffff     	<unknown>
  109c54: ffffffff     	<unknown>
  109c58: ffffffff     	<unknown>
  109c5c: ffffffff     	<unknown>
  109c60: ffffffff     	<unknown>
  109c64: ffffffff     	<unknown>
  109c68: ffffffff     	<unknown>
  109c6c: ffffffff     	<unknown>
  109c70: ffffffff     	<unknown>
  109c74: ffffffff     	<unknown>
  109c78: ffffffff     	<unknown>
  109c7c: ffffffff     	<unknown>
  109c80: ffffffff     	<unknown>
  109c84: ffffffff     	<unknown>
  109c88: ffffffff     	<unknown>
  109c8c: ffffffff     	<unknown>
  109c90: ffffffff     	<unknown>
  109c94: ffffffff     	<unknown>
  109c98: ffffffff     	<unknown>
  109c9c: ffffffff     	<unknown>
  109ca0: ffffffff     	<unknown>
  109ca4: ffffffff     	<unknown>
  109ca8: ffffffff     	<unknown>
  109cac: ffffffff     	<unknown>
  109cb0: ffffffff     	<unknown>
  109cb4: ffffffff     	<unknown>
  109cb8: ffffffff     	<unknown>
  109cbc: ffffffff     	<unknown>
  109cc0: ffffffff     	<unknown>
  109cc4: ffffffff     	<unknown>
  109cc8: ffffffff     	<unknown>
  109ccc: ffffffff     	<unknown>
  109cd0: ffffffff     	<unknown>
  109cd4: ffffffff     	<unknown>
  109cd8: ffffffff     	<unknown>
  109cdc: ffffffff     	<unknown>
  109ce0: ffffffff     	<unknown>
  109ce4: ffffffff     	<unknown>
  109ce8: ffffffff     	<unknown>
  109cec: ffffffff     	<unknown>
  109cf0: ffffffff     	<unknown>
  109cf4: ffffffff     	<unknown>
  109cf8: ffffffff     	<unknown>
  109cfc: ffffffff     	<unknown>
  109d00: ffffffff     	<unknown>
  109d04: ffffffff     	<unknown>
  109d08: ffffffff     	<unknown>
  109d0c: ffffffff     	<unknown>
  109d10: ffffffff     	<unknown>
  109d14: ffffffff     	<unknown>
  109d18: ffffffff     	<unknown>
  109d1c: ffffffff     	<unknown>
  109d20: ffffffff     	<unknown>
  109d24: ffffffff     	<unknown>
  109d28: ffffffff     	<unknown>
  109d2c: ffffffff     	<unknown>
  109d30: ffffffff     	<unknown>
  109d34: ffffffff     	<unknown>
  109d38: ffffffff     	<unknown>
  109d3c: ffffffff     	<unknown>
  109d40: ffffffff     	<unknown>
  109d44: ffffffff     	<unknown>
  109d48: ffffffff     	<unknown>
  109d4c: ffffffff     	<unknown>
  109d50: ffffffff     	<unknown>
  109d54: ffffffff     	<unknown>
  109d58: ffffffff     	<unknown>
  109d5c: ffffffff     	<unknown>
  109d60: ffffffff     	<unknown>
  109d64: ffffffff     	<unknown>
  109d68: ffffffff     	<unknown>
  109d6c: ffffffff     	<unknown>
  109d70: ffffffff     	<unknown>
  109d74: ffffffff     	<unknown>
  109d78: ffffffff     	<unknown>
  109d7c: ffffffff     	<unknown>
  109d80: ffffffff     	<unknown>
  109d84: ffffffff     	<unknown>
  109d88: ffffffff     	<unknown>
  109d8c: ffffffff     	<unknown>
  109d90: ffffffff     	<unknown>
  109d94: ffffffff     	<unknown>
  109d98: ffffffff     	<unknown>
  109d9c: ffffffff     	<unknown>
  109da0: ffffffff     	<unknown>
  109da4: ffffffff     	<unknown>
  109da8: ffffffff     	<unknown>
  109dac: ffffffff     	<unknown>
  109db0: ffffffff     	<unknown>
  109db4: ffffffff     	<unknown>
  109db8: ffffffff     	<unknown>
  109dbc: ffffffff     	<unknown>
  109dc0: ffffffff     	<unknown>
  109dc4: ffffffff     	<unknown>
  109dc8: ffffffff     	<unknown>
  109dcc: ffffffff     	<unknown>
  109dd0: ffffffff     	<unknown>
  109dd4: ffffffff     	<unknown>
  109dd8: ffffffff     	<unknown>
  109ddc: ffffffff     	<unknown>
  109de0: ffffffff     	<unknown>
  109de4: ffffffff     	<unknown>
  109de8: ffffffff     	<unknown>
  109dec: ffffffff     	<unknown>
  109df0: ffffffff     	<unknown>
  109df4: ffffffff     	<unknown>
  109df8: ffffffff     	<unknown>
  109dfc: ffffffff     	<unknown>
  109e00: ffffffff     	<unknown>
  109e04: ffffffff     	<unknown>
  109e08: ffffffff     	<unknown>
  109e0c: ffffffff     	<unknown>
  109e10: ffffffff     	<unknown>
  109e14: ffffffff     	<unknown>
  109e18: ffffffff     	<unknown>
  109e1c: ffffffff     	<unknown>
  109e20: ffffffff     	<unknown>
  109e24: ffffffff     	<unknown>
  109e28: ffffffff     	<unknown>
  109e2c: ffffffff     	<unknown>
  109e30: ffffffff     	<unknown>
  109e34: ffffffff     	<unknown>
  109e38: ffffffff     	<unknown>
  109e3c: ffffffff     	<unknown>
  109e40: ffffffff     	<unknown>
  109e44: ffffffff     	<unknown>
  109e48: ffffffff     	<unknown>
  109e4c: ffffffff     	<unknown>
  109e50: ffffffff     	<unknown>
  109e54: ffffffff     	<unknown>
  109e58: ffffffff     	<unknown>
  109e5c: ffffffff     	<unknown>
  109e60: ffffffff     	<unknown>
  109e64: ffffffff     	<unknown>
  109e68: ffffffff     	<unknown>
  109e6c: ffffffff     	<unknown>
  109e70: ffffffff     	<unknown>
  109e74: ffffffff     	<unknown>
  109e78: ffffffff     	<unknown>
  109e7c: ffffffff     	<unknown>
  109e80: ffffffff     	<unknown>
  109e84: ffffffff     	<unknown>
  109e88: ffffffff     	<unknown>
  109e8c: ffffffff     	<unknown>
  109e90: ffffffff     	<unknown>
  109e94: ffffffff     	<unknown>
  109e98: ffffffff     	<unknown>
  109e9c: ffffffff     	<unknown>
  109ea0: ffffffff     	<unknown>
  109ea4: ffffffff     	<unknown>
  109ea8: ffffffff     	<unknown>
  109eac: ffffffff     	<unknown>
  109eb0: ffffffff     	<unknown>
  109eb4: ffffffff     	<unknown>
  109eb8: ffffffff     	<unknown>
  109ebc: ffffffff     	<unknown>
  109ec0: ffffffff     	<unknown>
  109ec4: ffffffff     	<unknown>
  109ec8: ffffffff     	<unknown>
  109ecc: ffffffff     	<unknown>
  109ed0: ffffffff     	<unknown>
  109ed4: ffffffff     	<unknown>
  109ed8: ffffffff     	<unknown>
  109edc: ffffffff     	<unknown>
  109ee0: ffffffff     	<unknown>
  109ee4: ffffffff     	<unknown>
  109ee8: ffffffff     	<unknown>
  109eec: ffffffff     	<unknown>
  109ef0: ffffffff     	<unknown>
  109ef4: ffffffff     	<unknown>
  109ef8: ffffffff     	<unknown>
  109efc: ffffffff     	<unknown>
  109f00: ffffffff     	<unknown>
  109f04: ffffffff     	<unknown>
  109f08: ffffffff     	<unknown>
  109f0c: ffffffff     	<unknown>
  109f10: ffffffff     	<unknown>
  109f14: ffffffff     	<unknown>
  109f18: ffffffff     	<unknown>
  109f1c: ffffffff     	<unknown>
  109f20: ffffffff     	<unknown>
  109f24: ffffffff     	<unknown>
  109f28: ffffffff     	<unknown>
  109f2c: ffffffff     	<unknown>
  109f30: ffffffff     	<unknown>
  109f34: ffffffff     	<unknown>
  109f38: ffffffff     	<unknown>
  109f3c: ffffffff     	<unknown>
  109f40: ffffffff     	<unknown>
  109f44: ffffffff     	<unknown>
  109f48: ffffffff     	<unknown>
  109f4c: ffffffff     	<unknown>
  109f50: ffffffff     	<unknown>
  109f54: ffffffff     	<unknown>
  109f58: ffffffff     	<unknown>
  109f5c: ffffffff     	<unknown>
  109f60: ffffffff     	<unknown>
  109f64: ffffffff     	<unknown>
  109f68: ffffffff     	<unknown>
  109f6c: ffffffff     	<unknown>
  109f70: ffffffff     	<unknown>
  109f74: ffffffff     	<unknown>
  109f78: ffffffff     	<unknown>
  109f7c: ffffffff     	<unknown>
  109f80: ffffffff     	<unknown>
  109f84: ffffffff     	<unknown>
  109f88: ffffffff     	<unknown>
  109f8c: ffffffff     	<unknown>
  109f90: ffffffff     	<unknown>
  109f94: ffffffff     	<unknown>
  109f98: ffffffff     	<unknown>
  109f9c: ffffffff     	<unknown>
  109fa0: ffffffff     	<unknown>
  109fa4: ffffffff     	<unknown>
  109fa8: ffffffff     	<unknown>
  109fac: ffffffff     	<unknown>
  109fb0: ffffffff     	<unknown>
  109fb4: ffffffff     	<unknown>
  109fb8: ffffffff     	<unknown>
  109fbc: ffffffff     	<unknown>
  109fc0: ffffffff     	<unknown>
  109fc4: ffffffff     	<unknown>
  109fc8: ffffffff     	<unknown>
  109fcc: ffffffff     	<unknown>
  109fd0: ffffffff     	<unknown>
  109fd4: ffffffff     	<unknown>
  109fd8: ffffffff     	<unknown>
  109fdc: ffffffff     	<unknown>
  109fe0: ffffffff     	<unknown>
  109fe4: ffffffff     	<unknown>
  109fe8: ffffffff     	<unknown>
  109fec: ffffffff     	<unknown>
  109ff0: ffffffff     	<unknown>
  109ff4: ffffffff     	<unknown>
  109ff8: ffffffff     	<unknown>
  109ffc: ffffffff     	<unknown>
  10a000: ffffffff     	<unknown>
  10a004: ffffffff     	<unknown>
  10a008: ffffffff     	<unknown>
  10a00c: ffffffff     	<unknown>
  10a010: ffffffff     	<unknown>
  10a014: ffffffff     	<unknown>
  10a018: ffffffff     	<unknown>
  10a01c: ffffffff     	<unknown>
  10a020: ffffffff     	<unknown>
  10a024: ffffffff     	<unknown>
  10a028: ffffffff     	<unknown>
  10a02c: ffffffff     	<unknown>
  10a030: ffffffff     	<unknown>
  10a034: ffffffff     	<unknown>
  10a038: ffffffff     	<unknown>
  10a03c: ffffffff     	<unknown>
  10a040: ffffffff     	<unknown>
  10a044: ffffffff     	<unknown>
  10a048: ffffffff     	<unknown>
  10a04c: ffffffff     	<unknown>
  10a050: ffffffff     	<unknown>
  10a054: ffffffff     	<unknown>
  10a058: ffffffff     	<unknown>
  10a05c: ffffffff     	<unknown>
  10a060: ffffffff     	<unknown>
  10a064: ffffffff     	<unknown>
  10a068: ffffffff     	<unknown>
  10a06c: ffffffff     	<unknown>
  10a070: ffffffff     	<unknown>
  10a074: ffffffff     	<unknown>
  10a078: ffffffff     	<unknown>
  10a07c: ffffffff     	<unknown>
  10a080: ffffffff     	<unknown>
  10a084: ffffffff     	<unknown>
  10a088: ffffffff     	<unknown>
  10a08c: ffffffff     	<unknown>
  10a090: ffffffff     	<unknown>
  10a094: ffffffff     	<unknown>
  10a098: ffffffff     	<unknown>
  10a09c: ffffffff     	<unknown>
  10a0a0: ffffffff     	<unknown>
  10a0a4: ffffffff     	<unknown>
  10a0a8: ffffffff     	<unknown>
  10a0ac: ffffffff     	<unknown>
  10a0b0: ffffffff     	<unknown>
  10a0b4: ffffffff     	<unknown>
  10a0b8: ffffffff     	<unknown>
  10a0bc: ffffffff     	<unknown>
  10a0c0: ffffffff     	<unknown>
  10a0c4: ffffffff     	<unknown>
  10a0c8: ffffffff     	<unknown>
  10a0cc: ffffffff     	<unknown>
  10a0d0: ffffffff     	<unknown>
  10a0d4: ffffffff     	<unknown>
  10a0d8: ffffffff     	<unknown>
  10a0dc: ffffffff     	<unknown>
  10a0e0: ffffffff     	<unknown>
  10a0e4: ffffffff     	<unknown>
  10a0e8: ffffffff     	<unknown>
  10a0ec: ffffffff     	<unknown>
  10a0f0: ffffffff     	<unknown>
  10a0f4: ffffffff     	<unknown>
  10a0f8: ffffffff     	<unknown>
  10a0fc: ffffffff     	<unknown>
  10a100: ffffffff     	<unknown>
  10a104: ffffffff     	<unknown>
  10a108: ffffffff     	<unknown>
  10a10c: ffffffff     	<unknown>
  10a110: ffffffff     	<unknown>
  10a114: ffffffff     	<unknown>
  10a118: ffffffff     	<unknown>
  10a11c: ffffffff     	<unknown>
  10a120: ffffffff     	<unknown>
  10a124: ffffffff     	<unknown>
  10a128: ffffffff     	<unknown>
  10a12c: ffffffff     	<unknown>
  10a130: ffffffff     	<unknown>
  10a134: ffffffff     	<unknown>
  10a138: ffffffff     	<unknown>
  10a13c: ffffffff     	<unknown>
  10a140: ffffffff     	<unknown>
  10a144: ffffffff     	<unknown>
  10a148: ffffffff     	<unknown>
  10a14c: ffffffff     	<unknown>
  10a150: ffffffff     	<unknown>
  10a154: ffffffff     	<unknown>
  10a158: ffffffff     	<unknown>
  10a15c: ffffffff     	<unknown>
  10a160: ffffffff     	<unknown>
  10a164: ffffffff     	<unknown>
  10a168: ffffffff     	<unknown>
  10a16c: ffffffff     	<unknown>
  10a170: ffffffff     	<unknown>
  10a174: ffffffff     	<unknown>
  10a178: ffffffff     	<unknown>
  10a17c: ffffffff     	<unknown>
  10a180: ffffffff     	<unknown>
  10a184: ffffffff     	<unknown>
  10a188: ffffffff     	<unknown>
  10a18c: ffffffff     	<unknown>
  10a190: ffffffff     	<unknown>
  10a194: ffffffff     	<unknown>
  10a198: ffffffff     	<unknown>
  10a19c: ffffffff     	<unknown>
  10a1a0: ffffffff     	<unknown>
  10a1a4: ffffffff     	<unknown>
  10a1a8: ffffffff     	<unknown>
  10a1ac: ffffffff     	<unknown>
  10a1b0: ffffffff     	<unknown>
  10a1b4: ffffffff     	<unknown>
  10a1b8: ffffffff     	<unknown>
  10a1bc: ffffffff     	<unknown>
  10a1c0: ffffffff     	<unknown>
  10a1c4: ffffffff     	<unknown>
  10a1c8: ffffffff     	<unknown>
  10a1cc: ffffffff     	<unknown>
  10a1d0: ffffffff     	<unknown>
  10a1d4: ffffffff     	<unknown>
  10a1d8: ffffffff     	<unknown>
  10a1dc: ffffffff     	<unknown>
  10a1e0: ffffffff     	<unknown>
  10a1e4: ffffffff     	<unknown>
  10a1e8: ffffffff     	<unknown>
  10a1ec: ffffffff     	<unknown>
  10a1f0: ffffffff     	<unknown>
  10a1f4: ffffffff     	<unknown>
  10a1f8: ffffffff     	<unknown>
  10a1fc: ffffffff     	<unknown>
  10a200: ffffffff     	<unknown>
  10a204: ffffffff     	<unknown>
  10a208: ffffffff     	<unknown>
  10a20c: ffffffff     	<unknown>
  10a210: ffffffff     	<unknown>
  10a214: ffffffff     	<unknown>
  10a218: ffffffff     	<unknown>
  10a21c: ffffffff     	<unknown>
  10a220: ffffffff     	<unknown>
  10a224: ffffffff     	<unknown>
  10a228: ffffffff     	<unknown>
  10a22c: ffffffff     	<unknown>
  10a230: ffffffff     	<unknown>
  10a234: ffffffff     	<unknown>
  10a238: ffffffff     	<unknown>
  10a23c: ffffffff     	<unknown>
  10a240: ffffffff     	<unknown>
  10a244: ffffffff     	<unknown>
  10a248: ffffffff     	<unknown>
  10a24c: ffffffff     	<unknown>
  10a250: ffffffff     	<unknown>
  10a254: ffffffff     	<unknown>
  10a258: ffffffff     	<unknown>
  10a25c: ffffffff     	<unknown>
  10a260: ffffffff     	<unknown>
  10a264: ffffffff     	<unknown>
  10a268: ffffffff     	<unknown>
  10a26c: ffffffff     	<unknown>
  10a270: ffffffff     	<unknown>
  10a274: ffffffff     	<unknown>
  10a278: ffffffff     	<unknown>
  10a27c: ffffffff     	<unknown>
  10a280: ffffffff     	<unknown>
  10a284: ffffffff     	<unknown>
  10a288: ffffffff     	<unknown>
  10a28c: ffffffff     	<unknown>
  10a290: ffffffff     	<unknown>
  10a294: ffffffff     	<unknown>
  10a298: ffffffff     	<unknown>
  10a29c: ffffffff     	<unknown>
  10a2a0: ffffffff     	<unknown>
  10a2a4: ffffffff     	<unknown>
  10a2a8: ffffffff     	<unknown>
  10a2ac: ffffffff     	<unknown>
  10a2b0: ffffffff     	<unknown>
  10a2b4: ffffffff     	<unknown>
  10a2b8: ffffffff     	<unknown>
  10a2bc: ffffffff     	<unknown>
  10a2c0: ffffffff     	<unknown>
  10a2c4: ffffffff     	<unknown>
  10a2c8: ffffffff     	<unknown>
  10a2cc: ffffffff     	<unknown>
  10a2d0: ffffffff     	<unknown>
  10a2d4: ffffffff     	<unknown>
  10a2d8: ffffffff     	<unknown>
  10a2dc: ffffffff     	<unknown>
  10a2e0: ffffffff     	<unknown>
  10a2e4: ffffffff     	<unknown>
  10a2e8: ffffffff     	<unknown>
  10a2ec: ffffffff     	<unknown>
  10a2f0: ffffffff     	<unknown>
  10a2f4: ffffffff     	<unknown>
  10a2f8: ffffffff     	<unknown>
  10a2fc: ffffffff     	<unknown>
  10a300: ffffffff     	<unknown>
  10a304: ffffffff     	<unknown>
  10a308: ffffffff     	<unknown>
  10a30c: ffffffff     	<unknown>
  10a310: ffffffff     	<unknown>
  10a314: ffffffff     	<unknown>
  10a318: ffffffff     	<unknown>
  10a31c: ffffffff     	<unknown>
  10a320: ffffffff     	<unknown>
  10a324: ffffffff     	<unknown>
  10a328: ffffffff     	<unknown>
  10a32c: ffffffff     	<unknown>
  10a330: ffffffff     	<unknown>
  10a334: ffffffff     	<unknown>
  10a338: ffffffff     	<unknown>
  10a33c: ffffffff     	<unknown>
  10a340: ffffffff     	<unknown>
  10a344: ffffffff     	<unknown>
  10a348: ffffffff     	<unknown>
  10a34c: ffffffff     	<unknown>
  10a350: ffffffff     	<unknown>
  10a354: ffffffff     	<unknown>
  10a358: ffffffff     	<unknown>
  10a35c: ffffffff     	<unknown>
  10a360: ffffffff     	<unknown>
  10a364: ffffffff     	<unknown>
  10a368: ffffffff     	<unknown>
  10a36c: ffffffff     	<unknown>
  10a370: ffffffff     	<unknown>
  10a374: ffffffff     	<unknown>
  10a378: ffffffff     	<unknown>
  10a37c: ffffffff     	<unknown>
  10a380: ffffffff     	<unknown>
  10a384: ffffffff     	<unknown>
  10a388: ffffffff     	<unknown>
  10a38c: ffffffff     	<unknown>
  10a390: ffffffff     	<unknown>
  10a394: ffffffff     	<unknown>
  10a398: ffffffff     	<unknown>
  10a39c: ffffffff     	<unknown>
  10a3a0: ffffffff     	<unknown>
  10a3a4: ffffffff     	<unknown>
  10a3a8: ffffffff     	<unknown>
  10a3ac: ffffffff     	<unknown>
  10a3b0: ffffffff     	<unknown>
  10a3b4: ffffffff     	<unknown>
  10a3b8: ffffffff     	<unknown>
  10a3bc: ffffffff     	<unknown>
  10a3c0: ffffffff     	<unknown>
  10a3c4: ffffffff     	<unknown>
  10a3c8: ffffffff     	<unknown>
  10a3cc: ffffffff     	<unknown>
  10a3d0: ffffffff     	<unknown>
  10a3d4: ffffffff     	<unknown>
  10a3d8: ffffffff     	<unknown>
  10a3dc: ffffffff     	<unknown>
  10a3e0: ffffffff     	<unknown>
  10a3e4: ffffffff     	<unknown>
  10a3e8: ffffffff     	<unknown>
  10a3ec: ffffffff     	<unknown>
  10a3f0: ffffffff     	<unknown>
  10a3f4: ffffffff     	<unknown>
  10a3f8: ffffffff     	<unknown>
  10a3fc: ffffffff     	<unknown>
  10a400: ffffffff     	<unknown>
  10a404: ffffffff     	<unknown>
  10a408: ffffffff     	<unknown>
  10a40c: ffffffff     	<unknown>
  10a410: ffffffff     	<unknown>
  10a414: ffffffff     	<unknown>
  10a418: ffffffff     	<unknown>
  10a41c: ffffffff     	<unknown>
  10a420: ffffffff     	<unknown>
  10a424: ffffffff     	<unknown>
  10a428: ffffffff     	<unknown>
  10a42c: ffffffff     	<unknown>
  10a430: ffffffff     	<unknown>
  10a434: ffffffff     	<unknown>
  10a438: ffffffff     	<unknown>
  10a43c: ffffffff     	<unknown>
  10a440: ffffffff     	<unknown>
  10a444: ffffffff     	<unknown>
  10a448: ffffffff     	<unknown>
  10a44c: ffffffff     	<unknown>
  10a450: ffffffff     	<unknown>
  10a454: ffffffff     	<unknown>
  10a458: ffffffff     	<unknown>
  10a45c: ffffffff     	<unknown>
  10a460: ffffffff     	<unknown>
  10a464: ffffffff     	<unknown>
  10a468: ffffffff     	<unknown>
  10a46c: ffffffff     	<unknown>
  10a470: ffffffff     	<unknown>
  10a474: ffffffff     	<unknown>
  10a478: ffffffff     	<unknown>
  10a47c: ffffffff     	<unknown>
  10a480: ffffffff     	<unknown>
  10a484: ffffffff     	<unknown>
  10a488: ffffffff     	<unknown>
  10a48c: ffffffff     	<unknown>
  10a490: ffffffff     	<unknown>
  10a494: ffffffff     	<unknown>
  10a498: ffffffff     	<unknown>
  10a49c: ffffffff     	<unknown>
  10a4a0: ffffffff     	<unknown>
  10a4a4: ffffffff     	<unknown>
  10a4a8: ffffffff     	<unknown>
  10a4ac: ffffffff     	<unknown>
  10a4b0: ffffffff     	<unknown>
  10a4b4: ffffffff     	<unknown>
  10a4b8: ffffffff     	<unknown>
  10a4bc: ffffffff     	<unknown>
  10a4c0: ffffffff     	<unknown>
  10a4c4: ffffffff     	<unknown>
  10a4c8: ffffffff     	<unknown>
  10a4cc: ffffffff     	<unknown>
  10a4d0: ffffffff     	<unknown>
  10a4d4: ffffffff     	<unknown>
  10a4d8: ffffffff     	<unknown>
  10a4dc: ffffffff     	<unknown>
  10a4e0: ffffffff     	<unknown>
  10a4e4: ffffffff     	<unknown>
  10a4e8: ffffffff     	<unknown>
  10a4ec: ffffffff     	<unknown>
  10a4f0: ffffffff     	<unknown>
  10a4f4: ffffffff     	<unknown>
  10a4f8: ffffffff     	<unknown>
  10a4fc: ffffffff     	<unknown>
  10a500: ffffffff     	<unknown>
  10a504: ffffffff     	<unknown>
  10a508: ffffffff     	<unknown>
  10a50c: ffffffff     	<unknown>
  10a510: ffffffff     	<unknown>
  10a514: ffffffff     	<unknown>
  10a518: ffffffff     	<unknown>
  10a51c: ffffffff     	<unknown>
  10a520: ffffffff     	<unknown>
  10a524: ffffffff     	<unknown>
  10a528: ffffffff     	<unknown>
  10a52c: ffffffff     	<unknown>
  10a530: ffffffff     	<unknown>
  10a534: ffffffff     	<unknown>
  10a538: ffffffff     	<unknown>
  10a53c: ffffffff     	<unknown>
  10a540: ffffffff     	<unknown>
  10a544: ffffffff     	<unknown>
  10a548: ffffffff     	<unknown>
  10a54c: ffffffff     	<unknown>
  10a550: ffffffff     	<unknown>
  10a554: ffffffff     	<unknown>
  10a558: ffffffff     	<unknown>
  10a55c: ffffffff     	<unknown>
  10a560: ffffffff     	<unknown>
  10a564: ffffffff     	<unknown>
  10a568: ffffffff     	<unknown>
  10a56c: ffffffff     	<unknown>
  10a570: ffffffff     	<unknown>
  10a574: ffffffff     	<unknown>
  10a578: ffffffff     	<unknown>
  10a57c: ffffffff     	<unknown>
  10a580: ffffffff     	<unknown>
  10a584: ffffffff     	<unknown>
  10a588: ffffffff     	<unknown>
  10a58c: ffffffff     	<unknown>
  10a590: ffffffff     	<unknown>
  10a594: ffffffff     	<unknown>
  10a598: ffffffff     	<unknown>
  10a59c: ffffffff     	<unknown>
  10a5a0: ffffffff     	<unknown>
  10a5a4: ffffffff     	<unknown>
  10a5a8: ffffffff     	<unknown>
  10a5ac: ffffffff     	<unknown>
  10a5b0: ffffffff     	<unknown>
  10a5b4: ffffffff     	<unknown>
  10a5b8: ffffffff     	<unknown>
  10a5bc: ffffffff     	<unknown>
  10a5c0: ffffffff     	<unknown>
  10a5c4: ffffffff     	<unknown>
  10a5c8: ffffffff     	<unknown>
  10a5cc: ffffffff     	<unknown>
  10a5d0: ffffffff     	<unknown>
  10a5d4: ffffffff     	<unknown>
  10a5d8: ffffffff     	<unknown>
  10a5dc: ffffffff     	<unknown>
  10a5e0: ffffffff     	<unknown>
  10a5e4: ffffffff     	<unknown>
  10a5e8: ffffffff     	<unknown>
  10a5ec: ffffffff     	<unknown>
  10a5f0: ffffffff     	<unknown>
  10a5f4: ffffffff     	<unknown>
  10a5f8: ffffffff     	<unknown>
  10a5fc: ffffffff     	<unknown>
  10a600: ffffffff     	<unknown>
  10a604: ffffffff     	<unknown>
  10a608: ffffffff     	<unknown>
  10a60c: ffffffff     	<unknown>
  10a610: ffffffff     	<unknown>
  10a614: ffffffff     	<unknown>
  10a618: ffffffff     	<unknown>
  10a61c: ffffffff     	<unknown>
  10a620: ffffffff     	<unknown>
  10a624: ffffffff     	<unknown>
  10a628: ffffffff     	<unknown>
  10a62c: ffffffff     	<unknown>
  10a630: ffffffff     	<unknown>
  10a634: ffffffff     	<unknown>
  10a638: ffffffff     	<unknown>
  10a63c: ffffffff     	<unknown>
  10a640: ffffffff     	<unknown>
  10a644: ffffffff     	<unknown>
  10a648: ffffffff     	<unknown>
  10a64c: ffffffff     	<unknown>
  10a650: ffffffff     	<unknown>
  10a654: ffffffff     	<unknown>
  10a658: ffffffff     	<unknown>
  10a65c: ffffffff     	<unknown>
  10a660: ffffffff     	<unknown>
  10a664: ffffffff     	<unknown>
  10a668: ffffffff     	<unknown>
  10a66c: ffffffff     	<unknown>
  10a670: ffffffff     	<unknown>
  10a674: ffffffff     	<unknown>
  10a678: ffffffff     	<unknown>
  10a67c: ffffffff     	<unknown>
  10a680: ffffffff     	<unknown>
  10a684: ffffffff     	<unknown>
  10a688: ffffffff     	<unknown>
  10a68c: ffffffff     	<unknown>
  10a690: ffffffff     	<unknown>
  10a694: ffffffff     	<unknown>
  10a698: ffffffff     	<unknown>
  10a69c: ffffffff     	<unknown>
  10a6a0: ffffffff     	<unknown>
  10a6a4: ffffffff     	<unknown>
  10a6a8: ffffffff     	<unknown>
  10a6ac: ffffffff     	<unknown>
  10a6b0: ffffffff     	<unknown>
  10a6b4: ffffffff     	<unknown>
  10a6b8: ffffffff     	<unknown>
  10a6bc: ffffffff     	<unknown>
  10a6c0: ffffffff     	<unknown>
  10a6c4: ffffffff     	<unknown>
  10a6c8: ffffffff     	<unknown>
  10a6cc: ffffffff     	<unknown>
  10a6d0: ffffffff     	<unknown>
  10a6d4: ffffffff     	<unknown>
  10a6d8: ffffffff     	<unknown>
  10a6dc: ffffffff     	<unknown>
  10a6e0: ffffffff     	<unknown>
  10a6e4: ffffffff     	<unknown>
  10a6e8: ffffffff     	<unknown>
  10a6ec: ffffffff     	<unknown>
  10a6f0: ffffffff     	<unknown>
  10a6f4: ffffffff     	<unknown>
  10a6f8: ffffffff     	<unknown>
  10a6fc: ffffffff     	<unknown>
  10a700: ffffffff     	<unknown>
  10a704: ffffffff     	<unknown>
  10a708: ffffffff     	<unknown>
  10a70c: ffffffff     	<unknown>
  10a710: ffffffff     	<unknown>
  10a714: ffffffff     	<unknown>
  10a718: ffffffff     	<unknown>
  10a71c: ffffffff     	<unknown>
  10a720: ffffffff     	<unknown>
  10a724: ffffffff     	<unknown>
  10a728: ffffffff     	<unknown>
  10a72c: ffffffff     	<unknown>
  10a730: ffffffff     	<unknown>
  10a734: ffffffff     	<unknown>
  10a738: ffffffff     	<unknown>
  10a73c: ffffffff     	<unknown>
  10a740: ffffffff     	<unknown>
  10a744: ffffffff     	<unknown>
  10a748: ffffffff     	<unknown>
  10a74c: ffffffff     	<unknown>
  10a750: ffffffff     	<unknown>
  10a754: ffffffff     	<unknown>
  10a758: ffffffff     	<unknown>
  10a75c: ffffffff     	<unknown>
  10a760: ffffffff     	<unknown>
  10a764: ffffffff     	<unknown>
  10a768: ffffffff     	<unknown>
  10a76c: ffffffff     	<unknown>
  10a770: ffffffff     	<unknown>
  10a774: ffffffff     	<unknown>
  10a778: ffffffff     	<unknown>
  10a77c: ffffffff     	<unknown>
  10a780: ffffffff     	<unknown>
  10a784: ffffffff     	<unknown>
  10a788: ffffffff     	<unknown>
  10a78c: ffffffff     	<unknown>
  10a790: ffffffff     	<unknown>
  10a794: ffffffff     	<unknown>
  10a798: ffffffff     	<unknown>
  10a79c: ffffffff     	<unknown>
  10a7a0: ffffffff     	<unknown>
  10a7a4: ffffffff     	<unknown>
  10a7a8: ffffffff     	<unknown>
  10a7ac: ffffffff     	<unknown>
  10a7b0: ffffffff     	<unknown>
  10a7b4: ffffffff     	<unknown>
  10a7b8: ffffffff     	<unknown>
  10a7bc: ffffffff     	<unknown>
  10a7c0: ffffffff     	<unknown>
  10a7c4: ffffffff     	<unknown>
  10a7c8: ffffffff     	<unknown>
  10a7cc: ffffffff     	<unknown>
  10a7d0: ffffffff     	<unknown>
  10a7d4: ffffffff     	<unknown>
  10a7d8: ffffffff     	<unknown>
  10a7dc: ffffffff     	<unknown>
  10a7e0: ffffffff     	<unknown>
  10a7e4: ffffffff     	<unknown>
  10a7e8: ffffffff     	<unknown>
  10a7ec: ffffffff     	<unknown>
  10a7f0: ffffffff     	<unknown>
  10a7f4: ffffffff     	<unknown>
  10a7f8: ffffffff     	<unknown>
  10a7fc: ffffffff     	<unknown>
  10a800: ffffffff     	<unknown>
  10a804: ffffffff     	<unknown>
  10a808: ffffffff     	<unknown>
  10a80c: ffffffff     	<unknown>
  10a810: ffffffff     	<unknown>
  10a814: ffffffff     	<unknown>
  10a818: ffffffff     	<unknown>
  10a81c: ffffffff     	<unknown>
  10a820: ffffffff     	<unknown>
  10a824: ffffffff     	<unknown>
  10a828: ffffffff     	<unknown>
  10a82c: ffffffff     	<unknown>
  10a830: ffffffff     	<unknown>
  10a834: ffffffff     	<unknown>
  10a838: ffffffff     	<unknown>
  10a83c: ffffffff     	<unknown>
  10a840: ffffffff     	<unknown>
  10a844: ffffffff     	<unknown>
  10a848: ffffffff     	<unknown>
  10a84c: ffffffff     	<unknown>
  10a850: ffffffff     	<unknown>
  10a854: ffffffff     	<unknown>
  10a858: ffffffff     	<unknown>
  10a85c: ffffffff     	<unknown>
  10a860: ffffffff     	<unknown>
  10a864: ffffffff     	<unknown>
  10a868: ffffffff     	<unknown>
  10a86c: ffffffff     	<unknown>
  10a870: ffffffff     	<unknown>
  10a874: ffffffff     	<unknown>
  10a878: ffffffff     	<unknown>
  10a87c: ffffffff     	<unknown>
  10a880: ffffffff     	<unknown>
  10a884: ffffffff     	<unknown>
  10a888: ffffffff     	<unknown>
  10a88c: ffffffff     	<unknown>
  10a890: ffffffff     	<unknown>
  10a894: ffffffff     	<unknown>
  10a898: ffffffff     	<unknown>
  10a89c: ffffffff     	<unknown>
  10a8a0: ffffffff     	<unknown>
  10a8a4: ffffffff     	<unknown>
  10a8a8: ffffffff     	<unknown>
  10a8ac: ffffffff     	<unknown>
  10a8b0: ffffffff     	<unknown>
  10a8b4: ffffffff     	<unknown>
  10a8b8: ffffffff     	<unknown>
  10a8bc: ffffffff     	<unknown>
  10a8c0: ffffffff     	<unknown>
  10a8c4: ffffffff     	<unknown>
  10a8c8: ffffffff     	<unknown>
  10a8cc: ffffffff     	<unknown>
  10a8d0: ffffffff     	<unknown>
  10a8d4: ffffffff     	<unknown>
  10a8d8: ffffffff     	<unknown>
  10a8dc: ffffffff     	<unknown>
  10a8e0: ffffffff     	<unknown>
  10a8e4: ffffffff     	<unknown>
  10a8e8: ffffffff     	<unknown>
  10a8ec: ffffffff     	<unknown>
  10a8f0: ffffffff     	<unknown>
  10a8f4: ffffffff     	<unknown>
  10a8f8: ffffffff     	<unknown>
  10a8fc: ffffffff     	<unknown>
  10a900: ffffffff     	<unknown>
  10a904: ffffffff     	<unknown>
  10a908: ffffffff     	<unknown>
  10a90c: ffffffff     	<unknown>
  10a910: ffffffff     	<unknown>
  10a914: ffffffff     	<unknown>
  10a918: ffffffff     	<unknown>
  10a91c: ffffffff     	<unknown>
  10a920: ffffffff     	<unknown>
  10a924: ffffffff     	<unknown>
  10a928: ffffffff     	<unknown>
  10a92c: ffffffff     	<unknown>
  10a930: ffffffff     	<unknown>
  10a934: ffffffff     	<unknown>
  10a938: ffffffff     	<unknown>
  10a93c: ffffffff     	<unknown>
  10a940: ffffffff     	<unknown>
  10a944: ffffffff     	<unknown>
  10a948: ffffffff     	<unknown>
  10a94c: ffffffff     	<unknown>
  10a950: ffffffff     	<unknown>
  10a954: ffffffff     	<unknown>
  10a958: ffffffff     	<unknown>
  10a95c: ffffffff     	<unknown>
  10a960: ffffffff     	<unknown>
  10a964: ffffffff     	<unknown>
  10a968: ffffffff     	<unknown>
  10a96c: ffffffff     	<unknown>
  10a970: ffffffff     	<unknown>
  10a974: ffffffff     	<unknown>
  10a978: ffffffff     	<unknown>
  10a97c: ffffffff     	<unknown>
  10a980: ffffffff     	<unknown>
  10a984: ffffffff     	<unknown>
  10a988: ffffffff     	<unknown>
  10a98c: ffffffff     	<unknown>
  10a990: ffffffff     	<unknown>
  10a994: ffffffff     	<unknown>
  10a998: ffffffff     	<unknown>
  10a99c: ffffffff     	<unknown>
  10a9a0: ffffffff     	<unknown>
  10a9a4: ffffffff     	<unknown>
  10a9a8: ffffffff     	<unknown>
  10a9ac: ffffffff     	<unknown>
  10a9b0: ffffffff     	<unknown>
  10a9b4: ffffffff     	<unknown>
  10a9b8: ffffffff     	<unknown>
  10a9bc: ffffffff     	<unknown>
  10a9c0: ffffffff     	<unknown>
  10a9c4: ffffffff     	<unknown>
  10a9c8: ffffffff     	<unknown>
  10a9cc: ffffffff     	<unknown>
  10a9d0: ffffffff     	<unknown>
  10a9d4: ffffffff     	<unknown>
  10a9d8: ffffffff     	<unknown>
  10a9dc: ffffffff     	<unknown>
  10a9e0: ffffffff     	<unknown>
  10a9e4: ffffffff     	<unknown>
  10a9e8: ffffffff     	<unknown>
  10a9ec: ffffffff     	<unknown>
  10a9f0: ffffffff     	<unknown>
  10a9f4: ffffffff     	<unknown>
  10a9f8: ffffffff     	<unknown>
  10a9fc: ffffffff     	<unknown>
  10aa00: ffffffff     	<unknown>
  10aa04: ffffffff     	<unknown>
  10aa08: ffffffff     	<unknown>
  10aa0c: ffffffff     	<unknown>
  10aa10: ffffffff     	<unknown>
  10aa14: ffffffff     	<unknown>
  10aa18: ffffffff     	<unknown>
  10aa1c: ffffffff     	<unknown>
  10aa20: ffffffff     	<unknown>
  10aa24: ffffffff     	<unknown>
  10aa28: ffffffff     	<unknown>
  10aa2c: ffffffff     	<unknown>
  10aa30: ffffffff     	<unknown>
  10aa34: ffffffff     	<unknown>
  10aa38: ffffffff     	<unknown>
  10aa3c: ffffffff     	<unknown>
  10aa40: ffffffff     	<unknown>
  10aa44: ffffffff     	<unknown>
  10aa48: ffffffff     	<unknown>
  10aa4c: ffffffff     	<unknown>
  10aa50: ffffffff     	<unknown>
  10aa54: ffffffff     	<unknown>
  10aa58: ffffffff     	<unknown>
  10aa5c: ffffffff     	<unknown>
  10aa60: ffffffff     	<unknown>
  10aa64: ffffffff     	<unknown>
  10aa68: ffffffff     	<unknown>
  10aa6c: ffffffff     	<unknown>
  10aa70: ffffffff     	<unknown>
  10aa74: ffffffff     	<unknown>
  10aa78: ffffffff     	<unknown>
  10aa7c: ffffffff     	<unknown>
  10aa80: ffffffff     	<unknown>
  10aa84: ffffffff     	<unknown>
  10aa88: ffffffff     	<unknown>
  10aa8c: ffffffff     	<unknown>
  10aa90: ffffffff     	<unknown>
  10aa94: ffffffff     	<unknown>
  10aa98: ffffffff     	<unknown>
  10aa9c: ffffffff     	<unknown>
  10aaa0: ffffffff     	<unknown>
  10aaa4: ffffffff     	<unknown>
  10aaa8: ffffffff     	<unknown>
  10aaac: ffffffff     	<unknown>
  10aab0: ffffffff     	<unknown>
  10aab4: ffffffff     	<unknown>
  10aab8: ffffffff     	<unknown>
  10aabc: ffffffff     	<unknown>
  10aac0: ffffffff     	<unknown>
  10aac4: ffffffff     	<unknown>
  10aac8: ffffffff     	<unknown>
  10aacc: ffffffff     	<unknown>
  10aad0: ffffffff     	<unknown>
  10aad4: ffffffff     	<unknown>
  10aad8: ffffffff     	<unknown>
  10aadc: ffffffff     	<unknown>
  10aae0: ffffffff     	<unknown>
  10aae4: ffffffff     	<unknown>
  10aae8: ffffffff     	<unknown>
  10aaec: ffffffff     	<unknown>
  10aaf0: ffffffff     	<unknown>
  10aaf4: ffffffff     	<unknown>
  10aaf8: ffffffff     	<unknown>
  10aafc: ffffffff     	<unknown>
  10ab00: ffffffff     	<unknown>
  10ab04: ffffffff     	<unknown>
  10ab08: ffffffff     	<unknown>
  10ab0c: ffffffff     	<unknown>
  10ab10: ffffffff     	<unknown>
  10ab14: ffffffff     	<unknown>
  10ab18: ffffffff     	<unknown>
  10ab1c: ffffffff     	<unknown>
  10ab20: ffffffff     	<unknown>
  10ab24: ffffffff     	<unknown>
  10ab28: ffffffff     	<unknown>
  10ab2c: ffffffff     	<unknown>
  10ab30: ffffffff     	<unknown>
  10ab34: ffffffff     	<unknown>
  10ab38: ffffffff     	<unknown>
  10ab3c: ffffffff     	<unknown>
  10ab40: ffffffff     	<unknown>
  10ab44: ffffffff     	<unknown>
  10ab48: ffffffff     	<unknown>
  10ab4c: ffffffff     	<unknown>
  10ab50: ffffffff     	<unknown>
  10ab54: ffffffff     	<unknown>
  10ab58: ffffffff     	<unknown>
  10ab5c: ffffffff     	<unknown>
  10ab60: ffffffff     	<unknown>
  10ab64: ffffffff     	<unknown>
  10ab68: ffffffff     	<unknown>
  10ab6c: ffffffff     	<unknown>
  10ab70: ffffffff     	<unknown>
  10ab74: ffffffff     	<unknown>
  10ab78: ffffffff     	<unknown>
  10ab7c: ffffffff     	<unknown>
  10ab80: ffffffff     	<unknown>
  10ab84: ffffffff     	<unknown>
  10ab88: ffffffff     	<unknown>
  10ab8c: ffffffff     	<unknown>
  10ab90: ffffffff     	<unknown>
  10ab94: ffffffff     	<unknown>
  10ab98: ffffffff     	<unknown>
  10ab9c: ffffffff     	<unknown>
  10aba0: ffffffff     	<unknown>
  10aba4: ffffffff     	<unknown>
  10aba8: ffffffff     	<unknown>
  10abac: ffffffff     	<unknown>
  10abb0: ffffffff     	<unknown>
  10abb4: ffffffff     	<unknown>
  10abb8: ffffffff     	<unknown>
  10abbc: ffffffff     	<unknown>
  10abc0: ffffffff     	<unknown>
  10abc4: ffffffff     	<unknown>
  10abc8: ffffffff     	<unknown>
  10abcc: ffffffff     	<unknown>
  10abd0: ffffffff     	<unknown>
  10abd4: ffffffff     	<unknown>
  10abd8: ffffffff     	<unknown>
  10abdc: ffffffff     	<unknown>
  10abe0: ffffffff     	<unknown>
  10abe4: ffffffff     	<unknown>
  10abe8: ffffffff     	<unknown>
  10abec: ffffffff     	<unknown>
  10abf0: ffffffff     	<unknown>
  10abf4: ffffffff     	<unknown>
  10abf8: ffffffff     	<unknown>
  10abfc: ffffffff     	<unknown>
  10ac00: ffffffff     	<unknown>
  10ac04: ffffffff     	<unknown>
  10ac08: ffffffff     	<unknown>
  10ac0c: ffffffff     	<unknown>
  10ac10: ffffffff     	<unknown>
  10ac14: ffffffff     	<unknown>
  10ac18: ffffffff     	<unknown>
  10ac1c: ffffffff     	<unknown>
  10ac20: ffffffff     	<unknown>
  10ac24: ffffffff     	<unknown>
  10ac28: ffffffff     	<unknown>
  10ac2c: ffffffff     	<unknown>
  10ac30: ffffffff     	<unknown>
  10ac34: ffffffff     	<unknown>
  10ac38: ffffffff     	<unknown>
  10ac3c: ffffffff     	<unknown>
  10ac40: ffffffff     	<unknown>
  10ac44: ffffffff     	<unknown>
  10ac48: ffffffff     	<unknown>
  10ac4c: ffffffff     	<unknown>
  10ac50: ffffffff     	<unknown>
  10ac54: ffffffff     	<unknown>
  10ac58: ffffffff     	<unknown>
  10ac5c: ffffffff     	<unknown>
  10ac60: ffffffff     	<unknown>
  10ac64: ffffffff     	<unknown>
  10ac68: ffffffff     	<unknown>
  10ac6c: ffffffff     	<unknown>
  10ac70: ffffffff     	<unknown>
  10ac74: ffffffff     	<unknown>
  10ac78: ffffffff     	<unknown>
  10ac7c: ffffffff     	<unknown>
  10ac80: ffffffff     	<unknown>
  10ac84: ffffffff     	<unknown>
  10ac88: ffffffff     	<unknown>
  10ac8c: ffffffff     	<unknown>
  10ac90: ffffffff     	<unknown>
  10ac94: ffffffff     	<unknown>
  10ac98: ffffffff     	<unknown>
  10ac9c: ffffffff     	<unknown>
  10aca0: ffffffff     	<unknown>
  10aca4: ffffffff     	<unknown>
  10aca8: ffffffff     	<unknown>
  10acac: ffffffff     	<unknown>
  10acb0: ffffffff     	<unknown>
  10acb4: ffffffff     	<unknown>
  10acb8: ffffffff     	<unknown>
  10acbc: ffffffff     	<unknown>
  10acc0: ffffffff     	<unknown>
  10acc4: ffffffff     	<unknown>
  10acc8: ffffffff     	<unknown>
  10accc: ffffffff     	<unknown>
  10acd0: ffffffff     	<unknown>
  10acd4: ffffffff     	<unknown>
  10acd8: ffffffff     	<unknown>
  10acdc: ffffffff     	<unknown>
  10ace0: ffffffff     	<unknown>
  10ace4: ffffffff     	<unknown>
  10ace8: ffffffff     	<unknown>
  10acec: ffffffff     	<unknown>
  10acf0: ffffffff     	<unknown>
  10acf4: ffffffff     	<unknown>
  10acf8: ffffffff     	<unknown>
  10acfc: ffffffff     	<unknown>
  10ad00: ffffffff     	<unknown>
  10ad04: ffffffff     	<unknown>
  10ad08: ffffffff     	<unknown>
  10ad0c: ffffffff     	<unknown>
  10ad10: ffffffff     	<unknown>
  10ad14: ffffffff     	<unknown>
  10ad18: ffffffff     	<unknown>
  10ad1c: ffffffff     	<unknown>
  10ad20: ffffffff     	<unknown>
  10ad24: ffffffff     	<unknown>
  10ad28: ffffffff     	<unknown>
  10ad2c: ffffffff     	<unknown>
  10ad30: ffffffff     	<unknown>
  10ad34: ffffffff     	<unknown>
  10ad38: ffffffff     	<unknown>
  10ad3c: ffffffff     	<unknown>
  10ad40: ffffffff     	<unknown>
  10ad44: ffffffff     	<unknown>
  10ad48: ffffffff     	<unknown>
  10ad4c: ffffffff     	<unknown>
  10ad50: ffffffff     	<unknown>
  10ad54: ffffffff     	<unknown>
  10ad58: ffffffff     	<unknown>
  10ad5c: ffffffff     	<unknown>
  10ad60: ffffffff     	<unknown>
  10ad64: ffffffff     	<unknown>
  10ad68: ffffffff     	<unknown>
  10ad6c: ffffffff     	<unknown>
  10ad70: ffffffff     	<unknown>
  10ad74: ffffffff     	<unknown>
  10ad78: ffffffff     	<unknown>
  10ad7c: ffffffff     	<unknown>
  10ad80: ffffffff     	<unknown>
  10ad84: ffffffff     	<unknown>
  10ad88: ffffffff     	<unknown>
  10ad8c: ffffffff     	<unknown>
  10ad90: ffffffff     	<unknown>
  10ad94: ffffffff     	<unknown>
  10ad98: ffffffff     	<unknown>
  10ad9c: ffffffff     	<unknown>
  10ada0: ffffffff     	<unknown>
  10ada4: ffffffff     	<unknown>
  10ada8: ffffffff     	<unknown>
  10adac: ffffffff     	<unknown>
  10adb0: ffffffff     	<unknown>
  10adb4: ffffffff     	<unknown>
  10adb8: ffffffff     	<unknown>
  10adbc: ffffffff     	<unknown>
  10adc0: ffffffff     	<unknown>
  10adc4: ffffffff     	<unknown>
  10adc8: ffffffff     	<unknown>
  10adcc: ffffffff     	<unknown>
  10add0: ffffffff     	<unknown>
  10add4: ffffffff     	<unknown>
  10add8: ffffffff     	<unknown>
  10addc: ffffffff     	<unknown>
  10ade0: ffffffff     	<unknown>
  10ade4: ffffffff     	<unknown>
  10ade8: ffffffff     	<unknown>
  10adec: ffffffff     	<unknown>
  10adf0: ffffffff     	<unknown>
  10adf4: ffffffff     	<unknown>
  10adf8: ffffffff     	<unknown>
  10adfc: ffffffff     	<unknown>
  10ae00: ffffffff     	<unknown>
  10ae04: ffffffff     	<unknown>
  10ae08: ffffffff     	<unknown>
  10ae0c: ffffffff     	<unknown>
  10ae10: ffffffff     	<unknown>
  10ae14: ffffffff     	<unknown>
  10ae18: ffffffff     	<unknown>
  10ae1c: ffffffff     	<unknown>
  10ae20: ffffffff     	<unknown>
  10ae24: ffffffff     	<unknown>
  10ae28: ffffffff     	<unknown>
  10ae2c: ffffffff     	<unknown>
  10ae30: ffffffff     	<unknown>
  10ae34: ffffffff     	<unknown>
  10ae38: ffffffff     	<unknown>
  10ae3c: ffffffff     	<unknown>
  10ae40: ffffffff     	<unknown>
  10ae44: ffffffff     	<unknown>
  10ae48: ffffffff     	<unknown>
  10ae4c: ffffffff     	<unknown>
  10ae50: ffffffff     	<unknown>
  10ae54: ffffffff     	<unknown>
  10ae58: ffffffff     	<unknown>
  10ae5c: ffffffff     	<unknown>
  10ae60: ffffffff     	<unknown>
  10ae64: ffffffff     	<unknown>
  10ae68: ffffffff     	<unknown>
  10ae6c: ffffffff     	<unknown>
  10ae70: ffffffff     	<unknown>
  10ae74: ffffffff     	<unknown>
  10ae78: ffffffff     	<unknown>
  10ae7c: ffffffff     	<unknown>
  10ae80: ffffffff     	<unknown>
  10ae84: ffffffff     	<unknown>
  10ae88: ffffffff     	<unknown>
  10ae8c: ffffffff     	<unknown>
  10ae90: ffffffff     	<unknown>
  10ae94: ffffffff     	<unknown>
  10ae98: ffffffff     	<unknown>
  10ae9c: ffffffff     	<unknown>
  10aea0: ffffffff     	<unknown>
  10aea4: ffffffff     	<unknown>
  10aea8: ffffffff     	<unknown>
  10aeac: ffffffff     	<unknown>
  10aeb0: ffffffff     	<unknown>
  10aeb4: ffffffff     	<unknown>
  10aeb8: ffffffff     	<unknown>
  10aebc: ffffffff     	<unknown>
  10aec0: ffffffff     	<unknown>
  10aec4: ffffffff     	<unknown>
  10aec8: ffffffff     	<unknown>
  10aecc: ffffffff     	<unknown>
  10aed0: ffffffff     	<unknown>
  10aed4: ffffffff     	<unknown>
  10aed8: ffffffff     	<unknown>
  10aedc: ffffffff     	<unknown>
  10aee0: ffffffff     	<unknown>
  10aee4: ffffffff     	<unknown>
  10aee8: ffffffff     	<unknown>
  10aeec: ffffffff     	<unknown>
  10aef0: ffffffff     	<unknown>
  10aef4: ffffffff     	<unknown>
  10aef8: ffffffff     	<unknown>
  10aefc: ffffffff     	<unknown>
  10af00: ffffffff     	<unknown>
  10af04: ffffffff     	<unknown>
  10af08: ffffffff     	<unknown>
  10af0c: ffffffff     	<unknown>
  10af10: ffffffff     	<unknown>
  10af14: ffffffff     	<unknown>
  10af18: ffffffff     	<unknown>
  10af1c: ffffffff     	<unknown>
  10af20: ffffffff     	<unknown>
  10af24: ffffffff     	<unknown>
  10af28: ffffffff     	<unknown>
  10af2c: ffffffff     	<unknown>
  10af30: ffffffff     	<unknown>
  10af34: ffffffff     	<unknown>
  10af38: ffffffff     	<unknown>
  10af3c: ffffffff     	<unknown>
  10af40: ffffffff     	<unknown>
  10af44: ffffffff     	<unknown>
  10af48: ffffffff     	<unknown>
  10af4c: ffffffff     	<unknown>
  10af50: ffffffff     	<unknown>
  10af54: ffffffff     	<unknown>
  10af58: ffffffff     	<unknown>
  10af5c: ffffffff     	<unknown>
  10af60: ffffffff     	<unknown>
  10af64: ffffffff     	<unknown>
  10af68: ffffffff     	<unknown>
  10af6c: ffffffff     	<unknown>
  10af70: ffffffff     	<unknown>
  10af74: ffffffff     	<unknown>
  10af78: ffffffff     	<unknown>
  10af7c: ffffffff     	<unknown>
  10af80: ffffffff     	<unknown>
  10af84: ffffffff     	<unknown>
  10af88: ffffffff     	<unknown>
  10af8c: ffffffff     	<unknown>
  10af90: ffffffff     	<unknown>
  10af94: ffffffff     	<unknown>
  10af98: ffffffff     	<unknown>
  10af9c: ffffffff     	<unknown>
  10afa0: ffffffff     	<unknown>
  10afa4: ffffffff     	<unknown>
  10afa8: ffffffff     	<unknown>
  10afac: ffffffff     	<unknown>
  10afb0: ffffffff     	<unknown>
  10afb4: ffffffff     	<unknown>
  10afb8: ffffffff     	<unknown>
  10afbc: ffffffff     	<unknown>
  10afc0: ffffffff     	<unknown>
  10afc4: ffffffff     	<unknown>
  10afc8: ffffffff     	<unknown>
  10afcc: ffffffff     	<unknown>
  10afd0: ffffffff     	<unknown>
  10afd4: ffffffff     	<unknown>
  10afd8: ffffffff     	<unknown>
  10afdc: ffffffff     	<unknown>
  10afe0: ffffffff     	<unknown>
  10afe4: ffffffff     	<unknown>
  10afe8: ffffffff     	<unknown>
  10afec: ffffffff     	<unknown>
  10aff0: ffffffff     	<unknown>
  10aff4: ffffffff     	<unknown>
  10aff8: ffffffff     	<unknown>
  10affc: ffffffff     	<unknown>
  10b000: ffffffff     	<unknown>
  10b004: ffffffff     	<unknown>
  10b008: ffffffff     	<unknown>
  10b00c: ffffffff     	<unknown>
  10b010: ffffffff     	<unknown>
  10b014: ffffffff     	<unknown>
  10b018: ffffffff     	<unknown>
  10b01c: ffffffff     	<unknown>
  10b020: ffffffff     	<unknown>
  10b024: ffffffff     	<unknown>
  10b028: ffffffff     	<unknown>
  10b02c: ffffffff     	<unknown>
  10b030: ffffffff     	<unknown>
  10b034: ffffffff     	<unknown>
  10b038: ffffffff     	<unknown>
  10b03c: ffffffff     	<unknown>
  10b040: ffffffff     	<unknown>
  10b044: ffffffff     	<unknown>
  10b048: ffffffff     	<unknown>
  10b04c: ffffffff     	<unknown>
  10b050: ffffffff     	<unknown>
  10b054: ffffffff     	<unknown>
  10b058: ffffffff     	<unknown>
  10b05c: ffffffff     	<unknown>
  10b060: ffffffff     	<unknown>
  10b064: ffffffff     	<unknown>
  10b068: ffffffff     	<unknown>
  10b06c: ffffffff     	<unknown>
  10b070: ffffffff     	<unknown>
  10b074: ffffffff     	<unknown>
  10b078: ffffffff     	<unknown>
  10b07c: ffffffff     	<unknown>
  10b080: ffffffff     	<unknown>
  10b084: ffffffff     	<unknown>
  10b088: ffffffff     	<unknown>
  10b08c: ffffffff     	<unknown>
  10b090: ffffffff     	<unknown>
  10b094: ffffffff     	<unknown>
  10b098: ffffffff     	<unknown>
  10b09c: ffffffff     	<unknown>
  10b0a0: ffffffff     	<unknown>
  10b0a4: ffffffff     	<unknown>
  10b0a8: ffffffff     	<unknown>
  10b0ac: ffffffff     	<unknown>
  10b0b0: ffffffff     	<unknown>
  10b0b4: ffffffff     	<unknown>
  10b0b8: ffffffff     	<unknown>
  10b0bc: ffffffff     	<unknown>
  10b0c0: ffffffff     	<unknown>
  10b0c4: ffffffff     	<unknown>
  10b0c8: ffffffff     	<unknown>
  10b0cc: ffffffff     	<unknown>
  10b0d0: ffffffff     	<unknown>
  10b0d4: ffffffff     	<unknown>
  10b0d8: ffffffff     	<unknown>
  10b0dc: ffffffff     	<unknown>
  10b0e0: ffffffff     	<unknown>
  10b0e4: ffffffff     	<unknown>
  10b0e8: ffffffff     	<unknown>
  10b0ec: ffffffff     	<unknown>
  10b0f0: ffffffff     	<unknown>
  10b0f4: ffffffff     	<unknown>
  10b0f8: ffffffff     	<unknown>
  10b0fc: ffffffff     	<unknown>
  10b100: ffffffff     	<unknown>
  10b104: ffffffff     	<unknown>
  10b108: ffffffff     	<unknown>
  10b10c: ffffffff     	<unknown>
  10b110: ffffffff     	<unknown>
  10b114: ffffffff     	<unknown>
  10b118: ffffffff     	<unknown>
  10b11c: ffffffff     	<unknown>
  10b120: ffffffff     	<unknown>
  10b124: ffffffff     	<unknown>
  10b128: ffffffff     	<unknown>
  10b12c: ffffffff     	<unknown>
  10b130: ffffffff     	<unknown>
  10b134: ffffffff     	<unknown>
  10b138: ffffffff     	<unknown>
  10b13c: ffffffff     	<unknown>
  10b140: ffffffff     	<unknown>
  10b144: ffffffff     	<unknown>
  10b148: ffffffff     	<unknown>
  10b14c: ffffffff     	<unknown>
  10b150: ffffffff     	<unknown>
  10b154: ffffffff     	<unknown>
  10b158: ffffffff     	<unknown>
  10b15c: ffffffff     	<unknown>
  10b160: ffffffff     	<unknown>
  10b164: ffffffff     	<unknown>
  10b168: ffffffff     	<unknown>
  10b16c: ffffffff     	<unknown>
  10b170: ffffffff     	<unknown>
  10b174: ffffffff     	<unknown>
  10b178: ffffffff     	<unknown>
  10b17c: ffffffff     	<unknown>
  10b180: ffffffff     	<unknown>
  10b184: ffffffff     	<unknown>
  10b188: ffffffff     	<unknown>
  10b18c: ffffffff     	<unknown>
  10b190: ffffffff     	<unknown>
  10b194: ffffffff     	<unknown>
  10b198: ffffffff     	<unknown>
  10b19c: ffffffff     	<unknown>
  10b1a0: ffffffff     	<unknown>
  10b1a4: ffffffff     	<unknown>
  10b1a8: ffffffff     	<unknown>
  10b1ac: ffffffff     	<unknown>
  10b1b0: ffffffff     	<unknown>
  10b1b4: ffffffff     	<unknown>
  10b1b8: ffffffff     	<unknown>
  10b1bc: ffffffff     	<unknown>
  10b1c0: ffffffff     	<unknown>
  10b1c4: ffffffff     	<unknown>
  10b1c8: ffffffff     	<unknown>
  10b1cc: ffffffff     	<unknown>
  10b1d0: ffffffff     	<unknown>
  10b1d4: ffffffff     	<unknown>
  10b1d8: ffffffff     	<unknown>
  10b1dc: ffffffff     	<unknown>
  10b1e0: ffffffff     	<unknown>
  10b1e4: ffffffff     	<unknown>
  10b1e8: ffffffff     	<unknown>
  10b1ec: ffffffff     	<unknown>
  10b1f0: ffffffff     	<unknown>
  10b1f4: ffffffff     	<unknown>
  10b1f8: ffffffff     	<unknown>
  10b1fc: ffffffff     	<unknown>
  10b200: ffffffff     	<unknown>
  10b204: ffffffff     	<unknown>
  10b208: ffffffff     	<unknown>
  10b20c: ffffffff     	<unknown>
  10b210: ffffffff     	<unknown>
  10b214: ffffffff     	<unknown>
  10b218: ffffffff     	<unknown>
  10b21c: ffffffff     	<unknown>
  10b220: ffffffff     	<unknown>
  10b224: ffffffff     	<unknown>
  10b228: ffffffff     	<unknown>
  10b22c: ffffffff     	<unknown>
  10b230: ffffffff     	<unknown>
  10b234: ffffffff     	<unknown>
  10b238: ffffffff     	<unknown>
  10b23c: ffffffff     	<unknown>
  10b240: ffffffff     	<unknown>
  10b244: ffffffff     	<unknown>
  10b248: ffffffff     	<unknown>
  10b24c: ffffffff     	<unknown>
  10b250: ffffffff     	<unknown>
  10b254: ffffffff     	<unknown>
  10b258: ffffffff     	<unknown>
  10b25c: ffffffff     	<unknown>
  10b260: ffffffff     	<unknown>
  10b264: ffffffff     	<unknown>
  10b268: ffffffff     	<unknown>
  10b26c: ffffffff     	<unknown>
  10b270: ffffffff     	<unknown>
  10b274: ffffffff     	<unknown>
  10b278: ffffffff     	<unknown>
  10b27c: ffffffff     	<unknown>
  10b280: ffffffff     	<unknown>
  10b284: ffffffff     	<unknown>
  10b288: ffffffff     	<unknown>
  10b28c: ffffffff     	<unknown>
  10b290: ffffffff     	<unknown>
  10b294: ffffffff     	<unknown>
  10b298: ffffffff     	<unknown>
  10b29c: ffffffff     	<unknown>
  10b2a0: ffffffff     	<unknown>
  10b2a4: ffffffff     	<unknown>
  10b2a8: ffffffff     	<unknown>
  10b2ac: ffffffff     	<unknown>
  10b2b0: ffffffff     	<unknown>
  10b2b4: ffffffff     	<unknown>
  10b2b8: ffffffff     	<unknown>
  10b2bc: ffffffff     	<unknown>
  10b2c0: ffffffff     	<unknown>
  10b2c4: ffffffff     	<unknown>
  10b2c8: ffffffff     	<unknown>
  10b2cc: ffffffff     	<unknown>
  10b2d0: ffffffff     	<unknown>
  10b2d4: ffffffff     	<unknown>
  10b2d8: ffffffff     	<unknown>
  10b2dc: ffffffff     	<unknown>
  10b2e0: ffffffff     	<unknown>
  10b2e4: ffffffff     	<unknown>
  10b2e8: ffffffff     	<unknown>
  10b2ec: ffffffff     	<unknown>
  10b2f0: ffffffff     	<unknown>
  10b2f4: ffffffff     	<unknown>
  10b2f8: ffffffff     	<unknown>
  10b2fc: ffffffff     	<unknown>
  10b300: ffffffff     	<unknown>
  10b304: ffffffff     	<unknown>
  10b308: ffffffff     	<unknown>
  10b30c: ffffffff     	<unknown>
  10b310: ffffffff     	<unknown>
  10b314: ffffffff     	<unknown>
  10b318: ffffffff     	<unknown>
  10b31c: ffffffff     	<unknown>
  10b320: ffffffff     	<unknown>
  10b324: ffffffff     	<unknown>
  10b328: ffffffff     	<unknown>
  10b32c: ffffffff     	<unknown>
  10b330: ffffffff     	<unknown>
  10b334: ffffffff     	<unknown>
  10b338: ffffffff     	<unknown>
  10b33c: ffffffff     	<unknown>
  10b340: ffffffff     	<unknown>
  10b344: ffffffff     	<unknown>
  10b348: ffffffff     	<unknown>
  10b34c: ffffffff     	<unknown>
  10b350: ffffffff     	<unknown>
  10b354: ffffffff     	<unknown>
  10b358: ffffffff     	<unknown>
  10b35c: ffffffff     	<unknown>
  10b360: ffffffff     	<unknown>
  10b364: ffffffff     	<unknown>
  10b368: ffffffff     	<unknown>
  10b36c: ffffffff     	<unknown>
  10b370: ffffffff     	<unknown>
  10b374: ffffffff     	<unknown>
  10b378: ffffffff     	<unknown>
  10b37c: ffffffff     	<unknown>
  10b380: ffffffff     	<unknown>
  10b384: ffffffff     	<unknown>
  10b388: ffffffff     	<unknown>
  10b38c: ffffffff     	<unknown>
  10b390: ffffffff     	<unknown>
  10b394: ffffffff     	<unknown>
  10b398: ffffffff     	<unknown>
  10b39c: ffffffff     	<unknown>
  10b3a0: ffffffff     	<unknown>
  10b3a4: ffffffff     	<unknown>
  10b3a8: ffffffff     	<unknown>
  10b3ac: ffffffff     	<unknown>
  10b3b0: ffffffff     	<unknown>
  10b3b4: ffffffff     	<unknown>
  10b3b8: ffffffff     	<unknown>
  10b3bc: ffffffff     	<unknown>
  10b3c0: ffffffff     	<unknown>
  10b3c4: ffffffff     	<unknown>
  10b3c8: ffffffff     	<unknown>
  10b3cc: ffffffff     	<unknown>
  10b3d0: ffffffff     	<unknown>
  10b3d4: ffffffff     	<unknown>
  10b3d8: ffffffff     	<unknown>
  10b3dc: ffffffff     	<unknown>
  10b3e0: ffffffff     	<unknown>
  10b3e4: ffffffff     	<unknown>
  10b3e8: ffffffff     	<unknown>
  10b3ec: ffffffff     	<unknown>
  10b3f0: ffffffff     	<unknown>
  10b3f4: ffffffff     	<unknown>
  10b3f8: ffffffff     	<unknown>
  10b3fc: ffffffff     	<unknown>
  10b400: ffffffff     	<unknown>
  10b404: ffffffff     	<unknown>
  10b408: ffffffff     	<unknown>
  10b40c: ffffffff     	<unknown>
  10b410: ffffffff     	<unknown>
  10b414: ffffffff     	<unknown>
  10b418: ffffffff     	<unknown>
  10b41c: ffffffff     	<unknown>
  10b420: ffffffff     	<unknown>
  10b424: ffffffff     	<unknown>
  10b428: ffffffff     	<unknown>
  10b42c: ffffffff     	<unknown>
  10b430: ffffffff     	<unknown>
  10b434: ffffffff     	<unknown>
  10b438: ffffffff     	<unknown>
  10b43c: ffffffff     	<unknown>
  10b440: ffffffff     	<unknown>
  10b444: ffffffff     	<unknown>
  10b448: ffffffff     	<unknown>
  10b44c: ffffffff     	<unknown>
  10b450: ffffffff     	<unknown>
  10b454: ffffffff     	<unknown>
  10b458: ffffffff     	<unknown>
  10b45c: ffffffff     	<unknown>
  10b460: ffffffff     	<unknown>
  10b464: ffffffff     	<unknown>
  10b468: ffffffff     	<unknown>
  10b46c: ffffffff     	<unknown>
  10b470: ffffffff     	<unknown>
  10b474: ffffffff     	<unknown>
  10b478: ffffffff     	<unknown>
  10b47c: ffffffff     	<unknown>
  10b480: ffffffff     	<unknown>
  10b484: ffffffff     	<unknown>
  10b488: ffffffff     	<unknown>
  10b48c: ffffffff     	<unknown>
  10b490: ffffffff     	<unknown>
  10b494: ffffffff     	<unknown>
  10b498: ffffffff     	<unknown>
  10b49c: ffffffff     	<unknown>
  10b4a0: ffffffff     	<unknown>
  10b4a4: ffffffff     	<unknown>
  10b4a8: ffffffff     	<unknown>
  10b4ac: ffffffff     	<unknown>
  10b4b0: ffffffff     	<unknown>
  10b4b4: ffffffff     	<unknown>
  10b4b8: ffffffff     	<unknown>
  10b4bc: ffffffff     	<unknown>
  10b4c0: ffffffff     	<unknown>
  10b4c4: ffffffff     	<unknown>
  10b4c8: ffffffff     	<unknown>
  10b4cc: ffffffff     	<unknown>
  10b4d0: ffffffff     	<unknown>
  10b4d4: ffffffff     	<unknown>
  10b4d8: ffffffff     	<unknown>
  10b4dc: ffffffff     	<unknown>
  10b4e0: ffffffff     	<unknown>
  10b4e4: ffffffff     	<unknown>
  10b4e8: ffffffff     	<unknown>
  10b4ec: ffffffff     	<unknown>
  10b4f0: ffffffff     	<unknown>
  10b4f4: ffffffff     	<unknown>
  10b4f8: ffffffff     	<unknown>
  10b4fc: ffffffff     	<unknown>
  10b500: ffffffff     	<unknown>
  10b504: ffffffff     	<unknown>
  10b508: ffffffff     	<unknown>
  10b50c: ffffffff     	<unknown>
  10b510: ffffffff     	<unknown>
  10b514: ffffffff     	<unknown>
  10b518: ffffffff     	<unknown>
  10b51c: ffffffff     	<unknown>
  10b520: ffffffff     	<unknown>
  10b524: ffffffff     	<unknown>
  10b528: ffffffff     	<unknown>
  10b52c: ffffffff     	<unknown>
  10b530: ffffffff     	<unknown>
  10b534: ffffffff     	<unknown>
  10b538: ffffffff     	<unknown>
  10b53c: ffffffff     	<unknown>
  10b540: ffffffff     	<unknown>
  10b544: ffffffff     	<unknown>
  10b548: ffffffff     	<unknown>
  10b54c: ffffffff     	<unknown>
  10b550: ffffffff     	<unknown>
  10b554: ffffffff     	<unknown>
  10b558: ffffffff     	<unknown>
  10b55c: ffffffff     	<unknown>
  10b560: ffffffff     	<unknown>
  10b564: ffffffff     	<unknown>
  10b568: ffffffff     	<unknown>
  10b56c: ffffffff     	<unknown>
  10b570: ffffffff     	<unknown>
  10b574: ffffffff     	<unknown>
  10b578: ffffffff     	<unknown>
  10b57c: ffffffff     	<unknown>
  10b580: ffffffff     	<unknown>
  10b584: ffffffff     	<unknown>
  10b588: ffffffff     	<unknown>
  10b58c: ffffffff     	<unknown>
  10b590: ffffffff     	<unknown>
  10b594: ffffffff     	<unknown>
  10b598: ffffffff     	<unknown>
  10b59c: ffffffff     	<unknown>
  10b5a0: ffffffff     	<unknown>
  10b5a4: ffffffff     	<unknown>
  10b5a8: ffffffff     	<unknown>
  10b5ac: ffffffff     	<unknown>
  10b5b0: ffffffff     	<unknown>
  10b5b4: ffffffff     	<unknown>
  10b5b8: ffffffff     	<unknown>
  10b5bc: ffffffff     	<unknown>
  10b5c0: ffffffff     	<unknown>
  10b5c4: ffffffff     	<unknown>
  10b5c8: ffffffff     	<unknown>
  10b5cc: ffffffff     	<unknown>
  10b5d0: ffffffff     	<unknown>
  10b5d4: ffffffff     	<unknown>
  10b5d8: ffffffff     	<unknown>
  10b5dc: ffffffff     	<unknown>
  10b5e0: ffffffff     	<unknown>
  10b5e4: ffffffff     	<unknown>
  10b5e8: ffffffff     	<unknown>
  10b5ec: ffffffff     	<unknown>
  10b5f0: ffffffff     	<unknown>
  10b5f4: ffffffff     	<unknown>
  10b5f8: ffffffff     	<unknown>
  10b5fc: ffffffff     	<unknown>
  10b600: ffffffff     	<unknown>
  10b604: ffffffff     	<unknown>
  10b608: ffffffff     	<unknown>
  10b60c: ffffffff     	<unknown>
  10b610: ffffffff     	<unknown>
  10b614: ffffffff     	<unknown>
  10b618: ffffffff     	<unknown>
  10b61c: ffffffff     	<unknown>
  10b620: ffffffff     	<unknown>
  10b624: ffffffff     	<unknown>
  10b628: ffffffff     	<unknown>
  10b62c: ffffffff     	<unknown>
  10b630: ffffffff     	<unknown>
  10b634: ffffffff     	<unknown>
  10b638: ffffffff     	<unknown>
  10b63c: ffffffff     	<unknown>
  10b640: ffffffff     	<unknown>
  10b644: ffffffff     	<unknown>
  10b648: ffffffff     	<unknown>
  10b64c: ffffffff     	<unknown>
  10b650: ffffffff     	<unknown>
  10b654: ffffffff     	<unknown>
  10b658: ffffffff     	<unknown>
  10b65c: ffffffff     	<unknown>
  10b660: ffffffff     	<unknown>
  10b664: ffffffff     	<unknown>
  10b668: ffffffff     	<unknown>
  10b66c: ffffffff     	<unknown>
  10b670: ffffffff     	<unknown>
  10b674: ffffffff     	<unknown>
  10b678: ffffffff     	<unknown>
  10b67c: ffffffff     	<unknown>
  10b680: ffffffff     	<unknown>
  10b684: ffffffff     	<unknown>
  10b688: ffffffff     	<unknown>
  10b68c: ffffffff     	<unknown>
  10b690: ffffffff     	<unknown>
  10b694: ffffffff     	<unknown>
  10b698: ffffffff     	<unknown>
  10b69c: ffffffff     	<unknown>
  10b6a0: ffffffff     	<unknown>
  10b6a4: ffffffff     	<unknown>
  10b6a8: ffffffff     	<unknown>
  10b6ac: ffffffff     	<unknown>
  10b6b0: ffffffff     	<unknown>
  10b6b4: ffffffff     	<unknown>
  10b6b8: ffffffff     	<unknown>
  10b6bc: ffffffff     	<unknown>
  10b6c0: ffffffff     	<unknown>
  10b6c4: ffffffff     	<unknown>
  10b6c8: ffffffff     	<unknown>
  10b6cc: ffffffff     	<unknown>
  10b6d0: ffffffff     	<unknown>
  10b6d4: ffffffff     	<unknown>
  10b6d8: ffffffff     	<unknown>
  10b6dc: ffffffff     	<unknown>
  10b6e0: ffffffff     	<unknown>
  10b6e4: ffffffff     	<unknown>
  10b6e8: ffffffff     	<unknown>
  10b6ec: ffffffff     	<unknown>
  10b6f0: ffffffff     	<unknown>
  10b6f4: ffffffff     	<unknown>
  10b6f8: ffffffff     	<unknown>
  10b6fc: ffffffff     	<unknown>
  10b700: ffffffff     	<unknown>
  10b704: ffffffff     	<unknown>
  10b708: ffffffff     	<unknown>
  10b70c: ffffffff     	<unknown>
  10b710: ffffffff     	<unknown>
  10b714: ffffffff     	<unknown>
  10b718: ffffffff     	<unknown>
  10b71c: ffffffff     	<unknown>
  10b720: ffffffff     	<unknown>
  10b724: ffffffff     	<unknown>
  10b728: ffffffff     	<unknown>
  10b72c: ffffffff     	<unknown>
  10b730: ffffffff     	<unknown>
  10b734: ffffffff     	<unknown>
  10b738: ffffffff     	<unknown>
  10b73c: ffffffff     	<unknown>
  10b740: ffffffff     	<unknown>
  10b744: ffffffff     	<unknown>
  10b748: ffffffff     	<unknown>
  10b74c: ffffffff     	<unknown>
  10b750: ffffffff     	<unknown>
  10b754: ffffffff     	<unknown>
  10b758: ffffffff     	<unknown>
  10b75c: ffffffff     	<unknown>
  10b760: ffffffff     	<unknown>
  10b764: ffffffff     	<unknown>
  10b768: ffffffff     	<unknown>
  10b76c: ffffffff     	<unknown>
  10b770: ffffffff     	<unknown>
  10b774: ffffffff     	<unknown>
  10b778: ffffffff     	<unknown>
  10b77c: ffffffff     	<unknown>
  10b780: ffffffff     	<unknown>
  10b784: ffffffff     	<unknown>
  10b788: ffffffff     	<unknown>
  10b78c: ffffffff     	<unknown>
  10b790: ffffffff     	<unknown>
  10b794: ffffffff     	<unknown>
  10b798: ffffffff     	<unknown>
  10b79c: ffffffff     	<unknown>
  10b7a0: ffffffff     	<unknown>
  10b7a4: ffffffff     	<unknown>
  10b7a8: ffffffff     	<unknown>
  10b7ac: ffffffff     	<unknown>
  10b7b0: ffffffff     	<unknown>
  10b7b4: ffffffff     	<unknown>
  10b7b8: ffffffff     	<unknown>
  10b7bc: ffffffff     	<unknown>
  10b7c0: ffffffff     	<unknown>
  10b7c4: ffffffff     	<unknown>
  10b7c8: ffffffff     	<unknown>
  10b7cc: ffffffff     	<unknown>
  10b7d0: ffffffff     	<unknown>
  10b7d4: ffffffff     	<unknown>
  10b7d8: ffffffff     	<unknown>
  10b7dc: ffffffff     	<unknown>
  10b7e0: ffffffff     	<unknown>
  10b7e4: ffffffff     	<unknown>
  10b7e8: ffffffff     	<unknown>
  10b7ec: ffffffff     	<unknown>
  10b7f0: ffffffff     	<unknown>
  10b7f4: ffffffff     	<unknown>
  10b7f8: ffffffff     	<unknown>
  10b7fc: ffffffff     	<unknown>
  10b800: ffffffff     	<unknown>
  10b804: ffffffff     	<unknown>
  10b808: ffffffff     	<unknown>
  10b80c: ffffffff     	<unknown>
  10b810: ffffffff     	<unknown>
  10b814: ffffffff     	<unknown>
  10b818: ffffffff     	<unknown>
  10b81c: ffffffff     	<unknown>
  10b820: ffffffff     	<unknown>
  10b824: ffffffff     	<unknown>
  10b828: ffffffff     	<unknown>
  10b82c: ffffffff     	<unknown>
  10b830: ffffffff     	<unknown>
  10b834: ffffffff     	<unknown>
  10b838: ffffffff     	<unknown>
  10b83c: ffffffff     	<unknown>
  10b840: ffffffff     	<unknown>
  10b844: ffffffff     	<unknown>
  10b848: ffffffff     	<unknown>
  10b84c: ffffffff     	<unknown>
  10b850: ffffffff     	<unknown>
  10b854: ffffffff     	<unknown>
  10b858: ffffffff     	<unknown>
  10b85c: ffffffff     	<unknown>
  10b860: ffffffff     	<unknown>
  10b864: ffffffff     	<unknown>
  10b868: ffffffff     	<unknown>
  10b86c: ffffffff     	<unknown>
  10b870: ffffffff     	<unknown>
  10b874: ffffffff     	<unknown>
  10b878: ffffffff     	<unknown>
  10b87c: ffffffff     	<unknown>
  10b880: ffffffff     	<unknown>
  10b884: ffffffff     	<unknown>
  10b888: ffffffff     	<unknown>
  10b88c: ffffffff     	<unknown>
  10b890: ffffffff     	<unknown>
  10b894: ffffffff     	<unknown>
  10b898: ffffffff     	<unknown>
  10b89c: ffffffff     	<unknown>
  10b8a0: ffffffff     	<unknown>
  10b8a4: ffffffff     	<unknown>
  10b8a8: ffffffff     	<unknown>
  10b8ac: ffffffff     	<unknown>
  10b8b0: ffffffff     	<unknown>
  10b8b4: ffffffff     	<unknown>
  10b8b8: ffffffff     	<unknown>
  10b8bc: ffffffff     	<unknown>
  10b8c0: ffffffff     	<unknown>
  10b8c4: ffffffff     	<unknown>
  10b8c8: ffffffff     	<unknown>
  10b8cc: ffffffff     	<unknown>
  10b8d0: ffffffff     	<unknown>
  10b8d4: ffffffff     	<unknown>
  10b8d8: ffffffff     	<unknown>
  10b8dc: ffffffff     	<unknown>
  10b8e0: ffffffff     	<unknown>
  10b8e4: ffffffff     	<unknown>
  10b8e8: ffffffff     	<unknown>
  10b8ec: ffffffff     	<unknown>
  10b8f0: ffffffff     	<unknown>
  10b8f4: ffffffff     	<unknown>
  10b8f8: ffffffff     	<unknown>
  10b8fc: ffffffff     	<unknown>
  10b900: ffffffff     	<unknown>
  10b904: ffffffff     	<unknown>
  10b908: ffffffff     	<unknown>
  10b90c: ffffffff     	<unknown>
  10b910: ffffffff     	<unknown>
  10b914: ffffffff     	<unknown>
  10b918: ffffffff     	<unknown>
  10b91c: ffffffff     	<unknown>
  10b920: ffffffff     	<unknown>
  10b924: ffffffff     	<unknown>
  10b928: ffffffff     	<unknown>
  10b92c: ffffffff     	<unknown>
  10b930: ffffffff     	<unknown>
  10b934: ffffffff     	<unknown>
  10b938: ffffffff     	<unknown>
  10b93c: ffffffff     	<unknown>
  10b940: ffffffff     	<unknown>
  10b944: ffffffff     	<unknown>
  10b948: ffffffff     	<unknown>
  10b94c: ffffffff     	<unknown>
  10b950: ffffffff     	<unknown>
  10b954: ffffffff     	<unknown>
  10b958: ffffffff     	<unknown>
  10b95c: ffffffff     	<unknown>
  10b960: ffffffff     	<unknown>
  10b964: ffffffff     	<unknown>
  10b968: ffffffff     	<unknown>
  10b96c: ffffffff     	<unknown>
  10b970: ffffffff     	<unknown>
  10b974: ffffffff     	<unknown>
  10b978: ffffffff     	<unknown>
  10b97c: ffffffff     	<unknown>
  10b980: ffffffff     	<unknown>
  10b984: ffffffff     	<unknown>
  10b988: ffffffff     	<unknown>
  10b98c: ffffffff     	<unknown>
  10b990: ffffffff     	<unknown>
  10b994: ffffffff     	<unknown>
  10b998: ffffffff     	<unknown>
  10b99c: ffffffff     	<unknown>
  10b9a0: ffffffff     	<unknown>
  10b9a4: ffffffff     	<unknown>
  10b9a8: ffffffff     	<unknown>
  10b9ac: ffffffff     	<unknown>
  10b9b0: ffffffff     	<unknown>
  10b9b4: ffffffff     	<unknown>
  10b9b8: ffffffff     	<unknown>
  10b9bc: ffffffff     	<unknown>
  10b9c0: ffffffff     	<unknown>
  10b9c4: ffffffff     	<unknown>
  10b9c8: ffffffff     	<unknown>
  10b9cc: ffffffff     	<unknown>
  10b9d0: ffffffff     	<unknown>
  10b9d4: ffffffff     	<unknown>
  10b9d8: ffffffff     	<unknown>
  10b9dc: ffffffff     	<unknown>
  10b9e0: ffffffff     	<unknown>
  10b9e4: ffffffff     	<unknown>
  10b9e8: ffffffff     	<unknown>
  10b9ec: ffffffff     	<unknown>
  10b9f0: ffffffff     	<unknown>
  10b9f4: ffffffff     	<unknown>
  10b9f8: ffffffff     	<unknown>
  10b9fc: ffffffff     	<unknown>
  10ba00: ffffffff     	<unknown>
  10ba04: ffffffff     	<unknown>
  10ba08: ffffffff     	<unknown>
  10ba0c: ffffffff     	<unknown>
  10ba10: ffffffff     	<unknown>
  10ba14: ffffffff     	<unknown>
  10ba18: ffffffff     	<unknown>
  10ba1c: ffffffff     	<unknown>
  10ba20: ffffffff     	<unknown>
  10ba24: ffffffff     	<unknown>
  10ba28: ffffffff     	<unknown>
  10ba2c: ffffffff     	<unknown>
  10ba30: ffffffff     	<unknown>
  10ba34: ffffffff     	<unknown>
  10ba38: ffffffff     	<unknown>
  10ba3c: ffffffff     	<unknown>
  10ba40: ffffffff     	<unknown>
  10ba44: ffffffff     	<unknown>
  10ba48: ffffffff     	<unknown>
  10ba4c: ffffffff     	<unknown>
  10ba50: ffffffff     	<unknown>
  10ba54: ffffffff     	<unknown>
  10ba58: ffffffff     	<unknown>
  10ba5c: ffffffff     	<unknown>
  10ba60: ffffffff     	<unknown>
  10ba64: ffffffff     	<unknown>
  10ba68: ffffffff     	<unknown>
  10ba6c: ffffffff     	<unknown>
  10ba70: ffffffff     	<unknown>
  10ba74: ffffffff     	<unknown>
  10ba78: ffffffff     	<unknown>
  10ba7c: ffffffff     	<unknown>
  10ba80: ffffffff     	<unknown>
  10ba84: ffffffff     	<unknown>
  10ba88: ffffffff     	<unknown>
  10ba8c: ffffffff     	<unknown>
  10ba90: ffffffff     	<unknown>
  10ba94: ffffffff     	<unknown>
  10ba98: ffffffff     	<unknown>
  10ba9c: ffffffff     	<unknown>
  10baa0: ffffffff     	<unknown>
  10baa4: ffffffff     	<unknown>
  10baa8: ffffffff     	<unknown>
  10baac: ffffffff     	<unknown>
  10bab0: ffffffff     	<unknown>
  10bab4: ffffffff     	<unknown>
  10bab8: ffffffff     	<unknown>
  10babc: ffffffff     	<unknown>
  10bac0: ffffffff     	<unknown>
  10bac4: ffffffff     	<unknown>
  10bac8: ffffffff     	<unknown>
  10bacc: ffffffff     	<unknown>
  10bad0: ffffffff     	<unknown>
  10bad4: ffffffff     	<unknown>
  10bad8: ffffffff     	<unknown>
  10badc: ffffffff     	<unknown>
  10bae0: ffffffff     	<unknown>
  10bae4: ffffffff     	<unknown>
  10bae8: ffffffff     	<unknown>
  10baec: ffffffff     	<unknown>
  10baf0: ffffffff     	<unknown>
  10baf4: ffffffff     	<unknown>
  10baf8: ffffffff     	<unknown>
  10bafc: ffffffff     	<unknown>
  10bb00: ffffffff     	<unknown>
  10bb04: ffffffff     	<unknown>
  10bb08: ffffffff     	<unknown>
  10bb0c: ffffffff     	<unknown>
  10bb10: ffffffff     	<unknown>
  10bb14: ffffffff     	<unknown>
  10bb18: ffffffff     	<unknown>
  10bb1c: ffffffff     	<unknown>
  10bb20: ffffffff     	<unknown>
  10bb24: ffffffff     	<unknown>
  10bb28: ffffffff     	<unknown>
  10bb2c: ffffffff     	<unknown>
  10bb30: ffffffff     	<unknown>
  10bb34: ffffffff     	<unknown>
  10bb38: ffffffff     	<unknown>
  10bb3c: ffffffff     	<unknown>
  10bb40: ffffffff     	<unknown>
  10bb44: ffffffff     	<unknown>
  10bb48: ffffffff     	<unknown>
  10bb4c: ffffffff     	<unknown>
  10bb50: ffffffff     	<unknown>
  10bb54: ffffffff     	<unknown>
  10bb58: ffffffff     	<unknown>
  10bb5c: ffffffff     	<unknown>
  10bb60: ffffffff     	<unknown>
  10bb64: ffffffff     	<unknown>
  10bb68: ffffffff     	<unknown>
  10bb6c: ffffffff     	<unknown>
  10bb70: ffffffff     	<unknown>
  10bb74: ffffffff     	<unknown>
  10bb78: ffffffff     	<unknown>
  10bb7c: ffffffff     	<unknown>
  10bb80: ffffffff     	<unknown>
  10bb84: ffffffff     	<unknown>
  10bb88: ffffffff     	<unknown>
  10bb8c: ffffffff     	<unknown>
  10bb90: ffffffff     	<unknown>
  10bb94: ffffffff     	<unknown>
  10bb98: ffffffff     	<unknown>
  10bb9c: ffffffff     	<unknown>
  10bba0: ffffffff     	<unknown>
  10bba4: ffffffff     	<unknown>
  10bba8: ffffffff     	<unknown>
  10bbac: ffffffff     	<unknown>
  10bbb0: ffffffff     	<unknown>
  10bbb4: ffffffff     	<unknown>
  10bbb8: ffffffff     	<unknown>
  10bbbc: ffffffff     	<unknown>
  10bbc0: ffffffff     	<unknown>
  10bbc4: ffffffff     	<unknown>
  10bbc8: ffffffff     	<unknown>
  10bbcc: ffffffff     	<unknown>
  10bbd0: ffffffff     	<unknown>
  10bbd4: ffffffff     	<unknown>
  10bbd8: ffffffff     	<unknown>
  10bbdc: ffffffff     	<unknown>
  10bbe0: ffffffff     	<unknown>
  10bbe4: ffffffff     	<unknown>
  10bbe8: ffffffff     	<unknown>
  10bbec: ffffffff     	<unknown>
  10bbf0: ffffffff     	<unknown>
  10bbf4: ffffffff     	<unknown>
  10bbf8: ffffffff     	<unknown>
  10bbfc: ffffffff     	<unknown>
  10bc00: ffffffff     	<unknown>
  10bc04: ffffffff     	<unknown>
  10bc08: ffffffff     	<unknown>
  10bc0c: ffffffff     	<unknown>
  10bc10: ffffffff     	<unknown>
  10bc14: ffffffff     	<unknown>
  10bc18: ffffffff     	<unknown>
  10bc1c: ffffffff     	<unknown>
  10bc20: ffffffff     	<unknown>
  10bc24: ffffffff     	<unknown>
  10bc28: ffffffff     	<unknown>
  10bc2c: ffffffff     	<unknown>
  10bc30: ffffffff     	<unknown>
  10bc34: ffffffff     	<unknown>
  10bc38: ffffffff     	<unknown>
  10bc3c: ffffffff     	<unknown>
  10bc40: ffffffff     	<unknown>
  10bc44: ffffffff     	<unknown>
  10bc48: ffffffff     	<unknown>
  10bc4c: ffffffff     	<unknown>
  10bc50: ffffffff     	<unknown>
  10bc54: ffffffff     	<unknown>
  10bc58: ffffffff     	<unknown>
  10bc5c: ffffffff     	<unknown>
  10bc60: ffffffff     	<unknown>
  10bc64: ffffffff     	<unknown>
  10bc68: ffffffff     	<unknown>
  10bc6c: ffffffff     	<unknown>
  10bc70: ffffffff     	<unknown>
  10bc74: ffffffff     	<unknown>
  10bc78: ffffffff     	<unknown>
  10bc7c: ffffffff     	<unknown>
  10bc80: ffffffff     	<unknown>
  10bc84: ffffffff     	<unknown>
  10bc88: ffffffff     	<unknown>
  10bc8c: ffffffff     	<unknown>
  10bc90: ffffffff     	<unknown>
  10bc94: ffffffff     	<unknown>
  10bc98: ffffffff     	<unknown>
  10bc9c: ffffffff     	<unknown>
  10bca0: ffffffff     	<unknown>
  10bca4: ffffffff     	<unknown>
  10bca8: ffffffff     	<unknown>
  10bcac: ffffffff     	<unknown>
  10bcb0: ffffffff     	<unknown>
  10bcb4: ffffffff     	<unknown>
  10bcb8: ffffffff     	<unknown>
  10bcbc: ffffffff     	<unknown>
  10bcc0: ffffffff     	<unknown>
  10bcc4: ffffffff     	<unknown>
  10bcc8: ffffffff     	<unknown>
  10bccc: ffffffff     	<unknown>
  10bcd0: ffffffff     	<unknown>
  10bcd4: ffffffff     	<unknown>
  10bcd8: ffffffff     	<unknown>
  10bcdc: ffffffff     	<unknown>
  10bce0: ffffffff     	<unknown>
  10bce4: ffffffff     	<unknown>
  10bce8: ffffffff     	<unknown>
  10bcec: ffffffff     	<unknown>
  10bcf0: ffffffff     	<unknown>
  10bcf4: ffffffff     	<unknown>
  10bcf8: ffffffff     	<unknown>
  10bcfc: ffffffff     	<unknown>
  10bd00: ffffffff     	<unknown>
  10bd04: ffffffff     	<unknown>
  10bd08: ffffffff     	<unknown>
  10bd0c: ffffffff     	<unknown>
  10bd10: ffffffff     	<unknown>
  10bd14: ffffffff     	<unknown>
  10bd18: ffffffff     	<unknown>
  10bd1c: ffffffff     	<unknown>
  10bd20: ffffffff     	<unknown>
  10bd24: ffffffff     	<unknown>
  10bd28: ffffffff     	<unknown>
  10bd2c: ffffffff     	<unknown>
  10bd30: ffffffff     	<unknown>
  10bd34: ffffffff     	<unknown>
  10bd38: ffffffff     	<unknown>
  10bd3c: ffffffff     	<unknown>
  10bd40: ffffffff     	<unknown>
  10bd44: ffffffff     	<unknown>
  10bd48: ffffffff     	<unknown>
  10bd4c: ffffffff     	<unknown>
  10bd50: ffffffff     	<unknown>
  10bd54: ffffffff     	<unknown>
  10bd58: ffffffff     	<unknown>
  10bd5c: ffffffff     	<unknown>
  10bd60: ffffffff     	<unknown>
  10bd64: ffffffff     	<unknown>
  10bd68: ffffffff     	<unknown>
  10bd6c: ffffffff     	<unknown>
  10bd70: ffffffff     	<unknown>
  10bd74: ffffffff     	<unknown>
  10bd78: ffffffff     	<unknown>
  10bd7c: ffffffff     	<unknown>
  10bd80: ffffffff     	<unknown>
  10bd84: ffffffff     	<unknown>
  10bd88: ffffffff     	<unknown>
  10bd8c: ffffffff     	<unknown>
  10bd90: ffffffff     	<unknown>
  10bd94: ffffffff     	<unknown>
  10bd98: ffffffff     	<unknown>
  10bd9c: ffffffff     	<unknown>
  10bda0: ffffffff     	<unknown>
  10bda4: ffffffff     	<unknown>
  10bda8: ffffffff     	<unknown>
  10bdac: ffffffff     	<unknown>
  10bdb0: ffffffff     	<unknown>
  10bdb4: ffffffff     	<unknown>
  10bdb8: ffffffff     	<unknown>
  10bdbc: ffffffff     	<unknown>
  10bdc0: ffffffff     	<unknown>
  10bdc4: ffffffff     	<unknown>
  10bdc8: ffffffff     	<unknown>
  10bdcc: ffffffff     	<unknown>
  10bdd0: ffffffff     	<unknown>
  10bdd4: ffffffff     	<unknown>
  10bdd8: ffffffff     	<unknown>
  10bddc: ffffffff     	<unknown>
  10bde0: ffffffff     	<unknown>
  10bde4: ffffffff     	<unknown>
  10bde8: ffffffff     	<unknown>
  10bdec: ffffffff     	<unknown>
  10bdf0: ffffffff     	<unknown>
  10bdf4: ffffffff     	<unknown>
  10bdf8: ffffffff     	<unknown>
  10bdfc: ffffffff     	<unknown>
  10be00: ffffffff     	<unknown>
  10be04: ffffffff     	<unknown>
  10be08: ffffffff     	<unknown>
  10be0c: ffffffff     	<unknown>
  10be10: ffffffff     	<unknown>
  10be14: ffffffff     	<unknown>
  10be18: ffffffff     	<unknown>
  10be1c: ffffffff     	<unknown>
  10be20: ffffffff     	<unknown>
  10be24: ffffffff     	<unknown>
  10be28: ffffffff     	<unknown>
  10be2c: ffffffff     	<unknown>
  10be30: ffffffff     	<unknown>
  10be34: ffffffff     	<unknown>
  10be38: ffffffff     	<unknown>
  10be3c: ffffffff     	<unknown>
  10be40: ffffffff     	<unknown>
  10be44: ffffffff     	<unknown>
  10be48: ffffffff     	<unknown>
  10be4c: ffffffff     	<unknown>
  10be50: ffffffff     	<unknown>
  10be54: ffffffff     	<unknown>
  10be58: ffffffff     	<unknown>
  10be5c: ffffffff     	<unknown>
  10be60: ffffffff     	<unknown>
  10be64: ffffffff     	<unknown>
  10be68: ffffffff     	<unknown>
  10be6c: ffffffff     	<unknown>
  10be70: ffffffff     	<unknown>
  10be74: ffffffff     	<unknown>
  10be78: ffffffff     	<unknown>
  10be7c: ffffffff     	<unknown>
  10be80: ffffffff     	<unknown>
  10be84: ffffffff     	<unknown>
  10be88: ffffffff     	<unknown>
  10be8c: ffffffff     	<unknown>
  10be90: ffffffff     	<unknown>
  10be94: ffffffff     	<unknown>
  10be98: ffffffff     	<unknown>
  10be9c: ffffffff     	<unknown>
  10bea0: ffffffff     	<unknown>
  10bea4: ffffffff     	<unknown>
  10bea8: ffffffff     	<unknown>
  10beac: ffffffff     	<unknown>
  10beb0: ffffffff     	<unknown>
  10beb4: ffffffff     	<unknown>
  10beb8: ffffffff     	<unknown>
  10bebc: ffffffff     	<unknown>
  10bec0: ffffffff     	<unknown>
  10bec4: ffffffff     	<unknown>
  10bec8: ffffffff     	<unknown>
  10becc: ffffffff     	<unknown>
  10bed0: ffffffff     	<unknown>
  10bed4: ffffffff     	<unknown>
  10bed8: ffffffff     	<unknown>
  10bedc: ffffffff     	<unknown>
  10bee0: ffffffff     	<unknown>
  10bee4: ffffffff     	<unknown>
  10bee8: ffffffff     	<unknown>
  10beec: ffffffff     	<unknown>
  10bef0: ffffffff     	<unknown>
  10bef4: ffffffff     	<unknown>
  10bef8: ffffffff     	<unknown>
  10befc: ffffffff     	<unknown>
  10bf00: ffffffff     	<unknown>
  10bf04: ffffffff     	<unknown>
  10bf08: ffffffff     	<unknown>
  10bf0c: ffffffff     	<unknown>
  10bf10: ffffffff     	<unknown>
  10bf14: ffffffff     	<unknown>
  10bf18: ffffffff     	<unknown>
  10bf1c: ffffffff     	<unknown>
  10bf20: ffffffff     	<unknown>
  10bf24: ffffffff     	<unknown>
  10bf28: ffffffff     	<unknown>
  10bf2c: ffffffff     	<unknown>
  10bf30: ffffffff     	<unknown>
  10bf34: ffffffff     	<unknown>
  10bf38: ffffffff     	<unknown>
  10bf3c: ffffffff     	<unknown>
  10bf40: ffffffff     	<unknown>
  10bf44: ffffffff     	<unknown>
  10bf48: ffffffff     	<unknown>
  10bf4c: ffffffff     	<unknown>
  10bf50: ffffffff     	<unknown>
  10bf54: ffffffff     	<unknown>
  10bf58: ffffffff     	<unknown>
  10bf5c: ffffffff     	<unknown>
  10bf60: ffffffff     	<unknown>
  10bf64: ffffffff     	<unknown>
  10bf68: ffffffff     	<unknown>
  10bf6c: ffffffff     	<unknown>
  10bf70: ffffffff     	<unknown>
  10bf74: ffffffff     	<unknown>
  10bf78: ffffffff     	<unknown>
  10bf7c: ffffffff     	<unknown>
  10bf80: ffffffff     	<unknown>
  10bf84: ffffffff     	<unknown>
  10bf88: ffffffff     	<unknown>
  10bf8c: ffffffff     	<unknown>
  10bf90: ffffffff     	<unknown>
  10bf94: ffffffff     	<unknown>
  10bf98: ffffffff     	<unknown>
  10bf9c: ffffffff     	<unknown>
  10bfa0: ffffffff     	<unknown>
  10bfa4: ffffffff     	<unknown>
  10bfa8: ffffffff     	<unknown>
  10bfac: ffffffff     	<unknown>
  10bfb0: ffffffff     	<unknown>
  10bfb4: ffffffff     	<unknown>
  10bfb8: ffffffff     	<unknown>
  10bfbc: ffffffff     	<unknown>
  10bfc0: ffffffff     	<unknown>
  10bfc4: ffffffff     	<unknown>
  10bfc8: ffffffff     	<unknown>
  10bfcc: ffffffff     	<unknown>
  10bfd0: ffffffff     	<unknown>
  10bfd4: ffffffff     	<unknown>
  10bfd8: ffffffff     	<unknown>
  10bfdc: ffffffff     	<unknown>
  10bfe0: ffffffff     	<unknown>
  10bfe4: ffffffff     	<unknown>
  10bfe8: ffffffff     	<unknown>
  10bfec: ffffffff     	<unknown>
  10bff0: ffffffff     	<unknown>
  10bff4: ffffffff     	<unknown>
  10bff8: ffffffff     	<unknown>
  10bffc: ffffffff     	<unknown>
  10c000: ffffffff     	<unknown>
  10c004: ffffffff     	<unknown>
  10c008: ffffffff     	<unknown>
  10c00c: ffffffff     	<unknown>
  10c010: ffffffff     	<unknown>
  10c014: ffffffff     	<unknown>
  10c018: ffffffff     	<unknown>
  10c01c: ffffffff     	<unknown>
  10c020: ffffffff     	<unknown>
  10c024: ffffffff     	<unknown>
  10c028: ffffffff     	<unknown>
  10c02c: ffffffff     	<unknown>
  10c030: ffffffff     	<unknown>
  10c034: ffffffff     	<unknown>
  10c038: ffffffff     	<unknown>
  10c03c: ffffffff     	<unknown>
  10c040: ffffffff     	<unknown>
  10c044: ffffffff     	<unknown>
  10c048: ffffffff     	<unknown>
  10c04c: ffffffff     	<unknown>
  10c050: ffffffff     	<unknown>
  10c054: ffffffff     	<unknown>
  10c058: ffffffff     	<unknown>
  10c05c: ffffffff     	<unknown>
  10c060: ffffffff     	<unknown>
  10c064: ffffffff     	<unknown>
  10c068: ffffffff     	<unknown>
  10c06c: ffffffff     	<unknown>
  10c070: ffffffff     	<unknown>
  10c074: ffffffff     	<unknown>
  10c078: ffffffff     	<unknown>
  10c07c: ffffffff     	<unknown>
  10c080: ffffffff     	<unknown>
  10c084: ffffffff     	<unknown>
  10c088: ffffffff     	<unknown>
  10c08c: ffffffff     	<unknown>
  10c090: ffffffff     	<unknown>
  10c094: ffffffff     	<unknown>
  10c098: ffffffff     	<unknown>
  10c09c: ffffffff     	<unknown>
  10c0a0: ffffffff     	<unknown>
  10c0a4: ffffffff     	<unknown>
  10c0a8: ffffffff     	<unknown>
  10c0ac: ffffffff     	<unknown>
  10c0b0: ffffffff     	<unknown>
  10c0b4: ffffffff     	<unknown>
  10c0b8: ffffffff     	<unknown>
  10c0bc: ffffffff     	<unknown>
  10c0c0: ffffffff     	<unknown>
  10c0c4: ffffffff     	<unknown>
  10c0c8: ffffffff     	<unknown>
  10c0cc: ffffffff     	<unknown>
  10c0d0: ffffffff     	<unknown>
  10c0d4: ffffffff     	<unknown>
  10c0d8: ffffffff     	<unknown>
  10c0dc: ffffffff     	<unknown>
  10c0e0: ffffffff     	<unknown>
  10c0e4: ffffffff     	<unknown>
  10c0e8: ffffffff     	<unknown>
  10c0ec: ffffffff     	<unknown>
  10c0f0: ffffffff     	<unknown>
  10c0f4: ffffffff     	<unknown>
  10c0f8: ffffffff     	<unknown>
  10c0fc: ffffffff     	<unknown>
  10c100: ffffffff     	<unknown>
  10c104: ffffffff     	<unknown>
  10c108: ffffffff     	<unknown>
  10c10c: ffffffff     	<unknown>
  10c110: ffffffff     	<unknown>
  10c114: ffffffff     	<unknown>
  10c118: ffffffff     	<unknown>
  10c11c: ffffffff     	<unknown>
  10c120: ffffffff     	<unknown>
  10c124: ffffffff     	<unknown>
  10c128: ffffffff     	<unknown>
  10c12c: ffffffff     	<unknown>
  10c130: ffffffff     	<unknown>
  10c134: ffffffff     	<unknown>
  10c138: ffffffff     	<unknown>
  10c13c: ffffffff     	<unknown>
  10c140: ffffffff     	<unknown>
  10c144: ffffffff     	<unknown>
  10c148: ffffffff     	<unknown>
  10c14c: ffffffff     	<unknown>
  10c150: ffffffff     	<unknown>
  10c154: ffffffff     	<unknown>
  10c158: ffffffff     	<unknown>
  10c15c: ffffffff     	<unknown>
  10c160: ffffffff     	<unknown>
  10c164: ffffffff     	<unknown>
  10c168: ffffffff     	<unknown>
  10c16c: ffffffff     	<unknown>
  10c170: ffffffff     	<unknown>
  10c174: ffffffff     	<unknown>
  10c178: ffffffff     	<unknown>
  10c17c: ffffffff     	<unknown>
  10c180: ffffffff     	<unknown>
  10c184: ffffffff     	<unknown>
  10c188: ffffffff     	<unknown>
  10c18c: ffffffff     	<unknown>
  10c190: ffffffff     	<unknown>
  10c194: ffffffff     	<unknown>
  10c198: ffffffff     	<unknown>
  10c19c: ffffffff     	<unknown>
  10c1a0: ffffffff     	<unknown>
  10c1a4: ffffffff     	<unknown>
  10c1a8: ffffffff     	<unknown>
  10c1ac: ffffffff     	<unknown>
  10c1b0: ffffffff     	<unknown>
  10c1b4: ffffffff     	<unknown>
  10c1b8: ffffffff     	<unknown>
  10c1bc: ffffffff     	<unknown>
  10c1c0: ffffffff     	<unknown>
  10c1c4: ffffffff     	<unknown>
  10c1c8: ffffffff     	<unknown>
  10c1cc: ffffffff     	<unknown>
  10c1d0: ffffffff     	<unknown>
  10c1d4: ffffffff     	<unknown>
  10c1d8: ffffffff     	<unknown>
  10c1dc: ffffffff     	<unknown>
  10c1e0: ffffffff     	<unknown>
  10c1e4: ffffffff     	<unknown>
  10c1e8: ffffffff     	<unknown>
  10c1ec: ffffffff     	<unknown>
  10c1f0: ffffffff     	<unknown>
  10c1f4: ffffffff     	<unknown>
  10c1f8: ffffffff     	<unknown>
  10c1fc: ffffffff     	<unknown>
  10c200: ffffffff     	<unknown>
  10c204: ffffffff     	<unknown>
  10c208: ffffffff     	<unknown>
  10c20c: ffffffff     	<unknown>
  10c210: ffffffff     	<unknown>
  10c214: ffffffff     	<unknown>
  10c218: ffffffff     	<unknown>
  10c21c: ffffffff     	<unknown>
  10c220: ffffffff     	<unknown>
  10c224: ffffffff     	<unknown>
  10c228: ffffffff     	<unknown>
  10c22c: ffffffff     	<unknown>
  10c230: ffffffff     	<unknown>
  10c234: ffffffff     	<unknown>
  10c238: ffffffff     	<unknown>
  10c23c: ffffffff     	<unknown>
  10c240: ffffffff     	<unknown>
  10c244: ffffffff     	<unknown>
  10c248: ffffffff     	<unknown>
  10c24c: ffffffff     	<unknown>
  10c250: ffffffff     	<unknown>
  10c254: ffffffff     	<unknown>
  10c258: ffffffff     	<unknown>
  10c25c: ffffffff     	<unknown>
  10c260: ffffffff     	<unknown>
  10c264: ffffffff     	<unknown>
  10c268: ffffffff     	<unknown>
  10c26c: ffffffff     	<unknown>
  10c270: ffffffff     	<unknown>
  10c274: ffffffff     	<unknown>
  10c278: ffffffff     	<unknown>
  10c27c: ffffffff     	<unknown>
  10c280: ffffffff     	<unknown>
  10c284: ffffffff     	<unknown>
  10c288: ffffffff     	<unknown>
  10c28c: ffffffff     	<unknown>
  10c290: ffffffff     	<unknown>
  10c294: ffffffff     	<unknown>
  10c298: ffffffff     	<unknown>
  10c29c: ffffffff     	<unknown>
  10c2a0: ffffffff     	<unknown>
  10c2a4: ffffffff     	<unknown>
  10c2a8: ffffffff     	<unknown>
  10c2ac: ffffffff     	<unknown>
  10c2b0: ffffffff     	<unknown>
  10c2b4: ffffffff     	<unknown>
  10c2b8: ffffffff     	<unknown>
  10c2bc: ffffffff     	<unknown>
  10c2c0: ffffffff     	<unknown>
  10c2c4: ffffffff     	<unknown>
  10c2c8: ffffffff     	<unknown>
  10c2cc: ffffffff     	<unknown>
  10c2d0: ffffffff     	<unknown>
  10c2d4: ffffffff     	<unknown>
  10c2d8: ffffffff     	<unknown>
  10c2dc: ffffffff     	<unknown>
  10c2e0: ffffffff     	<unknown>
  10c2e4: ffffffff     	<unknown>
  10c2e8: ffffffff     	<unknown>
  10c2ec: ffffffff     	<unknown>
  10c2f0: ffffffff     	<unknown>
  10c2f4: ffffffff     	<unknown>
  10c2f8: ffffffff     	<unknown>
  10c2fc: ffffffff     	<unknown>
  10c300: ffffffff     	<unknown>
  10c304: ffffffff     	<unknown>
  10c308: ffffffff     	<unknown>
  10c30c: ffffffff     	<unknown>
  10c310: ffffffff     	<unknown>
  10c314: ffffffff     	<unknown>
  10c318: ffffffff     	<unknown>
  10c31c: ffffffff     	<unknown>
  10c320: ffffffff     	<unknown>
  10c324: ffffffff     	<unknown>
  10c328: ffffffff     	<unknown>
  10c32c: ffffffff     	<unknown>
  10c330: ffffffff     	<unknown>
  10c334: ffffffff     	<unknown>
  10c338: ffffffff     	<unknown>
  10c33c: ffffffff     	<unknown>
  10c340: ffffffff     	<unknown>
  10c344: ffffffff     	<unknown>
  10c348: ffffffff     	<unknown>
  10c34c: ffffffff     	<unknown>
  10c350: ffffffff     	<unknown>
  10c354: ffffffff     	<unknown>
  10c358: ffffffff     	<unknown>
  10c35c: ffffffff     	<unknown>
  10c360: ffffffff     	<unknown>
  10c364: ffffffff     	<unknown>
  10c368: ffffffff     	<unknown>
  10c36c: ffffffff     	<unknown>
  10c370: ffffffff     	<unknown>
  10c374: ffffffff     	<unknown>
  10c378: ffffffff     	<unknown>
  10c37c: ffffffff     	<unknown>
  10c380: ffffffff     	<unknown>
  10c384: ffffffff     	<unknown>
  10c388: ffffffff     	<unknown>
  10c38c: ffffffff     	<unknown>
  10c390: ffffffff     	<unknown>
  10c394: ffffffff     	<unknown>
  10c398: ffffffff     	<unknown>
  10c39c: ffffffff     	<unknown>
  10c3a0: ffffffff     	<unknown>
  10c3a4: ffffffff     	<unknown>
  10c3a8: ffffffff     	<unknown>
  10c3ac: ffffffff     	<unknown>
  10c3b0: ffffffff     	<unknown>
  10c3b4: ffffffff     	<unknown>
  10c3b8: ffffffff     	<unknown>
  10c3bc: ffffffff     	<unknown>
  10c3c0: ffffffff     	<unknown>
  10c3c4: ffffffff     	<unknown>
  10c3c8: ffffffff     	<unknown>
  10c3cc: ffffffff     	<unknown>
  10c3d0: ffffffff     	<unknown>
  10c3d4: ffffffff     	<unknown>
  10c3d8: ffffffff     	<unknown>
  10c3dc: ffffffff     	<unknown>
  10c3e0: ffffffff     	<unknown>
  10c3e4: ffffffff     	<unknown>
  10c3e8: ffffffff     	<unknown>
  10c3ec: ffffffff     	<unknown>
  10c3f0: ffffffff     	<unknown>
  10c3f4: ffffffff     	<unknown>
  10c3f8: ffffffff     	<unknown>
  10c3fc: ffffffff     	<unknown>
  10c400: ffffffff     	<unknown>
  10c404: ffffffff     	<unknown>
  10c408: ffffffff     	<unknown>
  10c40c: ffffffff     	<unknown>
  10c410: ffffffff     	<unknown>
  10c414: ffffffff     	<unknown>
  10c418: ffffffff     	<unknown>
  10c41c: ffffffff     	<unknown>
  10c420: ffffffff     	<unknown>
  10c424: ffffffff     	<unknown>
  10c428: ffffffff     	<unknown>
  10c42c: ffffffff     	<unknown>
  10c430: ffffffff     	<unknown>
  10c434: ffffffff     	<unknown>
  10c438: ffffffff     	<unknown>
  10c43c: ffffffff     	<unknown>
  10c440: ffffffff     	<unknown>
  10c444: ffffffff     	<unknown>
  10c448: ffffffff     	<unknown>
  10c44c: ffffffff     	<unknown>
  10c450: ffffffff     	<unknown>
  10c454: ffffffff     	<unknown>
  10c458: ffffffff     	<unknown>
  10c45c: ffffffff     	<unknown>
  10c460: ffffffff     	<unknown>
  10c464: ffffffff     	<unknown>
  10c468: ffffffff     	<unknown>
  10c46c: ffffffff     	<unknown>
  10c470: ffffffff     	<unknown>
  10c474: ffffffff     	<unknown>
  10c478: ffffffff     	<unknown>
  10c47c: ffffffff     	<unknown>
  10c480: ffffffff     	<unknown>
  10c484: ffffffff     	<unknown>
  10c488: ffffffff     	<unknown>
  10c48c: ffffffff     	<unknown>
  10c490: ffffffff     	<unknown>
  10c494: ffffffff     	<unknown>
  10c498: ffffffff     	<unknown>
  10c49c: ffffffff     	<unknown>
  10c4a0: ffffffff     	<unknown>
  10c4a4: ffffffff     	<unknown>
  10c4a8: ffffffff     	<unknown>
  10c4ac: ffffffff     	<unknown>
  10c4b0: ffffffff     	<unknown>
  10c4b4: ffffffff     	<unknown>
  10c4b8: ffffffff     	<unknown>
  10c4bc: ffffffff     	<unknown>
  10c4c0: ffffffff     	<unknown>
  10c4c4: ffffffff     	<unknown>
  10c4c8: ffffffff     	<unknown>
  10c4cc: ffffffff     	<unknown>
  10c4d0: ffffffff     	<unknown>
  10c4d4: ffffffff     	<unknown>
  10c4d8: ffffffff     	<unknown>
  10c4dc: ffffffff     	<unknown>
  10c4e0: ffffffff     	<unknown>
  10c4e4: ffffffff     	<unknown>
  10c4e8: ffffffff     	<unknown>
  10c4ec: ffffffff     	<unknown>
  10c4f0: ffffffff     	<unknown>
  10c4f4: ffffffff     	<unknown>
  10c4f8: ffffffff     	<unknown>
  10c4fc: ffffffff     	<unknown>
  10c500: ffffffff     	<unknown>
  10c504: ffffffff     	<unknown>
  10c508: ffffffff     	<unknown>
  10c50c: ffffffff     	<unknown>
  10c510: ffffffff     	<unknown>
  10c514: ffffffff     	<unknown>
  10c518: ffffffff     	<unknown>
  10c51c: ffffffff     	<unknown>
  10c520: ffffffff     	<unknown>
  10c524: ffffffff     	<unknown>
  10c528: ffffffff     	<unknown>
  10c52c: ffffffff     	<unknown>
  10c530: ffffffff     	<unknown>
  10c534: ffffffff     	<unknown>
  10c538: ffffffff     	<unknown>
  10c53c: ffffffff     	<unknown>
  10c540: ffffffff     	<unknown>
  10c544: ffffffff     	<unknown>
  10c548: ffffffff     	<unknown>
  10c54c: ffffffff     	<unknown>
  10c550: ffffffff     	<unknown>
  10c554: ffffffff     	<unknown>
  10c558: ffffffff     	<unknown>
  10c55c: ffffffff     	<unknown>
  10c560: ffffffff     	<unknown>
  10c564: ffffffff     	<unknown>
  10c568: ffffffff     	<unknown>
  10c56c: ffffffff     	<unknown>
  10c570: ffffffff     	<unknown>
  10c574: ffffffff     	<unknown>
  10c578: ffffffff     	<unknown>
  10c57c: ffffffff     	<unknown>
  10c580: ffffffff     	<unknown>
  10c584: ffffffff     	<unknown>
  10c588: ffffffff     	<unknown>
  10c58c: ffffffff     	<unknown>
  10c590: ffffffff     	<unknown>
  10c594: ffffffff     	<unknown>
  10c598: ffffffff     	<unknown>
  10c59c: ffffffff     	<unknown>
  10c5a0: ffffffff     	<unknown>
  10c5a4: ffffffff     	<unknown>
  10c5a8: ffffffff     	<unknown>
  10c5ac: ffffffff     	<unknown>
  10c5b0: ffffffff     	<unknown>
  10c5b4: ffffffff     	<unknown>
  10c5b8: ffffffff     	<unknown>
  10c5bc: ffffffff     	<unknown>
  10c5c0: ffffffff     	<unknown>
  10c5c4: ffffffff     	<unknown>
  10c5c8: ffffffff     	<unknown>
  10c5cc: ffffffff     	<unknown>
  10c5d0: ffffffff     	<unknown>
  10c5d4: ffffffff     	<unknown>
  10c5d8: ffffffff     	<unknown>
  10c5dc: ffffffff     	<unknown>
  10c5e0: ffffffff     	<unknown>
  10c5e4: ffffffff     	<unknown>
  10c5e8: ffffffff     	<unknown>
  10c5ec: ffffffff     	<unknown>
  10c5f0: ffffffff     	<unknown>
  10c5f4: ffffffff     	<unknown>
  10c5f8: ffffffff     	<unknown>
  10c5fc: ffffffff     	<unknown>
  10c600: ffffffff     	<unknown>
  10c604: ffffffff     	<unknown>
  10c608: ffffffff     	<unknown>
  10c60c: ffffffff     	<unknown>
  10c610: ffffffff     	<unknown>
  10c614: ffffffff     	<unknown>
  10c618: ffffffff     	<unknown>
  10c61c: ffffffff     	<unknown>
  10c620: ffffffff     	<unknown>
  10c624: ffffffff     	<unknown>
  10c628: ffffffff     	<unknown>
  10c62c: ffffffff     	<unknown>
  10c630: ffffffff     	<unknown>
  10c634: ffffffff     	<unknown>
  10c638: ffffffff     	<unknown>
  10c63c: ffffffff     	<unknown>
  10c640: ffffffff     	<unknown>
  10c644: ffffffff     	<unknown>
  10c648: ffffffff     	<unknown>
  10c64c: ffffffff     	<unknown>
  10c650: ffffffff     	<unknown>
  10c654: ffffffff     	<unknown>
  10c658: ffffffff     	<unknown>
  10c65c: ffffffff     	<unknown>
  10c660: ffffffff     	<unknown>
  10c664: ffffffff     	<unknown>
  10c668: ffffffff     	<unknown>
  10c66c: ffffffff     	<unknown>
  10c670: ffffffff     	<unknown>
  10c674: ffffffff     	<unknown>
  10c678: ffffffff     	<unknown>
  10c67c: ffffffff     	<unknown>
  10c680: ffffffff     	<unknown>
  10c684: ffffffff     	<unknown>
  10c688: ffffffff     	<unknown>
  10c68c: ffffffff     	<unknown>
  10c690: ffffffff     	<unknown>
  10c694: ffffffff     	<unknown>
  10c698: ffffffff     	<unknown>
  10c69c: ffffffff     	<unknown>
  10c6a0: ffffffff     	<unknown>
  10c6a4: ffffffff     	<unknown>
  10c6a8: ffffffff     	<unknown>
  10c6ac: ffffffff     	<unknown>
  10c6b0: ffffffff     	<unknown>
  10c6b4: ffffffff     	<unknown>
  10c6b8: ffffffff     	<unknown>
  10c6bc: ffffffff     	<unknown>
  10c6c0: ffffffff     	<unknown>
  10c6c4: ffffffff     	<unknown>
  10c6c8: ffffffff     	<unknown>
  10c6cc: ffffffff     	<unknown>
  10c6d0: ffffffff     	<unknown>
  10c6d4: ffffffff     	<unknown>
  10c6d8: ffffffff     	<unknown>
  10c6dc: ffffffff     	<unknown>
  10c6e0: ffffffff     	<unknown>
  10c6e4: ffffffff     	<unknown>
  10c6e8: ffffffff     	<unknown>
  10c6ec: ffffffff     	<unknown>
  10c6f0: ffffffff     	<unknown>
  10c6f4: ffffffff     	<unknown>
  10c6f8: ffffffff     	<unknown>
  10c6fc: ffffffff     	<unknown>
  10c700: ffffffff     	<unknown>
  10c704: ffffffff     	<unknown>
  10c708: ffffffff     	<unknown>
  10c70c: ffffffff     	<unknown>
  10c710: ffffffff     	<unknown>
  10c714: ffffffff     	<unknown>
  10c718: ffffffff     	<unknown>
  10c71c: ffffffff     	<unknown>
  10c720: ffffffff     	<unknown>
  10c724: ffffffff     	<unknown>
  10c728: ffffffff     	<unknown>
  10c72c: ffffffff     	<unknown>
  10c730: ffffffff     	<unknown>
  10c734: ffffffff     	<unknown>
  10c738: ffffffff     	<unknown>
  10c73c: ffffffff     	<unknown>
  10c740: ffffffff     	<unknown>
  10c744: ffffffff     	<unknown>
  10c748: ffffffff     	<unknown>
  10c74c: ffffffff     	<unknown>
  10c750: ffffffff     	<unknown>
  10c754: ffffffff     	<unknown>
  10c758: ffffffff     	<unknown>
  10c75c: ffffffff     	<unknown>
  10c760: ffffffff     	<unknown>
  10c764: ffffffff     	<unknown>
  10c768: ffffffff     	<unknown>
  10c76c: ffffffff     	<unknown>
  10c770: ffffffff     	<unknown>
  10c774: ffffffff     	<unknown>
  10c778: ffffffff     	<unknown>
  10c77c: ffffffff     	<unknown>
  10c780: ffffffff     	<unknown>
  10c784: ffffffff     	<unknown>
  10c788: ffffffff     	<unknown>
  10c78c: ffffffff     	<unknown>
  10c790: ffffffff     	<unknown>
  10c794: ffffffff     	<unknown>
  10c798: ffffffff     	<unknown>
  10c79c: ffffffff     	<unknown>
  10c7a0: ffffffff     	<unknown>
  10c7a4: ffffffff     	<unknown>
  10c7a8: ffffffff     	<unknown>
  10c7ac: ffffffff     	<unknown>
  10c7b0: ffffffff     	<unknown>
  10c7b4: ffffffff     	<unknown>
  10c7b8: ffffffff     	<unknown>
  10c7bc: ffffffff     	<unknown>
  10c7c0: ffffffff     	<unknown>
  10c7c4: ffffffff     	<unknown>
  10c7c8: ffffffff     	<unknown>
  10c7cc: ffffffff     	<unknown>
  10c7d0: ffffffff     	<unknown>
  10c7d4: ffffffff     	<unknown>
  10c7d8: ffffffff     	<unknown>
  10c7dc: ffffffff     	<unknown>
  10c7e0: ffffffff     	<unknown>
  10c7e4: ffffffff     	<unknown>
  10c7e8: ffffffff     	<unknown>
  10c7ec: ffffffff     	<unknown>
  10c7f0: ffffffff     	<unknown>
  10c7f4: ffffffff     	<unknown>
  10c7f8: ffffffff     	<unknown>
  10c7fc: ffffffff     	<unknown>
  10c800: ffffffff     	<unknown>
  10c804: ffffffff     	<unknown>
  10c808: ffffffff     	<unknown>
  10c80c: ffffffff     	<unknown>
  10c810: ffffffff     	<unknown>
  10c814: ffffffff     	<unknown>
  10c818: ffffffff     	<unknown>
  10c81c: ffffffff     	<unknown>
  10c820: ffffffff     	<unknown>
  10c824: ffffffff     	<unknown>
  10c828: ffffffff     	<unknown>
  10c82c: ffffffff     	<unknown>
  10c830: ffffffff     	<unknown>
  10c834: ffffffff     	<unknown>
  10c838: ffffffff     	<unknown>
  10c83c: ffffffff     	<unknown>
  10c840: ffffffff     	<unknown>
  10c844: ffffffff     	<unknown>
  10c848: ffffffff     	<unknown>
  10c84c: ffffffff     	<unknown>
  10c850: ffffffff     	<unknown>
  10c854: ffffffff     	<unknown>
  10c858: ffffffff     	<unknown>
  10c85c: ffffffff     	<unknown>
  10c860: ffffffff     	<unknown>
  10c864: ffffffff     	<unknown>
  10c868: ffffffff     	<unknown>
  10c86c: ffffffff     	<unknown>
  10c870: ffffffff     	<unknown>
  10c874: ffffffff     	<unknown>
  10c878: ffffffff     	<unknown>
  10c87c: ffffffff     	<unknown>
  10c880: ffffffff     	<unknown>
  10c884: ffffffff     	<unknown>
  10c888: ffffffff     	<unknown>
  10c88c: ffffffff     	<unknown>
  10c890: ffffffff     	<unknown>
  10c894: ffffffff     	<unknown>
  10c898: ffffffff     	<unknown>
  10c89c: ffffffff     	<unknown>
  10c8a0: ffffffff     	<unknown>
  10c8a4: ffffffff     	<unknown>
  10c8a8: ffffffff     	<unknown>
  10c8ac: ffffffff     	<unknown>
  10c8b0: ffffffff     	<unknown>
  10c8b4: ffffffff     	<unknown>
  10c8b8: ffffffff     	<unknown>
  10c8bc: ffffffff     	<unknown>
  10c8c0: ffffffff     	<unknown>
  10c8c4: ffffffff     	<unknown>
  10c8c8: ffffffff     	<unknown>
  10c8cc: ffffffff     	<unknown>
  10c8d0: ffffffff     	<unknown>
  10c8d4: ffffffff     	<unknown>
  10c8d8: ffffffff     	<unknown>
  10c8dc: ffffffff     	<unknown>
  10c8e0: ffffffff     	<unknown>
  10c8e4: ffffffff     	<unknown>
  10c8e8: ffffffff     	<unknown>
  10c8ec: ffffffff     	<unknown>
  10c8f0: ffffffff     	<unknown>
  10c8f4: ffffffff     	<unknown>
  10c8f8: ffffffff     	<unknown>
  10c8fc: ffffffff     	<unknown>
  10c900: ffffffff     	<unknown>
  10c904: ffffffff     	<unknown>
  10c908: ffffffff     	<unknown>
  10c90c: ffffffff     	<unknown>
  10c910: ffffffff     	<unknown>
  10c914: ffffffff     	<unknown>
  10c918: ffffffff     	<unknown>
  10c91c: ffffffff     	<unknown>
  10c920: ffffffff     	<unknown>
  10c924: ffffffff     	<unknown>
  10c928: ffffffff     	<unknown>
  10c92c: ffffffff     	<unknown>
  10c930: ffffffff     	<unknown>
  10c934: ffffffff     	<unknown>
  10c938: ffffffff     	<unknown>
  10c93c: ffffffff     	<unknown>
  10c940: ffffffff     	<unknown>
  10c944: ffffffff     	<unknown>
  10c948: ffffffff     	<unknown>
  10c94c: ffffffff     	<unknown>
  10c950: ffffffff     	<unknown>
  10c954: ffffffff     	<unknown>
  10c958: ffffffff     	<unknown>
  10c95c: ffffffff     	<unknown>
  10c960: ffffffff     	<unknown>
  10c964: ffffffff     	<unknown>
  10c968: ffffffff     	<unknown>
  10c96c: ffffffff     	<unknown>
  10c970: ffffffff     	<unknown>
  10c974: ffffffff     	<unknown>
  10c978: ffffffff     	<unknown>
  10c97c: ffffffff     	<unknown>
  10c980: ffffffff     	<unknown>
  10c984: ffffffff     	<unknown>
  10c988: ffffffff     	<unknown>
  10c98c: ffffffff     	<unknown>
  10c990: ffffffff     	<unknown>
  10c994: ffffffff     	<unknown>
  10c998: ffffffff     	<unknown>
  10c99c: ffffffff     	<unknown>
  10c9a0: ffffffff     	<unknown>
  10c9a4: ffffffff     	<unknown>
  10c9a8: ffffffff     	<unknown>
  10c9ac: ffffffff     	<unknown>
  10c9b0: ffffffff     	<unknown>
  10c9b4: ffffffff     	<unknown>
  10c9b8: ffffffff     	<unknown>
  10c9bc: ffffffff     	<unknown>
  10c9c0: ffffffff     	<unknown>
  10c9c4: ffffffff     	<unknown>
  10c9c8: ffffffff     	<unknown>
  10c9cc: ffffffff     	<unknown>
  10c9d0: ffffffff     	<unknown>
  10c9d4: ffffffff     	<unknown>
  10c9d8: ffffffff     	<unknown>
  10c9dc: ffffffff     	<unknown>
  10c9e0: ffffffff     	<unknown>
  10c9e4: ffffffff     	<unknown>
  10c9e8: ffffffff     	<unknown>
  10c9ec: ffffffff     	<unknown>
  10c9f0: ffffffff     	<unknown>
  10c9f4: ffffffff     	<unknown>
  10c9f8: ffffffff     	<unknown>
  10c9fc: ffffffff     	<unknown>
  10ca00: ffffffff     	<unknown>
  10ca04: ffffffff     	<unknown>
  10ca08: ffffffff     	<unknown>
  10ca0c: ffffffff     	<unknown>
  10ca10: ffffffff     	<unknown>
  10ca14: ffffffff     	<unknown>
  10ca18: ffffffff     	<unknown>
  10ca1c: ffffffff     	<unknown>
  10ca20: ffffffff     	<unknown>
  10ca24: ffffffff     	<unknown>
  10ca28: ffffffff     	<unknown>
  10ca2c: ffffffff     	<unknown>
  10ca30: ffffffff     	<unknown>
  10ca34: ffffffff     	<unknown>
  10ca38: ffffffff     	<unknown>
  10ca3c: ffffffff     	<unknown>
  10ca40: ffffffff     	<unknown>
  10ca44: ffffffff     	<unknown>
  10ca48: ffffffff     	<unknown>
  10ca4c: ffffffff     	<unknown>
  10ca50: ffffffff     	<unknown>
  10ca54: ffffffff     	<unknown>
  10ca58: ffffffff     	<unknown>
  10ca5c: ffffffff     	<unknown>
  10ca60: ffffffff     	<unknown>
  10ca64: ffffffff     	<unknown>
  10ca68: ffffffff     	<unknown>
  10ca6c: ffffffff     	<unknown>
  10ca70: ffffffff     	<unknown>
  10ca74: ffffffff     	<unknown>
  10ca78: ffffffff     	<unknown>
  10ca7c: ffffffff     	<unknown>
  10ca80: ffffffff     	<unknown>
  10ca84: ffffffff     	<unknown>
  10ca88: ffffffff     	<unknown>
  10ca8c: ffffffff     	<unknown>
  10ca90: ffffffff     	<unknown>
  10ca94: ffffffff     	<unknown>
  10ca98: ffffffff     	<unknown>
  10ca9c: ffffffff     	<unknown>
  10caa0: ffffffff     	<unknown>
  10caa4: ffffffff     	<unknown>
  10caa8: ffffffff     	<unknown>
  10caac: ffffffff     	<unknown>
  10cab0: ffffffff     	<unknown>
  10cab4: ffffffff     	<unknown>
  10cab8: ffffffff     	<unknown>
  10cabc: ffffffff     	<unknown>
  10cac0: ffffffff     	<unknown>
  10cac4: ffffffff     	<unknown>
  10cac8: ffffffff     	<unknown>
  10cacc: ffffffff     	<unknown>
  10cad0: ffffffff     	<unknown>
  10cad4: ffffffff     	<unknown>
  10cad8: ffffffff     	<unknown>
  10cadc: ffffffff     	<unknown>
  10cae0: ffffffff     	<unknown>
  10cae4: ffffffff     	<unknown>
  10cae8: ffffffff     	<unknown>
  10caec: ffffffff     	<unknown>
  10caf0: ffffffff     	<unknown>
  10caf4: ffffffff     	<unknown>
  10caf8: ffffffff     	<unknown>
  10cafc: ffffffff     	<unknown>
  10cb00: ffffffff     	<unknown>
  10cb04: ffffffff     	<unknown>
  10cb08: ffffffff     	<unknown>
  10cb0c: ffffffff     	<unknown>
  10cb10: ffffffff     	<unknown>
  10cb14: ffffffff     	<unknown>
  10cb18: ffffffff     	<unknown>
  10cb1c: ffffffff     	<unknown>
  10cb20: ffffffff     	<unknown>
  10cb24: ffffffff     	<unknown>
  10cb28: ffffffff     	<unknown>
  10cb2c: ffffffff     	<unknown>
  10cb30: ffffffff     	<unknown>
  10cb34: ffffffff     	<unknown>
  10cb38: ffffffff     	<unknown>
  10cb3c: ffffffff     	<unknown>
  10cb40: ffffffff     	<unknown>
  10cb44: ffffffff     	<unknown>
  10cb48: ffffffff     	<unknown>
  10cb4c: ffffffff     	<unknown>
  10cb50: ffffffff     	<unknown>
  10cb54: ffffffff     	<unknown>
  10cb58: ffffffff     	<unknown>
  10cb5c: ffffffff     	<unknown>
  10cb60: ffffffff     	<unknown>
  10cb64: ffffffff     	<unknown>
  10cb68: ffffffff     	<unknown>
  10cb6c: ffffffff     	<unknown>
  10cb70: ffffffff     	<unknown>
  10cb74: ffffffff     	<unknown>
  10cb78: ffffffff     	<unknown>
  10cb7c: ffffffff     	<unknown>
  10cb80: ffffffff     	<unknown>
  10cb84: ffffffff     	<unknown>
  10cb88: ffffffff     	<unknown>
  10cb8c: ffffffff     	<unknown>
  10cb90: ffffffff     	<unknown>
  10cb94: ffffffff     	<unknown>
  10cb98: ffffffff     	<unknown>
  10cb9c: ffffffff     	<unknown>
  10cba0: ffffffff     	<unknown>
  10cba4: ffffffff     	<unknown>
  10cba8: ffffffff     	<unknown>
  10cbac: ffffffff     	<unknown>
  10cbb0: ffffffff     	<unknown>
  10cbb4: ffffffff     	<unknown>
  10cbb8: ffffffff     	<unknown>
  10cbbc: ffffffff     	<unknown>
  10cbc0: ffffffff     	<unknown>
  10cbc4: ffffffff     	<unknown>
  10cbc8: ffffffff     	<unknown>
  10cbcc: ffffffff     	<unknown>
  10cbd0: ffffffff     	<unknown>
  10cbd4: ffffffff     	<unknown>
  10cbd8: ffffffff     	<unknown>
  10cbdc: ffffffff     	<unknown>
  10cbe0: ffffffff     	<unknown>
  10cbe4: ffffffff     	<unknown>
  10cbe8: ffffffff     	<unknown>
  10cbec: ffffffff     	<unknown>
  10cbf0: ffffffff     	<unknown>
  10cbf4: ffffffff     	<unknown>
  10cbf8: ffffffff     	<unknown>
  10cbfc: ffffffff     	<unknown>
  10cc00: ffffffff     	<unknown>
  10cc04: ffffffff     	<unknown>
  10cc08: ffffffff     	<unknown>
  10cc0c: ffffffff     	<unknown>
  10cc10: ffffffff     	<unknown>
  10cc14: ffffffff     	<unknown>
  10cc18: ffffffff     	<unknown>
  10cc1c: ffffffff     	<unknown>
  10cc20: ffffffff     	<unknown>
  10cc24: ffffffff     	<unknown>
  10cc28: ffffffff     	<unknown>
  10cc2c: ffffffff     	<unknown>
  10cc30: ffffffff     	<unknown>
  10cc34: ffffffff     	<unknown>
  10cc38: ffffffff     	<unknown>
  10cc3c: ffffffff     	<unknown>
  10cc40: ffffffff     	<unknown>
  10cc44: ffffffff     	<unknown>
  10cc48: ffffffff     	<unknown>
  10cc4c: ffffffff     	<unknown>
  10cc50: ffffffff     	<unknown>
  10cc54: ffffffff     	<unknown>
  10cc58: ffffffff     	<unknown>
  10cc5c: ffffffff     	<unknown>
  10cc60: ffffffff     	<unknown>
  10cc64: ffffffff     	<unknown>
  10cc68: ffffffff     	<unknown>
  10cc6c: ffffffff     	<unknown>
  10cc70: ffffffff     	<unknown>
  10cc74: ffffffff     	<unknown>
  10cc78: ffffffff     	<unknown>
  10cc7c: ffffffff     	<unknown>
  10cc80: ffffffff     	<unknown>
  10cc84: ffffffff     	<unknown>
  10cc88: ffffffff     	<unknown>
  10cc8c: ffffffff     	<unknown>
  10cc90: ffffffff     	<unknown>
  10cc94: ffffffff     	<unknown>
  10cc98: ffffffff     	<unknown>
  10cc9c: ffffffff     	<unknown>
  10cca0: ffffffff     	<unknown>
  10cca4: ffffffff     	<unknown>
  10cca8: ffffffff     	<unknown>
  10ccac: ffffffff     	<unknown>
  10ccb0: ffffffff     	<unknown>
  10ccb4: ffffffff     	<unknown>
  10ccb8: ffffffff     	<unknown>
  10ccbc: ffffffff     	<unknown>
  10ccc0: ffffffff     	<unknown>
  10ccc4: ffffffff     	<unknown>
  10ccc8: ffffffff     	<unknown>
  10cccc: ffffffff     	<unknown>
  10ccd0: ffffffff     	<unknown>
  10ccd4: ffffffff     	<unknown>
  10ccd8: ffffffff     	<unknown>
  10ccdc: ffffffff     	<unknown>
  10cce0: ffffffff     	<unknown>
  10cce4: ffffffff     	<unknown>
  10cce8: ffffffff     	<unknown>
  10ccec: ffffffff     	<unknown>
  10ccf0: ffffffff     	<unknown>
  10ccf4: ffffffff     	<unknown>
  10ccf8: ffffffff     	<unknown>
  10ccfc: ffffffff     	<unknown>
  10cd00: ffffffff     	<unknown>
  10cd04: ffffffff     	<unknown>
  10cd08: ffffffff     	<unknown>
  10cd0c: ffffffff     	<unknown>
  10cd10: ffffffff     	<unknown>
  10cd14: ffffffff     	<unknown>
  10cd18: ffffffff     	<unknown>
  10cd1c: ffffffff     	<unknown>
  10cd20: ffffffff     	<unknown>
  10cd24: ffffffff     	<unknown>
  10cd28: ffffffff     	<unknown>
  10cd2c: ffffffff     	<unknown>
  10cd30: ffffffff     	<unknown>
  10cd34: ffffffff     	<unknown>
  10cd38: ffffffff     	<unknown>
  10cd3c: ffffffff     	<unknown>
  10cd40: ffffffff     	<unknown>
  10cd44: ffffffff     	<unknown>
  10cd48: ffffffff     	<unknown>
  10cd4c: ffffffff     	<unknown>
  10cd50: ffffffff     	<unknown>
  10cd54: ffffffff     	<unknown>
  10cd58: ffffffff     	<unknown>
  10cd5c: ffffffff     	<unknown>
  10cd60: ffffffff     	<unknown>
  10cd64: ffffffff     	<unknown>
  10cd68: ffffffff     	<unknown>
  10cd6c: ffffffff     	<unknown>
  10cd70: ffffffff     	<unknown>
  10cd74: ffffffff     	<unknown>
  10cd78: ffffffff     	<unknown>
  10cd7c: ffffffff     	<unknown>
  10cd80: ffffffff     	<unknown>
  10cd84: ffffffff     	<unknown>
  10cd88: ffffffff     	<unknown>
  10cd8c: ffffffff     	<unknown>
  10cd90: ffffffff     	<unknown>
  10cd94: ffffffff     	<unknown>
  10cd98: ffffffff     	<unknown>
  10cd9c: ffffffff     	<unknown>
  10cda0: ffffffff     	<unknown>
  10cda4: ffffffff     	<unknown>
  10cda8: ffffffff     	<unknown>
  10cdac: ffffffff     	<unknown>
  10cdb0: ffffffff     	<unknown>
  10cdb4: ffffffff     	<unknown>
  10cdb8: ffffffff     	<unknown>
  10cdbc: ffffffff     	<unknown>
  10cdc0: ffffffff     	<unknown>
  10cdc4: ffffffff     	<unknown>
  10cdc8: ffffffff     	<unknown>
  10cdcc: ffffffff     	<unknown>
  10cdd0: ffffffff     	<unknown>
  10cdd4: ffffffff     	<unknown>
  10cdd8: ffffffff     	<unknown>
  10cddc: ffffffff     	<unknown>
  10cde0: ffffffff     	<unknown>
  10cde4: ffffffff     	<unknown>
  10cde8: ffffffff     	<unknown>
  10cdec: ffffffff     	<unknown>
  10cdf0: ffffffff     	<unknown>
  10cdf4: ffffffff     	<unknown>
  10cdf8: ffffffff     	<unknown>
  10cdfc: ffffffff     	<unknown>
  10ce00: ffffffff     	<unknown>
  10ce04: ffffffff     	<unknown>
  10ce08: ffffffff     	<unknown>
  10ce0c: ffffffff     	<unknown>
  10ce10: ffffffff     	<unknown>
  10ce14: ffffffff     	<unknown>
  10ce18: ffffffff     	<unknown>
  10ce1c: ffffffff     	<unknown>
  10ce20: ffffffff     	<unknown>
  10ce24: ffffffff     	<unknown>
  10ce28: ffffffff     	<unknown>
  10ce2c: ffffffff     	<unknown>
  10ce30: ffffffff     	<unknown>
  10ce34: ffffffff     	<unknown>
  10ce38: ffffffff     	<unknown>
  10ce3c: ffffffff     	<unknown>
  10ce40: ffffffff     	<unknown>
  10ce44: ffffffff     	<unknown>
  10ce48: ffffffff     	<unknown>
  10ce4c: ffffffff     	<unknown>
  10ce50: ffffffff     	<unknown>
  10ce54: ffffffff     	<unknown>
  10ce58: ffffffff     	<unknown>
  10ce5c: ffffffff     	<unknown>
  10ce60: ffffffff     	<unknown>
  10ce64: ffffffff     	<unknown>
  10ce68: ffffffff     	<unknown>
  10ce6c: ffffffff     	<unknown>
  10ce70: ffffffff     	<unknown>
  10ce74: ffffffff     	<unknown>
  10ce78: ffffffff     	<unknown>
  10ce7c: ffffffff     	<unknown>
  10ce80: ffffffff     	<unknown>
  10ce84: ffffffff     	<unknown>
  10ce88: ffffffff     	<unknown>
  10ce8c: ffffffff     	<unknown>
  10ce90: ffffffff     	<unknown>
  10ce94: ffffffff     	<unknown>
  10ce98: ffffffff     	<unknown>
  10ce9c: ffffffff     	<unknown>
  10cea0: ffffffff     	<unknown>
  10cea4: ffffffff     	<unknown>
  10cea8: ffffffff     	<unknown>
  10ceac: ffffffff     	<unknown>
  10ceb0: ffffffff     	<unknown>
  10ceb4: ffffffff     	<unknown>
  10ceb8: ffffffff     	<unknown>
  10cebc: ffffffff     	<unknown>
  10cec0: ffffffff     	<unknown>
  10cec4: ffffffff     	<unknown>
  10cec8: ffffffff     	<unknown>
  10cecc: ffffffff     	<unknown>
  10ced0: ffffffff     	<unknown>
  10ced4: ffffffff     	<unknown>
  10ced8: ffffffff     	<unknown>
  10cedc: ffffffff     	<unknown>
  10cee0: ffffffff     	<unknown>
  10cee4: ffffffff     	<unknown>
  10cee8: ffffffff     	<unknown>
  10ceec: ffffffff     	<unknown>
  10cef0: ffffffff     	<unknown>
  10cef4: ffffffff     	<unknown>
  10cef8: ffffffff     	<unknown>
  10cefc: ffffffff     	<unknown>
  10cf00: ffffffff     	<unknown>
  10cf04: ffffffff     	<unknown>
  10cf08: ffffffff     	<unknown>
  10cf0c: ffffffff     	<unknown>
  10cf10: ffffffff     	<unknown>
  10cf14: ffffffff     	<unknown>
  10cf18: ffffffff     	<unknown>
  10cf1c: ffffffff     	<unknown>
  10cf20: ffffffff     	<unknown>
  10cf24: ffffffff     	<unknown>
  10cf28: ffffffff     	<unknown>
  10cf2c: ffffffff     	<unknown>
  10cf30: ffffffff     	<unknown>
  10cf34: ffffffff     	<unknown>
  10cf38: ffffffff     	<unknown>
  10cf3c: ffffffff     	<unknown>
  10cf40: ffffffff     	<unknown>
  10cf44: ffffffff     	<unknown>
  10cf48: ffffffff     	<unknown>
  10cf4c: ffffffff     	<unknown>
  10cf50: ffffffff     	<unknown>
  10cf54: ffffffff     	<unknown>
  10cf58: ffffffff     	<unknown>
  10cf5c: ffffffff     	<unknown>
  10cf60: ffffffff     	<unknown>
  10cf64: ffffffff     	<unknown>
  10cf68: ffffffff     	<unknown>
  10cf6c: ffffffff     	<unknown>
  10cf70: ffffffff     	<unknown>
  10cf74: ffffffff     	<unknown>
  10cf78: ffffffff     	<unknown>
  10cf7c: ffffffff     	<unknown>
  10cf80: ffffffff     	<unknown>
  10cf84: ffffffff     	<unknown>
  10cf88: ffffffff     	<unknown>
  10cf8c: ffffffff     	<unknown>
  10cf90: ffffffff     	<unknown>
  10cf94: ffffffff     	<unknown>
  10cf98: ffffffff     	<unknown>
  10cf9c: ffffffff     	<unknown>
  10cfa0: ffffffff     	<unknown>
  10cfa4: ffffffff     	<unknown>
  10cfa8: ffffffff     	<unknown>
  10cfac: ffffffff     	<unknown>
  10cfb0: ffffffff     	<unknown>
  10cfb4: ffffffff     	<unknown>
  10cfb8: ffffffff     	<unknown>
  10cfbc: ffffffff     	<unknown>
  10cfc0: ffffffff     	<unknown>
  10cfc4: ffffffff     	<unknown>
  10cfc8: ffffffff     	<unknown>
  10cfcc: ffffffff     	<unknown>
  10cfd0: ffffffff     	<unknown>
  10cfd4: ffffffff     	<unknown>
  10cfd8: ffffffff     	<unknown>
  10cfdc: ffffffff     	<unknown>
  10cfe0: ffffffff     	<unknown>
  10cfe4: ffffffff     	<unknown>
  10cfe8: ffffffff     	<unknown>
  10cfec: ffffffff     	<unknown>
  10cff0: ffffffff     	<unknown>
  10cff4: ffffffff     	<unknown>
  10cff8: ffffffff     	<unknown>
  10cffc: ffffffff     	<unknown>
  10d000: ffffffff     	<unknown>
  10d004: ffffffff     	<unknown>
  10d008: ffffffff     	<unknown>
  10d00c: ffffffff     	<unknown>
  10d010: ffffffff     	<unknown>
  10d014: ffffffff     	<unknown>
  10d018: ffffffff     	<unknown>
  10d01c: ffffffff     	<unknown>
  10d020: ffffffff     	<unknown>
  10d024: ffffffff     	<unknown>
  10d028: ffffffff     	<unknown>
  10d02c: ffffffff     	<unknown>
  10d030: ffffffff     	<unknown>
  10d034: ffffffff     	<unknown>
  10d038: ffffffff     	<unknown>
  10d03c: ffffffff     	<unknown>
  10d040: ffffffff     	<unknown>
  10d044: ffffffff     	<unknown>
  10d048: ffffffff     	<unknown>
  10d04c: ffffffff     	<unknown>
  10d050: ffffffff     	<unknown>
  10d054: ffffffff     	<unknown>
  10d058: ffffffff     	<unknown>
  10d05c: ffffffff     	<unknown>
  10d060: ffffffff     	<unknown>
  10d064: ffffffff     	<unknown>
  10d068: ffffffff     	<unknown>
  10d06c: ffffffff     	<unknown>
  10d070: ffffffff     	<unknown>
  10d074: ffffffff     	<unknown>
  10d078: ffffffff     	<unknown>
  10d07c: ffffffff     	<unknown>
  10d080: ffffffff     	<unknown>
  10d084: ffffffff     	<unknown>
  10d088: ffffffff     	<unknown>
  10d08c: ffffffff     	<unknown>
  10d090: ffffffff     	<unknown>
  10d094: ffffffff     	<unknown>
  10d098: ffffffff     	<unknown>
  10d09c: ffffffff     	<unknown>
  10d0a0: ffffffff     	<unknown>
  10d0a4: ffffffff     	<unknown>
  10d0a8: ffffffff     	<unknown>
  10d0ac: ffffffff     	<unknown>
  10d0b0: ffffffff     	<unknown>
  10d0b4: ffffffff     	<unknown>
  10d0b8: ffffffff     	<unknown>
  10d0bc: ffffffff     	<unknown>
  10d0c0: ffffffff     	<unknown>
  10d0c4: ffffffff     	<unknown>
  10d0c8: ffffffff     	<unknown>
  10d0cc: ffffffff     	<unknown>
  10d0d0: ffffffff     	<unknown>
  10d0d4: ffffffff     	<unknown>
  10d0d8: ffffffff     	<unknown>
  10d0dc: ffffffff     	<unknown>
  10d0e0: ffffffff     	<unknown>
  10d0e4: ffffffff     	<unknown>
  10d0e8: ffffffff     	<unknown>
  10d0ec: ffffffff     	<unknown>
  10d0f0: ffffffff     	<unknown>
  10d0f4: ffffffff     	<unknown>
  10d0f8: ffffffff     	<unknown>
  10d0fc: ffffffff     	<unknown>
  10d100: ffffffff     	<unknown>
  10d104: ffffffff     	<unknown>
  10d108: ffffffff     	<unknown>
  10d10c: ffffffff     	<unknown>
  10d110: ffffffff     	<unknown>
  10d114: ffffffff     	<unknown>
  10d118: ffffffff     	<unknown>
  10d11c: ffffffff     	<unknown>
  10d120: ffffffff     	<unknown>
  10d124: ffffffff     	<unknown>
  10d128: ffffffff     	<unknown>
  10d12c: ffffffff     	<unknown>
  10d130: ffffffff     	<unknown>
  10d134: ffffffff     	<unknown>
  10d138: ffffffff     	<unknown>
  10d13c: ffffffff     	<unknown>
  10d140: ffffffff     	<unknown>
  10d144: ffffffff     	<unknown>
  10d148: ffffffff     	<unknown>
  10d14c: ffffffff     	<unknown>
  10d150: ffffffff     	<unknown>
  10d154: ffffffff     	<unknown>
  10d158: ffffffff     	<unknown>
  10d15c: ffffffff     	<unknown>
  10d160: ffffffff     	<unknown>
  10d164: ffffffff     	<unknown>
  10d168: ffffffff     	<unknown>
  10d16c: ffffffff     	<unknown>
  10d170: ffffffff     	<unknown>
  10d174: ffffffff     	<unknown>
  10d178: ffffffff     	<unknown>
  10d17c: ffffffff     	<unknown>
  10d180: ffffffff     	<unknown>
  10d184: ffffffff     	<unknown>
  10d188: ffffffff     	<unknown>
  10d18c: ffffffff     	<unknown>
  10d190: ffffffff     	<unknown>
  10d194: ffffffff     	<unknown>
  10d198: ffffffff     	<unknown>
  10d19c: ffffffff     	<unknown>
  10d1a0: ffffffff     	<unknown>
  10d1a4: ffffffff     	<unknown>
  10d1a8: ffffffff     	<unknown>
  10d1ac: ffffffff     	<unknown>
  10d1b0: ffffffff     	<unknown>
  10d1b4: ffffffff     	<unknown>
  10d1b8: ffffffff     	<unknown>
  10d1bc: ffffffff     	<unknown>
  10d1c0: ffffffff     	<unknown>
  10d1c4: ffffffff     	<unknown>
  10d1c8: ffffffff     	<unknown>
  10d1cc: ffffffff     	<unknown>
  10d1d0: ffffffff     	<unknown>
  10d1d4: ffffffff     	<unknown>
  10d1d8: ffffffff     	<unknown>
  10d1dc: ffffffff     	<unknown>
  10d1e0: ffffffff     	<unknown>
  10d1e4: ffffffff     	<unknown>
  10d1e8: ffffffff     	<unknown>
  10d1ec: ffffffff     	<unknown>
  10d1f0: ffffffff     	<unknown>
  10d1f4: ffffffff     	<unknown>
  10d1f8: ffffffff     	<unknown>
  10d1fc: ffffffff     	<unknown>
  10d200: ffffffff     	<unknown>
  10d204: ffffffff     	<unknown>
  10d208: ffffffff     	<unknown>
  10d20c: ffffffff     	<unknown>
  10d210: ffffffff     	<unknown>
  10d214: ffffffff     	<unknown>
  10d218: ffffffff     	<unknown>
  10d21c: ffffffff     	<unknown>
  10d220: ffffffff     	<unknown>
  10d224: ffffffff     	<unknown>
  10d228: ffffffff     	<unknown>
  10d22c: ffffffff     	<unknown>
  10d230: ffffffff     	<unknown>
  10d234: ffffffff     	<unknown>
  10d238: ffffffff     	<unknown>
  10d23c: ffffffff     	<unknown>
  10d240: ffffffff     	<unknown>
  10d244: ffffffff     	<unknown>
  10d248: ffffffff     	<unknown>
  10d24c: ffffffff     	<unknown>
  10d250: ffffffff     	<unknown>
  10d254: ffffffff     	<unknown>
  10d258: ffffffff     	<unknown>
  10d25c: ffffffff     	<unknown>
  10d260: ffffffff     	<unknown>
  10d264: ffffffff     	<unknown>
  10d268: ffffffff     	<unknown>
  10d26c: ffffffff     	<unknown>
  10d270: ffffffff     	<unknown>
  10d274: ffffffff     	<unknown>
  10d278: ffffffff     	<unknown>
  10d27c: ffffffff     	<unknown>
  10d280: ffffffff     	<unknown>
  10d284: ffffffff     	<unknown>
  10d288: ffffffff     	<unknown>
  10d28c: ffffffff     	<unknown>
  10d290: ffffffff     	<unknown>
  10d294: ffffffff     	<unknown>
  10d298: ffffffff     	<unknown>
  10d29c: ffffffff     	<unknown>
  10d2a0: ffffffff     	<unknown>
  10d2a4: ffffffff     	<unknown>
  10d2a8: ffffffff     	<unknown>
  10d2ac: ffffffff     	<unknown>
  10d2b0: ffffffff     	<unknown>
  10d2b4: ffffffff     	<unknown>
  10d2b8: ffffffff     	<unknown>
  10d2bc: ffffffff     	<unknown>
  10d2c0: ffffffff     	<unknown>
  10d2c4: ffffffff     	<unknown>
  10d2c8: ffffffff     	<unknown>
  10d2cc: ffffffff     	<unknown>
  10d2d0: ffffffff     	<unknown>
  10d2d4: ffffffff     	<unknown>
  10d2d8: ffffffff     	<unknown>
  10d2dc: ffffffff     	<unknown>
  10d2e0: ffffffff     	<unknown>
  10d2e4: ffffffff     	<unknown>
  10d2e8: ffffffff     	<unknown>
  10d2ec: ffffffff     	<unknown>
  10d2f0: ffffffff     	<unknown>
  10d2f4: ffffffff     	<unknown>
  10d2f8: ffffffff     	<unknown>
  10d2fc: ffffffff     	<unknown>
  10d300: ffffffff     	<unknown>
  10d304: ffffffff     	<unknown>
  10d308: ffffffff     	<unknown>
  10d30c: ffffffff     	<unknown>
  10d310: ffffffff     	<unknown>
  10d314: ffffffff     	<unknown>
  10d318: ffffffff     	<unknown>
  10d31c: ffffffff     	<unknown>
  10d320: ffffffff     	<unknown>
  10d324: ffffffff     	<unknown>
  10d328: ffffffff     	<unknown>
  10d32c: ffffffff     	<unknown>
  10d330: ffffffff     	<unknown>
  10d334: ffffffff     	<unknown>
  10d338: ffffffff     	<unknown>
  10d33c: ffffffff     	<unknown>
  10d340: ffffffff     	<unknown>
  10d344: ffffffff     	<unknown>
  10d348: ffffffff     	<unknown>
  10d34c: ffffffff     	<unknown>
  10d350: ffffffff     	<unknown>
  10d354: ffffffff     	<unknown>
  10d358: ffffffff     	<unknown>
  10d35c: ffffffff     	<unknown>
  10d360: ffffffff     	<unknown>
  10d364: ffffffff     	<unknown>
  10d368: ffffffff     	<unknown>
  10d36c: ffffffff     	<unknown>
  10d370: ffffffff     	<unknown>
  10d374: ffffffff     	<unknown>
  10d378: ffffffff     	<unknown>
  10d37c: ffffffff     	<unknown>
  10d380: ffffffff     	<unknown>
  10d384: ffffffff     	<unknown>
  10d388: ffffffff     	<unknown>
  10d38c: ffffffff     	<unknown>
  10d390: ffffffff     	<unknown>
  10d394: ffffffff     	<unknown>
  10d398: ffffffff     	<unknown>
  10d39c: ffffffff     	<unknown>
  10d3a0: ffffffff     	<unknown>
  10d3a4: ffffffff     	<unknown>
  10d3a8: ffffffff     	<unknown>
  10d3ac: ffffffff     	<unknown>
  10d3b0: ffffffff     	<unknown>
  10d3b4: ffffffff     	<unknown>
  10d3b8: ffffffff     	<unknown>
  10d3bc: ffffffff     	<unknown>
  10d3c0: ffffffff     	<unknown>
  10d3c4: ffffffff     	<unknown>
  10d3c8: ffffffff     	<unknown>
  10d3cc: ffffffff     	<unknown>
  10d3d0: ffffffff     	<unknown>
  10d3d4: ffffffff     	<unknown>
  10d3d8: ffffffff     	<unknown>
  10d3dc: ffffffff     	<unknown>
  10d3e0: ffffffff     	<unknown>
  10d3e4: ffffffff     	<unknown>
  10d3e8: ffffffff     	<unknown>
  10d3ec: ffffffff     	<unknown>
  10d3f0: ffffffff     	<unknown>
  10d3f4: ffffffff     	<unknown>
  10d3f8: ffffffff     	<unknown>
  10d3fc: ffffffff     	<unknown>
  10d400: ffffffff     	<unknown>
  10d404: ffffffff     	<unknown>
  10d408: ffffffff     	<unknown>
  10d40c: ffffffff     	<unknown>
  10d410: ffffffff     	<unknown>
  10d414: ffffffff     	<unknown>
  10d418: ffffffff     	<unknown>
  10d41c: ffffffff     	<unknown>
  10d420: ffffffff     	<unknown>
  10d424: ffffffff     	<unknown>
  10d428: ffffffff     	<unknown>
  10d42c: ffffffff     	<unknown>
  10d430: ffffffff     	<unknown>
  10d434: ffffffff     	<unknown>
  10d438: ffffffff     	<unknown>
  10d43c: ffffffff     	<unknown>
  10d440: ffffffff     	<unknown>
  10d444: ffffffff     	<unknown>
  10d448: ffffffff     	<unknown>
  10d44c: ffffffff     	<unknown>
  10d450: ffffffff     	<unknown>
  10d454: ffffffff     	<unknown>
  10d458: ffffffff     	<unknown>
  10d45c: ffffffff     	<unknown>
  10d460: ffffffff     	<unknown>
  10d464: ffffffff     	<unknown>
  10d468: ffffffff     	<unknown>
  10d46c: ffffffff     	<unknown>
  10d470: ffffffff     	<unknown>
  10d474: ffffffff     	<unknown>
  10d478: ffffffff     	<unknown>
  10d47c: ffffffff     	<unknown>
  10d480: ffffffff     	<unknown>
  10d484: ffffffff     	<unknown>
  10d488: ffffffff     	<unknown>
  10d48c: ffffffff     	<unknown>
  10d490: ffffffff     	<unknown>
  10d494: ffffffff     	<unknown>
  10d498: ffffffff     	<unknown>
  10d49c: ffffffff     	<unknown>
  10d4a0: ffffffff     	<unknown>
  10d4a4: ffffffff     	<unknown>
  10d4a8: ffffffff     	<unknown>
  10d4ac: ffffffff     	<unknown>
  10d4b0: ffffffff     	<unknown>
  10d4b4: ffffffff     	<unknown>
  10d4b8: ffffffff     	<unknown>
  10d4bc: ffffffff     	<unknown>
  10d4c0: ffffffff     	<unknown>
  10d4c4: ffffffff     	<unknown>
  10d4c8: ffffffff     	<unknown>
  10d4cc: ffffffff     	<unknown>
  10d4d0: ffffffff     	<unknown>
  10d4d4: ffffffff     	<unknown>
  10d4d8: ffffffff     	<unknown>
  10d4dc: ffffffff     	<unknown>
  10d4e0: ffffffff     	<unknown>
  10d4e4: ffffffff     	<unknown>
  10d4e8: ffffffff     	<unknown>
  10d4ec: ffffffff     	<unknown>
  10d4f0: ffffffff     	<unknown>
  10d4f4: ffffffff     	<unknown>
  10d4f8: ffffffff     	<unknown>
  10d4fc: ffffffff     	<unknown>
  10d500: ffffffff     	<unknown>
  10d504: ffffffff     	<unknown>
  10d508: ffffffff     	<unknown>
  10d50c: ffffffff     	<unknown>
  10d510: ffffffff     	<unknown>
  10d514: ffffffff     	<unknown>
  10d518: ffffffff     	<unknown>
  10d51c: ffffffff     	<unknown>
  10d520: ffffffff     	<unknown>
  10d524: ffffffff     	<unknown>
  10d528: ffffffff     	<unknown>
  10d52c: ffffffff     	<unknown>
  10d530: ffffffff     	<unknown>
  10d534: ffffffff     	<unknown>
  10d538: ffffffff     	<unknown>
  10d53c: ffffffff     	<unknown>
  10d540: ffffffff     	<unknown>
  10d544: ffffffff     	<unknown>
  10d548: ffffffff     	<unknown>
  10d54c: ffffffff     	<unknown>
  10d550: ffffffff     	<unknown>
  10d554: ffffffff     	<unknown>
  10d558: ffffffff     	<unknown>
  10d55c: ffffffff     	<unknown>
  10d560: ffffffff     	<unknown>
  10d564: ffffffff     	<unknown>
  10d568: ffffffff     	<unknown>
  10d56c: ffffffff     	<unknown>
  10d570: ffffffff     	<unknown>
  10d574: ffffffff     	<unknown>
  10d578: ffffffff     	<unknown>
  10d57c: ffffffff     	<unknown>
  10d580: ffffffff     	<unknown>
  10d584: ffffffff     	<unknown>
  10d588: ffffffff     	<unknown>
  10d58c: ffffffff     	<unknown>
  10d590: ffffffff     	<unknown>
  10d594: ffffffff     	<unknown>
  10d598: ffffffff     	<unknown>
  10d59c: ffffffff     	<unknown>
  10d5a0: ffffffff     	<unknown>
  10d5a4: ffffffff     	<unknown>
  10d5a8: ffffffff     	<unknown>
  10d5ac: ffffffff     	<unknown>
  10d5b0: ffffffff     	<unknown>
  10d5b4: ffffffff     	<unknown>
  10d5b8: ffffffff     	<unknown>
  10d5bc: ffffffff     	<unknown>
  10d5c0: ffffffff     	<unknown>
  10d5c4: ffffffff     	<unknown>
  10d5c8: ffffffff     	<unknown>
  10d5cc: ffffffff     	<unknown>
  10d5d0: ffffffff     	<unknown>
  10d5d4: ffffffff     	<unknown>
  10d5d8: ffffffff     	<unknown>
  10d5dc: ffffffff     	<unknown>
  10d5e0: ffffffff     	<unknown>
  10d5e4: ffffffff     	<unknown>
  10d5e8: ffffffff     	<unknown>
  10d5ec: ffffffff     	<unknown>
  10d5f0: ffffffff     	<unknown>
  10d5f4: ffffffff     	<unknown>
  10d5f8: ffffffff     	<unknown>
  10d5fc: ffffffff     	<unknown>
  10d600: ffffffff     	<unknown>
  10d604: ffffffff     	<unknown>
  10d608: ffffffff     	<unknown>
  10d60c: ffffffff     	<unknown>
  10d610: ffffffff     	<unknown>
  10d614: ffffffff     	<unknown>
  10d618: ffffffff     	<unknown>
  10d61c: ffffffff     	<unknown>
  10d620: ffffffff     	<unknown>
  10d624: ffffffff     	<unknown>
  10d628: ffffffff     	<unknown>
  10d62c: ffffffff     	<unknown>
  10d630: ffffffff     	<unknown>
  10d634: ffffffff     	<unknown>
  10d638: ffffffff     	<unknown>
  10d63c: ffffffff     	<unknown>
  10d640: ffffffff     	<unknown>
  10d644: ffffffff     	<unknown>
  10d648: ffffffff     	<unknown>
  10d64c: ffffffff     	<unknown>
  10d650: ffffffff     	<unknown>
  10d654: ffffffff     	<unknown>
  10d658: ffffffff     	<unknown>
  10d65c: ffffffff     	<unknown>
  10d660: ffffffff     	<unknown>
  10d664: ffffffff     	<unknown>
  10d668: ffffffff     	<unknown>
  10d66c: ffffffff     	<unknown>
  10d670: ffffffff     	<unknown>
  10d674: ffffffff     	<unknown>
  10d678: ffffffff     	<unknown>
  10d67c: ffffffff     	<unknown>
  10d680: ffffffff     	<unknown>
  10d684: ffffffff     	<unknown>
  10d688: ffffffff     	<unknown>
  10d68c: ffffffff     	<unknown>
  10d690: ffffffff     	<unknown>
  10d694: ffffffff     	<unknown>
  10d698: ffffffff     	<unknown>
  10d69c: ffffffff     	<unknown>
  10d6a0: ffffffff     	<unknown>
  10d6a4: ffffffff     	<unknown>
  10d6a8: ffffffff     	<unknown>
  10d6ac: ffffffff     	<unknown>
  10d6b0: ffffffff     	<unknown>
  10d6b4: ffffffff     	<unknown>
  10d6b8: ffffffff     	<unknown>
  10d6bc: ffffffff     	<unknown>
  10d6c0: ffffffff     	<unknown>
  10d6c4: ffffffff     	<unknown>
  10d6c8: ffffffff     	<unknown>
  10d6cc: ffffffff     	<unknown>
  10d6d0: ffffffff     	<unknown>
  10d6d4: ffffffff     	<unknown>
  10d6d8: ffffffff     	<unknown>
  10d6dc: ffffffff     	<unknown>
  10d6e0: ffffffff     	<unknown>
  10d6e4: ffffffff     	<unknown>
  10d6e8: ffffffff     	<unknown>
  10d6ec: ffffffff     	<unknown>
  10d6f0: ffffffff     	<unknown>
  10d6f4: ffffffff     	<unknown>
  10d6f8: ffffffff     	<unknown>
  10d6fc: ffffffff     	<unknown>
  10d700: ffffffff     	<unknown>
  10d704: ffffffff     	<unknown>
  10d708: ffffffff     	<unknown>
  10d70c: ffffffff     	<unknown>
  10d710: ffffffff     	<unknown>
  10d714: ffffffff     	<unknown>
  10d718: ffffffff     	<unknown>
  10d71c: ffffffff     	<unknown>
  10d720: ffffffff     	<unknown>
  10d724: ffffffff     	<unknown>
  10d728: ffffffff     	<unknown>
  10d72c: ffffffff     	<unknown>
  10d730: ffffffff     	<unknown>
  10d734: ffffffff     	<unknown>
  10d738: ffffffff     	<unknown>
  10d73c: ffffffff     	<unknown>
  10d740: ffffffff     	<unknown>
  10d744: ffffffff     	<unknown>
  10d748: ffffffff     	<unknown>
  10d74c: ffffffff     	<unknown>
  10d750: ffffffff     	<unknown>
  10d754: ffffffff     	<unknown>
  10d758: ffffffff     	<unknown>
  10d75c: ffffffff     	<unknown>
  10d760: ffffffff     	<unknown>
  10d764: ffffffff     	<unknown>
  10d768: ffffffff     	<unknown>
  10d76c: ffffffff     	<unknown>
  10d770: ffffffff     	<unknown>
  10d774: ffffffff     	<unknown>
  10d778: ffffffff     	<unknown>
  10d77c: ffffffff     	<unknown>
  10d780: ffffffff     	<unknown>
  10d784: ffffffff     	<unknown>
  10d788: ffffffff     	<unknown>
  10d78c: ffffffff     	<unknown>
  10d790: ffffffff     	<unknown>
  10d794: ffffffff     	<unknown>
  10d798: ffffffff     	<unknown>
  10d79c: ffffffff     	<unknown>
  10d7a0: ffffffff     	<unknown>
  10d7a4: ffffffff     	<unknown>
  10d7a8: ffffffff     	<unknown>
  10d7ac: ffffffff     	<unknown>
  10d7b0: ffffffff     	<unknown>
  10d7b4: ffffffff     	<unknown>
  10d7b8: ffffffff     	<unknown>
  10d7bc: ffffffff     	<unknown>
  10d7c0: ffffffff     	<unknown>
  10d7c4: ffffffff     	<unknown>
  10d7c8: ffffffff     	<unknown>
  10d7cc: ffffffff     	<unknown>
  10d7d0: ffffffff     	<unknown>
  10d7d4: ffffffff     	<unknown>
  10d7d8: ffffffff     	<unknown>
  10d7dc: ffffffff     	<unknown>
  10d7e0: ffffffff     	<unknown>
  10d7e4: ffffffff     	<unknown>
  10d7e8: ffffffff     	<unknown>
  10d7ec: ffffffff     	<unknown>
  10d7f0: ffffffff     	<unknown>
  10d7f4: ffffffff     	<unknown>
  10d7f8: ffffffff     	<unknown>
  10d7fc: ffffffff     	<unknown>
  10d800: ffffffff     	<unknown>
  10d804: ffffffff     	<unknown>
  10d808: ffffffff     	<unknown>
  10d80c: ffffffff     	<unknown>
  10d810: ffffffff     	<unknown>
  10d814: ffffffff     	<unknown>
  10d818: ffffffff     	<unknown>
  10d81c: ffffffff     	<unknown>
  10d820: ffffffff     	<unknown>
  10d824: ffffffff     	<unknown>
  10d828: ffffffff     	<unknown>
  10d82c: ffffffff     	<unknown>
  10d830: ffffffff     	<unknown>
  10d834: ffffffff     	<unknown>
  10d838: ffffffff     	<unknown>
  10d83c: ffffffff     	<unknown>
  10d840: ffffffff     	<unknown>
  10d844: ffffffff     	<unknown>
  10d848: ffffffff     	<unknown>
  10d84c: ffffffff     	<unknown>
  10d850: ffffffff     	<unknown>
  10d854: ffffffff     	<unknown>
  10d858: ffffffff     	<unknown>
  10d85c: ffffffff     	<unknown>
  10d860: ffffffff     	<unknown>
  10d864: ffffffff     	<unknown>
  10d868: ffffffff     	<unknown>
  10d86c: ffffffff     	<unknown>
  10d870: ffffffff     	<unknown>
  10d874: ffffffff     	<unknown>
  10d878: ffffffff     	<unknown>
  10d87c: ffffffff     	<unknown>
  10d880: ffffffff     	<unknown>
  10d884: ffffffff     	<unknown>
  10d888: ffffffff     	<unknown>
  10d88c: ffffffff     	<unknown>
  10d890: ffffffff     	<unknown>
  10d894: ffffffff     	<unknown>
  10d898: ffffffff     	<unknown>
  10d89c: ffffffff     	<unknown>
  10d8a0: ffffffff     	<unknown>
  10d8a4: ffffffff     	<unknown>
  10d8a8: ffffffff     	<unknown>
  10d8ac: ffffffff     	<unknown>
  10d8b0: ffffffff     	<unknown>
  10d8b4: ffffffff     	<unknown>
  10d8b8: ffffffff     	<unknown>
  10d8bc: ffffffff     	<unknown>
  10d8c0: ffffffff     	<unknown>
  10d8c4: ffffffff     	<unknown>
  10d8c8: ffffffff     	<unknown>
  10d8cc: ffffffff     	<unknown>
  10d8d0: ffffffff     	<unknown>
  10d8d4: ffffffff     	<unknown>
  10d8d8: ffffffff     	<unknown>
  10d8dc: ffffffff     	<unknown>
  10d8e0: ffffffff     	<unknown>
  10d8e4: ffffffff     	<unknown>
  10d8e8: ffffffff     	<unknown>
  10d8ec: ffffffff     	<unknown>
  10d8f0: ffffffff     	<unknown>
  10d8f4: ffffffff     	<unknown>
  10d8f8: ffffffff     	<unknown>
  10d8fc: ffffffff     	<unknown>
  10d900: ffffffff     	<unknown>
  10d904: ffffffff     	<unknown>
  10d908: ffffffff     	<unknown>
  10d90c: ffffffff     	<unknown>
  10d910: ffffffff     	<unknown>
  10d914: ffffffff     	<unknown>
  10d918: ffffffff     	<unknown>
  10d91c: ffffffff     	<unknown>
  10d920: ffffffff     	<unknown>
  10d924: ffffffff     	<unknown>
  10d928: ffffffff     	<unknown>
  10d92c: ffffffff     	<unknown>
  10d930: ffffffff     	<unknown>
  10d934: ffffffff     	<unknown>
  10d938: ffffffff     	<unknown>
  10d93c: ffffffff     	<unknown>
  10d940: ffffffff     	<unknown>
  10d944: ffffffff     	<unknown>
  10d948: ffffffff     	<unknown>
  10d94c: ffffffff     	<unknown>
  10d950: ffffffff     	<unknown>
  10d954: ffffffff     	<unknown>
  10d958: ffffffff     	<unknown>
  10d95c: ffffffff     	<unknown>
  10d960: ffffffff     	<unknown>
  10d964: ffffffff     	<unknown>
  10d968: ffffffff     	<unknown>
  10d96c: ffffffff     	<unknown>
  10d970: ffffffff     	<unknown>
  10d974: ffffffff     	<unknown>
  10d978: ffffffff     	<unknown>
  10d97c: ffffffff     	<unknown>
  10d980: ffffffff     	<unknown>
  10d984: ffffffff     	<unknown>
  10d988: ffffffff     	<unknown>
  10d98c: ffffffff     	<unknown>
  10d990: ffffffff     	<unknown>
  10d994: ffffffff     	<unknown>
  10d998: ffffffff     	<unknown>
  10d99c: ffffffff     	<unknown>
  10d9a0: ffffffff     	<unknown>
  10d9a4: ffffffff     	<unknown>
  10d9a8: ffffffff     	<unknown>
  10d9ac: ffffffff     	<unknown>
  10d9b0: ffffffff     	<unknown>
  10d9b4: ffffffff     	<unknown>
  10d9b8: ffffffff     	<unknown>
  10d9bc: ffffffff     	<unknown>
  10d9c0: ffffffff     	<unknown>
  10d9c4: ffffffff     	<unknown>
  10d9c8: ffffffff     	<unknown>
  10d9cc: ffffffff     	<unknown>
  10d9d0: ffffffff     	<unknown>
  10d9d4: ffffffff     	<unknown>
  10d9d8: ffffffff     	<unknown>
  10d9dc: ffffffff     	<unknown>
  10d9e0: ffffffff     	<unknown>
  10d9e4: ffffffff     	<unknown>
  10d9e8: ffffffff     	<unknown>
  10d9ec: ffffffff     	<unknown>
  10d9f0: ffffffff     	<unknown>
  10d9f4: ffffffff     	<unknown>
  10d9f8: ffffffff     	<unknown>
  10d9fc: ffffffff     	<unknown>
  10da00: ffffffff     	<unknown>
  10da04: ffffffff     	<unknown>
  10da08: ffffffff     	<unknown>
  10da0c: ffffffff     	<unknown>
  10da10: ffffffff     	<unknown>
  10da14: ffffffff     	<unknown>
  10da18: ffffffff     	<unknown>
  10da1c: ffffffff     	<unknown>
  10da20: ffffffff     	<unknown>
  10da24: ffffffff     	<unknown>
  10da28: ffffffff     	<unknown>
  10da2c: ffffffff     	<unknown>
  10da30: ffffffff     	<unknown>
  10da34: ffffffff     	<unknown>
  10da38: ffffffff     	<unknown>
  10da3c: ffffffff     	<unknown>
  10da40: ffffffff     	<unknown>
  10da44: ffffffff     	<unknown>
  10da48: ffffffff     	<unknown>
  10da4c: ffffffff     	<unknown>
  10da50: ffffffff     	<unknown>
  10da54: ffffffff     	<unknown>
  10da58: ffffffff     	<unknown>
  10da5c: ffffffff     	<unknown>
  10da60: ffffffff     	<unknown>
  10da64: ffffffff     	<unknown>
  10da68: ffffffff     	<unknown>
  10da6c: ffffffff     	<unknown>
  10da70: ffffffff     	<unknown>
  10da74: ffffffff     	<unknown>
  10da78: ffffffff     	<unknown>
  10da7c: ffffffff     	<unknown>
  10da80: ffffffff     	<unknown>
  10da84: ffffffff     	<unknown>
  10da88: ffffffff     	<unknown>
  10da8c: ffffffff     	<unknown>
  10da90: ffffffff     	<unknown>
  10da94: ffffffff     	<unknown>
  10da98: ffffffff     	<unknown>
  10da9c: ffffffff     	<unknown>
  10daa0: ffffffff     	<unknown>
  10daa4: ffffffff     	<unknown>
  10daa8: ffffffff     	<unknown>
  10daac: ffffffff     	<unknown>
  10dab0: ffffffff     	<unknown>
  10dab4: ffffffff     	<unknown>
  10dab8: ffffffff     	<unknown>
  10dabc: ffffffff     	<unknown>
  10dac0: ffffffff     	<unknown>
  10dac4: ffffffff     	<unknown>
  10dac8: ffffffff     	<unknown>
  10dacc: ffffffff     	<unknown>
  10dad0: ffffffff     	<unknown>
  10dad4: ffffffff     	<unknown>
  10dad8: ffffffff     	<unknown>
  10dadc: ffffffff     	<unknown>
  10dae0: ffffffff     	<unknown>
  10dae4: ffffffff     	<unknown>
  10dae8: ffffffff     	<unknown>
  10daec: ffffffff     	<unknown>
  10daf0: ffffffff     	<unknown>
  10daf4: ffffffff     	<unknown>
  10daf8: ffffffff     	<unknown>
  10dafc: ffffffff     	<unknown>
  10db00: ffffffff     	<unknown>
  10db04: ffffffff     	<unknown>
  10db08: ffffffff     	<unknown>
  10db0c: ffffffff     	<unknown>
  10db10: ffffffff     	<unknown>
  10db14: ffffffff     	<unknown>
  10db18: ffffffff     	<unknown>
  10db1c: ffffffff     	<unknown>
  10db20: ffffffff     	<unknown>
  10db24: ffffffff     	<unknown>
  10db28: ffffffff     	<unknown>
  10db2c: ffffffff     	<unknown>
  10db30: ffffffff     	<unknown>
  10db34: ffffffff     	<unknown>
  10db38: ffffffff     	<unknown>
  10db3c: ffffffff     	<unknown>
  10db40: ffffffff     	<unknown>
  10db44: ffffffff     	<unknown>
  10db48: ffffffff     	<unknown>
  10db4c: ffffffff     	<unknown>
  10db50: ffffffff     	<unknown>
  10db54: ffffffff     	<unknown>
  10db58: ffffffff     	<unknown>
  10db5c: ffffffff     	<unknown>
  10db60: ffffffff     	<unknown>
  10db64: ffffffff     	<unknown>
  10db68: ffffffff     	<unknown>
  10db6c: ffffffff     	<unknown>
  10db70: ffffffff     	<unknown>
  10db74: ffffffff     	<unknown>
  10db78: ffffffff     	<unknown>
  10db7c: ffffffff     	<unknown>
  10db80: ffffffff     	<unknown>
  10db84: ffffffff     	<unknown>
  10db88: ffffffff     	<unknown>
  10db8c: ffffffff     	<unknown>
  10db90: ffffffff     	<unknown>
  10db94: ffffffff     	<unknown>
  10db98: ffffffff     	<unknown>
  10db9c: ffffffff     	<unknown>
  10dba0: ffffffff     	<unknown>
  10dba4: ffffffff     	<unknown>
  10dba8: ffffffff     	<unknown>
  10dbac: ffffffff     	<unknown>
  10dbb0: ffffffff     	<unknown>
  10dbb4: ffffffff     	<unknown>
  10dbb8: ffffffff     	<unknown>
  10dbbc: ffffffff     	<unknown>
  10dbc0: ffffffff     	<unknown>
  10dbc4: ffffffff     	<unknown>
  10dbc8: ffffffff     	<unknown>
  10dbcc: ffffffff     	<unknown>
  10dbd0: ffffffff     	<unknown>
  10dbd4: ffffffff     	<unknown>
  10dbd8: ffffffff     	<unknown>
  10dbdc: ffffffff     	<unknown>
  10dbe0: ffffffff     	<unknown>
  10dbe4: ffffffff     	<unknown>
  10dbe8: ffffffff     	<unknown>
  10dbec: ffffffff     	<unknown>
  10dbf0: ffffffff     	<unknown>
  10dbf4: ffffffff     	<unknown>
  10dbf8: ffffffff     	<unknown>
  10dbfc: ffffffff     	<unknown>
  10dc00: ffffffff     	<unknown>
  10dc04: ffffffff     	<unknown>
  10dc08: ffffffff     	<unknown>
  10dc0c: ffffffff     	<unknown>
  10dc10: ffffffff     	<unknown>
  10dc14: ffffffff     	<unknown>
  10dc18: ffffffff     	<unknown>
  10dc1c: ffffffff     	<unknown>
  10dc20: ffffffff     	<unknown>
  10dc24: ffffffff     	<unknown>
  10dc28: ffffffff     	<unknown>
  10dc2c: ffffffff     	<unknown>
  10dc30: ffffffff     	<unknown>
  10dc34: ffffffff     	<unknown>
  10dc38: ffffffff     	<unknown>
  10dc3c: ffffffff     	<unknown>
  10dc40: ffffffff     	<unknown>
  10dc44: ffffffff     	<unknown>
  10dc48: ffffffff     	<unknown>
  10dc4c: ffffffff     	<unknown>
  10dc50: ffffffff     	<unknown>
  10dc54: ffffffff     	<unknown>
  10dc58: ffffffff     	<unknown>
  10dc5c: ffffffff     	<unknown>
  10dc60: ffffffff     	<unknown>
  10dc64: ffffffff     	<unknown>
  10dc68: ffffffff     	<unknown>
  10dc6c: ffffffff     	<unknown>
  10dc70: ffffffff     	<unknown>
  10dc74: ffffffff     	<unknown>
  10dc78: ffffffff     	<unknown>
  10dc7c: ffffffff     	<unknown>
  10dc80: ffffffff     	<unknown>
  10dc84: ffffffff     	<unknown>
  10dc88: ffffffff     	<unknown>
  10dc8c: ffffffff     	<unknown>
  10dc90: ffffffff     	<unknown>
  10dc94: ffffffff     	<unknown>
  10dc98: ffffffff     	<unknown>
  10dc9c: ffffffff     	<unknown>
  10dca0: ffffffff     	<unknown>
  10dca4: ffffffff     	<unknown>
  10dca8: ffffffff     	<unknown>
  10dcac: ffffffff     	<unknown>
  10dcb0: ffffffff     	<unknown>
  10dcb4: ffffffff     	<unknown>
  10dcb8: ffffffff     	<unknown>
  10dcbc: ffffffff     	<unknown>
  10dcc0: ffffffff     	<unknown>
  10dcc4: ffffffff     	<unknown>
  10dcc8: ffffffff     	<unknown>
  10dccc: ffffffff     	<unknown>
  10dcd0: ffffffff     	<unknown>
  10dcd4: ffffffff     	<unknown>
  10dcd8: ffffffff     	<unknown>
  10dcdc: ffffffff     	<unknown>
  10dce0: ffffffff     	<unknown>
  10dce4: ffffffff     	<unknown>
  10dce8: ffffffff     	<unknown>
  10dcec: ffffffff     	<unknown>
  10dcf0: ffffffff     	<unknown>
  10dcf4: ffffffff     	<unknown>
  10dcf8: ffffffff     	<unknown>
  10dcfc: ffffffff     	<unknown>
  10dd00: ffffffff     	<unknown>
  10dd04: ffffffff     	<unknown>
  10dd08: ffffffff     	<unknown>
  10dd0c: ffffffff     	<unknown>
  10dd10: ffffffff     	<unknown>
  10dd14: ffffffff     	<unknown>
  10dd18: ffffffff     	<unknown>
  10dd1c: ffffffff     	<unknown>
  10dd20: ffffffff     	<unknown>
  10dd24: ffffffff     	<unknown>
  10dd28: ffffffff     	<unknown>
  10dd2c: ffffffff     	<unknown>
  10dd30: ffffffff     	<unknown>
  10dd34: ffffffff     	<unknown>
  10dd38: ffffffff     	<unknown>
  10dd3c: ffffffff     	<unknown>
  10dd40: ffffffff     	<unknown>
  10dd44: ffffffff     	<unknown>
  10dd48: ffffffff     	<unknown>
  10dd4c: ffffffff     	<unknown>
  10dd50: ffffffff     	<unknown>
  10dd54: ffffffff     	<unknown>
  10dd58: ffffffff     	<unknown>
  10dd5c: ffffffff     	<unknown>
  10dd60: ffffffff     	<unknown>
  10dd64: ffffffff     	<unknown>
  10dd68: ffffffff     	<unknown>
  10dd6c: ffffffff     	<unknown>
  10dd70: ffffffff     	<unknown>
  10dd74: ffffffff     	<unknown>
  10dd78: ffffffff     	<unknown>
  10dd7c: ffffffff     	<unknown>
  10dd80: ffffffff     	<unknown>
  10dd84: ffffffff     	<unknown>
  10dd88: ffffffff     	<unknown>
  10dd8c: ffffffff     	<unknown>
  10dd90: ffffffff     	<unknown>
  10dd94: ffffffff     	<unknown>
  10dd98: ffffffff     	<unknown>
  10dd9c: ffffffff     	<unknown>
  10dda0: ffffffff     	<unknown>
  10dda4: ffffffff     	<unknown>
  10dda8: ffffffff     	<unknown>
  10ddac: ffffffff     	<unknown>
  10ddb0: ffffffff     	<unknown>
  10ddb4: ffffffff     	<unknown>
  10ddb8: ffffffff     	<unknown>
  10ddbc: ffffffff     	<unknown>
  10ddc0: ffffffff     	<unknown>
  10ddc4: ffffffff     	<unknown>
  10ddc8: ffffffff     	<unknown>
  10ddcc: ffffffff     	<unknown>
  10ddd0: ffffffff     	<unknown>
  10ddd4: ffffffff     	<unknown>
  10ddd8: ffffffff     	<unknown>
  10dddc: ffffffff     	<unknown>
  10dde0: ffffffff     	<unknown>
  10dde4: ffffffff     	<unknown>
  10dde8: ffffffff     	<unknown>
  10ddec: ffffffff     	<unknown>
  10ddf0: ffffffff     	<unknown>
  10ddf4: ffffffff     	<unknown>
  10ddf8: ffffffff     	<unknown>
  10ddfc: ffffffff     	<unknown>
  10de00: ffffffff     	<unknown>
  10de04: ffffffff     	<unknown>
  10de08: ffffffff     	<unknown>
  10de0c: ffffffff     	<unknown>
  10de10: ffffffff     	<unknown>
  10de14: ffffffff     	<unknown>
  10de18: ffffffff     	<unknown>
  10de1c: ffffffff     	<unknown>
  10de20: ffffffff     	<unknown>
  10de24: ffffffff     	<unknown>
  10de28: ffffffff     	<unknown>
  10de2c: ffffffff     	<unknown>
  10de30: ffffffff     	<unknown>
  10de34: ffffffff     	<unknown>
  10de38: ffffffff     	<unknown>
  10de3c: ffffffff     	<unknown>
  10de40: ffffffff     	<unknown>
  10de44: ffffffff     	<unknown>
  10de48: ffffffff     	<unknown>
  10de4c: ffffffff     	<unknown>
  10de50: ffffffff     	<unknown>
  10de54: ffffffff     	<unknown>
  10de58: ffffffff     	<unknown>
  10de5c: ffffffff     	<unknown>
  10de60: ffffffff     	<unknown>
  10de64: ffffffff     	<unknown>
  10de68: ffffffff     	<unknown>
  10de6c: ffffffff     	<unknown>
  10de70: ffffffff     	<unknown>
  10de74: ffffffff     	<unknown>
  10de78: ffffffff     	<unknown>
  10de7c: ffffffff     	<unknown>
  10de80: ffffffff     	<unknown>
  10de84: ffffffff     	<unknown>
  10de88: ffffffff     	<unknown>
  10de8c: ffffffff     	<unknown>
  10de90: ffffffff     	<unknown>
  10de94: ffffffff     	<unknown>
  10de98: ffffffff     	<unknown>
  10de9c: ffffffff     	<unknown>
  10dea0: ffffffff     	<unknown>
  10dea4: ffffffff     	<unknown>
  10dea8: ffffffff     	<unknown>
  10deac: ffffffff     	<unknown>
  10deb0: ffffffff     	<unknown>
  10deb4: ffffffff     	<unknown>
  10deb8: ffffffff     	<unknown>
  10debc: ffffffff     	<unknown>
  10dec0: ffffffff     	<unknown>
  10dec4: ffffffff     	<unknown>
  10dec8: ffffffff     	<unknown>
  10decc: ffffffff     	<unknown>
  10ded0: ffffffff     	<unknown>
  10ded4: ffffffff     	<unknown>
  10ded8: ffffffff     	<unknown>
  10dedc: ffffffff     	<unknown>
  10dee0: ffffffff     	<unknown>
  10dee4: ffffffff     	<unknown>
  10dee8: ffffffff     	<unknown>
  10deec: ffffffff     	<unknown>
  10def0: ffffffff     	<unknown>
  10def4: ffffffff     	<unknown>
  10def8: ffffffff     	<unknown>
  10defc: ffffffff     	<unknown>
  10df00: ffffffff     	<unknown>
  10df04: ffffffff     	<unknown>
  10df08: ffffffff     	<unknown>
  10df0c: ffffffff     	<unknown>
  10df10: ffffffff     	<unknown>
  10df14: ffffffff     	<unknown>
  10df18: ffffffff     	<unknown>
  10df1c: ffffffff     	<unknown>
  10df20: ffffffff     	<unknown>
  10df24: ffffffff     	<unknown>
  10df28: ffffffff     	<unknown>
  10df2c: ffffffff     	<unknown>
  10df30: ffffffff     	<unknown>
  10df34: ffffffff     	<unknown>
  10df38: ffffffff     	<unknown>
  10df3c: ffffffff     	<unknown>
  10df40: ffffffff     	<unknown>
  10df44: ffffffff     	<unknown>
  10df48: ffffffff     	<unknown>
  10df4c: ffffffff     	<unknown>
  10df50: ffffffff     	<unknown>
  10df54: ffffffff     	<unknown>
  10df58: ffffffff     	<unknown>
  10df5c: ffffffff     	<unknown>
  10df60: ffffffff     	<unknown>
  10df64: ffffffff     	<unknown>
  10df68: ffffffff     	<unknown>
  10df6c: ffffffff     	<unknown>
  10df70: ffffffff     	<unknown>
  10df74: ffffffff     	<unknown>
  10df78: ffffffff     	<unknown>
  10df7c: ffffffff     	<unknown>
  10df80: ffffffff     	<unknown>
  10df84: ffffffff     	<unknown>
  10df88: ffffffff     	<unknown>
  10df8c: ffffffff     	<unknown>
  10df90: ffffffff     	<unknown>
  10df94: ffffffff     	<unknown>
  10df98: ffffffff     	<unknown>
  10df9c: ffffffff     	<unknown>
  10dfa0: ffffffff     	<unknown>
  10dfa4: ffffffff     	<unknown>
  10dfa8: ffffffff     	<unknown>
  10dfac: ffffffff     	<unknown>
  10dfb0: ffffffff     	<unknown>
  10dfb4: ffffffff     	<unknown>
  10dfb8: ffffffff     	<unknown>
  10dfbc: ffffffff     	<unknown>
  10dfc0: ffffffff     	<unknown>
  10dfc4: ffffffff     	<unknown>
  10dfc8: ffffffff     	<unknown>
  10dfcc: ffffffff     	<unknown>
  10dfd0: ffffffff     	<unknown>
  10dfd4: ffffffff     	<unknown>
  10dfd8: ffffffff     	<unknown>
  10dfdc: ffffffff     	<unknown>
  10dfe0: ffffffff     	<unknown>
  10dfe4: ffffffff     	<unknown>
  10dfe8: ffffffff     	<unknown>
  10dfec: ffffffff     	<unknown>
  10dff0: ffffffff     	<unknown>
  10dff4: ffffffff     	<unknown>
  10dff8: ffffffff     	<unknown>
  10dffc: ffffffff     	<unknown>
  10e000: ffffffff     	<unknown>
  10e004: ffffffff     	<unknown>
  10e008: ffffffff     	<unknown>
  10e00c: ffffffff     	<unknown>
  10e010: ffffffff     	<unknown>
  10e014: ffffffff     	<unknown>
  10e018: ffffffff     	<unknown>
  10e01c: ffffffff     	<unknown>
  10e020: ffffffff     	<unknown>
  10e024: ffffffff     	<unknown>
  10e028: ffffffff     	<unknown>
  10e02c: ffffffff     	<unknown>
  10e030: ffffffff     	<unknown>
  10e034: ffffffff     	<unknown>
  10e038: ffffffff     	<unknown>
  10e03c: ffffffff     	<unknown>
  10e040: ffffffff     	<unknown>
  10e044: ffffffff     	<unknown>
  10e048: ffffffff     	<unknown>
  10e04c: ffffffff     	<unknown>
  10e050: ffffffff     	<unknown>
  10e054: ffffffff     	<unknown>
  10e058: ffffffff     	<unknown>
  10e05c: ffffffff     	<unknown>
  10e060: ffffffff     	<unknown>
  10e064: ffffffff     	<unknown>
  10e068: ffffffff     	<unknown>
  10e06c: ffffffff     	<unknown>
  10e070: ffffffff     	<unknown>
  10e074: ffffffff     	<unknown>
  10e078: ffffffff     	<unknown>
  10e07c: ffffffff     	<unknown>
  10e080: ffffffff     	<unknown>
  10e084: ffffffff     	<unknown>
  10e088: ffffffff     	<unknown>
  10e08c: ffffffff     	<unknown>
  10e090: ffffffff     	<unknown>
  10e094: ffffffff     	<unknown>
  10e098: ffffffff     	<unknown>
  10e09c: ffffffff     	<unknown>
  10e0a0: ffffffff     	<unknown>
  10e0a4: ffffffff     	<unknown>
  10e0a8: ffffffff     	<unknown>
  10e0ac: ffffffff     	<unknown>
  10e0b0: ffffffff     	<unknown>
  10e0b4: ffffffff     	<unknown>
  10e0b8: ffffffff     	<unknown>
  10e0bc: ffffffff     	<unknown>
  10e0c0: ffffffff     	<unknown>
  10e0c4: ffffffff     	<unknown>
  10e0c8: ffffffff     	<unknown>
  10e0cc: ffffffff     	<unknown>
  10e0d0: ffffffff     	<unknown>
  10e0d4: ffffffff     	<unknown>
  10e0d8: ffffffff     	<unknown>
  10e0dc: ffffffff     	<unknown>
  10e0e0: ffffffff     	<unknown>
  10e0e4: ffffffff     	<unknown>
  10e0e8: ffffffff     	<unknown>
  10e0ec: ffffffff     	<unknown>
  10e0f0: ffffffff     	<unknown>
  10e0f4: ffffffff     	<unknown>
  10e0f8: ffffffff     	<unknown>
  10e0fc: ffffffff     	<unknown>
  10e100: ffffffff     	<unknown>
  10e104: ffffffff     	<unknown>
  10e108: ffffffff     	<unknown>
  10e10c: ffffffff     	<unknown>
  10e110: ffffffff     	<unknown>
  10e114: ffffffff     	<unknown>
  10e118: ffffffff     	<unknown>
  10e11c: ffffffff     	<unknown>
  10e120: ffffffff     	<unknown>
  10e124: ffffffff     	<unknown>
  10e128: ffffffff     	<unknown>
  10e12c: ffffffff     	<unknown>
  10e130: ffffffff     	<unknown>
  10e134: ffffffff     	<unknown>
  10e138: ffffffff     	<unknown>
  10e13c: ffffffff     	<unknown>
  10e140: ffffffff     	<unknown>
  10e144: ffffffff     	<unknown>
  10e148: ffffffff     	<unknown>
  10e14c: ffffffff     	<unknown>
  10e150: ffffffff     	<unknown>
  10e154: ffffffff     	<unknown>
  10e158: ffffffff     	<unknown>
  10e15c: ffffffff     	<unknown>
  10e160: ffffffff     	<unknown>
  10e164: ffffffff     	<unknown>
  10e168: ffffffff     	<unknown>
  10e16c: ffffffff     	<unknown>
  10e170: ffffffff     	<unknown>
  10e174: ffffffff     	<unknown>
  10e178: ffffffff     	<unknown>
  10e17c: ffffffff     	<unknown>
  10e180: ffffffff     	<unknown>
  10e184: ffffffff     	<unknown>
  10e188: ffffffff     	<unknown>
  10e18c: ffffffff     	<unknown>
  10e190: ffffffff     	<unknown>
  10e194: ffffffff     	<unknown>
  10e198: ffffffff     	<unknown>
  10e19c: ffffffff     	<unknown>
  10e1a0: ffffffff     	<unknown>
  10e1a4: ffffffff     	<unknown>
  10e1a8: ffffffff     	<unknown>
  10e1ac: ffffffff     	<unknown>
  10e1b0: ffffffff     	<unknown>
  10e1b4: ffffffff     	<unknown>
  10e1b8: ffffffff     	<unknown>
  10e1bc: ffffffff     	<unknown>
  10e1c0: ffffffff     	<unknown>
  10e1c4: ffffffff     	<unknown>
  10e1c8: ffffffff     	<unknown>
  10e1cc: ffffffff     	<unknown>
  10e1d0: ffffffff     	<unknown>
  10e1d4: ffffffff     	<unknown>
  10e1d8: ffffffff     	<unknown>
  10e1dc: ffffffff     	<unknown>
  10e1e0: ffffffff     	<unknown>
  10e1e4: ffffffff     	<unknown>
  10e1e8: ffffffff     	<unknown>
  10e1ec: ffffffff     	<unknown>
  10e1f0: ffffffff     	<unknown>
  10e1f4: ffffffff     	<unknown>
  10e1f8: ffffffff     	<unknown>
  10e1fc: ffffffff     	<unknown>
  10e200: ffffffff     	<unknown>
  10e204: ffffffff     	<unknown>
  10e208: ffffffff     	<unknown>
  10e20c: ffffffff     	<unknown>
  10e210: ffffffff     	<unknown>
  10e214: ffffffff     	<unknown>
  10e218: ffffffff     	<unknown>
  10e21c: ffffffff     	<unknown>
  10e220: ffffffff     	<unknown>
  10e224: ffffffff     	<unknown>
  10e228: ffffffff     	<unknown>
  10e22c: ffffffff     	<unknown>
  10e230: ffffffff     	<unknown>
  10e234: ffffffff     	<unknown>
  10e238: ffffffff     	<unknown>
  10e23c: ffffffff     	<unknown>
  10e240: ffffffff     	<unknown>
  10e244: ffffffff     	<unknown>
  10e248: ffffffff     	<unknown>
  10e24c: ffffffff     	<unknown>
  10e250: ffffffff     	<unknown>
  10e254: ffffffff     	<unknown>
  10e258: ffffffff     	<unknown>
  10e25c: ffffffff     	<unknown>
  10e260: ffffffff     	<unknown>
  10e264: ffffffff     	<unknown>
  10e268: ffffffff     	<unknown>
  10e26c: ffffffff     	<unknown>
  10e270: ffffffff     	<unknown>
  10e274: ffffffff     	<unknown>
  10e278: ffffffff     	<unknown>
  10e27c: ffffffff     	<unknown>
  10e280: ffffffff     	<unknown>
  10e284: ffffffff     	<unknown>
  10e288: ffffffff     	<unknown>
  10e28c: ffffffff     	<unknown>
  10e290: ffffffff     	<unknown>
  10e294: ffffffff     	<unknown>
  10e298: ffffffff     	<unknown>
  10e29c: ffffffff     	<unknown>
  10e2a0: ffffffff     	<unknown>
  10e2a4: ffffffff     	<unknown>
  10e2a8: ffffffff     	<unknown>
  10e2ac: ffffffff     	<unknown>
  10e2b0: ffffffff     	<unknown>
  10e2b4: ffffffff     	<unknown>
  10e2b8: ffffffff     	<unknown>
  10e2bc: ffffffff     	<unknown>
  10e2c0: ffffffff     	<unknown>
  10e2c4: ffffffff     	<unknown>
  10e2c8: ffffffff     	<unknown>
  10e2cc: ffffffff     	<unknown>
  10e2d0: ffffffff     	<unknown>
  10e2d4: ffffffff     	<unknown>
  10e2d8: ffffffff     	<unknown>
  10e2dc: ffffffff     	<unknown>
  10e2e0: ffffffff     	<unknown>
  10e2e4: ffffffff     	<unknown>
  10e2e8: ffffffff     	<unknown>
  10e2ec: ffffffff     	<unknown>
  10e2f0: ffffffff     	<unknown>
  10e2f4: ffffffff     	<unknown>
  10e2f8: ffffffff     	<unknown>
  10e2fc: ffffffff     	<unknown>
  10e300: ffffffff     	<unknown>
  10e304: ffffffff     	<unknown>
  10e308: ffffffff     	<unknown>
  10e30c: ffffffff     	<unknown>
  10e310: ffffffff     	<unknown>
  10e314: ffffffff     	<unknown>
  10e318: ffffffff     	<unknown>
  10e31c: ffffffff     	<unknown>
  10e320: ffffffff     	<unknown>
  10e324: ffffffff     	<unknown>
  10e328: ffffffff     	<unknown>
  10e32c: ffffffff     	<unknown>
  10e330: ffffffff     	<unknown>
  10e334: ffffffff     	<unknown>
  10e338: ffffffff     	<unknown>
  10e33c: ffffffff     	<unknown>
  10e340: ffffffff     	<unknown>
  10e344: ffffffff     	<unknown>
  10e348: ffffffff     	<unknown>
  10e34c: ffffffff     	<unknown>
  10e350: ffffffff     	<unknown>
  10e354: ffffffff     	<unknown>
  10e358: ffffffff     	<unknown>
  10e35c: ffffffff     	<unknown>
  10e360: ffffffff     	<unknown>
  10e364: ffffffff     	<unknown>
  10e368: ffffffff     	<unknown>
  10e36c: ffffffff     	<unknown>
  10e370: ffffffff     	<unknown>
  10e374: ffffffff     	<unknown>
  10e378: ffffffff     	<unknown>
  10e37c: ffffffff     	<unknown>
  10e380: ffffffff     	<unknown>
  10e384: ffffffff     	<unknown>
  10e388: ffffffff     	<unknown>
  10e38c: ffffffff     	<unknown>
  10e390: ffffffff     	<unknown>
  10e394: ffffffff     	<unknown>
  10e398: ffffffff     	<unknown>
  10e39c: ffffffff     	<unknown>
  10e3a0: ffffffff     	<unknown>
  10e3a4: ffffffff     	<unknown>
  10e3a8: ffffffff     	<unknown>
  10e3ac: ffffffff     	<unknown>
  10e3b0: ffffffff     	<unknown>
  10e3b4: ffffffff     	<unknown>
  10e3b8: ffffffff     	<unknown>
  10e3bc: ffffffff     	<unknown>
  10e3c0: ffffffff     	<unknown>
  10e3c4: ffffffff     	<unknown>
  10e3c8: ffffffff     	<unknown>
  10e3cc: ffffffff     	<unknown>
  10e3d0: ffffffff     	<unknown>
  10e3d4: ffffffff     	<unknown>
  10e3d8: ffffffff     	<unknown>
  10e3dc: ffffffff     	<unknown>
  10e3e0: ffffffff     	<unknown>
  10e3e4: ffffffff     	<unknown>
  10e3e8: ffffffff     	<unknown>
  10e3ec: ffffffff     	<unknown>
  10e3f0: ffffffff     	<unknown>
  10e3f4: ffffffff     	<unknown>
  10e3f8: ffffffff     	<unknown>
  10e3fc: ffffffff     	<unknown>
  10e400: ffffffff     	<unknown>
  10e404: ffffffff     	<unknown>
  10e408: ffffffff     	<unknown>
  10e40c: ffffffff     	<unknown>
  10e410: ffffffff     	<unknown>
  10e414: ffffffff     	<unknown>
  10e418: ffffffff     	<unknown>
  10e41c: ffffffff     	<unknown>
  10e420: ffffffff     	<unknown>
  10e424: ffffffff     	<unknown>
  10e428: ffffffff     	<unknown>
  10e42c: ffffffff     	<unknown>
  10e430: ffffffff     	<unknown>
  10e434: ffffffff     	<unknown>
  10e438: ffffffff     	<unknown>
  10e43c: ffffffff     	<unknown>
  10e440: ffffffff     	<unknown>
  10e444: ffffffff     	<unknown>
  10e448: ffffffff     	<unknown>
  10e44c: ffffffff     	<unknown>
  10e450: ffffffff     	<unknown>
  10e454: ffffffff     	<unknown>
  10e458: ffffffff     	<unknown>
  10e45c: ffffffff     	<unknown>
  10e460: ffffffff     	<unknown>
  10e464: ffffffff     	<unknown>
  10e468: ffffffff     	<unknown>
  10e46c: ffffffff     	<unknown>
  10e470: ffffffff     	<unknown>
  10e474: ffffffff     	<unknown>
  10e478: ffffffff     	<unknown>
  10e47c: ffffffff     	<unknown>
  10e480: ffffffff     	<unknown>
  10e484: ffffffff     	<unknown>
  10e488: ffffffff     	<unknown>
  10e48c: ffffffff     	<unknown>
  10e490: ffffffff     	<unknown>
  10e494: ffffffff     	<unknown>
  10e498: ffffffff     	<unknown>
  10e49c: ffffffff     	<unknown>
  10e4a0: ffffffff     	<unknown>
  10e4a4: ffffffff     	<unknown>
  10e4a8: ffffffff     	<unknown>
  10e4ac: ffffffff     	<unknown>
  10e4b0: ffffffff     	<unknown>
  10e4b4: ffffffff     	<unknown>
  10e4b8: ffffffff     	<unknown>
  10e4bc: ffffffff     	<unknown>
  10e4c0: ffffffff     	<unknown>
  10e4c4: ffffffff     	<unknown>
  10e4c8: ffffffff     	<unknown>
  10e4cc: ffffffff     	<unknown>
  10e4d0: ffffffff     	<unknown>
  10e4d4: ffffffff     	<unknown>
  10e4d8: ffffffff     	<unknown>
  10e4dc: ffffffff     	<unknown>
  10e4e0: ffffffff     	<unknown>
  10e4e4: ffffffff     	<unknown>
  10e4e8: ffffffff     	<unknown>
  10e4ec: ffffffff     	<unknown>
  10e4f0: ffffffff     	<unknown>
  10e4f4: ffffffff     	<unknown>
  10e4f8: ffffffff     	<unknown>
  10e4fc: ffffffff     	<unknown>
  10e500: ffffffff     	<unknown>
  10e504: ffffffff     	<unknown>
  10e508: ffffffff     	<unknown>
  10e50c: ffffffff     	<unknown>
  10e510: ffffffff     	<unknown>
  10e514: ffffffff     	<unknown>
  10e518: ffffffff     	<unknown>
  10e51c: ffffffff     	<unknown>
  10e520: ffffffff     	<unknown>
  10e524: ffffffff     	<unknown>
  10e528: ffffffff     	<unknown>
  10e52c: ffffffff     	<unknown>
  10e530: ffffffff     	<unknown>
  10e534: ffffffff     	<unknown>
  10e538: ffffffff     	<unknown>
  10e53c: ffffffff     	<unknown>
  10e540: ffffffff     	<unknown>
  10e544: ffffffff     	<unknown>
  10e548: ffffffff     	<unknown>
  10e54c: ffffffff     	<unknown>
  10e550: ffffffff     	<unknown>
  10e554: ffffffff     	<unknown>
  10e558: ffffffff     	<unknown>
  10e55c: ffffffff     	<unknown>
  10e560: ffffffff     	<unknown>
  10e564: ffffffff     	<unknown>
  10e568: ffffffff     	<unknown>
  10e56c: ffffffff     	<unknown>
  10e570: ffffffff     	<unknown>
  10e574: ffffffff     	<unknown>
  10e578: ffffffff     	<unknown>
  10e57c: ffffffff     	<unknown>
  10e580: ffffffff     	<unknown>
  10e584: ffffffff     	<unknown>
  10e588: ffffffff     	<unknown>
  10e58c: ffffffff     	<unknown>
  10e590: ffffffff     	<unknown>
  10e594: ffffffff     	<unknown>
  10e598: ffffffff     	<unknown>
  10e59c: ffffffff     	<unknown>
  10e5a0: ffffffff     	<unknown>
  10e5a4: ffffffff     	<unknown>
  10e5a8: ffffffff     	<unknown>
  10e5ac: ffffffff     	<unknown>
  10e5b0: ffffffff     	<unknown>
  10e5b4: ffffffff     	<unknown>
  10e5b8: ffffffff     	<unknown>
  10e5bc: ffffffff     	<unknown>
  10e5c0: ffffffff     	<unknown>
  10e5c4: ffffffff     	<unknown>
  10e5c8: ffffffff     	<unknown>
  10e5cc: ffffffff     	<unknown>
  10e5d0: ffffffff     	<unknown>
  10e5d4: ffffffff     	<unknown>
  10e5d8: ffffffff     	<unknown>
  10e5dc: ffffffff     	<unknown>
  10e5e0: ffffffff     	<unknown>
  10e5e4: ffffffff     	<unknown>
  10e5e8: ffffffff     	<unknown>
  10e5ec: ffffffff     	<unknown>
  10e5f0: ffffffff     	<unknown>
  10e5f4: ffffffff     	<unknown>
  10e5f8: ffffffff     	<unknown>
  10e5fc: ffffffff     	<unknown>
  10e600: ffffffff     	<unknown>
  10e604: ffffffff     	<unknown>
  10e608: ffffffff     	<unknown>
  10e60c: ffffffff     	<unknown>
  10e610: ffffffff     	<unknown>
  10e614: ffffffff     	<unknown>
  10e618: ffffffff     	<unknown>
  10e61c: ffffffff     	<unknown>
  10e620: ffffffff     	<unknown>
  10e624: ffffffff     	<unknown>
  10e628: ffffffff     	<unknown>
  10e62c: ffffffff     	<unknown>
  10e630: ffffffff     	<unknown>
  10e634: ffffffff     	<unknown>
  10e638: ffffffff     	<unknown>
  10e63c: ffffffff     	<unknown>
  10e640: ffffffff     	<unknown>
  10e644: ffffffff     	<unknown>
  10e648: ffffffff     	<unknown>
  10e64c: ffffffff     	<unknown>
  10e650: ffffffff     	<unknown>
  10e654: ffffffff     	<unknown>
  10e658: ffffffff     	<unknown>
  10e65c: ffffffff     	<unknown>
  10e660: ffffffff     	<unknown>
  10e664: ffffffff     	<unknown>
  10e668: ffffffff     	<unknown>
  10e66c: ffffffff     	<unknown>
  10e670: ffffffff     	<unknown>
  10e674: ffffffff     	<unknown>
  10e678: ffffffff     	<unknown>
  10e67c: ffffffff     	<unknown>
  10e680: ffffffff     	<unknown>
  10e684: ffffffff     	<unknown>
  10e688: ffffffff     	<unknown>
  10e68c: ffffffff     	<unknown>
  10e690: ffffffff     	<unknown>
  10e694: ffffffff     	<unknown>
  10e698: ffffffff     	<unknown>
  10e69c: ffffffff     	<unknown>
  10e6a0: ffffffff     	<unknown>
  10e6a4: ffffffff     	<unknown>
  10e6a8: ffffffff     	<unknown>
  10e6ac: ffffffff     	<unknown>
  10e6b0: ffffffff     	<unknown>
  10e6b4: ffffffff     	<unknown>
  10e6b8: ffffffff     	<unknown>
  10e6bc: ffffffff     	<unknown>
  10e6c0: ffffffff     	<unknown>
  10e6c4: ffffffff     	<unknown>
  10e6c8: ffffffff     	<unknown>
  10e6cc: ffffffff     	<unknown>
  10e6d0: ffffffff     	<unknown>
  10e6d4: ffffffff     	<unknown>
  10e6d8: ffffffff     	<unknown>
  10e6dc: ffffffff     	<unknown>
  10e6e0: ffffffff     	<unknown>
  10e6e4: ffffffff     	<unknown>
  10e6e8: ffffffff     	<unknown>
  10e6ec: ffffffff     	<unknown>
  10e6f0: ffffffff     	<unknown>
  10e6f4: ffffffff     	<unknown>
  10e6f8: ffffffff     	<unknown>
  10e6fc: ffffffff     	<unknown>
  10e700: ffffffff     	<unknown>
  10e704: ffffffff     	<unknown>
  10e708: ffffffff     	<unknown>
  10e70c: ffffffff     	<unknown>
  10e710: ffffffff     	<unknown>
  10e714: ffffffff     	<unknown>
  10e718: ffffffff     	<unknown>
  10e71c: ffffffff     	<unknown>
  10e720: ffffffff     	<unknown>
  10e724: ffffffff     	<unknown>
  10e728: ffffffff     	<unknown>
  10e72c: ffffffff     	<unknown>
  10e730: ffffffff     	<unknown>
  10e734: ffffffff     	<unknown>
  10e738: ffffffff     	<unknown>
  10e73c: ffffffff     	<unknown>
  10e740: ffffffff     	<unknown>
  10e744: ffffffff     	<unknown>
  10e748: ffffffff     	<unknown>
  10e74c: ffffffff     	<unknown>
  10e750: ffffffff     	<unknown>
  10e754: ffffffff     	<unknown>
  10e758: ffffffff     	<unknown>
  10e75c: ffffffff     	<unknown>
  10e760: ffffffff     	<unknown>
  10e764: ffffffff     	<unknown>
  10e768: ffffffff     	<unknown>
  10e76c: ffffffff     	<unknown>
  10e770: ffffffff     	<unknown>
  10e774: ffffffff     	<unknown>
  10e778: ffffffff     	<unknown>
  10e77c: ffffffff     	<unknown>
  10e780: ffffffff     	<unknown>
  10e784: ffffffff     	<unknown>
  10e788: ffffffff     	<unknown>
  10e78c: ffffffff     	<unknown>
  10e790: ffffffff     	<unknown>
  10e794: ffffffff     	<unknown>
  10e798: ffffffff     	<unknown>
  10e79c: ffffffff     	<unknown>
  10e7a0: ffffffff     	<unknown>
  10e7a4: ffffffff     	<unknown>
  10e7a8: ffffffff     	<unknown>
  10e7ac: ffffffff     	<unknown>
  10e7b0: ffffffff     	<unknown>
  10e7b4: ffffffff     	<unknown>
  10e7b8: ffffffff     	<unknown>
  10e7bc: ffffffff     	<unknown>
  10e7c0: ffffffff     	<unknown>
  10e7c4: ffffffff     	<unknown>
  10e7c8: ffffffff     	<unknown>
  10e7cc: ffffffff     	<unknown>
  10e7d0: ffffffff     	<unknown>
  10e7d4: ffffffff     	<unknown>
  10e7d8: ffffffff     	<unknown>
  10e7dc: ffffffff     	<unknown>
  10e7e0: ffffffff     	<unknown>
  10e7e4: ffffffff     	<unknown>
  10e7e8: ffffffff     	<unknown>
  10e7ec: ffffffff     	<unknown>
  10e7f0: ffffffff     	<unknown>
  10e7f4: ffffffff     	<unknown>
  10e7f8: ffffffff     	<unknown>
  10e7fc: ffffffff     	<unknown>
  10e800: ffffffff     	<unknown>
  10e804: ffffffff     	<unknown>
  10e808: ffffffff     	<unknown>
  10e80c: ffffffff     	<unknown>
  10e810: ffffffff     	<unknown>
  10e814: ffffffff     	<unknown>
  10e818: ffffffff     	<unknown>
  10e81c: ffffffff     	<unknown>
  10e820: ffffffff     	<unknown>
  10e824: ffffffff     	<unknown>
  10e828: ffffffff     	<unknown>
  10e82c: ffffffff     	<unknown>
  10e830: ffffffff     	<unknown>
  10e834: ffffffff     	<unknown>
  10e838: ffffffff     	<unknown>
  10e83c: ffffffff     	<unknown>
  10e840: ffffffff     	<unknown>
  10e844: ffffffff     	<unknown>
  10e848: ffffffff     	<unknown>
  10e84c: ffffffff     	<unknown>
  10e850: ffffffff     	<unknown>
  10e854: ffffffff     	<unknown>
  10e858: ffffffff     	<unknown>
  10e85c: ffffffff     	<unknown>
  10e860: ffffffff     	<unknown>
  10e864: ffffffff     	<unknown>
  10e868: ffffffff     	<unknown>
  10e86c: ffffffff     	<unknown>
  10e870: ffffffff     	<unknown>
  10e874: ffffffff     	<unknown>
  10e878: ffffffff     	<unknown>
  10e87c: ffffffff     	<unknown>
  10e880: ffffffff     	<unknown>
  10e884: ffffffff     	<unknown>
  10e888: ffffffff     	<unknown>
  10e88c: ffffffff     	<unknown>
  10e890: ffffffff     	<unknown>
  10e894: ffffffff     	<unknown>
  10e898: ffffffff     	<unknown>
  10e89c: ffffffff     	<unknown>
  10e8a0: ffffffff     	<unknown>
  10e8a4: ffffffff     	<unknown>
  10e8a8: ffffffff     	<unknown>
  10e8ac: ffffffff     	<unknown>
  10e8b0: ffffffff     	<unknown>
  10e8b4: ffffffff     	<unknown>
  10e8b8: ffffffff     	<unknown>
  10e8bc: ffffffff     	<unknown>
  10e8c0: ffffffff     	<unknown>
  10e8c4: ffffffff     	<unknown>
  10e8c8: ffffffff     	<unknown>
  10e8cc: ffffffff     	<unknown>
  10e8d0: ffffffff     	<unknown>
  10e8d4: ffffffff     	<unknown>
  10e8d8: ffffffff     	<unknown>
  10e8dc: ffffffff     	<unknown>
  10e8e0: ffffffff     	<unknown>
  10e8e4: ffffffff     	<unknown>
  10e8e8: ffffffff     	<unknown>
  10e8ec: ffffffff     	<unknown>
  10e8f0: ffffffff     	<unknown>
  10e8f4: ffffffff     	<unknown>
  10e8f8: ffffffff     	<unknown>
  10e8fc: ffffffff     	<unknown>
  10e900: ffffffff     	<unknown>
  10e904: ffffffff     	<unknown>
  10e908: ffffffff     	<unknown>
  10e90c: ffffffff     	<unknown>
  10e910: ffffffff     	<unknown>
  10e914: ffffffff     	<unknown>
  10e918: ffffffff     	<unknown>
  10e91c: ffffffff     	<unknown>
  10e920: ffffffff     	<unknown>
  10e924: ffffffff     	<unknown>
  10e928: ffffffff     	<unknown>
  10e92c: ffffffff     	<unknown>
  10e930: ffffffff     	<unknown>
  10e934: ffffffff     	<unknown>
  10e938: ffffffff     	<unknown>
  10e93c: ffffffff     	<unknown>
  10e940: ffffffff     	<unknown>
  10e944: ffffffff     	<unknown>
  10e948: ffffffff     	<unknown>
  10e94c: ffffffff     	<unknown>
  10e950: ffffffff     	<unknown>
  10e954: ffffffff     	<unknown>
  10e958: ffffffff     	<unknown>
  10e95c: ffffffff     	<unknown>
  10e960: ffffffff     	<unknown>
  10e964: ffffffff     	<unknown>
  10e968: ffffffff     	<unknown>
  10e96c: ffffffff     	<unknown>
  10e970: ffffffff     	<unknown>
  10e974: ffffffff     	<unknown>
  10e978: ffffffff     	<unknown>
  10e97c: ffffffff     	<unknown>
  10e980: ffffffff     	<unknown>
  10e984: ffffffff     	<unknown>
  10e988: ffffffff     	<unknown>
  10e98c: ffffffff     	<unknown>
  10e990: ffffffff     	<unknown>
  10e994: ffffffff     	<unknown>
  10e998: ffffffff     	<unknown>
  10e99c: ffffffff     	<unknown>
  10e9a0: ffffffff     	<unknown>
  10e9a4: ffffffff     	<unknown>
  10e9a8: ffffffff     	<unknown>
  10e9ac: ffffffff     	<unknown>
  10e9b0: ffffffff     	<unknown>
  10e9b4: ffffffff     	<unknown>
  10e9b8: ffffffff     	<unknown>
  10e9bc: ffffffff     	<unknown>
  10e9c0: ffffffff     	<unknown>
  10e9c4: ffffffff     	<unknown>
  10e9c8: ffffffff     	<unknown>
  10e9cc: ffffffff     	<unknown>
  10e9d0: ffffffff     	<unknown>
  10e9d4: ffffffff     	<unknown>
  10e9d8: ffffffff     	<unknown>
  10e9dc: ffffffff     	<unknown>
  10e9e0: ffffffff     	<unknown>
  10e9e4: ffffffff     	<unknown>
  10e9e8: ffffffff     	<unknown>
  10e9ec: ffffffff     	<unknown>
  10e9f0: ffffffff     	<unknown>
  10e9f4: ffffffff     	<unknown>
  10e9f8: ffffffff     	<unknown>
  10e9fc: ffffffff     	<unknown>
  10ea00: ffffffff     	<unknown>
  10ea04: ffffffff     	<unknown>
  10ea08: ffffffff     	<unknown>
  10ea0c: ffffffff     	<unknown>
  10ea10: ffffffff     	<unknown>
  10ea14: ffffffff     	<unknown>
  10ea18: ffffffff     	<unknown>
  10ea1c: ffffffff     	<unknown>
  10ea20: ffffffff     	<unknown>
  10ea24: ffffffff     	<unknown>
  10ea28: ffffffff     	<unknown>
  10ea2c: ffffffff     	<unknown>
  10ea30: ffffffff     	<unknown>
  10ea34: ffffffff     	<unknown>
  10ea38: ffffffff     	<unknown>
  10ea3c: ffffffff     	<unknown>
  10ea40: ffffffff     	<unknown>
  10ea44: ffffffff     	<unknown>
  10ea48: ffffffff     	<unknown>
  10ea4c: ffffffff     	<unknown>
  10ea50: ffffffff     	<unknown>
  10ea54: ffffffff     	<unknown>
  10ea58: ffffffff     	<unknown>
  10ea5c: ffffffff     	<unknown>
  10ea60: ffffffff     	<unknown>
  10ea64: ffffffff     	<unknown>
  10ea68: ffffffff     	<unknown>
  10ea6c: ffffffff     	<unknown>
  10ea70: ffffffff     	<unknown>
  10ea74: ffffffff     	<unknown>
  10ea78: ffffffff     	<unknown>
  10ea7c: ffffffff     	<unknown>
  10ea80: ffffffff     	<unknown>
  10ea84: ffffffff     	<unknown>
  10ea88: ffffffff     	<unknown>
  10ea8c: ffffffff     	<unknown>
  10ea90: ffffffff     	<unknown>
  10ea94: ffffffff     	<unknown>
  10ea98: ffffffff     	<unknown>
  10ea9c: ffffffff     	<unknown>
  10eaa0: ffffffff     	<unknown>
  10eaa4: ffffffff     	<unknown>
  10eaa8: ffffffff     	<unknown>
  10eaac: ffffffff     	<unknown>
  10eab0: ffffffff     	<unknown>
  10eab4: ffffffff     	<unknown>
  10eab8: ffffffff     	<unknown>
  10eabc: ffffffff     	<unknown>
  10eac0: ffffffff     	<unknown>
  10eac4: ffffffff     	<unknown>
  10eac8: ffffffff     	<unknown>
  10eacc: ffffffff     	<unknown>
  10ead0: ffffffff     	<unknown>
  10ead4: ffffffff     	<unknown>
  10ead8: ffffffff     	<unknown>
  10eadc: ffffffff     	<unknown>
  10eae0: ffffffff     	<unknown>
  10eae4: ffffffff     	<unknown>
  10eae8: ffffffff     	<unknown>
  10eaec: ffffffff     	<unknown>
  10eaf0: ffffffff     	<unknown>
  10eaf4: ffffffff     	<unknown>
  10eaf8: ffffffff     	<unknown>
  10eafc: ffffffff     	<unknown>
  10eb00: ffffffff     	<unknown>
  10eb04: ffffffff     	<unknown>
  10eb08: ffffffff     	<unknown>
  10eb0c: ffffffff     	<unknown>
  10eb10: ffffffff     	<unknown>
  10eb14: ffffffff     	<unknown>
  10eb18: ffffffff     	<unknown>
  10eb1c: ffffffff     	<unknown>
  10eb20: ffffffff     	<unknown>
  10eb24: ffffffff     	<unknown>
  10eb28: ffffffff     	<unknown>
  10eb2c: ffffffff     	<unknown>
  10eb30: ffffffff     	<unknown>
  10eb34: ffffffff     	<unknown>
  10eb38: ffffffff     	<unknown>
  10eb3c: ffffffff     	<unknown>
  10eb40: ffffffff     	<unknown>
  10eb44: ffffffff     	<unknown>
  10eb48: ffffffff     	<unknown>
  10eb4c: ffffffff     	<unknown>
  10eb50: ffffffff     	<unknown>
  10eb54: ffffffff     	<unknown>
  10eb58: ffffffff     	<unknown>
  10eb5c: ffffffff     	<unknown>
  10eb60: ffffffff     	<unknown>
  10eb64: ffffffff     	<unknown>
  10eb68: ffffffff     	<unknown>
  10eb6c: ffffffff     	<unknown>
  10eb70: ffffffff     	<unknown>
  10eb74: ffffffff     	<unknown>
  10eb78: ffffffff     	<unknown>
  10eb7c: ffffffff     	<unknown>
  10eb80: ffffffff     	<unknown>
  10eb84: ffffffff     	<unknown>
  10eb88: ffffffff     	<unknown>
  10eb8c: ffffffff     	<unknown>
  10eb90: ffffffff     	<unknown>
  10eb94: ffffffff     	<unknown>
  10eb98: ffffffff     	<unknown>
  10eb9c: ffffffff     	<unknown>
  10eba0: ffffffff     	<unknown>
  10eba4: ffffffff     	<unknown>
  10eba8: ffffffff     	<unknown>
  10ebac: ffffffff     	<unknown>
  10ebb0: ffffffff     	<unknown>
  10ebb4: ffffffff     	<unknown>
  10ebb8: ffffffff     	<unknown>
  10ebbc: ffffffff     	<unknown>
  10ebc0: ffffffff     	<unknown>
  10ebc4: ffffffff     	<unknown>
  10ebc8: ffffffff     	<unknown>
  10ebcc: ffffffff     	<unknown>
  10ebd0: ffffffff     	<unknown>
  10ebd4: ffffffff     	<unknown>
  10ebd8: ffffffff     	<unknown>
  10ebdc: ffffffff     	<unknown>
  10ebe0: ffffffff     	<unknown>
  10ebe4: ffffffff     	<unknown>
  10ebe8: ffffffff     	<unknown>
  10ebec: ffffffff     	<unknown>
  10ebf0: ffffffff     	<unknown>
  10ebf4: ffffffff     	<unknown>
  10ebf8: ffffffff     	<unknown>
  10ebfc: ffffffff     	<unknown>
  10ec00: ffffffff     	<unknown>
  10ec04: ffffffff     	<unknown>
  10ec08: ffffffff     	<unknown>
  10ec0c: ffffffff     	<unknown>
  10ec10: ffffffff     	<unknown>
  10ec14: ffffffff     	<unknown>
  10ec18: ffffffff     	<unknown>
  10ec1c: ffffffff     	<unknown>
  10ec20: ffffffff     	<unknown>
  10ec24: ffffffff     	<unknown>
  10ec28: ffffffff     	<unknown>
  10ec2c: ffffffff     	<unknown>
  10ec30: ffffffff     	<unknown>
  10ec34: ffffffff     	<unknown>
  10ec38: ffffffff     	<unknown>
  10ec3c: ffffffff     	<unknown>
  10ec40: ffffffff     	<unknown>
  10ec44: ffffffff     	<unknown>
  10ec48: ffffffff     	<unknown>
  10ec4c: ffffffff     	<unknown>
  10ec50: ffffffff     	<unknown>
  10ec54: ffffffff     	<unknown>
  10ec58: ffffffff     	<unknown>
  10ec5c: ffffffff     	<unknown>
  10ec60: ffffffff     	<unknown>
  10ec64: ffffffff     	<unknown>
  10ec68: ffffffff     	<unknown>
  10ec6c: ffffffff     	<unknown>
  10ec70: ffffffff     	<unknown>
  10ec74: ffffffff     	<unknown>
  10ec78: ffffffff     	<unknown>
  10ec7c: ffffffff     	<unknown>
  10ec80: ffffffff     	<unknown>
  10ec84: ffffffff     	<unknown>
  10ec88: ffffffff     	<unknown>
  10ec8c: ffffffff     	<unknown>
  10ec90: ffffffff     	<unknown>
  10ec94: ffffffff     	<unknown>
  10ec98: ffffffff     	<unknown>
  10ec9c: ffffffff     	<unknown>
  10eca0: ffffffff     	<unknown>
  10eca4: ffffffff     	<unknown>
  10eca8: ffffffff     	<unknown>
  10ecac: ffffffff     	<unknown>
  10ecb0: ffffffff     	<unknown>
  10ecb4: ffffffff     	<unknown>
  10ecb8: ffffffff     	<unknown>
  10ecbc: ffffffff     	<unknown>
  10ecc0: ffffffff     	<unknown>
  10ecc4: ffffffff     	<unknown>
  10ecc8: ffffffff     	<unknown>
  10eccc: ffffffff     	<unknown>
  10ecd0: ffffffff     	<unknown>
  10ecd4: ffffffff     	<unknown>
  10ecd8: ffffffff     	<unknown>
  10ecdc: ffffffff     	<unknown>
  10ece0: ffffffff     	<unknown>
  10ece4: ffffffff     	<unknown>
  10ece8: ffffffff     	<unknown>
  10ecec: ffffffff     	<unknown>
  10ecf0: ffffffff     	<unknown>
  10ecf4: ffffffff     	<unknown>
  10ecf8: ffffffff     	<unknown>
  10ecfc: ffffffff     	<unknown>
  10ed00: ffffffff     	<unknown>
  10ed04: ffffffff     	<unknown>
  10ed08: ffffffff     	<unknown>
  10ed0c: ffffffff     	<unknown>
  10ed10: ffffffff     	<unknown>
  10ed14: ffffffff     	<unknown>
  10ed18: ffffffff     	<unknown>
  10ed1c: ffffffff     	<unknown>
  10ed20: ffffffff     	<unknown>
  10ed24: ffffffff     	<unknown>
  10ed28: ffffffff     	<unknown>
  10ed2c: ffffffff     	<unknown>
  10ed30: ffffffff     	<unknown>
  10ed34: ffffffff     	<unknown>
  10ed38: ffffffff     	<unknown>
  10ed3c: ffffffff     	<unknown>
  10ed40: ffffffff     	<unknown>
  10ed44: ffffffff     	<unknown>
  10ed48: ffffffff     	<unknown>
  10ed4c: ffffffff     	<unknown>
  10ed50: ffffffff     	<unknown>
  10ed54: ffffffff     	<unknown>
  10ed58: ffffffff     	<unknown>
  10ed5c: ffffffff     	<unknown>
  10ed60: ffffffff     	<unknown>
  10ed64: ffffffff     	<unknown>
  10ed68: ffffffff     	<unknown>
  10ed6c: ffffffff     	<unknown>
  10ed70: ffffffff     	<unknown>
  10ed74: ffffffff     	<unknown>
  10ed78: ffffffff     	<unknown>
  10ed7c: ffffffff     	<unknown>
  10ed80: ffffffff     	<unknown>
  10ed84: ffffffff     	<unknown>
  10ed88: ffffffff     	<unknown>
  10ed8c: ffffffff     	<unknown>
  10ed90: ffffffff     	<unknown>
  10ed94: ffffffff     	<unknown>
  10ed98: ffffffff     	<unknown>
  10ed9c: ffffffff     	<unknown>
  10eda0: ffffffff     	<unknown>
  10eda4: ffffffff     	<unknown>
  10eda8: ffffffff     	<unknown>
  10edac: ffffffff     	<unknown>
  10edb0: ffffffff     	<unknown>
  10edb4: ffffffff     	<unknown>
  10edb8: ffffffff     	<unknown>
  10edbc: ffffffff     	<unknown>
  10edc0: ffffffff     	<unknown>
  10edc4: ffffffff     	<unknown>
  10edc8: ffffffff     	<unknown>
  10edcc: ffffffff     	<unknown>
  10edd0: ffffffff     	<unknown>
  10edd4: ffffffff     	<unknown>
  10edd8: ffffffff     	<unknown>
  10eddc: ffffffff     	<unknown>
  10ede0: ffffffff     	<unknown>
  10ede4: ffffffff     	<unknown>
  10ede8: ffffffff     	<unknown>
  10edec: ffffffff     	<unknown>
  10edf0: ffffffff     	<unknown>
  10edf4: ffffffff     	<unknown>
  10edf8: ffffffff     	<unknown>
  10edfc: ffffffff     	<unknown>
  10ee00: ffffffff     	<unknown>
  10ee04: ffffffff     	<unknown>
  10ee08: ffffffff     	<unknown>
  10ee0c: ffffffff     	<unknown>
  10ee10: ffffffff     	<unknown>
  10ee14: ffffffff     	<unknown>
  10ee18: ffffffff     	<unknown>
  10ee1c: ffffffff     	<unknown>
  10ee20: ffffffff     	<unknown>
  10ee24: ffffffff     	<unknown>
  10ee28: ffffffff     	<unknown>
  10ee2c: ffffffff     	<unknown>
  10ee30: ffffffff     	<unknown>
  10ee34: ffffffff     	<unknown>
  10ee38: ffffffff     	<unknown>
  10ee3c: ffffffff     	<unknown>
  10ee40: ffffffff     	<unknown>
  10ee44: ffffffff     	<unknown>
  10ee48: ffffffff     	<unknown>
  10ee4c: ffffffff     	<unknown>
  10ee50: ffffffff     	<unknown>
  10ee54: ffffffff     	<unknown>
  10ee58: ffffffff     	<unknown>
  10ee5c: ffffffff     	<unknown>
  10ee60: ffffffff     	<unknown>
  10ee64: ffffffff     	<unknown>
  10ee68: ffffffff     	<unknown>
  10ee6c: ffffffff     	<unknown>
  10ee70: ffffffff     	<unknown>
  10ee74: ffffffff     	<unknown>
  10ee78: ffffffff     	<unknown>
  10ee7c: ffffffff     	<unknown>
  10ee80: ffffffff     	<unknown>
  10ee84: ffffffff     	<unknown>
  10ee88: ffffffff     	<unknown>
  10ee8c: ffffffff     	<unknown>
  10ee90: ffffffff     	<unknown>
  10ee94: ffffffff     	<unknown>
  10ee98: ffffffff     	<unknown>
  10ee9c: ffffffff     	<unknown>
  10eea0: ffffffff     	<unknown>
  10eea4: ffffffff     	<unknown>
  10eea8: ffffffff     	<unknown>
  10eeac: ffffffff     	<unknown>
  10eeb0: ffffffff     	<unknown>
  10eeb4: ffffffff     	<unknown>
  10eeb8: ffffffff     	<unknown>
  10eebc: ffffffff     	<unknown>
  10eec0: ffffffff     	<unknown>
  10eec4: ffffffff     	<unknown>
  10eec8: ffffffff     	<unknown>
  10eecc: ffffffff     	<unknown>
  10eed0: ffffffff     	<unknown>
  10eed4: ffffffff     	<unknown>
  10eed8: ffffffff     	<unknown>
  10eedc: ffffffff     	<unknown>
  10eee0: ffffffff     	<unknown>
  10eee4: ffffffff     	<unknown>
  10eee8: ffffffff     	<unknown>
  10eeec: ffffffff     	<unknown>
  10eef0: ffffffff     	<unknown>
  10eef4: ffffffff     	<unknown>
  10eef8: ffffffff     	<unknown>
  10eefc: ffffffff     	<unknown>
  10ef00: ffffffff     	<unknown>
  10ef04: ffffffff     	<unknown>
  10ef08: ffffffff     	<unknown>
  10ef0c: ffffffff     	<unknown>
  10ef10: ffffffff     	<unknown>
  10ef14: ffffffff     	<unknown>
  10ef18: ffffffff     	<unknown>
  10ef1c: ffffffff     	<unknown>
  10ef20: ffffffff     	<unknown>
  10ef24: ffffffff     	<unknown>
  10ef28: ffffffff     	<unknown>
  10ef2c: ffffffff     	<unknown>
  10ef30: ffffffff     	<unknown>
  10ef34: ffffffff     	<unknown>
  10ef38: ffffffff     	<unknown>
  10ef3c: ffffffff     	<unknown>
  10ef40: ffffffff     	<unknown>
  10ef44: ffffffff     	<unknown>
  10ef48: ffffffff     	<unknown>
  10ef4c: ffffffff     	<unknown>
  10ef50: ffffffff     	<unknown>
  10ef54: ffffffff     	<unknown>
  10ef58: ffffffff     	<unknown>
  10ef5c: ffffffff     	<unknown>
  10ef60: ffffffff     	<unknown>
  10ef64: ffffffff     	<unknown>
  10ef68: ffffffff     	<unknown>
  10ef6c: ffffffff     	<unknown>
  10ef70: ffffffff     	<unknown>
  10ef74: ffffffff     	<unknown>
  10ef78: ffffffff     	<unknown>
  10ef7c: ffffffff     	<unknown>
  10ef80: ffffffff     	<unknown>
  10ef84: ffffffff     	<unknown>
  10ef88: ffffffff     	<unknown>
  10ef8c: ffffffff     	<unknown>
  10ef90: ffffffff     	<unknown>
  10ef94: ffffffff     	<unknown>
  10ef98: ffffffff     	<unknown>
  10ef9c: ffffffff     	<unknown>
  10efa0: ffffffff     	<unknown>
  10efa4: ffffffff     	<unknown>
  10efa8: ffffffff     	<unknown>
  10efac: ffffffff     	<unknown>
  10efb0: ffffffff     	<unknown>
  10efb4: ffffffff     	<unknown>
  10efb8: ffffffff     	<unknown>
  10efbc: ffffffff     	<unknown>
  10efc0: ffffffff     	<unknown>
  10efc4: ffffffff     	<unknown>
  10efc8: ffffffff     	<unknown>
  10efcc: ffffffff     	<unknown>
  10efd0: ffffffff     	<unknown>
  10efd4: ffffffff     	<unknown>
  10efd8: ffffffff     	<unknown>
  10efdc: ffffffff     	<unknown>
  10efe0: ffffffff     	<unknown>
  10efe4: ffffffff     	<unknown>
  10efe8: ffffffff     	<unknown>
  10efec: ffffffff     	<unknown>
  10eff0: ffffffff     	<unknown>
  10eff4: ffffffff     	<unknown>
  10eff8: ffffffff     	<unknown>
  10effc: ffffffff     	<unknown>
  10f000: ffffffff     	<unknown>
  10f004: ffffffff     	<unknown>
  10f008: ffffffff     	<unknown>
  10f00c: ffffffff     	<unknown>
  10f010: ffffffff     	<unknown>
  10f014: ffffffff     	<unknown>
  10f018: ffffffff     	<unknown>
  10f01c: ffffffff     	<unknown>
  10f020: ffffffff     	<unknown>
  10f024: ffffffff     	<unknown>
  10f028: ffffffff     	<unknown>
  10f02c: ffffffff     	<unknown>
  10f030: ffffffff     	<unknown>
  10f034: ffffffff     	<unknown>
  10f038: ffffffff     	<unknown>
  10f03c: ffffffff     	<unknown>
  10f040: ffffffff     	<unknown>
  10f044: ffffffff     	<unknown>
  10f048: ffffffff     	<unknown>
  10f04c: ffffffff     	<unknown>
  10f050: ffffffff     	<unknown>
  10f054: ffffffff     	<unknown>
  10f058: ffffffff     	<unknown>
  10f05c: ffffffff     	<unknown>
  10f060: ffffffff     	<unknown>
  10f064: ffffffff     	<unknown>
  10f068: ffffffff     	<unknown>
  10f06c: ffffffff     	<unknown>
  10f070: ffffffff     	<unknown>
  10f074: ffffffff     	<unknown>
  10f078: ffffffff     	<unknown>
  10f07c: ffffffff     	<unknown>
  10f080: ffffffff     	<unknown>
  10f084: ffffffff     	<unknown>
  10f088: ffffffff     	<unknown>
  10f08c: ffffffff     	<unknown>
  10f090: ffffffff     	<unknown>
  10f094: ffffffff     	<unknown>
  10f098: ffffffff     	<unknown>
  10f09c: ffffffff     	<unknown>
  10f0a0: ffffffff     	<unknown>
  10f0a4: ffffffff     	<unknown>
  10f0a8: ffffffff     	<unknown>
  10f0ac: ffffffff     	<unknown>
  10f0b0: ffffffff     	<unknown>
  10f0b4: ffffffff     	<unknown>
  10f0b8: ffffffff     	<unknown>
  10f0bc: ffffffff     	<unknown>
  10f0c0: ffffffff     	<unknown>
  10f0c4: ffffffff     	<unknown>
  10f0c8: ffffffff     	<unknown>
  10f0cc: ffffffff     	<unknown>
  10f0d0: ffffffff     	<unknown>
  10f0d4: ffffffff     	<unknown>
  10f0d8: ffffffff     	<unknown>
  10f0dc: ffffffff     	<unknown>
  10f0e0: ffffffff     	<unknown>
  10f0e4: ffffffff     	<unknown>
  10f0e8: ffffffff     	<unknown>
  10f0ec: ffffffff     	<unknown>
  10f0f0: ffffffff     	<unknown>
  10f0f4: ffffffff     	<unknown>
  10f0f8: ffffffff     	<unknown>
  10f0fc: ffffffff     	<unknown>
  10f100: ffffffff     	<unknown>
  10f104: ffffffff     	<unknown>
  10f108: ffffffff     	<unknown>
  10f10c: ffffffff     	<unknown>
  10f110: ffffffff     	<unknown>
  10f114: ffffffff     	<unknown>
  10f118: ffffffff     	<unknown>
  10f11c: ffffffff     	<unknown>
  10f120: ffffffff     	<unknown>
  10f124: ffffffff     	<unknown>
  10f128: ffffffff     	<unknown>
  10f12c: ffffffff     	<unknown>
  10f130: ffffffff     	<unknown>
  10f134: ffffffff     	<unknown>
  10f138: ffffffff     	<unknown>
  10f13c: ffffffff     	<unknown>
  10f140: ffffffff     	<unknown>
  10f144: ffffffff     	<unknown>
  10f148: ffffffff     	<unknown>
  10f14c: ffffffff     	<unknown>
  10f150: ffffffff     	<unknown>
  10f154: ffffffff     	<unknown>
  10f158: ffffffff     	<unknown>
  10f15c: ffffffff     	<unknown>
  10f160: ffffffff     	<unknown>
  10f164: ffffffff     	<unknown>
  10f168: ffffffff     	<unknown>
  10f16c: ffffffff     	<unknown>
  10f170: ffffffff     	<unknown>
  10f174: ffffffff     	<unknown>
  10f178: ffffffff     	<unknown>
  10f17c: ffffffff     	<unknown>
  10f180: ffffffff     	<unknown>
  10f184: ffffffff     	<unknown>
  10f188: ffffffff     	<unknown>
  10f18c: ffffffff     	<unknown>
  10f190: ffffffff     	<unknown>
  10f194: ffffffff     	<unknown>
  10f198: ffffffff     	<unknown>
  10f19c: ffffffff     	<unknown>
  10f1a0: ffffffff     	<unknown>
  10f1a4: ffffffff     	<unknown>
  10f1a8: ffffffff     	<unknown>
  10f1ac: ffffffff     	<unknown>
  10f1b0: ffffffff     	<unknown>
  10f1b4: ffffffff     	<unknown>
  10f1b8: ffffffff     	<unknown>
  10f1bc: ffffffff     	<unknown>
  10f1c0: ffffffff     	<unknown>
  10f1c4: ffffffff     	<unknown>
  10f1c8: ffffffff     	<unknown>
  10f1cc: ffffffff     	<unknown>
  10f1d0: ffffffff     	<unknown>
  10f1d4: ffffffff     	<unknown>
  10f1d8: ffffffff     	<unknown>
  10f1dc: ffffffff     	<unknown>
  10f1e0: ffffffff     	<unknown>
  10f1e4: ffffffff     	<unknown>
  10f1e8: ffffffff     	<unknown>
  10f1ec: ffffffff     	<unknown>
  10f1f0: ffffffff     	<unknown>
  10f1f4: ffffffff     	<unknown>
  10f1f8: ffffffff     	<unknown>
  10f1fc: ffffffff     	<unknown>
  10f200: ffffffff     	<unknown>
  10f204: ffffffff     	<unknown>
  10f208: ffffffff     	<unknown>
  10f20c: ffffffff     	<unknown>
  10f210: ffffffff     	<unknown>
  10f214: ffffffff     	<unknown>
  10f218: ffffffff     	<unknown>
  10f21c: ffffffff     	<unknown>
  10f220: ffffffff     	<unknown>
  10f224: ffffffff     	<unknown>
  10f228: ffffffff     	<unknown>
  10f22c: ffffffff     	<unknown>
  10f230: ffffffff     	<unknown>
  10f234: ffffffff     	<unknown>
  10f238: ffffffff     	<unknown>
  10f23c: ffffffff     	<unknown>
  10f240: ffffffff     	<unknown>
  10f244: ffffffff     	<unknown>
  10f248: ffffffff     	<unknown>
  10f24c: ffffffff     	<unknown>
  10f250: ffffffff     	<unknown>
  10f254: ffffffff     	<unknown>
  10f258: ffffffff     	<unknown>
  10f25c: ffffffff     	<unknown>
  10f260: ffffffff     	<unknown>
  10f264: ffffffff     	<unknown>
  10f268: ffffffff     	<unknown>
  10f26c: ffffffff     	<unknown>
  10f270: ffffffff     	<unknown>
  10f274: ffffffff     	<unknown>
  10f278: ffffffff     	<unknown>
  10f27c: ffffffff     	<unknown>
  10f280: ffffffff     	<unknown>
  10f284: ffffffff     	<unknown>
  10f288: ffffffff     	<unknown>
  10f28c: ffffffff     	<unknown>
  10f290: ffffffff     	<unknown>
  10f294: ffffffff     	<unknown>
  10f298: ffffffff     	<unknown>
  10f29c: ffffffff     	<unknown>
  10f2a0: ffffffff     	<unknown>
  10f2a4: ffffffff     	<unknown>
  10f2a8: ffffffff     	<unknown>
  10f2ac: ffffffff     	<unknown>
  10f2b0: ffffffff     	<unknown>
  10f2b4: ffffffff     	<unknown>
  10f2b8: ffffffff     	<unknown>
  10f2bc: ffffffff     	<unknown>
  10f2c0: ffffffff     	<unknown>
  10f2c4: ffffffff     	<unknown>
  10f2c8: ffffffff     	<unknown>
  10f2cc: ffffffff     	<unknown>
  10f2d0: ffffffff     	<unknown>
  10f2d4: ffffffff     	<unknown>
  10f2d8: ffffffff     	<unknown>
  10f2dc: ffffffff     	<unknown>
  10f2e0: ffffffff     	<unknown>
  10f2e4: ffffffff     	<unknown>
  10f2e8: ffffffff     	<unknown>
  10f2ec: ffffffff     	<unknown>
  10f2f0: ffffffff     	<unknown>
  10f2f4: ffffffff     	<unknown>
  10f2f8: ffffffff     	<unknown>
  10f2fc: ffffffff     	<unknown>
  10f300: ffffffff     	<unknown>
  10f304: ffffffff     	<unknown>
  10f308: ffffffff     	<unknown>
  10f30c: ffffffff     	<unknown>
  10f310: ffffffff     	<unknown>
  10f314: ffffffff     	<unknown>
  10f318: ffffffff     	<unknown>
  10f31c: ffffffff     	<unknown>
  10f320: ffffffff     	<unknown>
  10f324: ffffffff     	<unknown>
  10f328: ffffffff     	<unknown>
  10f32c: ffffffff     	<unknown>
  10f330: ffffffff     	<unknown>
  10f334: ffffffff     	<unknown>
  10f338: ffffffff     	<unknown>
  10f33c: ffffffff     	<unknown>
  10f340: ffffffff     	<unknown>
  10f344: ffffffff     	<unknown>
  10f348: ffffffff     	<unknown>
  10f34c: ffffffff     	<unknown>
  10f350: ffffffff     	<unknown>
  10f354: ffffffff     	<unknown>
  10f358: ffffffff     	<unknown>
  10f35c: ffffffff     	<unknown>
  10f360: ffffffff     	<unknown>
  10f364: ffffffff     	<unknown>
  10f368: ffffffff     	<unknown>
  10f36c: ffffffff     	<unknown>
  10f370: ffffffff     	<unknown>
  10f374: ffffffff     	<unknown>
  10f378: ffffffff     	<unknown>
  10f37c: ffffffff     	<unknown>
  10f380: ffffffff     	<unknown>
  10f384: ffffffff     	<unknown>
  10f388: ffffffff     	<unknown>
  10f38c: ffffffff     	<unknown>
  10f390: ffffffff     	<unknown>
  10f394: ffffffff     	<unknown>
  10f398: ffffffff     	<unknown>
  10f39c: ffffffff     	<unknown>
  10f3a0: ffffffff     	<unknown>
  10f3a4: ffffffff     	<unknown>
  10f3a8: ffffffff     	<unknown>
  10f3ac: ffffffff     	<unknown>
  10f3b0: ffffffff     	<unknown>
  10f3b4: ffffffff     	<unknown>
  10f3b8: ffffffff     	<unknown>
  10f3bc: ffffffff     	<unknown>
  10f3c0: ffffffff     	<unknown>
  10f3c4: ffffffff     	<unknown>
  10f3c8: ffffffff     	<unknown>
  10f3cc: ffffffff     	<unknown>
  10f3d0: ffffffff     	<unknown>
  10f3d4: ffffffff     	<unknown>
  10f3d8: ffffffff     	<unknown>
  10f3dc: ffffffff     	<unknown>
  10f3e0: ffffffff     	<unknown>
  10f3e4: ffffffff     	<unknown>
  10f3e8: ffffffff     	<unknown>
  10f3ec: ffffffff     	<unknown>
  10f3f0: ffffffff     	<unknown>
  10f3f4: ffffffff     	<unknown>
  10f3f8: ffffffff     	<unknown>
  10f3fc: ffffffff     	<unknown>
  10f400: ffffffff     	<unknown>
  10f404: ffffffff     	<unknown>
  10f408: ffffffff     	<unknown>
  10f40c: ffffffff     	<unknown>
  10f410: ffffffff     	<unknown>
  10f414: ffffffff     	<unknown>
  10f418: ffffffff     	<unknown>
  10f41c: ffffffff     	<unknown>
  10f420: ffffffff     	<unknown>
  10f424: ffffffff     	<unknown>
  10f428: ffffffff     	<unknown>
  10f42c: ffffffff     	<unknown>
  10f430: ffffffff     	<unknown>
  10f434: ffffffff     	<unknown>
  10f438: ffffffff     	<unknown>
  10f43c: ffffffff     	<unknown>
  10f440: ffffffff     	<unknown>
  10f444: ffffffff     	<unknown>
  10f448: ffffffff     	<unknown>
  10f44c: ffffffff     	<unknown>
  10f450: ffffffff     	<unknown>
  10f454: ffffffff     	<unknown>
  10f458: ffffffff     	<unknown>
  10f45c: ffffffff     	<unknown>
  10f460: ffffffff     	<unknown>
  10f464: ffffffff     	<unknown>
  10f468: ffffffff     	<unknown>
  10f46c: ffffffff     	<unknown>
  10f470: ffffffff     	<unknown>
  10f474: ffffffff     	<unknown>
  10f478: ffffffff     	<unknown>
  10f47c: ffffffff     	<unknown>
  10f480: ffffffff     	<unknown>
  10f484: ffffffff     	<unknown>
  10f488: ffffffff     	<unknown>
  10f48c: ffffffff     	<unknown>
  10f490: ffffffff     	<unknown>
  10f494: ffffffff     	<unknown>
  10f498: ffffffff     	<unknown>
  10f49c: ffffffff     	<unknown>
  10f4a0: ffffffff     	<unknown>
  10f4a4: ffffffff     	<unknown>
  10f4a8: ffffffff     	<unknown>
  10f4ac: ffffffff     	<unknown>
  10f4b0: ffffffff     	<unknown>
  10f4b4: ffffffff     	<unknown>
  10f4b8: ffffffff     	<unknown>
  10f4bc: ffffffff     	<unknown>
  10f4c0: ffffffff     	<unknown>
  10f4c4: ffffffff     	<unknown>
  10f4c8: ffffffff     	<unknown>
  10f4cc: ffffffff     	<unknown>
  10f4d0: ffffffff     	<unknown>
  10f4d4: ffffffff     	<unknown>
  10f4d8: ffffffff     	<unknown>
  10f4dc: ffffffff     	<unknown>
  10f4e0: ffffffff     	<unknown>
  10f4e4: ffffffff     	<unknown>
  10f4e8: ffffffff     	<unknown>
  10f4ec: ffffffff     	<unknown>
  10f4f0: ffffffff     	<unknown>
  10f4f4: ffffffff     	<unknown>
  10f4f8: ffffffff     	<unknown>
  10f4fc: ffffffff     	<unknown>
  10f500: ffffffff     	<unknown>
  10f504: ffffffff     	<unknown>
  10f508: ffffffff     	<unknown>
  10f50c: ffffffff     	<unknown>
  10f510: ffffffff     	<unknown>
  10f514: ffffffff     	<unknown>
  10f518: ffffffff     	<unknown>
  10f51c: ffffffff     	<unknown>
  10f520: ffffffff     	<unknown>
  10f524: ffffffff     	<unknown>
  10f528: ffffffff     	<unknown>
  10f52c: ffffffff     	<unknown>
  10f530: ffffffff     	<unknown>
  10f534: ffffffff     	<unknown>
  10f538: ffffffff     	<unknown>
  10f53c: ffffffff     	<unknown>
  10f540: ffffffff     	<unknown>
  10f544: ffffffff     	<unknown>
  10f548: ffffffff     	<unknown>
  10f54c: ffffffff     	<unknown>
  10f550: ffffffff     	<unknown>
  10f554: ffffffff     	<unknown>
  10f558: ffffffff     	<unknown>
  10f55c: ffffffff     	<unknown>
  10f560: ffffffff     	<unknown>
  10f564: ffffffff     	<unknown>
  10f568: ffffffff     	<unknown>
  10f56c: ffffffff     	<unknown>
  10f570: ffffffff     	<unknown>
  10f574: ffffffff     	<unknown>
  10f578: ffffffff     	<unknown>
  10f57c: ffffffff     	<unknown>
  10f580: ffffffff     	<unknown>
  10f584: ffffffff     	<unknown>
  10f588: ffffffff     	<unknown>
  10f58c: ffffffff     	<unknown>
  10f590: ffffffff     	<unknown>
  10f594: ffffffff     	<unknown>
  10f598: ffffffff     	<unknown>
  10f59c: ffffffff     	<unknown>
  10f5a0: ffffffff     	<unknown>
  10f5a4: ffffffff     	<unknown>
  10f5a8: ffffffff     	<unknown>
  10f5ac: ffffffff     	<unknown>
  10f5b0: ffffffff     	<unknown>
  10f5b4: ffffffff     	<unknown>
  10f5b8: ffffffff     	<unknown>
  10f5bc: ffffffff     	<unknown>
  10f5c0: ffffffff     	<unknown>
  10f5c4: ffffffff     	<unknown>
  10f5c8: ffffffff     	<unknown>
  10f5cc: ffffffff     	<unknown>
  10f5d0: ffffffff     	<unknown>
  10f5d4: ffffffff     	<unknown>
  10f5d8: ffffffff     	<unknown>
  10f5dc: ffffffff     	<unknown>
  10f5e0: ffffffff     	<unknown>
  10f5e4: ffffffff     	<unknown>
  10f5e8: ffffffff     	<unknown>
  10f5ec: ffffffff     	<unknown>
  10f5f0: ffffffff     	<unknown>
  10f5f4: ffffffff     	<unknown>
  10f5f8: ffffffff     	<unknown>
  10f5fc: ffffffff     	<unknown>
  10f600: ffffffff     	<unknown>
  10f604: ffffffff     	<unknown>
  10f608: ffffffff     	<unknown>
  10f60c: ffffffff     	<unknown>
  10f610: ffffffff     	<unknown>
  10f614: ffffffff     	<unknown>
  10f618: ffffffff     	<unknown>
  10f61c: ffffffff     	<unknown>
  10f620: ffffffff     	<unknown>
  10f624: ffffffff     	<unknown>
  10f628: ffffffff     	<unknown>
  10f62c: ffffffff     	<unknown>
  10f630: ffffffff     	<unknown>
  10f634: ffffffff     	<unknown>
  10f638: ffffffff     	<unknown>
  10f63c: ffffffff     	<unknown>
  10f640: ffffffff     	<unknown>
  10f644: ffffffff     	<unknown>
  10f648: ffffffff     	<unknown>
  10f64c: ffffffff     	<unknown>
  10f650: ffffffff     	<unknown>
  10f654: ffffffff     	<unknown>
  10f658: ffffffff     	<unknown>
  10f65c: ffffffff     	<unknown>
  10f660: ffffffff     	<unknown>
  10f664: ffffffff     	<unknown>
  10f668: ffffffff     	<unknown>
  10f66c: ffffffff     	<unknown>
  10f670: ffffffff     	<unknown>
  10f674: ffffffff     	<unknown>
  10f678: ffffffff     	<unknown>
  10f67c: ffffffff     	<unknown>
  10f680: ffffffff     	<unknown>
  10f684: ffffffff     	<unknown>
  10f688: ffffffff     	<unknown>
  10f68c: ffffffff     	<unknown>
  10f690: ffffffff     	<unknown>
  10f694: ffffffff     	<unknown>
  10f698: ffffffff     	<unknown>
  10f69c: ffffffff     	<unknown>
  10f6a0: ffffffff     	<unknown>
  10f6a4: ffffffff     	<unknown>
  10f6a8: ffffffff     	<unknown>
  10f6ac: ffffffff     	<unknown>
  10f6b0: ffffffff     	<unknown>
  10f6b4: ffffffff     	<unknown>
  10f6b8: ffffffff     	<unknown>
  10f6bc: ffffffff     	<unknown>
  10f6c0: ffffffff     	<unknown>
  10f6c4: ffffffff     	<unknown>
  10f6c8: ffffffff     	<unknown>
  10f6cc: ffffffff     	<unknown>
  10f6d0: ffffffff     	<unknown>
  10f6d4: ffffffff     	<unknown>
  10f6d8: ffffffff     	<unknown>
  10f6dc: ffffffff     	<unknown>
  10f6e0: ffffffff     	<unknown>
  10f6e4: ffffffff     	<unknown>
  10f6e8: ffffffff     	<unknown>
  10f6ec: ffffffff     	<unknown>
  10f6f0: ffffffff     	<unknown>
  10f6f4: ffffffff     	<unknown>
  10f6f8: ffffffff     	<unknown>
  10f6fc: ffffffff     	<unknown>
  10f700: ffffffff     	<unknown>
  10f704: ffffffff     	<unknown>
  10f708: ffffffff     	<unknown>
  10f70c: ffffffff     	<unknown>
  10f710: ffffffff     	<unknown>
  10f714: ffffffff     	<unknown>
  10f718: ffffffff     	<unknown>
  10f71c: ffffffff     	<unknown>
  10f720: ffffffff     	<unknown>
  10f724: ffffffff     	<unknown>
  10f728: ffffffff     	<unknown>
  10f72c: ffffffff     	<unknown>
  10f730: ffffffff     	<unknown>
  10f734: ffffffff     	<unknown>
  10f738: ffffffff     	<unknown>
  10f73c: ffffffff     	<unknown>
  10f740: ffffffff     	<unknown>
  10f744: ffffffff     	<unknown>
  10f748: ffffffff     	<unknown>
  10f74c: ffffffff     	<unknown>
  10f750: ffffffff     	<unknown>
  10f754: ffffffff     	<unknown>
  10f758: ffffffff     	<unknown>
  10f75c: ffffffff     	<unknown>
  10f760: ffffffff     	<unknown>
  10f764: ffffffff     	<unknown>
  10f768: ffffffff     	<unknown>
  10f76c: ffffffff     	<unknown>
  10f770: ffffffff     	<unknown>
  10f774: ffffffff     	<unknown>
  10f778: ffffffff     	<unknown>
  10f77c: ffffffff     	<unknown>
  10f780: ffffffff     	<unknown>
  10f784: ffffffff     	<unknown>
  10f788: ffffffff     	<unknown>
  10f78c: ffffffff     	<unknown>
  10f790: ffffffff     	<unknown>
  10f794: ffffffff     	<unknown>
  10f798: ffffffff     	<unknown>
  10f79c: ffffffff     	<unknown>
  10f7a0: ffffffff     	<unknown>
  10f7a4: ffffffff     	<unknown>
  10f7a8: ffffffff     	<unknown>
  10f7ac: ffffffff     	<unknown>
  10f7b0: ffffffff     	<unknown>
  10f7b4: ffffffff     	<unknown>
  10f7b8: ffffffff     	<unknown>
  10f7bc: ffffffff     	<unknown>
  10f7c0: ffffffff     	<unknown>
  10f7c4: ffffffff     	<unknown>
  10f7c8: ffffffff     	<unknown>
  10f7cc: ffffffff     	<unknown>
  10f7d0: ffffffff     	<unknown>
  10f7d4: ffffffff     	<unknown>
  10f7d8: ffffffff     	<unknown>
  10f7dc: ffffffff     	<unknown>
  10f7e0: ffffffff     	<unknown>
  10f7e4: ffffffff     	<unknown>
  10f7e8: ffffffff     	<unknown>
  10f7ec: ffffffff     	<unknown>
  10f7f0: ffffffff     	<unknown>
  10f7f4: ffffffff     	<unknown>
  10f7f8: ffffffff     	<unknown>
  10f7fc: ffffffff     	<unknown>
  10f800: ffffffff     	<unknown>
  10f804: ffffffff     	<unknown>
  10f808: ffffffff     	<unknown>
  10f80c: ffffffff     	<unknown>
  10f810: ffffffff     	<unknown>
  10f814: ffffffff     	<unknown>
  10f818: ffffffff     	<unknown>
  10f81c: ffffffff     	<unknown>
  10f820: ffffffff     	<unknown>
  10f824: ffffffff     	<unknown>
  10f828: ffffffff     	<unknown>
  10f82c: ffffffff     	<unknown>
  10f830: ffffffff     	<unknown>
  10f834: ffffffff     	<unknown>
  10f838: ffffffff     	<unknown>
  10f83c: ffffffff     	<unknown>
  10f840: ffffffff     	<unknown>
  10f844: ffffffff     	<unknown>
  10f848: ffffffff     	<unknown>
  10f84c: ffffffff     	<unknown>
  10f850: ffffffff     	<unknown>
  10f854: ffffffff     	<unknown>
  10f858: ffffffff     	<unknown>
  10f85c: ffffffff     	<unknown>
  10f860: ffffffff     	<unknown>
  10f864: ffffffff     	<unknown>
  10f868: ffffffff     	<unknown>
  10f86c: ffffffff     	<unknown>
  10f870: ffffffff     	<unknown>
  10f874: ffffffff     	<unknown>
  10f878: ffffffff     	<unknown>
  10f87c: ffffffff     	<unknown>
  10f880: ffffffff     	<unknown>
  10f884: ffffffff     	<unknown>
  10f888: ffffffff     	<unknown>
  10f88c: ffffffff     	<unknown>
  10f890: ffffffff     	<unknown>
  10f894: ffffffff     	<unknown>
  10f898: ffffffff     	<unknown>
  10f89c: ffffffff     	<unknown>
  10f8a0: ffffffff     	<unknown>
  10f8a4: ffffffff     	<unknown>
  10f8a8: ffffffff     	<unknown>
  10f8ac: ffffffff     	<unknown>
  10f8b0: ffffffff     	<unknown>
  10f8b4: ffffffff     	<unknown>
  10f8b8: ffffffff     	<unknown>
  10f8bc: ffffffff     	<unknown>
  10f8c0: ffffffff     	<unknown>
  10f8c4: ffffffff     	<unknown>
  10f8c8: ffffffff     	<unknown>
  10f8cc: ffffffff     	<unknown>
  10f8d0: ffffffff     	<unknown>
  10f8d4: ffffffff     	<unknown>
  10f8d8: ffffffff     	<unknown>
  10f8dc: ffffffff     	<unknown>
  10f8e0: ffffffff     	<unknown>
  10f8e4: ffffffff     	<unknown>
  10f8e8: ffffffff     	<unknown>
  10f8ec: ffffffff     	<unknown>
  10f8f0: ffffffff     	<unknown>
  10f8f4: ffffffff     	<unknown>
  10f8f8: ffffffff     	<unknown>
  10f8fc: ffffffff     	<unknown>
  10f900: ffffffff     	<unknown>
  10f904: ffffffff     	<unknown>
  10f908: ffffffff     	<unknown>
  10f90c: ffffffff     	<unknown>
  10f910: ffffffff     	<unknown>
  10f914: ffffffff     	<unknown>
  10f918: ffffffff     	<unknown>
  10f91c: ffffffff     	<unknown>
  10f920: ffffffff     	<unknown>
  10f924: ffffffff     	<unknown>
  10f928: ffffffff     	<unknown>
  10f92c: ffffffff     	<unknown>
  10f930: ffffffff     	<unknown>
  10f934: ffffffff     	<unknown>
  10f938: ffffffff     	<unknown>
  10f93c: ffffffff     	<unknown>
  10f940: ffffffff     	<unknown>
  10f944: ffffffff     	<unknown>
  10f948: ffffffff     	<unknown>
  10f94c: ffffffff     	<unknown>
  10f950: ffffffff     	<unknown>
  10f954: ffffffff     	<unknown>
  10f958: ffffffff     	<unknown>
  10f95c: ffffffff     	<unknown>
  10f960: ffffffff     	<unknown>
  10f964: ffffffff     	<unknown>
  10f968: ffffffff     	<unknown>
  10f96c: ffffffff     	<unknown>
  10f970: ffffffff     	<unknown>
  10f974: ffffffff     	<unknown>
  10f978: ffffffff     	<unknown>
  10f97c: ffffffff     	<unknown>
  10f980: ffffffff     	<unknown>
  10f984: ffffffff     	<unknown>
  10f988: ffffffff     	<unknown>
  10f98c: ffffffff     	<unknown>
  10f990: ffffffff     	<unknown>
  10f994: ffffffff     	<unknown>
  10f998: ffffffff     	<unknown>
  10f99c: ffffffff     	<unknown>
  10f9a0: ffffffff     	<unknown>
  10f9a4: ffffffff     	<unknown>
  10f9a8: ffffffff     	<unknown>
  10f9ac: ffffffff     	<unknown>
  10f9b0: ffffffff     	<unknown>
  10f9b4: ffffffff     	<unknown>
  10f9b8: ffffffff     	<unknown>
  10f9bc: ffffffff     	<unknown>
  10f9c0: ffffffff     	<unknown>
  10f9c4: ffffffff     	<unknown>
  10f9c8: ffffffff     	<unknown>
  10f9cc: ffffffff     	<unknown>
  10f9d0: ffffffff     	<unknown>
  10f9d4: ffffffff     	<unknown>
  10f9d8: ffffffff     	<unknown>
  10f9dc: ffffffff     	<unknown>
  10f9e0: ffffffff     	<unknown>
  10f9e4: ffffffff     	<unknown>
  10f9e8: ffffffff     	<unknown>
  10f9ec: ffffffff     	<unknown>
  10f9f0: ffffffff     	<unknown>
  10f9f4: ffffffff     	<unknown>
  10f9f8: ffffffff     	<unknown>
  10f9fc: ffffffff     	<unknown>
  10fa00: ffffffff     	<unknown>
  10fa04: ffffffff     	<unknown>
  10fa08: ffffffff     	<unknown>
  10fa0c: ffffffff     	<unknown>
  10fa10: ffffffff     	<unknown>
  10fa14: ffffffff     	<unknown>
  10fa18: ffffffff     	<unknown>
  10fa1c: ffffffff     	<unknown>
  10fa20: ffffffff     	<unknown>
  10fa24: ffffffff     	<unknown>
  10fa28: ffffffff     	<unknown>
  10fa2c: ffffffff     	<unknown>
  10fa30: ffffffff     	<unknown>
  10fa34: ffffffff     	<unknown>
  10fa38: ffffffff     	<unknown>
  10fa3c: ffffffff     	<unknown>
  10fa40: ffffffff     	<unknown>
  10fa44: ffffffff     	<unknown>
  10fa48: ffffffff     	<unknown>
  10fa4c: ffffffff     	<unknown>
  10fa50: ffffffff     	<unknown>
  10fa54: ffffffff     	<unknown>
  10fa58: ffffffff     	<unknown>
  10fa5c: ffffffff     	<unknown>
  10fa60: ffffffff     	<unknown>
  10fa64: ffffffff     	<unknown>
  10fa68: ffffffff     	<unknown>
  10fa6c: ffffffff     	<unknown>
  10fa70: ffffffff     	<unknown>
  10fa74: ffffffff     	<unknown>
  10fa78: ffffffff     	<unknown>
  10fa7c: ffffffff     	<unknown>
  10fa80: ffffffff     	<unknown>
  10fa84: ffffffff     	<unknown>
  10fa88: ffffffff     	<unknown>
  10fa8c: ffffffff     	<unknown>
  10fa90: ffffffff     	<unknown>
  10fa94: ffffffff     	<unknown>
  10fa98: ffffffff     	<unknown>
  10fa9c: ffffffff     	<unknown>
  10faa0: ffffffff     	<unknown>
  10faa4: ffffffff     	<unknown>
  10faa8: ffffffff     	<unknown>
  10faac: ffffffff     	<unknown>
  10fab0: ffffffff     	<unknown>
  10fab4: ffffffff     	<unknown>
  10fab8: ffffffff     	<unknown>
  10fabc: ffffffff     	<unknown>
  10fac0: ffffffff     	<unknown>
  10fac4: ffffffff     	<unknown>
  10fac8: ffffffff     	<unknown>
  10facc: ffffffff     	<unknown>
  10fad0: ffffffff     	<unknown>
  10fad4: ffffffff     	<unknown>
  10fad8: ffffffff     	<unknown>
  10fadc: ffffffff     	<unknown>
  10fae0: ffffffff     	<unknown>
  10fae4: ffffffff     	<unknown>
  10fae8: ffffffff     	<unknown>
  10faec: ffffffff     	<unknown>
  10faf0: ffffffff     	<unknown>
  10faf4: ffffffff     	<unknown>
  10faf8: ffffffff     	<unknown>
  10fafc: ffffffff     	<unknown>
  10fb00: ffffffff     	<unknown>
  10fb04: ffffffff     	<unknown>
  10fb08: ffffffff     	<unknown>
  10fb0c: ffffffff     	<unknown>
  10fb10: ffffffff     	<unknown>
  10fb14: ffffffff     	<unknown>
  10fb18: ffffffff     	<unknown>
  10fb1c: ffffffff     	<unknown>
  10fb20: ffffffff     	<unknown>
  10fb24: ffffffff     	<unknown>
  10fb28: ffffffff     	<unknown>
  10fb2c: ffffffff     	<unknown>
  10fb30: ffffffff     	<unknown>
  10fb34: ffffffff     	<unknown>
  10fb38: ffffffff     	<unknown>
  10fb3c: ffffffff     	<unknown>
  10fb40: ffffffff     	<unknown>
  10fb44: ffffffff     	<unknown>
  10fb48: ffffffff     	<unknown>
  10fb4c: ffffffff     	<unknown>
  10fb50: ffffffff     	<unknown>
  10fb54: ffffffff     	<unknown>
  10fb58: ffffffff     	<unknown>
  10fb5c: ffffffff     	<unknown>
  10fb60: ffffffff     	<unknown>
  10fb64: ffffffff     	<unknown>
  10fb68: ffffffff     	<unknown>
  10fb6c: ffffffff     	<unknown>
  10fb70: ffffffff     	<unknown>
  10fb74: ffffffff     	<unknown>
  10fb78: ffffffff     	<unknown>
  10fb7c: ffffffff     	<unknown>
  10fb80: ffffffff     	<unknown>
  10fb84: ffffffff     	<unknown>
  10fb88: ffffffff     	<unknown>
  10fb8c: ffffffff     	<unknown>
  10fb90: ffffffff     	<unknown>
  10fb94: ffffffff     	<unknown>
  10fb98: ffffffff     	<unknown>
  10fb9c: ffffffff     	<unknown>
  10fba0: ffffffff     	<unknown>
  10fba4: ffffffff     	<unknown>
  10fba8: ffffffff     	<unknown>
  10fbac: ffffffff     	<unknown>
  10fbb0: ffffffff     	<unknown>
  10fbb4: ffffffff     	<unknown>
  10fbb8: ffffffff     	<unknown>
  10fbbc: ffffffff     	<unknown>
  10fbc0: ffffffff     	<unknown>
  10fbc4: ffffffff     	<unknown>
  10fbc8: ffffffff     	<unknown>
  10fbcc: ffffffff     	<unknown>
  10fbd0: ffffffff     	<unknown>
  10fbd4: ffffffff     	<unknown>
  10fbd8: ffffffff     	<unknown>
  10fbdc: ffffffff     	<unknown>
  10fbe0: ffffffff     	<unknown>
  10fbe4: ffffffff     	<unknown>
  10fbe8: ffffffff     	<unknown>
  10fbec: ffffffff     	<unknown>
  10fbf0: ffffffff     	<unknown>
  10fbf4: ffffffff     	<unknown>
  10fbf8: ffffffff     	<unknown>
  10fbfc: ffffffff     	<unknown>
  10fc00: ffffffff     	<unknown>
  10fc04: ffffffff     	<unknown>
  10fc08: ffffffff     	<unknown>
  10fc0c: ffffffff     	<unknown>
  10fc10: ffffffff     	<unknown>
  10fc14: ffffffff     	<unknown>
  10fc18: ffffffff     	<unknown>
  10fc1c: ffffffff     	<unknown>
  10fc20: ffffffff     	<unknown>
  10fc24: ffffffff     	<unknown>
  10fc28: ffffffff     	<unknown>
  10fc2c: ffffffff     	<unknown>
  10fc30: ffffffff     	<unknown>
  10fc34: ffffffff     	<unknown>
  10fc38: ffffffff     	<unknown>
  10fc3c: ffffffff     	<unknown>
  10fc40: ffffffff     	<unknown>
  10fc44: ffffffff     	<unknown>
  10fc48: ffffffff     	<unknown>
  10fc4c: ffffffff     	<unknown>
  10fc50: ffffffff     	<unknown>
  10fc54: ffffffff     	<unknown>
  10fc58: ffffffff     	<unknown>
  10fc5c: ffffffff     	<unknown>
  10fc60: ffffffff     	<unknown>
  10fc64: ffffffff     	<unknown>
  10fc68: ffffffff     	<unknown>
  10fc6c: ffffffff     	<unknown>
  10fc70: ffffffff     	<unknown>
  10fc74: ffffffff     	<unknown>
  10fc78: ffffffff     	<unknown>
  10fc7c: ffffffff     	<unknown>
  10fc80: ffffffff     	<unknown>
  10fc84: ffffffff     	<unknown>
  10fc88: ffffffff     	<unknown>
  10fc8c: ffffffff     	<unknown>
  10fc90: ffffffff     	<unknown>
  10fc94: ffffffff     	<unknown>
  10fc98: ffffffff     	<unknown>
  10fc9c: ffffffff     	<unknown>
  10fca0: ffffffff     	<unknown>
  10fca4: ffffffff     	<unknown>
  10fca8: ffffffff     	<unknown>
  10fcac: ffffffff     	<unknown>
  10fcb0: ffffffff     	<unknown>
  10fcb4: ffffffff     	<unknown>
  10fcb8: ffffffff     	<unknown>
  10fcbc: ffffffff     	<unknown>
  10fcc0: ffffffff     	<unknown>
  10fcc4: ffffffff     	<unknown>
  10fcc8: ffffffff     	<unknown>
  10fccc: ffffffff     	<unknown>
  10fcd0: ffffffff     	<unknown>
  10fcd4: ffffffff     	<unknown>
  10fcd8: ffffffff     	<unknown>
  10fcdc: ffffffff     	<unknown>
  10fce0: ffffffff     	<unknown>
  10fce4: ffffffff     	<unknown>
  10fce8: ffffffff     	<unknown>
  10fcec: ffffffff     	<unknown>
  10fcf0: ffffffff     	<unknown>
  10fcf4: ffffffff     	<unknown>
  10fcf8: ffffffff     	<unknown>
  10fcfc: ffffffff     	<unknown>
  10fd00: ffffffff     	<unknown>
  10fd04: ffffffff     	<unknown>
  10fd08: ffffffff     	<unknown>
  10fd0c: ffffffff     	<unknown>
  10fd10: ffffffff     	<unknown>
  10fd14: ffffffff     	<unknown>
  10fd18: ffffffff     	<unknown>
  10fd1c: ffffffff     	<unknown>
  10fd20: ffffffff     	<unknown>
  10fd24: ffffffff     	<unknown>
  10fd28: ffffffff     	<unknown>
  10fd2c: ffffffff     	<unknown>
  10fd30: ffffffff     	<unknown>
  10fd34: ffffffff     	<unknown>
  10fd38: ffffffff     	<unknown>
  10fd3c: ffffffff     	<unknown>
  10fd40: ffffffff     	<unknown>
  10fd44: ffffffff     	<unknown>
  10fd48: ffffffff     	<unknown>
  10fd4c: ffffffff     	<unknown>
  10fd50: ffffffff     	<unknown>
  10fd54: ffffffff     	<unknown>
  10fd58: ffffffff     	<unknown>
  10fd5c: ffffffff     	<unknown>
  10fd60: ffffffff     	<unknown>
  10fd64: ffffffff     	<unknown>
  10fd68: ffffffff     	<unknown>
  10fd6c: ffffffff     	<unknown>
  10fd70: ffffffff     	<unknown>
  10fd74: ffffffff     	<unknown>
  10fd78: ffffffff     	<unknown>
  10fd7c: ffffffff     	<unknown>
  10fd80: ffffffff     	<unknown>
  10fd84: ffffffff     	<unknown>
  10fd88: ffffffff     	<unknown>
  10fd8c: ffffffff     	<unknown>
  10fd90: ffffffff     	<unknown>
  10fd94: ffffffff     	<unknown>
  10fd98: ffffffff     	<unknown>
  10fd9c: ffffffff     	<unknown>
  10fda0: ffffffff     	<unknown>
  10fda4: ffffffff     	<unknown>
  10fda8: ffffffff     	<unknown>
  10fdac: ffffffff     	<unknown>
  10fdb0: ffffffff     	<unknown>
  10fdb4: ffffffff     	<unknown>
  10fdb8: ffffffff     	<unknown>
  10fdbc: ffffffff     	<unknown>
  10fdc0: ffffffff     	<unknown>
  10fdc4: ffffffff     	<unknown>
  10fdc8: ffffffff     	<unknown>
  10fdcc: ffffffff     	<unknown>
  10fdd0: ffffffff     	<unknown>
  10fdd4: ffffffff     	<unknown>
  10fdd8: ffffffff     	<unknown>
  10fddc: ffffffff     	<unknown>
  10fde0: ffffffff     	<unknown>
  10fde4: ffffffff     	<unknown>
  10fde8: ffffffff     	<unknown>
  10fdec: ffffffff     	<unknown>
  10fdf0: ffffffff     	<unknown>
  10fdf4: ffffffff     	<unknown>
  10fdf8: ffffffff     	<unknown>
  10fdfc: ffffffff     	<unknown>
  10fe00: ffffffff     	<unknown>
  10fe04: ffffffff     	<unknown>
  10fe08: ffffffff     	<unknown>
  10fe0c: ffffffff     	<unknown>
  10fe10: ffffffff     	<unknown>
  10fe14: ffffffff     	<unknown>
  10fe18: ffffffff     	<unknown>
  10fe1c: ffffffff     	<unknown>
  10fe20: ffffffff     	<unknown>
  10fe24: ffffffff     	<unknown>
  10fe28: ffffffff     	<unknown>
  10fe2c: ffffffff     	<unknown>
  10fe30: ffffffff     	<unknown>
  10fe34: ffffffff     	<unknown>
  10fe38: ffffffff     	<unknown>
  10fe3c: ffffffff     	<unknown>
  10fe40: ffffffff     	<unknown>
  10fe44: ffffffff     	<unknown>
  10fe48: ffffffff     	<unknown>
  10fe4c: ffffffff     	<unknown>
  10fe50: ffffffff     	<unknown>
  10fe54: ffffffff     	<unknown>
  10fe58: ffffffff     	<unknown>
  10fe5c: ffffffff     	<unknown>
  10fe60: ffffffff     	<unknown>
  10fe64: ffffffff     	<unknown>
  10fe68: ffffffff     	<unknown>
  10fe6c: ffffffff     	<unknown>
  10fe70: ffffffff     	<unknown>
  10fe74: ffffffff     	<unknown>
  10fe78: ffffffff     	<unknown>
  10fe7c: ffffffff     	<unknown>
  10fe80: ffffffff     	<unknown>
  10fe84: ffffffff     	<unknown>
  10fe88: ffffffff     	<unknown>
  10fe8c: ffffffff     	<unknown>
  10fe90: ffffffff     	<unknown>
  10fe94: ffffffff     	<unknown>
  10fe98: ffffffff     	<unknown>
  10fe9c: ffffffff     	<unknown>
  10fea0: ffffffff     	<unknown>
  10fea4: ffffffff     	<unknown>
  10fea8: ffffffff     	<unknown>
  10feac: ffffffff     	<unknown>
  10feb0: ffffffff     	<unknown>
  10feb4: ffffffff     	<unknown>
  10feb8: ffffffff     	<unknown>
  10febc: ffffffff     	<unknown>
  10fec0: ffffffff     	<unknown>
  10fec4: ffffffff     	<unknown>
  10fec8: ffffffff     	<unknown>
  10fecc: ffffffff     	<unknown>
  10fed0: ffffffff     	<unknown>
  10fed4: ffffffff     	<unknown>
  10fed8: ffffffff     	<unknown>
  10fedc: ffffffff     	<unknown>
  10fee0: ffffffff     	<unknown>
  10fee4: ffffffff     	<unknown>
  10fee8: ffffffff     	<unknown>
  10feec: ffffffff     	<unknown>
  10fef0: ffffffff     	<unknown>
  10fef4: ffffffff     	<unknown>
  10fef8: ffffffff     	<unknown>
  10fefc: ffffffff     	<unknown>
  10ff00: ffffffff     	<unknown>
  10ff04: ffffffff     	<unknown>
  10ff08: ffffffff     	<unknown>
  10ff0c: ffffffff     	<unknown>
  10ff10: ffffffff     	<unknown>
  10ff14: ffffffff     	<unknown>
  10ff18: ffffffff     	<unknown>
  10ff1c: ffffffff     	<unknown>
  10ff20: ffffffff     	<unknown>
  10ff24: ffffffff     	<unknown>
  10ff28: ffffffff     	<unknown>
  10ff2c: ffffffff     	<unknown>
  10ff30: ffffffff     	<unknown>
  10ff34: ffffffff     	<unknown>
  10ff38: ffffffff     	<unknown>
  10ff3c: ffffffff     	<unknown>
  10ff40: ffffffff     	<unknown>
  10ff44: ffffffff     	<unknown>
  10ff48: ffffffff     	<unknown>
  10ff4c: ffffffff     	<unknown>
  10ff50: ffffffff     	<unknown>
  10ff54: ffffffff     	<unknown>
  10ff58: ffffffff     	<unknown>
  10ff5c: ffffffff     	<unknown>
  10ff60: ffffffff     	<unknown>
  10ff64: ffffffff     	<unknown>
  10ff68: ffffffff     	<unknown>
  10ff6c: ffffffff     	<unknown>
  10ff70: ffffffff     	<unknown>
  10ff74: ffffffff     	<unknown>
  10ff78: ffffffff     	<unknown>
  10ff7c: ffffffff     	<unknown>
  10ff80: ffffffff     	<unknown>
  10ff84: ffffffff     	<unknown>
  10ff88: ffffffff     	<unknown>
  10ff8c: ffffffff     	<unknown>
  10ff90: ffffffff     	<unknown>
  10ff94: ffffffff     	<unknown>
  10ff98: ffffffff     	<unknown>
  10ff9c: ffffffff     	<unknown>
  10ffa0: ffffffff     	<unknown>
  10ffa4: ffffffff     	<unknown>
  10ffa8: ffffffff     	<unknown>
  10ffac: ffffffff     	<unknown>
  10ffb0: ffffffff     	<unknown>
  10ffb4: ffffffff     	<unknown>
  10ffb8: ffffffff     	<unknown>
  10ffbc: ffffffff     	<unknown>
  10ffc0: ffffffff     	<unknown>
  10ffc4: ffffffff     	<unknown>
  10ffc8: ffffffff     	<unknown>
  10ffcc: ffffffff     	<unknown>
  10ffd0: ffffffff     	<unknown>
  10ffd4: ffffffff     	<unknown>
  10ffd8: ffffffff     	<unknown>
  10ffdc: ffffffff     	<unknown>
  10ffe0: ffffffff     	<unknown>
  10ffe4: ffffffff     	<unknown>
  10ffe8: ffffffff     	<unknown>
  10ffec: ffffffff     	<unknown>
  10fff0: ffffffff     	<unknown>
  10fff4: ffffffff     	<unknown>
  10fff8: ffffffff     	<unknown>
  10fffc: ffffffff     	<unknown>
  110000: ffffffff     	<unknown>
  110004: ffffffff     	<unknown>
  110008: ffffffff     	<unknown>
  11000c: ffffffff     	<unknown>
  110010: ffffffff     	<unknown>
  110014: ffffffff     	<unknown>
  110018: ffffffff     	<unknown>
  11001c: ffffffff     	<unknown>
  110020: ffffffff     	<unknown>
  110024: ffffffff     	<unknown>
  110028: ffffffff     	<unknown>
  11002c: ffffffff     	<unknown>
  110030: ffffffff     	<unknown>
  110034: ffffffff     	<unknown>
  110038: ffffffff     	<unknown>
  11003c: ffffffff     	<unknown>
  110040: ffffffff     	<unknown>
  110044: ffffffff     	<unknown>
  110048: ffffffff     	<unknown>
  11004c: ffffffff     	<unknown>
  110050: ffffffff     	<unknown>
  110054: ffffffff     	<unknown>
  110058: ffffffff     	<unknown>
  11005c: ffffffff     	<unknown>
  110060: ffffffff     	<unknown>
  110064: ffffffff     	<unknown>
  110068: ffffffff     	<unknown>
  11006c: ffffffff     	<unknown>
  110070: ffffffff     	<unknown>
  110074: ffffffff     	<unknown>
  110078: ffffffff     	<unknown>
  11007c: ffffffff     	<unknown>
  110080: ffffffff     	<unknown>
  110084: ffffffff     	<unknown>
  110088: ffffffff     	<unknown>
  11008c: ffffffff     	<unknown>
  110090: ffffffff     	<unknown>
  110094: ffffffff     	<unknown>
  110098: ffffffff     	<unknown>
  11009c: ffffffff     	<unknown>
  1100a0: ffffffff     	<unknown>
  1100a4: ffffffff     	<unknown>
  1100a8: ffffffff     	<unknown>
  1100ac: ffffffff     	<unknown>
  1100b0: ffffffff     	<unknown>
  1100b4: ffffffff     	<unknown>
  1100b8: ffffffff     	<unknown>
  1100bc: ffffffff     	<unknown>
  1100c0: ffffffff     	<unknown>
  1100c4: ffffffff     	<unknown>
  1100c8: ffffffff     	<unknown>
  1100cc: ffffffff     	<unknown>
  1100d0: ffffffff     	<unknown>
  1100d4: ffffffff     	<unknown>
  1100d8: ffffffff     	<unknown>
  1100dc: ffffffff     	<unknown>
  1100e0: ffffffff     	<unknown>
  1100e4: ffffffff     	<unknown>
  1100e8: ffffffff     	<unknown>
  1100ec: ffffffff     	<unknown>
  1100f0: ffffffff     	<unknown>
  1100f4: ffffffff     	<unknown>
  1100f8: ffffffff     	<unknown>
  1100fc: ffffffff     	<unknown>
  110100: ffffffff     	<unknown>
  110104: ffffffff     	<unknown>
  110108: ffffffff     	<unknown>
  11010c: ffffffff     	<unknown>
  110110: ffffffff     	<unknown>
  110114: ffffffff     	<unknown>
  110118: ffffffff     	<unknown>
  11011c: ffffffff     	<unknown>
  110120: ffffffff     	<unknown>
  110124: ffffffff     	<unknown>
  110128: ffffffff     	<unknown>
  11012c: ffffffff     	<unknown>
  110130: ffffffff     	<unknown>
  110134: ffffffff     	<unknown>
  110138: ffffffff     	<unknown>
  11013c: ffffffff     	<unknown>
  110140: ffffffff     	<unknown>
  110144: ffffffff     	<unknown>
  110148: ffffffff     	<unknown>
  11014c: ffffffff     	<unknown>
  110150: ffffffff     	<unknown>
  110154: ffffffff     	<unknown>
  110158: ffffffff     	<unknown>
  11015c: ffffffff     	<unknown>
  110160: ffffffff     	<unknown>
  110164: ffffffff     	<unknown>
  110168: ffffffff     	<unknown>
  11016c: ffffffff     	<unknown>
  110170: ffffffff     	<unknown>
  110174: ffffffff     	<unknown>
  110178: ffffffff     	<unknown>
  11017c: ffffffff     	<unknown>
  110180: ffffffff     	<unknown>
  110184: ffffffff     	<unknown>
  110188: ffffffff     	<unknown>
  11018c: ffffffff     	<unknown>
  110190: ffffffff     	<unknown>
  110194: ffffffff     	<unknown>
  110198: ffffffff     	<unknown>
  11019c: ffffffff     	<unknown>
  1101a0: ffffffff     	<unknown>
  1101a4: ffffffff     	<unknown>
  1101a8: ffffffff     	<unknown>
  1101ac: ffffffff     	<unknown>
  1101b0: ffffffff     	<unknown>
  1101b4: ffffffff     	<unknown>
  1101b8: ffffffff     	<unknown>
  1101bc: ffffffff     	<unknown>
  1101c0: ffffffff     	<unknown>
  1101c4: ffffffff     	<unknown>
  1101c8: ffffffff     	<unknown>
  1101cc: ffffffff     	<unknown>
  1101d0: ffffffff     	<unknown>
  1101d4: ffffffff     	<unknown>
  1101d8: ffffffff     	<unknown>
  1101dc: ffffffff     	<unknown>
  1101e0: ffffffff     	<unknown>
  1101e4: ffffffff     	<unknown>
  1101e8: ffffffff     	<unknown>
  1101ec: ffffffff     	<unknown>
  1101f0: ffffffff     	<unknown>
  1101f4: ffffffff     	<unknown>
  1101f8: ffffffff     	<unknown>
  1101fc: ffffffff     	<unknown>
  110200: ffffffff     	<unknown>
  110204: ffffffff     	<unknown>
  110208: ffffffff     	<unknown>
  11020c: ffffffff     	<unknown>
  110210: ffffffff     	<unknown>
  110214: ffffffff     	<unknown>
  110218: ffffffff     	<unknown>
  11021c: ffffffff     	<unknown>
  110220: ffffffff     	<unknown>
  110224: ffffffff     	<unknown>
  110228: ffffffff     	<unknown>
  11022c: ffffffff     	<unknown>
  110230: ffffffff     	<unknown>
  110234: ffffffff     	<unknown>
  110238: ffffffff     	<unknown>
  11023c: ffffffff     	<unknown>
  110240: ffffffff     	<unknown>
  110244: ffffffff     	<unknown>
  110248: ffffffff     	<unknown>
  11024c: ffffffff     	<unknown>
  110250: ffffffff     	<unknown>
  110254: ffffffff     	<unknown>
  110258: ffffffff     	<unknown>
  11025c: ffffffff     	<unknown>
  110260: ffffffff     	<unknown>
  110264: ffffffff     	<unknown>
  110268: ffffffff     	<unknown>
  11026c: ffffffff     	<unknown>
  110270: ffffffff     	<unknown>
  110274: ffffffff     	<unknown>
  110278: ffffffff     	<unknown>
  11027c: ffffffff     	<unknown>
  110280: ffffffff     	<unknown>
  110284: ffffffff     	<unknown>
  110288: ffffffff     	<unknown>
  11028c: ffffffff     	<unknown>
  110290: ffffffff     	<unknown>
  110294: ffffffff     	<unknown>
  110298: ffffffff     	<unknown>
  11029c: ffffffff     	<unknown>
  1102a0: ffffffff     	<unknown>
  1102a4: ffffffff     	<unknown>
  1102a8: ffffffff     	<unknown>
  1102ac: ffffffff     	<unknown>
  1102b0: ffffffff     	<unknown>
  1102b4: ffffffff     	<unknown>
  1102b8: ffffffff     	<unknown>
  1102bc: ffffffff     	<unknown>
  1102c0: ffffffff     	<unknown>
  1102c4: ffffffff     	<unknown>
  1102c8: ffffffff     	<unknown>
  1102cc: ffffffff     	<unknown>
  1102d0: ffffffff     	<unknown>
  1102d4: ffffffff     	<unknown>
  1102d8: ffffffff     	<unknown>
  1102dc: ffffffff     	<unknown>
  1102e0: ffffffff     	<unknown>
  1102e4: ffffffff     	<unknown>
  1102e8: ffffffff     	<unknown>
  1102ec: ffffffff     	<unknown>
  1102f0: ffffffff     	<unknown>
  1102f4: ffffffff     	<unknown>
  1102f8: ffffffff     	<unknown>
  1102fc: ffffffff     	<unknown>
  110300: ffffffff     	<unknown>
  110304: ffffffff     	<unknown>
  110308: ffffffff     	<unknown>
  11030c: ffffffff     	<unknown>
  110310: ffffffff     	<unknown>
  110314: ffffffff     	<unknown>
  110318: ffffffff     	<unknown>
  11031c: ffffffff     	<unknown>
  110320: ffffffff     	<unknown>
  110324: ffffffff     	<unknown>
  110328: ffffffff     	<unknown>
  11032c: ffffffff     	<unknown>
  110330: ffffffff     	<unknown>
  110334: ffffffff     	<unknown>
  110338: ffffffff     	<unknown>
  11033c: ffffffff     	<unknown>
  110340: ffffffff     	<unknown>
  110344: ffffffff     	<unknown>
  110348: ffffffff     	<unknown>
  11034c: ffffffff     	<unknown>
  110350: ffffffff     	<unknown>
  110354: ffffffff     	<unknown>
  110358: ffffffff     	<unknown>
  11035c: ffffffff     	<unknown>
  110360: ffffffff     	<unknown>
  110364: ffffffff     	<unknown>
  110368: ffffffff     	<unknown>
  11036c: ffffffff     	<unknown>
  110370: ffffffff     	<unknown>
  110374: ffffffff     	<unknown>
  110378: ffffffff     	<unknown>
  11037c: ffffffff     	<unknown>
  110380: ffffffff     	<unknown>
  110384: ffffffff     	<unknown>
  110388: ffffffff     	<unknown>
  11038c: ffffffff     	<unknown>
  110390: ffffffff     	<unknown>
  110394: ffffffff     	<unknown>
  110398: ffffffff     	<unknown>
  11039c: ffffffff     	<unknown>
  1103a0: ffffffff     	<unknown>
  1103a4: ffffffff     	<unknown>
  1103a8: ffffffff     	<unknown>
  1103ac: ffffffff     	<unknown>
  1103b0: ffffffff     	<unknown>
  1103b4: ffffffff     	<unknown>
  1103b8: ffffffff     	<unknown>
  1103bc: ffffffff     	<unknown>
  1103c0: ffffffff     	<unknown>
  1103c4: ffffffff     	<unknown>
  1103c8: ffffffff     	<unknown>
  1103cc: ffffffff     	<unknown>
  1103d0: ffffffff     	<unknown>
  1103d4: ffffffff     	<unknown>
  1103d8: ffffffff     	<unknown>
  1103dc: ffffffff     	<unknown>
  1103e0: ffffffff     	<unknown>
  1103e4: ffffffff     	<unknown>
  1103e8: ffffffff     	<unknown>
  1103ec: ffffffff     	<unknown>
  1103f0: ffffffff     	<unknown>
  1103f4: ffffffff     	<unknown>
  1103f8: ffffffff     	<unknown>
  1103fc: ffffffff     	<unknown>
  110400: ffffffff     	<unknown>
  110404: ffffffff     	<unknown>
  110408: ffffffff     	<unknown>
  11040c: ffffffff     	<unknown>
  110410: ffffffff     	<unknown>
  110414: ffffffff     	<unknown>
  110418: ffffffff     	<unknown>
  11041c: ffffffff     	<unknown>
  110420: ffffffff     	<unknown>
  110424: ffffffff     	<unknown>
  110428: ffffffff     	<unknown>
  11042c: ffffffff     	<unknown>
  110430: ffffffff     	<unknown>
  110434: ffffffff     	<unknown>
  110438: ffffffff     	<unknown>
  11043c: ffffffff     	<unknown>
  110440: ffffffff     	<unknown>
  110444: ffffffff     	<unknown>
  110448: ffffffff     	<unknown>
  11044c: ffffffff     	<unknown>
  110450: ffffffff     	<unknown>
  110454: ffffffff     	<unknown>
  110458: ffffffff     	<unknown>
  11045c: ffffffff     	<unknown>
  110460: ffffffff     	<unknown>
  110464: ffffffff     	<unknown>
  110468: ffffffff     	<unknown>
  11046c: ffffffff     	<unknown>
  110470: ffffffff     	<unknown>
  110474: ffffffff     	<unknown>
  110478: ffffffff     	<unknown>
  11047c: ffffffff     	<unknown>
  110480: ffffffff     	<unknown>
  110484: ffffffff     	<unknown>
  110488: ffffffff     	<unknown>
  11048c: ffffffff     	<unknown>
  110490: ffffffff     	<unknown>
  110494: ffffffff     	<unknown>
  110498: ffffffff     	<unknown>
  11049c: ffffffff     	<unknown>
  1104a0: ffffffff     	<unknown>
  1104a4: ffffffff     	<unknown>
  1104a8: ffffffff     	<unknown>
  1104ac: ffffffff     	<unknown>
  1104b0: ffffffff     	<unknown>
  1104b4: ffffffff     	<unknown>
  1104b8: ffffffff     	<unknown>
  1104bc: ffffffff     	<unknown>
  1104c0: ffffffff     	<unknown>
  1104c4: ffffffff     	<unknown>
  1104c8: ffffffff     	<unknown>
  1104cc: ffffffff     	<unknown>
  1104d0: ffffffff     	<unknown>
  1104d4: ffffffff     	<unknown>
  1104d8: ffffffff     	<unknown>
  1104dc: ffffffff     	<unknown>
  1104e0: ffffffff     	<unknown>
  1104e4: ffffffff     	<unknown>
  1104e8: ffffffff     	<unknown>
  1104ec: ffffffff     	<unknown>
  1104f0: ffffffff     	<unknown>
  1104f4: ffffffff     	<unknown>
  1104f8: ffffffff     	<unknown>
  1104fc: ffffffff     	<unknown>
  110500: ffffffff     	<unknown>
  110504: ffffffff     	<unknown>
  110508: ffffffff     	<unknown>
  11050c: ffffffff     	<unknown>
  110510: ffffffff     	<unknown>
  110514: ffffffff     	<unknown>
  110518: ffffffff     	<unknown>
  11051c: ffffffff     	<unknown>
  110520: ffffffff     	<unknown>
  110524: ffffffff     	<unknown>
  110528: ffffffff     	<unknown>
  11052c: ffffffff     	<unknown>
  110530: ffffffff     	<unknown>
  110534: ffffffff     	<unknown>
  110538: ffffffff     	<unknown>
  11053c: ffffffff     	<unknown>
  110540: ffffffff     	<unknown>
  110544: ffffffff     	<unknown>
  110548: ffffffff     	<unknown>
  11054c: ffffffff     	<unknown>
  110550: ffffffff     	<unknown>
  110554: ffffffff     	<unknown>
  110558: ffffffff     	<unknown>
  11055c: ffffffff     	<unknown>
  110560: ffffffff     	<unknown>
  110564: ffffffff     	<unknown>
  110568: ffffffff     	<unknown>
  11056c: ffffffff     	<unknown>
  110570: ffffffff     	<unknown>
  110574: ffffffff     	<unknown>
  110578: ffffffff     	<unknown>
  11057c: ffffffff     	<unknown>
  110580: ffffffff     	<unknown>
  110584: ffffffff     	<unknown>
  110588: ffffffff     	<unknown>
  11058c: ffffffff     	<unknown>
  110590: ffffffff     	<unknown>
  110594: ffffffff     	<unknown>
  110598: ffffffff     	<unknown>
  11059c: ffffffff     	<unknown>
  1105a0: ffffffff     	<unknown>
  1105a4: ffffffff     	<unknown>
  1105a8: ffffffff     	<unknown>
  1105ac: ffffffff     	<unknown>
  1105b0: ffffffff     	<unknown>
  1105b4: ffffffff     	<unknown>
  1105b8: ffffffff     	<unknown>
  1105bc: ffffffff     	<unknown>
  1105c0: ffffffff     	<unknown>
  1105c4: ffffffff     	<unknown>
  1105c8: ffffffff     	<unknown>
  1105cc: ffffffff     	<unknown>
  1105d0: ffffffff     	<unknown>
  1105d4: ffffffff     	<unknown>
  1105d8: ffffffff     	<unknown>
  1105dc: ffffffff     	<unknown>
  1105e0: ffffffff     	<unknown>
  1105e4: ffffffff     	<unknown>
  1105e8: ffffffff     	<unknown>
  1105ec: ffffffff     	<unknown>
  1105f0: ffffffff     	<unknown>
  1105f4: ffffffff     	<unknown>
  1105f8: ffffffff     	<unknown>
  1105fc: ffffffff     	<unknown>
  110600: ffffffff     	<unknown>
  110604: ffffffff     	<unknown>
  110608: ffffffff     	<unknown>
  11060c: ffffffff     	<unknown>
  110610: ffffffff     	<unknown>
  110614: ffffffff     	<unknown>
  110618: ffffffff     	<unknown>
  11061c: ffffffff     	<unknown>
  110620: ffffffff     	<unknown>
  110624: ffffffff     	<unknown>
  110628: ffffffff     	<unknown>
  11062c: ffffffff     	<unknown>
  110630: ffffffff     	<unknown>
  110634: ffffffff     	<unknown>
  110638: ffffffff     	<unknown>
  11063c: ffffffff     	<unknown>
  110640: ffffffff     	<unknown>
  110644: ffffffff     	<unknown>
  110648: ffffffff     	<unknown>
  11064c: ffffffff     	<unknown>
  110650: ffffffff     	<unknown>
  110654: ffffffff     	<unknown>
  110658: ffffffff     	<unknown>
  11065c: ffffffff     	<unknown>
  110660: ffffffff     	<unknown>
  110664: ffffffff     	<unknown>
  110668: ffffffff     	<unknown>
  11066c: ffffffff     	<unknown>
  110670: ffffffff     	<unknown>
  110674: ffffffff     	<unknown>
  110678: ffffffff     	<unknown>
  11067c: ffffffff     	<unknown>
  110680: ffffffff     	<unknown>
  110684: ffffffff     	<unknown>
  110688: ffffffff     	<unknown>
  11068c: ffffffff     	<unknown>
  110690: ffffffff     	<unknown>
  110694: ffffffff     	<unknown>
  110698: ffffffff     	<unknown>
  11069c: ffffffff     	<unknown>
  1106a0: ffffffff     	<unknown>
  1106a4: ffffffff     	<unknown>
  1106a8: ffffffff     	<unknown>
  1106ac: ffffffff     	<unknown>
  1106b0: ffffffff     	<unknown>
  1106b4: ffffffff     	<unknown>
  1106b8: ffffffff     	<unknown>
  1106bc: ffffffff     	<unknown>
  1106c0: ffffffff     	<unknown>
  1106c4: ffffffff     	<unknown>
  1106c8: ffffffff     	<unknown>
  1106cc: ffffffff     	<unknown>
  1106d0: ffffffff     	<unknown>
  1106d4: ffffffff     	<unknown>
  1106d8: ffffffff     	<unknown>
  1106dc: ffffffff     	<unknown>
  1106e0: ffffffff     	<unknown>
  1106e4: ffffffff     	<unknown>
  1106e8: ffffffff     	<unknown>
  1106ec: ffffffff     	<unknown>
  1106f0: ffffffff     	<unknown>
  1106f4: ffffffff     	<unknown>
  1106f8: ffffffff     	<unknown>
  1106fc: ffffffff     	<unknown>
  110700: ffffffff     	<unknown>
  110704: ffffffff     	<unknown>
  110708: ffffffff     	<unknown>
  11070c: ffffffff     	<unknown>
  110710: ffffffff     	<unknown>
  110714: ffffffff     	<unknown>
  110718: ffffffff     	<unknown>
  11071c: ffffffff     	<unknown>
  110720: ffffffff     	<unknown>
  110724: ffffffff     	<unknown>
  110728: ffffffff     	<unknown>
  11072c: ffffffff     	<unknown>
  110730: ffffffff     	<unknown>
  110734: ffffffff     	<unknown>
  110738: ffffffff     	<unknown>
  11073c: ffffffff     	<unknown>
  110740: ffffffff     	<unknown>
  110744: ffffffff     	<unknown>
  110748: ffffffff     	<unknown>
  11074c: ffffffff     	<unknown>
  110750: ffffffff     	<unknown>
  110754: ffffffff     	<unknown>
  110758: ffffffff     	<unknown>
  11075c: ffffffff     	<unknown>
  110760: ffffffff     	<unknown>
  110764: ffffffff     	<unknown>
  110768: ffffffff     	<unknown>
  11076c: ffffffff     	<unknown>
  110770: ffffffff     	<unknown>
  110774: ffffffff     	<unknown>
  110778: ffffffff     	<unknown>
  11077c: ffffffff     	<unknown>
  110780: ffffffff     	<unknown>
  110784: ffffffff     	<unknown>
  110788: ffffffff     	<unknown>
  11078c: ffffffff     	<unknown>
  110790: ffffffff     	<unknown>
  110794: ffffffff     	<unknown>
  110798: ffffffff     	<unknown>
  11079c: ffffffff     	<unknown>
  1107a0: ffffffff     	<unknown>
  1107a4: ffffffff     	<unknown>
  1107a8: ffffffff     	<unknown>
  1107ac: ffffffff     	<unknown>
  1107b0: ffffffff     	<unknown>
  1107b4: ffffffff     	<unknown>
  1107b8: ffffffff     	<unknown>
  1107bc: ffffffff     	<unknown>
  1107c0: ffffffff     	<unknown>
  1107c4: ffffffff     	<unknown>
  1107c8: ffffffff     	<unknown>
  1107cc: ffffffff     	<unknown>
  1107d0: ffffffff     	<unknown>
  1107d4: ffffffff     	<unknown>
  1107d8: ffffffff     	<unknown>
  1107dc: ffffffff     	<unknown>
  1107e0: ffffffff     	<unknown>
  1107e4: ffffffff     	<unknown>
  1107e8: ffffffff     	<unknown>
  1107ec: ffffffff     	<unknown>
  1107f0: ffffffff     	<unknown>
  1107f4: ffffffff     	<unknown>
  1107f8: ffffffff     	<unknown>
  1107fc: ffffffff     	<unknown>
  110800: ffffffff     	<unknown>
  110804: ffffffff     	<unknown>
  110808: ffffffff     	<unknown>
  11080c: ffffffff     	<unknown>
  110810: ffffffff     	<unknown>
  110814: ffffffff     	<unknown>
  110818: ffffffff     	<unknown>
  11081c: ffffffff     	<unknown>
  110820: ffffffff     	<unknown>
  110824: ffffffff     	<unknown>
  110828: ffffffff     	<unknown>
  11082c: ffffffff     	<unknown>
  110830: ffffffff     	<unknown>
  110834: ffffffff     	<unknown>
  110838: ffffffff     	<unknown>
  11083c: ffffffff     	<unknown>
  110840: ffffffff     	<unknown>
  110844: ffffffff     	<unknown>
  110848: ffffffff     	<unknown>
  11084c: ffffffff     	<unknown>
  110850: ffffffff     	<unknown>
  110854: ffffffff     	<unknown>
  110858: ffffffff     	<unknown>
  11085c: ffffffff     	<unknown>
  110860: ffffffff     	<unknown>
  110864: ffffffff     	<unknown>
  110868: ffffffff     	<unknown>
  11086c: ffffffff     	<unknown>
  110870: ffffffff     	<unknown>
  110874: ffffffff     	<unknown>
  110878: ffffffff     	<unknown>
  11087c: ffffffff     	<unknown>
  110880: ffffffff     	<unknown>
  110884: ffffffff     	<unknown>
  110888: ffffffff     	<unknown>
  11088c: ffffffff     	<unknown>
  110890: ffffffff     	<unknown>
  110894: ffffffff     	<unknown>
  110898: ffffffff     	<unknown>
  11089c: ffffffff     	<unknown>
  1108a0: ffffffff     	<unknown>
  1108a4: ffffffff     	<unknown>
  1108a8: ffffffff     	<unknown>
  1108ac: ffffffff     	<unknown>
  1108b0: ffffffff     	<unknown>
  1108b4: ffffffff     	<unknown>
  1108b8: ffffffff     	<unknown>
  1108bc: ffffffff     	<unknown>
  1108c0: ffffffff     	<unknown>
  1108c4: ffffffff     	<unknown>
  1108c8: ffffffff     	<unknown>
  1108cc: ffffffff     	<unknown>
  1108d0: ffffffff     	<unknown>
  1108d4: ffffffff     	<unknown>
  1108d8: ffffffff     	<unknown>
  1108dc: ffffffff     	<unknown>
  1108e0: ffffffff     	<unknown>
  1108e4: ffffffff     	<unknown>
  1108e8: ffffffff     	<unknown>
  1108ec: ffffffff     	<unknown>
  1108f0: ffffffff     	<unknown>
  1108f4: ffffffff     	<unknown>
  1108f8: ffffffff     	<unknown>
  1108fc: ffffffff     	<unknown>
  110900: ffffffff     	<unknown>
  110904: ffffffff     	<unknown>
  110908: ffffffff     	<unknown>
  11090c: ffffffff     	<unknown>
  110910: ffffffff     	<unknown>
  110914: ffffffff     	<unknown>
  110918: ffffffff     	<unknown>
  11091c: ffffffff     	<unknown>
  110920: ffffffff     	<unknown>
  110924: ffffffff     	<unknown>
  110928: ffffffff     	<unknown>
  11092c: ffffffff     	<unknown>
  110930: ffffffff     	<unknown>
  110934: ffffffff     	<unknown>
  110938: ffffffff     	<unknown>
  11093c: ffffffff     	<unknown>
  110940: ffffffff     	<unknown>
  110944: ffffffff     	<unknown>
  110948: ffffffff     	<unknown>
  11094c: ffffffff     	<unknown>
  110950: ffffffff     	<unknown>
  110954: ffffffff     	<unknown>
  110958: ffffffff     	<unknown>
  11095c: ffffffff     	<unknown>
  110960: ffffffff     	<unknown>
  110964: ffffffff     	<unknown>
  110968: ffffffff     	<unknown>
  11096c: ffffffff     	<unknown>
  110970: ffffffff     	<unknown>
  110974: ffffffff     	<unknown>
  110978: ffffffff     	<unknown>
  11097c: ffffffff     	<unknown>
  110980: ffffffff     	<unknown>
  110984: ffffffff     	<unknown>
  110988: ffffffff     	<unknown>
  11098c: ffffffff     	<unknown>
  110990: ffffffff     	<unknown>
  110994: ffffffff     	<unknown>
  110998: ffffffff     	<unknown>
  11099c: ffffffff     	<unknown>
  1109a0: ffffffff     	<unknown>
  1109a4: ffffffff     	<unknown>
  1109a8: ffffffff     	<unknown>
  1109ac: ffffffff     	<unknown>
  1109b0: ffffffff     	<unknown>
  1109b4: ffffffff     	<unknown>
  1109b8: ffffffff     	<unknown>
  1109bc: ffffffff     	<unknown>
  1109c0: ffffffff     	<unknown>
  1109c4: ffffffff     	<unknown>
  1109c8: ffffffff     	<unknown>
  1109cc: ffffffff     	<unknown>
  1109d0: ffffffff     	<unknown>
  1109d4: ffffffff     	<unknown>
  1109d8: ffffffff     	<unknown>
  1109dc: ffffffff     	<unknown>
  1109e0: ffffffff     	<unknown>
  1109e4: ffffffff     	<unknown>
  1109e8: ffffffff     	<unknown>
  1109ec: ffffffff     	<unknown>
  1109f0: ffffffff     	<unknown>
  1109f4: ffffffff     	<unknown>
  1109f8: ffffffff     	<unknown>
  1109fc: ffffffff     	<unknown>
  110a00: ffffffff     	<unknown>
  110a04: ffffffff     	<unknown>
  110a08: ffffffff     	<unknown>
  110a0c: ffffffff     	<unknown>
  110a10: ffffffff     	<unknown>
  110a14: ffffffff     	<unknown>
  110a18: ffffffff     	<unknown>
  110a1c: ffffffff     	<unknown>
  110a20: ffffffff     	<unknown>
  110a24: ffffffff     	<unknown>
  110a28: ffffffff     	<unknown>
  110a2c: ffffffff     	<unknown>
  110a30: ffffffff     	<unknown>
  110a34: ffffffff     	<unknown>
  110a38: ffffffff     	<unknown>
  110a3c: ffffffff     	<unknown>
  110a40: ffffffff     	<unknown>
  110a44: ffffffff     	<unknown>
  110a48: ffffffff     	<unknown>
  110a4c: ffffffff     	<unknown>
  110a50: ffffffff     	<unknown>
  110a54: ffffffff     	<unknown>
  110a58: ffffffff     	<unknown>
  110a5c: ffffffff     	<unknown>
  110a60: ffffffff     	<unknown>
  110a64: ffffffff     	<unknown>
  110a68: ffffffff     	<unknown>
  110a6c: ffffffff     	<unknown>
  110a70: ffffffff     	<unknown>
  110a74: ffffffff     	<unknown>
  110a78: ffffffff     	<unknown>
  110a7c: ffffffff     	<unknown>
  110a80: ffffffff     	<unknown>
  110a84: ffffffff     	<unknown>
  110a88: ffffffff     	<unknown>
  110a8c: ffffffff     	<unknown>
  110a90: ffffffff     	<unknown>
  110a94: ffffffff     	<unknown>
  110a98: ffffffff     	<unknown>
  110a9c: ffffffff     	<unknown>
  110aa0: ffffffff     	<unknown>
  110aa4: ffffffff     	<unknown>
  110aa8: ffffffff     	<unknown>
  110aac: ffffffff     	<unknown>
  110ab0: ffffffff     	<unknown>
  110ab4: ffffffff     	<unknown>
  110ab8: ffffffff     	<unknown>
  110abc: ffffffff     	<unknown>
  110ac0: ffffffff     	<unknown>
  110ac4: ffffffff     	<unknown>
  110ac8: ffffffff     	<unknown>
  110acc: ffffffff     	<unknown>
  110ad0: ffffffff     	<unknown>
  110ad4: ffffffff     	<unknown>
  110ad8: ffffffff     	<unknown>
  110adc: ffffffff     	<unknown>
  110ae0: ffffffff     	<unknown>
  110ae4: ffffffff     	<unknown>
  110ae8: ffffffff     	<unknown>
  110aec: ffffffff     	<unknown>
  110af0: ffffffff     	<unknown>
  110af4: ffffffff     	<unknown>
  110af8: ffffffff     	<unknown>
  110afc: ffffffff     	<unknown>
  110b00: ffffffff     	<unknown>
  110b04: ffffffff     	<unknown>
  110b08: ffffffff     	<unknown>
  110b0c: ffffffff     	<unknown>
  110b10: ffffffff     	<unknown>
  110b14: ffffffff     	<unknown>
  110b18: ffffffff     	<unknown>
  110b1c: ffffffff     	<unknown>
  110b20: ffffffff     	<unknown>
  110b24: ffffffff     	<unknown>
  110b28: ffffffff     	<unknown>
  110b2c: ffffffff     	<unknown>
  110b30: ffffffff     	<unknown>
  110b34: ffffffff     	<unknown>
  110b38: ffffffff     	<unknown>
  110b3c: ffffffff     	<unknown>
  110b40: ffffffff     	<unknown>
  110b44: ffffffff     	<unknown>
  110b48: ffffffff     	<unknown>
  110b4c: ffffffff     	<unknown>
  110b50: ffffffff     	<unknown>
  110b54: ffffffff     	<unknown>
  110b58: ffffffff     	<unknown>
  110b5c: ffffffff     	<unknown>
  110b60: ffffffff     	<unknown>
  110b64: ffffffff     	<unknown>
  110b68: ffffffff     	<unknown>
  110b6c: ffffffff     	<unknown>
  110b70: ffffffff     	<unknown>
  110b74: ffffffff     	<unknown>
  110b78: ffffffff     	<unknown>
  110b7c: ffffffff     	<unknown>
  110b80: ffffffff     	<unknown>
  110b84: ffffffff     	<unknown>
  110b88: ffffffff     	<unknown>
  110b8c: ffffffff     	<unknown>
  110b90: ffffffff     	<unknown>
  110b94: ffffffff     	<unknown>
  110b98: ffffffff     	<unknown>
  110b9c: ffffffff     	<unknown>
  110ba0: ffffffff     	<unknown>
  110ba4: ffffffff     	<unknown>
  110ba8: ffffffff     	<unknown>
  110bac: ffffffff     	<unknown>
  110bb0: ffffffff     	<unknown>
  110bb4: ffffffff     	<unknown>
  110bb8: ffffffff     	<unknown>
  110bbc: ffffffff     	<unknown>
  110bc0: ffffffff     	<unknown>
  110bc4: ffffffff     	<unknown>
  110bc8: ffffffff     	<unknown>
  110bcc: ffffffff     	<unknown>
  110bd0: ffffffff     	<unknown>
  110bd4: ffffffff     	<unknown>
  110bd8: ffffffff     	<unknown>
  110bdc: ffffffff     	<unknown>
  110be0: ffffffff     	<unknown>
  110be4: ffffffff     	<unknown>
  110be8: ffffffff     	<unknown>
  110bec: ffffffff     	<unknown>
  110bf0: ffffffff     	<unknown>
  110bf4: ffffffff     	<unknown>
  110bf8: ffffffff     	<unknown>
  110bfc: ffffffff     	<unknown>
  110c00: 018cba80     	<unknown>
  110c04: 000f4240     	<unknown>
  110c08: 02000112     	<unknown>
  110c0c: 40000000     	<unknown>
  110c10: 4d001782     	st1	{ v2.b }[13], [x28]
  110c14: 00000202     	udf	#0x202
  110c18: 00000100     	udf	#0x100
  110c1c: 00200209     	<unknown>
  110c20: c0000101     	mov	za0h.b[w12, 1], p0/m, z8.b
  110c24: 00040932     	<unknown>
  110c28: 00ff0200     	<unknown>
  110c2c: 05070000     	<unknown>
  110c30: 02000285     	<unknown>
  110c34: 06050700     	<unknown>
  110c38: 00020002     	<unknown>
  110c3c: 0200060a     	<unknown>
  110c40: 40000000     	<unknown>
  110c44: 00000001     	udf	#0x1
  110c48: 00107e4c     	<unknown>
  110c4c: 00000000     	udf	#0x0
  110c50: 00107dbc     	<unknown>
		...
  1116fc: ffffffff     	<unknown>
  111700: ffffffff     	<unknown>
  111704: ffffffff     	<unknown>
  111708: ffffffff     	<unknown>
  11170c: ffffffff     	<unknown>
  111710: ffffffff     	<unknown>
  111714: ffffffff     	<unknown>
  111718: ffffffff     	<unknown>
  11171c: ffffffff     	<unknown>
  111720: ffffffff     	<unknown>
  111724: ffffffff     	<unknown>
  111728: ffffffff     	<unknown>
  11172c: ffffffff     	<unknown>
  111730: ffffffff     	<unknown>
  111734: ffffffff     	<unknown>
  111738: ffffffff     	<unknown>
  11173c: ffffffff     	<unknown>
  111740: ffffffff     	<unknown>
  111744: ffffffff     	<unknown>
  111748: ffffffff     	<unknown>
  11174c: ffffffff     	<unknown>
  111750: ffffffff     	<unknown>
  111754: ffffffff     	<unknown>
  111758: ffffffff     	<unknown>
  11175c: ffffffff     	<unknown>
  111760: ffffffff     	<unknown>
  111764: ffffffff     	<unknown>
  111768: ffffffff     	<unknown>
  11176c: ffffffff     	<unknown>
  111770: ffffffff     	<unknown>
  111774: ffffffff     	<unknown>
  111778: ffffffff     	<unknown>
  11177c: ffffffff     	<unknown>
  111780: ffffffff     	<unknown>
  111784: ffffffff     	<unknown>
  111788: ffffffff     	<unknown>
  11178c: ffffffff     	<unknown>
  111790: ffffffff     	<unknown>
  111794: ffffffff     	<unknown>
  111798: ffffffff     	<unknown>
  11179c: ffffffff     	<unknown>
  1117a0: ffffffff     	<unknown>
  1117a4: ffffffff     	<unknown>
  1117a8: ffffffff     	<unknown>
  1117ac: ffffffff     	<unknown>
  1117b0: ffffffff     	<unknown>
  1117b4: ffffffff     	<unknown>
  1117b8: ffffffff     	<unknown>
  1117bc: ffffffff     	<unknown>
  1117c0: ffffffff     	<unknown>
  1117c4: ffffffff     	<unknown>
  1117c8: ffffffff     	<unknown>
  1117cc: ffffffff     	<unknown>
  1117d0: ffffffff     	<unknown>
  1117d4: ffffffff     	<unknown>
  1117d8: ffffffff     	<unknown>
  1117dc: ffffffff     	<unknown>
  1117e0: ffffffff     	<unknown>
  1117e4: ffffffff     	<unknown>
  1117e8: ffffffff     	<unknown>
  1117ec: ffffffff     	<unknown>
  1117f0: ffffffff     	<unknown>
  1117f4: ffffffff     	<unknown>
  1117f8: ffffffff     	<unknown>
  1117fc: ffffffff     	<unknown>
  111800: ffffffff     	<unknown>
  111804: ffffffff     	<unknown>
  111808: ffffffff     	<unknown>
  11180c: ffffffff     	<unknown>
  111810: ffffffff     	<unknown>
  111814: ffffffff     	<unknown>
  111818: ffffffff     	<unknown>
  11181c: ffffffff     	<unknown>
  111820: ffffffff     	<unknown>
  111824: ffffffff     	<unknown>
  111828: ffffffff     	<unknown>
  11182c: ffffffff     	<unknown>
  111830: ffffffff     	<unknown>
  111834: ffffffff     	<unknown>
  111838: ffffffff     	<unknown>
  11183c: ffffffff     	<unknown>
  111840: ffffffff     	<unknown>
  111844: ffffffff     	<unknown>
  111848: ffffffff     	<unknown>
  11184c: ffffffff     	<unknown>
  111850: ffffffff     	<unknown>
  111854: ffffffff     	<unknown>
  111858: ffffffff     	<unknown>
  11185c: ffffffff     	<unknown>
  111860: ffffffff     	<unknown>
  111864: ffffffff     	<unknown>
  111868: ffffffff     	<unknown>
  11186c: ffffffff     	<unknown>
  111870: ffffffff     	<unknown>
  111874: ffffffff     	<unknown>
  111878: ffffffff     	<unknown>
  11187c: ffffffff     	<unknown>
  111880: ffffffff     	<unknown>
  111884: ffffffff     	<unknown>
  111888: ffffffff     	<unknown>
  11188c: ffffffff     	<unknown>
  111890: ffffffff     	<unknown>
  111894: ffffffff     	<unknown>
  111898: ffffffff     	<unknown>
  11189c: ffffffff     	<unknown>
  1118a0: ffffffff     	<unknown>
  1118a4: ffffffff     	<unknown>
  1118a8: ffffffff     	<unknown>
  1118ac: ffffffff     	<unknown>
  1118b0: ffffffff     	<unknown>
  1118b4: ffffffff     	<unknown>
  1118b8: ffffffff     	<unknown>
  1118bc: ffffffff     	<unknown>
  1118c0: ffffffff     	<unknown>
  1118c4: ffffffff     	<unknown>
  1118c8: ffffffff     	<unknown>
  1118cc: ffffffff     	<unknown>
  1118d0: ffffffff     	<unknown>
  1118d4: ffffffff     	<unknown>
  1118d8: ffffffff     	<unknown>
  1118dc: ffffffff     	<unknown>
  1118e0: ffffffff     	<unknown>
  1118e4: ffffffff     	<unknown>
  1118e8: ffffffff     	<unknown>
  1118ec: ffffffff     	<unknown>
  1118f0: ffffffff     	<unknown>
  1118f4: ffffffff     	<unknown>
  1118f8: ffffffff     	<unknown>
  1118fc: ffffffff     	<unknown>
  111900: ffffffff     	<unknown>
  111904: ffffffff     	<unknown>
  111908: ffffffff     	<unknown>
  11190c: ffffffff     	<unknown>
  111910: ffffffff     	<unknown>
  111914: ffffffff     	<unknown>
  111918: ffffffff     	<unknown>
  11191c: ffffffff     	<unknown>
  111920: ffffffff     	<unknown>
  111924: ffffffff     	<unknown>
  111928: ffffffff     	<unknown>
  11192c: ffffffff     	<unknown>
  111930: ffffffff     	<unknown>
  111934: ffffffff     	<unknown>
  111938: ffffffff     	<unknown>
  11193c: ffffffff     	<unknown>
  111940: ffffffff     	<unknown>
  111944: ffffffff     	<unknown>
  111948: ffffffff     	<unknown>
  11194c: ffffffff     	<unknown>
  111950: ffffffff     	<unknown>
  111954: ffffffff     	<unknown>
  111958: ffffffff     	<unknown>
  11195c: ffffffff     	<unknown>
  111960: ffffffff     	<unknown>
  111964: ffffffff     	<unknown>
  111968: ffffffff     	<unknown>
  11196c: ffffffff     	<unknown>
  111970: ffffffff     	<unknown>
  111974: ffffffff     	<unknown>
  111978: ffffffff     	<unknown>
  11197c: ffffffff     	<unknown>
  111980: ffffffff     	<unknown>
  111984: ffffffff     	<unknown>
  111988: ffffffff     	<unknown>
  11198c: ffffffff     	<unknown>
  111990: ffffffff     	<unknown>
  111994: ffffffff     	<unknown>
  111998: ffffffff     	<unknown>
  11199c: ffffffff     	<unknown>
  1119a0: ffffffff     	<unknown>
  1119a4: ffffffff     	<unknown>
  1119a8: ffffffff     	<unknown>
  1119ac: ffffffff     	<unknown>
  1119b0: ffffffff     	<unknown>
  1119b4: ffffffff     	<unknown>
  1119b8: ffffffff     	<unknown>
  1119bc: ffffffff     	<unknown>
  1119c0: ffffffff     	<unknown>
  1119c4: ffffffff     	<unknown>
  1119c8: ffffffff     	<unknown>
  1119cc: ffffffff     	<unknown>
  1119d0: ffffffff     	<unknown>
  1119d4: ffffffff     	<unknown>
  1119d8: ffffffff     	<unknown>
  1119dc: ffffffff     	<unknown>
  1119e0: ffffffff     	<unknown>
  1119e4: ffffffff     	<unknown>
  1119e8: ffffffff     	<unknown>
  1119ec: ffffffff     	<unknown>
  1119f0: ffffffff     	<unknown>
  1119f4: ffffffff     	<unknown>
  1119f8: ffffffff     	<unknown>
  1119fc: ffffffff     	<unknown>
  111a00: ffffffff     	<unknown>
  111a04: ffffffff     	<unknown>
  111a08: ffffffff     	<unknown>
  111a0c: ffffffff     	<unknown>
  111a10: ffffffff     	<unknown>
  111a14: ffffffff     	<unknown>
  111a18: ffffffff     	<unknown>
  111a1c: ffffffff     	<unknown>
  111a20: ffffffff     	<unknown>
  111a24: ffffffff     	<unknown>
  111a28: ffffffff     	<unknown>
  111a2c: ffffffff     	<unknown>
  111a30: ffffffff     	<unknown>
  111a34: ffffffff     	<unknown>
  111a38: ffffffff     	<unknown>
  111a3c: ffffffff     	<unknown>
  111a40: ffffffff     	<unknown>
  111a44: ffffffff     	<unknown>
  111a48: ffffffff     	<unknown>
  111a4c: ffffffff     	<unknown>
  111a50: ffffffff     	<unknown>
  111a54: ffffffff     	<unknown>
  111a58: ffffffff     	<unknown>
  111a5c: ffffffff     	<unknown>
  111a60: ffffffff     	<unknown>
  111a64: ffffffff     	<unknown>
  111a68: ffffffff     	<unknown>
  111a6c: ffffffff     	<unknown>
  111a70: ffffffff     	<unknown>
  111a74: ffffffff     	<unknown>
  111a78: ffffffff     	<unknown>
  111a7c: ffffffff     	<unknown>
  111a80: ffffffff     	<unknown>
  111a84: ffffffff     	<unknown>
  111a88: ffffffff     	<unknown>
  111a8c: ffffffff     	<unknown>
  111a90: ffffffff     	<unknown>
  111a94: ffffffff     	<unknown>
  111a98: ffffffff     	<unknown>
  111a9c: ffffffff     	<unknown>
  111aa0: ffffffff     	<unknown>
  111aa4: ffffffff     	<unknown>
  111aa8: ffffffff     	<unknown>
  111aac: ffffffff     	<unknown>
  111ab0: ffffffff     	<unknown>
  111ab4: ffffffff     	<unknown>
  111ab8: ffffffff     	<unknown>
  111abc: ffffffff     	<unknown>
  111ac0: ffffffff     	<unknown>
  111ac4: ffffffff     	<unknown>
  111ac8: ffffffff     	<unknown>
  111acc: ffffffff     	<unknown>
  111ad0: ffffffff     	<unknown>
  111ad4: ffffffff     	<unknown>
  111ad8: ffffffff     	<unknown>
  111adc: ffffffff     	<unknown>
  111ae0: ffffffff     	<unknown>
  111ae4: ffffffff     	<unknown>
  111ae8: ffffffff     	<unknown>
  111aec: ffffffff     	<unknown>
  111af0: ffffffff     	<unknown>
  111af4: ffffffff     	<unknown>
  111af8: ffffffff     	<unknown>
  111afc: ffffffff     	<unknown>
  111b00: ffffffff     	<unknown>
  111b04: ffffffff     	<unknown>
  111b08: ffffffff     	<unknown>
  111b0c: ffffffff     	<unknown>
  111b10: ffffffff     	<unknown>
  111b14: ffffffff     	<unknown>
  111b18: ffffffff     	<unknown>
  111b1c: ffffffff     	<unknown>
  111b20: ffffffff     	<unknown>
  111b24: ffffffff     	<unknown>
  111b28: ffffffff     	<unknown>
  111b2c: ffffffff     	<unknown>
  111b30: ffffffff     	<unknown>
  111b34: ffffffff     	<unknown>
  111b38: ffffffff     	<unknown>
  111b3c: ffffffff     	<unknown>
  111b40: ffffffff     	<unknown>
  111b44: ffffffff     	<unknown>
  111b48: ffffffff     	<unknown>
  111b4c: ffffffff     	<unknown>
  111b50: ffffffff     	<unknown>
  111b54: ffffffff     	<unknown>
  111b58: ffffffff     	<unknown>
  111b5c: ffffffff     	<unknown>
  111b60: ffffffff     	<unknown>
  111b64: ffffffff     	<unknown>
  111b68: ffffffff     	<unknown>
  111b6c: ffffffff     	<unknown>
  111b70: ffffffff     	<unknown>
  111b74: ffffffff     	<unknown>
  111b78: ffffffff     	<unknown>
  111b7c: ffffffff     	<unknown>
  111b80: ffffffff     	<unknown>
  111b84: ffffffff     	<unknown>
  111b88: ffffffff     	<unknown>
  111b8c: ffffffff     	<unknown>
  111b90: ffffffff     	<unknown>
  111b94: ffffffff     	<unknown>
  111b98: ffffffff     	<unknown>
  111b9c: ffffffff     	<unknown>
  111ba0: ffffffff     	<unknown>
  111ba4: ffffffff     	<unknown>
  111ba8: ffffffff     	<unknown>
  111bac: ffffffff     	<unknown>
  111bb0: ffffffff     	<unknown>
  111bb4: ffffffff     	<unknown>
  111bb8: ffffffff     	<unknown>
  111bbc: ffffffff     	<unknown>
  111bc0: ffffffff     	<unknown>
  111bc4: ffffffff     	<unknown>
  111bc8: ffffffff     	<unknown>
  111bcc: ffffffff     	<unknown>
  111bd0: ffffffff     	<unknown>
  111bd4: ffffffff     	<unknown>
  111bd8: ffffffff     	<unknown>
  111bdc: ffffffff     	<unknown>
  111be0: ffffffff     	<unknown>
  111be4: ffffffff     	<unknown>
  111be8: ffffffff     	<unknown>
  111bec: ffffffff     	<unknown>
  111bf0: ffffffff     	<unknown>
  111bf4: ffffffff     	<unknown>
  111bf8: ffffffff     	<unknown>
  111bfc: ffffffff     	<unknown>
  111c00: ffffffff     	<unknown>
  111c04: ffffffff     	<unknown>
  111c08: ffffffff     	<unknown>
  111c0c: ffffffff     	<unknown>
  111c10: ffffffff     	<unknown>
  111c14: ffffffff     	<unknown>
  111c18: ffffffff     	<unknown>
  111c1c: ffffffff     	<unknown>
  111c20: ffffffff     	<unknown>
  111c24: ffffffff     	<unknown>
  111c28: ffffffff     	<unknown>
  111c2c: ffffffff     	<unknown>
  111c30: ffffffff     	<unknown>
  111c34: ffffffff     	<unknown>
  111c38: ffffffff     	<unknown>
  111c3c: ffffffff     	<unknown>
  111c40: ffffffff     	<unknown>
  111c44: ffffffff     	<unknown>
  111c48: ffffffff     	<unknown>
  111c4c: ffffffff     	<unknown>
  111c50: ffffffff     	<unknown>
  111c54: ffffffff     	<unknown>
  111c58: ffffffff     	<unknown>
  111c5c: ffffffff     	<unknown>
  111c60: ffffffff     	<unknown>
  111c64: ffffffff     	<unknown>
  111c68: ffffffff     	<unknown>
  111c6c: ffffffff     	<unknown>
  111c70: ffffffff     	<unknown>
  111c74: ffffffff     	<unknown>
  111c78: ffffffff     	<unknown>
  111c7c: ffffffff     	<unknown>
  111c80: ffffffff     	<unknown>
  111c84: ffffffff     	<unknown>
  111c88: ffffffff     	<unknown>
  111c8c: ffffffff     	<unknown>
  111c90: ffffffff     	<unknown>
  111c94: ffffffff     	<unknown>
  111c98: ffffffff     	<unknown>
  111c9c: ffffffff     	<unknown>
  111ca0: ffffffff     	<unknown>
  111ca4: ffffffff     	<unknown>
  111ca8: ffffffff     	<unknown>
  111cac: ffffffff     	<unknown>
  111cb0: ffffffff     	<unknown>
  111cb4: ffffffff     	<unknown>
  111cb8: ffffffff     	<unknown>
  111cbc: ffffffff     	<unknown>
  111cc0: ffffffff     	<unknown>
  111cc4: ffffffff     	<unknown>
  111cc8: ffffffff     	<unknown>
  111ccc: ffffffff     	<unknown>
  111cd0: ffffffff     	<unknown>
  111cd4: ffffffff     	<unknown>
  111cd8: ffffffff     	<unknown>
  111cdc: ffffffff     	<unknown>
  111ce0: ffffffff     	<unknown>
  111ce4: ffffffff     	<unknown>
  111ce8: ffffffff     	<unknown>
  111cec: ffffffff     	<unknown>
  111cf0: ffffffff     	<unknown>
  111cf4: ffffffff     	<unknown>
  111cf8: ffffffff     	<unknown>
  111cfc: ffffffff     	<unknown>
  111d00: ffffffff     	<unknown>
  111d04: ffffffff     	<unknown>
  111d08: ffffffff     	<unknown>
  111d0c: ffffffff     	<unknown>
  111d10: ffffffff     	<unknown>
  111d14: ffffffff     	<unknown>
  111d18: ffffffff     	<unknown>
  111d1c: ffffffff     	<unknown>
  111d20: ffffffff     	<unknown>
  111d24: ffffffff     	<unknown>
  111d28: ffffffff     	<unknown>
  111d2c: ffffffff     	<unknown>
  111d30: ffffffff     	<unknown>
  111d34: ffffffff     	<unknown>
  111d38: ffffffff     	<unknown>
  111d3c: ffffffff     	<unknown>
  111d40: ffffffff     	<unknown>
  111d44: ffffffff     	<unknown>
  111d48: ffffffff     	<unknown>
  111d4c: ffffffff     	<unknown>
  111d50: ffffffff     	<unknown>
  111d54: ffffffff     	<unknown>
  111d58: ffffffff     	<unknown>
  111d5c: ffffffff     	<unknown>
  111d60: ffffffff     	<unknown>
  111d64: ffffffff     	<unknown>
  111d68: ffffffff     	<unknown>
  111d6c: ffffffff     	<unknown>
  111d70: ffffffff     	<unknown>
  111d74: ffffffff     	<unknown>
  111d78: ffffffff     	<unknown>
  111d7c: ffffffff     	<unknown>
  111d80: ffffffff     	<unknown>
  111d84: ffffffff     	<unknown>
  111d88: ffffffff     	<unknown>
  111d8c: ffffffff     	<unknown>
  111d90: ffffffff     	<unknown>
  111d94: ffffffff     	<unknown>
  111d98: ffffffff     	<unknown>
  111d9c: ffffffff     	<unknown>
  111da0: ffffffff     	<unknown>
  111da4: ffffffff     	<unknown>
  111da8: ffffffff     	<unknown>
  111dac: ffffffff     	<unknown>
  111db0: ffffffff     	<unknown>
  111db4: ffffffff     	<unknown>
  111db8: ffffffff     	<unknown>
  111dbc: ffffffff     	<unknown>
  111dc0: ffffffff     	<unknown>
  111dc4: ffffffff     	<unknown>
  111dc8: ffffffff     	<unknown>
  111dcc: ffffffff     	<unknown>
  111dd0: ffffffff     	<unknown>
  111dd4: ffffffff     	<unknown>
  111dd8: ffffffff     	<unknown>
  111ddc: ffffffff     	<unknown>
  111de0: ffffffff     	<unknown>
  111de4: ffffffff     	<unknown>
  111de8: ffffffff     	<unknown>
  111dec: ffffffff     	<unknown>
  111df0: ffffffff     	<unknown>
  111df4: ffffffff     	<unknown>
  111df8: ffffffff     	<unknown>
  111dfc: ffffffff     	<unknown>
  111e00: ffffffff     	<unknown>
  111e04: ffffffff     	<unknown>
  111e08: ffffffff     	<unknown>
  111e0c: ffffffff     	<unknown>
  111e10: ffffffff     	<unknown>
  111e14: ffffffff     	<unknown>
  111e18: ffffffff     	<unknown>
  111e1c: ffffffff     	<unknown>
  111e20: ffffffff     	<unknown>
  111e24: ffffffff     	<unknown>
  111e28: ffffffff     	<unknown>
  111e2c: ffffffff     	<unknown>
  111e30: ffffffff     	<unknown>
  111e34: ffffffff     	<unknown>
  111e38: ffffffff     	<unknown>
  111e3c: ffffffff     	<unknown>
  111e40: ffffffff     	<unknown>
  111e44: ffffffff     	<unknown>
  111e48: ffffffff     	<unknown>
  111e4c: ffffffff     	<unknown>
  111e50: ffffffff     	<unknown>
  111e54: ffffffff     	<unknown>
  111e58: ffffffff     	<unknown>
  111e5c: ffffffff     	<unknown>
  111e60: ffffffff     	<unknown>
  111e64: ffffffff     	<unknown>
  111e68: ffffffff     	<unknown>
  111e6c: ffffffff     	<unknown>
  111e70: ffffffff     	<unknown>
  111e74: ffffffff     	<unknown>
  111e78: ffffffff     	<unknown>
  111e7c: ffffffff     	<unknown>
  111e80: ffffffff     	<unknown>
  111e84: ffffffff     	<unknown>
  111e88: ffffffff     	<unknown>
  111e8c: ffffffff     	<unknown>
  111e90: ffffffff     	<unknown>
  111e94: ffffffff     	<unknown>
  111e98: ffffffff     	<unknown>
  111e9c: ffffffff     	<unknown>
  111ea0: ffffffff     	<unknown>
  111ea4: ffffffff     	<unknown>
  111ea8: ffffffff     	<unknown>
  111eac: ffffffff     	<unknown>
  111eb0: ffffffff     	<unknown>
  111eb4: ffffffff     	<unknown>
  111eb8: ffffffff     	<unknown>
  111ebc: ffffffff     	<unknown>
  111ec0: ffffffff     	<unknown>
  111ec4: ffffffff     	<unknown>
  111ec8: ffffffff     	<unknown>
  111ecc: ffffffff     	<unknown>
  111ed0: ffffffff     	<unknown>
  111ed4: ffffffff     	<unknown>
  111ed8: ffffffff     	<unknown>
  111edc: ffffffff     	<unknown>
  111ee0: ffffffff     	<unknown>
  111ee4: ffffffff     	<unknown>
  111ee8: ffffffff     	<unknown>
  111eec: ffffffff     	<unknown>
  111ef0: ffffffff     	<unknown>
  111ef4: ffffffff     	<unknown>
  111ef8: ffffffff     	<unknown>
  111efc: ffffffff     	<unknown>
  111f00: ffffffff     	<unknown>
  111f04: ffffffff     	<unknown>
  111f08: ffffffff     	<unknown>
  111f0c: ffffffff     	<unknown>
  111f10: ffffffff     	<unknown>
  111f14: ffffffff     	<unknown>
  111f18: ffffffff     	<unknown>
  111f1c: ffffffff     	<unknown>
  111f20: ffffffff     	<unknown>
  111f24: ffffffff     	<unknown>
  111f28: ffffffff     	<unknown>
  111f2c: ffffffff     	<unknown>
  111f30: ffffffff     	<unknown>
  111f34: ffffffff     	<unknown>
  111f38: ffffffff     	<unknown>
  111f3c: ffffffff     	<unknown>
  111f40: ffffffff     	<unknown>
  111f44: ffffffff     	<unknown>
  111f48: ffffffff     	<unknown>
  111f4c: ffffffff     	<unknown>
  111f50: ffffffff     	<unknown>
  111f54: ffffffff     	<unknown>
  111f58: ffffffff     	<unknown>
  111f5c: ffffffff     	<unknown>
  111f60: ffffffff     	<unknown>
  111f64: ffffffff     	<unknown>
  111f68: ffffffff     	<unknown>
  111f6c: ffffffff     	<unknown>
  111f70: ffffffff     	<unknown>
  111f74: ffffffff     	<unknown>
  111f78: ffffffff     	<unknown>
  111f7c: ffffffff     	<unknown>
  111f80: ffffffff     	<unknown>
  111f84: ffffffff     	<unknown>
  111f88: ffffffff     	<unknown>
  111f8c: ffffffff     	<unknown>
  111f90: ffffffff     	<unknown>
  111f94: ffffffff     	<unknown>
  111f98: ffffffff     	<unknown>
  111f9c: ffffffff     	<unknown>
  111fa0: ffffffff     	<unknown>
  111fa4: ffffffff     	<unknown>
  111fa8: ffffffff     	<unknown>
  111fac: ffffffff     	<unknown>
  111fb0: ffffffff     	<unknown>
  111fb4: ffffffff     	<unknown>
  111fb8: ffffffff     	<unknown>
  111fbc: ffffffff     	<unknown>
  111fc0: ffffffff     	<unknown>
  111fc4: ffffffff     	<unknown>
  111fc8: ffffffff     	<unknown>
  111fcc: ffffffff     	<unknown>
  111fd0: ffffffff     	<unknown>
  111fd4: ffffffff     	<unknown>
  111fd8: ffffffff     	<unknown>
  111fdc: ffffffff     	<unknown>
  111fe0: ffffffff     	<unknown>
  111fe4: ffffffff     	<unknown>
  111fe8: ffffffff     	<unknown>
  111fec: ffffffff     	<unknown>
  111ff0: 45544144     	saddwb	z4.h, z10.h, z20.b
  111ff4: 3130323a     	adds	w26, w17, #0xc0c
  111ff8: 35302d38     	cbnz	w24, 0x17259c <_binary_BootROM_ums512_0x100000_0x111FFF_bin_end+0x6059c>
  111ffc: 0038322d     	<unknown>

Disassembly of section .symtab:

0000000000000000 <.symtab>:
		...
      18: 00000001     	udf	#0x1
      1c: 00010010     	<unknown>
		...
      30: 00000034     	udf	#0x34
      34: 00010010     	<unknown>
      38: 00012000     	<unknown>
		...
      48: 00000065     	udf	#0x65
      4c: fff10010     	<unknown>
      50: 00012000     	<unknown>
		...

Disassembly of section .strtab:

0000000000000000 <.strtab>:
       0: 69625f00     	ldpsw	x0, x23, [x24, #-0xf0]
       4: 7972616e     	ldrh	w14, [x11, #0x1930]
       8: 6f6f425f     	mls	v31.8h, v18.8h, v15.h[2]
       c: 4d4f5274     	<unknown>
      10: 736d755f     	<unknown>
      14: 5f323135     	<unknown>
      18: 30317830     	adr	x16, 0x62f1d <.strtab+0x62f1d>
      1c: 30303030     	adr	x16, 0x60621 <.strtab+0x60621>
      20: 3178305f     	cmn	w2, #0xe0c, lsl #12     // =0xe0c000
      24: 46463131     	<unknown>
      28: 69625f46     	ldpsw	x6, x23, [x26, #-0xf0]
      2c: 74735f6e     	<unknown>
      30: 00747261     	<unknown>
      34: 6e69625f     	rsubhn2	v31.8h, v18.4s, v9.4s
      38: 5f797261     	sqdmlsl	s1, h19, v9.h[3]
      3c: 746f6f42     	<unknown>
      40: 5f4d4f52     	<unknown>
      44: 35736d75     	cbnz	w21, 0xe6df0 <.strtab+0xe6df0>
      48: 305f3231     	adr	x17, 0xbe68d <.strtab+0xbe68d>
      4c: 30303178     	adr	x24, 0x60679 <.strtab+0x60679>
      50: 5f303030     	<unknown>
      54: 31317830     	adds	w16, w1, #0xc5e
      58: 46464631     	<unknown>
      5c: 6e69625f     	rsubhn2	v31.8h, v18.4s, v9.4s
      60: 646e655f     	<unknown>
      64: 69625f00     	ldpsw	x0, x23, [x24, #-0xf0]
      68: 7972616e     	ldrh	w14, [x11, #0x1930]
      6c: 6f6f425f     	mls	v31.8h, v18.8h, v15.h[2]
      70: 4d4f5274     	<unknown>
      74: 736d755f     	<unknown>
      78: 5f323135     	<unknown>
      7c: 30317830     	adr	x16, 0x62f81 <.strtab+0x62f81>
      80: 30303030     	adr	x16, 0x60685 <.strtab+0x60685>
      84: 3178305f     	cmn	w2, #0xe0c, lsl #12     // =0xe0c000
      88: 46463131     	<unknown>
      8c: 69625f46     	ldpsw	x6, x23, [x26, #-0xf0]
      90: 69735f6e     	ldpsw	x14, x23, [x27, #-0x68]
      94: 7a 65 00     	<unknown>

Disassembly of section .shstrtab:

0000000000000000 <.shstrtab>:
       0: 79732e00     	ldrh	w0, [x16, #0x1996]
       4: 6261746d     	<unknown>
       8: 74732e00     	<unknown>
       c: 62617472     	<unknown>
      10: 68732e00     	<unknown>
      14: 74727473     	<unknown>
      18: 2e006261     	<unknown>
      1c: 74786574     	<unknown>
      20: 00           	<unknown>
