
/tmp/spl_code.bin:     file format binary


Disassembly of section .data:

0000000000000000 <.data>:
       0:	1400000e 	b	0x38
       4:	d503201f 	nop
       8:	aa1e03fd 	mov	x29, x30
       c:	580004e0 	ldr	x0, 0xa8
      10:	58000501 	ldr	x1, 0xb0
      14:	d2800002 	mov	x2, #0x0                   	// #0
      18:	f9000002 	str	x2, [x0]
      1c:	91002000 	add	x0, x0, #0x8
      20:	eb01001f 	cmp	x0, x1
      24:	54ffffa3 	b.cc	0x18  // b.lo, b.ul, b.last
      28:	aa1d03fe 	mov	x30, x29
      2c:	d65f03c0 	ret
      30:	00015050 	.inst	0x00015050 ; undefined
      34:	00015678 	.inst	0x00015678 ; undefined
      38:	d5384241 	mrs	x1, currentel
      3c:	f100303f 	cmp	x1, #0xc
      40:	540000a0 	b.eq	0x54  // b.none
      44:	f100203f 	cmp	x1, #0x8
      48:	54000100 	b.eq	0x68  // b.none
      4c:	f100103f 	cmp	x1, #0x4
      50:	54000140 	b.eq	0x78  // b.none
      54:	d51ec000 	msr	vbar_el3, x0
      58:	d51e115f 	msr	cptr_el3, xzr
      5c:	580002e0 	ldr	x0, 0xb8
      60:	d51be000 	msr	cntfrq_el0, x0
      64:	14000008 	b	0x84
      68:	d51cc000 	msr	vbar_el2, x0
      6c:	d2867fe0 	mov	x0, #0x33ff                	// #13311
      70:	d51c1140 	msr	cptr_el2, x0
      74:	14000004 	b	0x84
      78:	d518c000 	msr	vbar_el1, x0
      7c:	d2a00600 	mov	x0, #0x300000              	// #3145728
      80:	d5181040 	msr	cpacr_el1, x0
      84:	940027d2 	bl	0x9fcc
      88:	580001c0 	ldr	x0, 0xc0
      8c:	9100001f 	mov	sp, x0
      90:	97ffffde 	bl	0x8
      94:	94000209 	bl	0x8b8
      98:	58000180 	ldr	x0, 0xc8
      9c:	9100001f 	mov	sp, x0
      a0:	14002880 	b	0xa2a0
      a4:	00000000 	udf	#0
      a8:	00015050 	.inst	0x00015050 ; undefined
      ac:	00000000 	udf	#0
      b0:	00015678 	.inst	0x00015678 ; undefined
      b4:	00000000 	udf	#0
      b8:	01800000 	.inst	0x01800000 ; undefined
      bc:	00000000 	udf	#0
      c0:	00003000 	udf	#12288
      c4:	00000000 	udf	#0
      c8:	9ffefd40 	.inst	0x9ffefd40 ; undefined
      cc:	00000000 	udf	#0
      d0:	d28a0500 	mov	x0, #0x5028                	// #20520
      d4:	b9400000 	ldr	w0, [x0]
      d8:	d3483c00 	ubfx	x0, x0, #8, #8
      dc:	d65f03c0 	ret
      e0:	d2805e00 	mov	x0, #0x2f0                 	// #752
      e4:	f2a64100 	movk	x0, #0x3208, lsl #16
      e8:	b9400001 	ldr	w1, [x0]
      ec:	b0000060 	adrp	x0, 0xd000
      f0:	911a8000 	add	x0, x0, #0x6a0
      f4:	3946c402 	ldrb	w2, [x0, #433]
      f8:	53001c42 	uxtb	w2, w2
      fc:	2a010042 	orr	w2, w2, w1
     100:	d2805e01 	mov	x1, #0x2f0                 	// #752
     104:	f2a64101 	movk	x1, #0x3208, lsl #16
     108:	b9000022 	str	w2, [x1]
     10c:	d2800781 	mov	x1, #0x3c                  	// #60
     110:	f2a65101 	movk	x1, #0x3288, lsl #16
     114:	b9400022 	ldr	w2, [x1]
     118:	39461401 	ldrb	w1, [x0, #389]
     11c:	53080421 	ubfiz	w1, w1, #24, #2
     120:	2a020022 	orr	w2, w1, w2
     124:	d2800781 	mov	x1, #0x3c                  	// #60
     128:	f2a65101 	movk	x1, #0x3288, lsl #16
     12c:	b9000022 	str	w2, [x1]
     130:	d2804401 	mov	x1, #0x220                 	// #544
     134:	f2a64101 	movk	x1, #0x3208, lsl #16
     138:	b9400021 	ldr	w1, [x1]
     13c:	394a3402 	ldrb	w2, [x0, #653]
     140:	53001c42 	uxtb	w2, w2
     144:	2a010042 	orr	w2, w2, w1
     148:	d2804401 	mov	x1, #0x220                 	// #544
     14c:	f2a64101 	movk	x1, #0x3208, lsl #16
     150:	b9000022 	str	w2, [x1]
     154:	d2800401 	mov	x1, #0x20                  	// #32
     158:	f2a40401 	movk	x1, #0x2020, lsl #16
     15c:	b9400021 	ldr	w1, [x1]
     160:	3948d402 	ldrb	w2, [x0, #565]
     164:	53001c42 	uxtb	w2, w2
     168:	2a010042 	orr	w2, w2, w1
     16c:	d2800401 	mov	x1, #0x20                  	// #32
     170:	f2a40401 	movk	x1, #0x2020, lsl #16
     174:	b9000022 	str	w2, [x1]
     178:	d2806001 	mov	x1, #0x300                 	// #768
     17c:	f2a64101 	movk	x1, #0x3208, lsl #16
     180:	b9400021 	ldr	w1, [x1]
     184:	3944b402 	ldrb	w2, [x0, #301]
     188:	53001c42 	uxtb	w2, w2
     18c:	2a010042 	orr	w2, w2, w1
     190:	d2806001 	mov	x1, #0x300                 	// #768
     194:	f2a64101 	movk	x1, #0x3208, lsl #16
     198:	b9000022 	str	w2, [x1]
     19c:	d2800581 	mov	x1, #0x2c                  	// #44
     1a0:	f2a65101 	movk	x1, #0x3288, lsl #16
     1a4:	b9400022 	ldr	w2, [x1]
     1a8:	d2800581 	mov	x1, #0x2c                  	// #44
     1ac:	f2a65101 	movk	x1, #0x3288, lsl #16
     1b0:	3207c042 	orr	w2, w2, #0x2020202
     1b4:	b9000022 	str	w2, [x1]
     1b8:	d2800601 	mov	x1, #0x30                  	// #48
     1bc:	f2a65101 	movk	x1, #0x3288, lsl #16
     1c0:	b9400022 	ldr	w2, [x1]
     1c4:	52804041 	mov	w1, #0x202                 	// #514
     1c8:	2a010042 	orr	w2, w2, w1
     1cc:	d2800601 	mov	x1, #0x30                  	// #48
     1d0:	f2a65101 	movk	x1, #0x3288, lsl #16
     1d4:	b9000022 	str	w2, [x1]
     1d8:	d2800601 	mov	x1, #0x30                  	// #48
     1dc:	f2a65101 	movk	x1, #0x3288, lsl #16
     1e0:	b9400022 	ldr	w2, [x1]
     1e4:	52a02021 	mov	w1, #0x1010000             	// #16842752
     1e8:	2a010042 	orr	w2, w2, w1
     1ec:	d2800601 	mov	x1, #0x30                  	// #48
     1f0:	f2a65101 	movk	x1, #0x3288, lsl #16
     1f4:	b9000022 	str	w2, [x1]
     1f8:	d2800701 	mov	x1, #0x38                  	// #56
     1fc:	f2a65101 	movk	x1, #0x3288, lsl #16
     200:	b9400022 	ldr	w2, [x1]
     204:	d2800701 	mov	x1, #0x38                  	// #56
     208:	f2a65101 	movk	x1, #0x3288, lsl #16
     20c:	32140042 	orr	w2, w2, #0x1000
     210:	b9000022 	str	w2, [x1]
     214:	d2800701 	mov	x1, #0x38                  	// #56
     218:	f2a65101 	movk	x1, #0x3288, lsl #16
     21c:	b9400022 	ldr	w2, [x1]
     220:	d2800701 	mov	x1, #0x38                  	// #56
     224:	f2a65101 	movk	x1, #0x3288, lsl #16
     228:	32000042 	orr	w2, w2, #0x1
     22c:	b9000022 	str	w2, [x1]
     230:	d2801301 	mov	x1, #0x98                  	// #152
     234:	f2a40401 	movk	x1, #0x2020, lsl #16
     238:	b9400021 	ldr	w1, [x1]
     23c:	39456402 	ldrb	w2, [x0, #345]
     240:	53001c42 	uxtb	w2, w2
     244:	2a010042 	orr	w2, w2, w1
     248:	d2801301 	mov	x1, #0x98                  	// #152
     24c:	f2a40401 	movk	x1, #0x2020, lsl #16
     250:	b9000022 	str	w2, [x1]
     254:	d2805e81 	mov	x1, #0x2f4                 	// #756
     258:	f2a64101 	movk	x1, #0x3208, lsl #16
     25c:	b9400021 	ldr	w1, [x1]
     260:	39477402 	ldrb	w2, [x0, #477]
     264:	53001c42 	uxtb	w2, w2
     268:	2a010042 	orr	w2, w2, w1
     26c:	d2805e81 	mov	x1, #0x2f4                 	// #756
     270:	f2a64101 	movk	x1, #0x3208, lsl #16
     274:	b9000022 	str	w2, [x1]
     278:	d2801601 	mov	x1, #0xb0                  	// #176
     27c:	f2a40401 	movk	x1, #0x2020, lsl #16
     280:	b9400021 	ldr	w1, [x1]
     284:	39482402 	ldrb	w2, [x0, #521]
     288:	53001c42 	uxtb	w2, w2
     28c:	2a010042 	orr	w2, w2, w1
     290:	d2801601 	mov	x1, #0xb0                  	// #176
     294:	f2a40401 	movk	x1, #0x2020, lsl #16
     298:	b9000022 	str	w2, [x1]
     29c:	d2800481 	mov	x1, #0x24                  	// #36
     2a0:	f2a40401 	movk	x1, #0x2020, lsl #16
     2a4:	b9400022 	ldr	w2, [x1]
     2a8:	39498401 	ldrb	w1, [x0, #609]
     2ac:	d2800480 	mov	x0, #0x24                  	// #36
     2b0:	f2a40400 	movk	x0, #0x2020, lsl #16
     2b4:	53001c21 	uxtb	w1, w1
     2b8:	2a020021 	orr	w1, w1, w2
     2bc:	b9000001 	str	w1, [x0]
     2c0:	d2806200 	mov	x0, #0x310                 	// #784
     2c4:	f2a64100 	movk	x0, #0x3208, lsl #16
     2c8:	52800041 	mov	w1, #0x2                   	// #2
     2cc:	b9000001 	str	w1, [x0]
     2d0:	52800000 	mov	w0, #0x0                   	// #0
     2d4:	d65f03c0 	ret
     2d8:	d2806000 	mov	x0, #0x300                 	// #768
     2dc:	f2a64100 	movk	x0, #0x3208, lsl #16
     2e0:	b9400001 	ldr	w1, [x0]
     2e4:	d2806000 	mov	x0, #0x300                 	// #768
     2e8:	f2a64100 	movk	x0, #0x3208, lsl #16
     2ec:	121f7821 	and	w1, w1, #0xfffffffe
     2f0:	b9000001 	str	w1, [x0]
     2f4:	d2801300 	mov	x0, #0x98                  	// #152
     2f8:	f2a40400 	movk	x0, #0x2020, lsl #16
     2fc:	b9400001 	ldr	w1, [x0]
     300:	d2801300 	mov	x0, #0x98                  	// #152
     304:	f2a40400 	movk	x0, #0x2020, lsl #16
     308:	121e7421 	and	w1, w1, #0xfffffffc
     30c:	b9000001 	str	w1, [x0]
     310:	d2800780 	mov	x0, #0x3c                  	// #60
     314:	f2a65100 	movk	x0, #0x3288, lsl #16
     318:	b9400001 	ldr	w1, [x0]
     31c:	12ae6000 	mov	w0, #0x8cffffff            	// #-1929379841
     320:	0a000021 	and	w1, w1, w0
     324:	d2800780 	mov	x0, #0x3c                  	// #60
     328:	f2a65100 	movk	x0, #0x3288, lsl #16
     32c:	b9000001 	str	w1, [x0]
     330:	d2805e00 	mov	x0, #0x2f0                 	// #752
     334:	f2a64100 	movk	x0, #0x3208, lsl #16
     338:	b9400001 	ldr	w1, [x0]
     33c:	d2805e00 	mov	x0, #0x2f0                 	// #752
     340:	f2a64100 	movk	x0, #0x3208, lsl #16
     344:	121e7421 	and	w1, w1, #0xfffffffc
     348:	b9000001 	str	w1, [x0]
     34c:	d2805e80 	mov	x0, #0x2f4                 	// #756
     350:	f2a64100 	movk	x0, #0x3208, lsl #16
     354:	b9400001 	ldr	w1, [x0]
     358:	d2805e80 	mov	x0, #0x2f4                 	// #756
     35c:	f2a64100 	movk	x0, #0x3208, lsl #16
     360:	121e7421 	and	w1, w1, #0xfffffffc
     364:	b9000001 	str	w1, [x0]
     368:	d2801600 	mov	x0, #0xb0                  	// #176
     36c:	f2a40400 	movk	x0, #0x2020, lsl #16
     370:	b9400001 	ldr	w1, [x0]
     374:	d2801600 	mov	x0, #0xb0                  	// #176
     378:	f2a40400 	movk	x0, #0x2020, lsl #16
     37c:	121d7021 	and	w1, w1, #0xfffffff8
     380:	b9000001 	str	w1, [x0]
     384:	d2804400 	mov	x0, #0x220                 	// #544
     388:	f2a64100 	movk	x0, #0x3208, lsl #16
     38c:	52800081 	mov	w1, #0x4                   	// #4
     390:	b9000001 	str	w1, [x0]
     394:	d2800400 	mov	x0, #0x20                  	// #32
     398:	f2a40400 	movk	x0, #0x2020, lsl #16
     39c:	b9400001 	ldr	w1, [x0]
     3a0:	d2800400 	mov	x0, #0x20                  	// #32
     3a4:	f2a40400 	movk	x0, #0x2020, lsl #16
     3a8:	121e7421 	and	w1, w1, #0xfffffffc
     3ac:	b9000001 	str	w1, [x0]
     3b0:	d2800580 	mov	x0, #0x2c                  	// #44
     3b4:	f2a65100 	movk	x0, #0x3288, lsl #16
     3b8:	d2800581 	mov	x1, #0x2c                  	// #44
     3bc:	f2a65101 	movk	x1, #0x3288, lsl #16
     3c0:	b9400002 	ldr	w2, [x0]
     3c4:	12800ee0 	mov	w0, #0xffffff88            	// #-120
     3c8:	0a000042 	and	w2, w2, w0
     3cc:	b9000022 	str	w2, [x1]
     3d0:	d2800701 	mov	x1, #0x38                  	// #56
     3d4:	f2a65101 	movk	x1, #0x3288, lsl #16
     3d8:	b9400021 	ldr	w1, [x1]
     3dc:	0a000021 	and	w1, w1, w0
     3e0:	d2800700 	mov	x0, #0x38                  	// #56
     3e4:	f2a65100 	movk	x0, #0x3288, lsl #16
     3e8:	b9000001 	str	w1, [x0]
     3ec:	d2800700 	mov	x0, #0x38                  	// #56
     3f0:	f2a65100 	movk	x0, #0x3288, lsl #16
     3f4:	b9400001 	ldr	w1, [x0]
     3f8:	d2800700 	mov	x0, #0x38                  	// #56
     3fc:	f2a65100 	movk	x0, #0x3288, lsl #16
     400:	12117021 	and	w1, w1, #0xffff8fff
     404:	b9000001 	str	w1, [x0]
     408:	d2801480 	mov	x0, #0xa4                  	// #164
     40c:	f2a64fc0 	movk	x0, #0x327e, lsl #16
     410:	b9400001 	ldr	w1, [x0]
     414:	d2801480 	mov	x0, #0xa4                  	// #164
     418:	f2a64fc0 	movk	x0, #0x327e, lsl #16
     41c:	121f7821 	and	w1, w1, #0xfffffffe
     420:	b9000001 	str	w1, [x0]
     424:	d2800980 	mov	x0, #0x4c                  	// #76
     428:	f2a64780 	movk	x0, #0x323c, lsl #16
     42c:	b9400001 	ldr	w1, [x0]
     430:	d2800980 	mov	x0, #0x4c                  	// #76
     434:	f2a64780 	movk	x0, #0x323c, lsl #16
     438:	32080021 	orr	w1, w1, #0x1000000
     43c:	b9000001 	str	w1, [x0]
     440:	d2a64780 	mov	x0, #0x323c0000            	// #842792960
     444:	b9400001 	ldr	w1, [x0]
     448:	321e0821 	orr	w1, w1, #0x1c
     44c:	b9000001 	str	w1, [x0]
     450:	d2801400 	mov	x0, #0xa0                  	// #160
     454:	f2a64fc0 	movk	x0, #0x327e, lsl #16
     458:	b9400001 	ldr	w1, [x0]
     45c:	d2801400 	mov	x0, #0xa0                  	// #160
     460:	f2a64fc0 	movk	x0, #0x327e, lsl #16
     464:	32160021 	orr	w1, w1, #0x400
     468:	b9000001 	str	w1, [x0]
     46c:	d2800c00 	mov	x0, #0x60                  	// #96
     470:	f2a647c0 	movk	x0, #0x323e, lsl #16
     474:	b9400001 	ldr	w1, [x0]
     478:	d2800c00 	mov	x0, #0x60                  	// #96
     47c:	f2a647c0 	movk	x0, #0x323e, lsl #16
     480:	32100021 	orr	w1, w1, #0x10000
     484:	b9000001 	str	w1, [x0]
     488:	d2801480 	mov	x0, #0xa4                  	// #164
     48c:	f2a64fc0 	movk	x0, #0x327e, lsl #16
     490:	b9400001 	ldr	w1, [x0]
     494:	d2801480 	mov	x0, #0xa4                  	// #164
     498:	f2a64fc0 	movk	x0, #0x327e, lsl #16
     49c:	32160021 	orr	w1, w1, #0x400
     4a0:	b9000001 	str	w1, [x0]
     4a4:	d2801480 	mov	x0, #0xa4                  	// #164
     4a8:	f2a64fc0 	movk	x0, #0x327e, lsl #16
     4ac:	b9400001 	ldr	w1, [x0]
     4b0:	d2801480 	mov	x0, #0xa4                  	// #164
     4b4:	f2a64fc0 	movk	x0, #0x327e, lsl #16
     4b8:	32000021 	orr	w1, w1, #0x1
     4bc:	b9000001 	str	w1, [x0]
     4c0:	d2801c80 	mov	x0, #0xe4                  	// #228
     4c4:	f2a64fc0 	movk	x0, #0x327e, lsl #16
     4c8:	b9400001 	ldr	w1, [x0]
     4cc:	d2801c80 	mov	x0, #0xe4                  	// #228
     4d0:	f2a64fc0 	movk	x0, #0x327e, lsl #16
     4d4:	32160021 	orr	w1, w1, #0x400
     4d8:	b9000001 	str	w1, [x0]
     4dc:	d65f03c0 	ret
     4e0:	d2801080 	mov	x0, #0x84                  	// #132
     4e4:	f2a64fc0 	movk	x0, #0x327e, lsl #16
     4e8:	b9400001 	ldr	w1, [x0]
     4ec:	d2801080 	mov	x0, #0x84                  	// #132
     4f0:	f2a64fc0 	movk	x0, #0x327e, lsl #16
     4f4:	12157821 	and	w1, w1, #0xfffffbff
     4f8:	b9000001 	str	w1, [x0]
     4fc:	d2801080 	mov	x0, #0x84                  	// #132
     500:	f2a64fc0 	movk	x0, #0x327e, lsl #16
     504:	b9400001 	ldr	w1, [x0]
     508:	d2801080 	mov	x0, #0x84                  	// #132
     50c:	f2a64fc0 	movk	x0, #0x327e, lsl #16
     510:	32150021 	orr	w1, w1, #0x800
     514:	b9000001 	str	w1, [x0]
     518:	d2801100 	mov	x0, #0x88                  	// #136
     51c:	f2a64fc0 	movk	x0, #0x327e, lsl #16
     520:	d2801101 	mov	x1, #0x88                  	// #136
     524:	f2a64fc1 	movk	x1, #0x327e, lsl #16
     528:	b9400002 	ldr	w2, [x0]
     52c:	128017e0 	mov	w0, #0xffffff40            	// #-192
     530:	0a000042 	and	w2, w2, w0
     534:	b9000022 	str	w2, [x1]
     538:	d2801201 	mov	x1, #0x90                  	// #144
     53c:	f2a64fc1 	movk	x1, #0x327e, lsl #16
     540:	b9400022 	ldr	w2, [x1]
     544:	d2801201 	mov	x1, #0x90                  	// #144
     548:	f2a64fc1 	movk	x1, #0x327e, lsl #16
     54c:	12157842 	and	w2, w2, #0xfffffbff
     550:	b9000022 	str	w2, [x1]
     554:	d2801201 	mov	x1, #0x90                  	// #144
     558:	f2a64fc1 	movk	x1, #0x327e, lsl #16
     55c:	b9400022 	ldr	w2, [x1]
     560:	d2801201 	mov	x1, #0x90                  	// #144
     564:	f2a64fc1 	movk	x1, #0x327e, lsl #16
     568:	32150042 	orr	w2, w2, #0x800
     56c:	b9000022 	str	w2, [x1]
     570:	d2801281 	mov	x1, #0x94                  	// #148
     574:	f2a64fc1 	movk	x1, #0x327e, lsl #16
     578:	b9400021 	ldr	w1, [x1]
     57c:	0a000021 	and	w1, w1, w0
     580:	d2801280 	mov	x0, #0x94                  	// #148
     584:	f2a64fc0 	movk	x0, #0x327e, lsl #16
     588:	b9000001 	str	w1, [x0]
     58c:	d2801300 	mov	x0, #0x98                  	// #152
     590:	f2a64fc0 	movk	x0, #0x327e, lsl #16
     594:	b9400001 	ldr	w1, [x0]
     598:	d2801300 	mov	x0, #0x98                  	// #152
     59c:	f2a64fc0 	movk	x0, #0x327e, lsl #16
     5a0:	32001021 	orr	w1, w1, #0x1f
     5a4:	b9000001 	str	w1, [x0]
     5a8:	d2801380 	mov	x0, #0x9c                  	// #156
     5ac:	f2a64fc0 	movk	x0, #0x327e, lsl #16
     5b0:	b9400001 	ldr	w1, [x0]
     5b4:	12800220 	mov	w0, #0xffffffee            	// #-18
     5b8:	0a000021 	and	w1, w1, w0
     5bc:	d2801380 	mov	x0, #0x9c                  	// #156
     5c0:	f2a64fc0 	movk	x0, #0x327e, lsl #16
     5c4:	b9000001 	str	w1, [x0]
     5c8:	d2801580 	mov	x0, #0xac                  	// #172
     5cc:	f2a64fc0 	movk	x0, #0x327e, lsl #16
     5d0:	b9400001 	ldr	w1, [x0]
     5d4:	d2801580 	mov	x0, #0xac                  	// #172
     5d8:	f2a64fc0 	movk	x0, #0x327e, lsl #16
     5dc:	12137821 	and	w1, w1, #0xffffefff
     5e0:	b9000001 	str	w1, [x0]
     5e4:	d2801580 	mov	x0, #0xac                  	// #172
     5e8:	f2a64fc0 	movk	x0, #0x327e, lsl #16
     5ec:	b9400001 	ldr	w1, [x0]
     5f0:	d2801580 	mov	x0, #0xac                  	// #172
     5f4:	f2a64fc0 	movk	x0, #0x327e, lsl #16
     5f8:	32130021 	orr	w1, w1, #0x2000
     5fc:	b9000001 	str	w1, [x0]
     600:	d2801400 	mov	x0, #0xa0                  	// #160
     604:	f2a64fc0 	movk	x0, #0x327e, lsl #16
     608:	b9400001 	ldr	w1, [x0]
     60c:	d2801400 	mov	x0, #0xa0                  	// #160
     610:	f2a64fc0 	movk	x0, #0x327e, lsl #16
     614:	32000021 	orr	w1, w1, #0x1
     618:	b9000001 	str	w1, [x0]
     61c:	d2801400 	mov	x0, #0xa0                  	// #160
     620:	f2a64fc0 	movk	x0, #0x327e, lsl #16
     624:	b9400001 	ldr	w1, [x0]
     628:	d2801400 	mov	x0, #0xa0                  	// #160
     62c:	f2a64fc0 	movk	x0, #0x327e, lsl #16
     630:	321c0021 	orr	w1, w1, #0x10
     634:	b9000001 	str	w1, [x0]
     638:	d2803080 	mov	x0, #0x184                 	// #388
     63c:	f2a64fc0 	movk	x0, #0x327e, lsl #16
     640:	b9400001 	ldr	w1, [x0]
     644:	52801de0 	mov	w0, #0xef                  	// #239
     648:	2a000021 	orr	w1, w1, w0
     64c:	d2803080 	mov	x0, #0x184                 	// #388
     650:	f2a64fc0 	movk	x0, #0x327e, lsl #16
     654:	b9000001 	str	w1, [x0]
     658:	d2801c80 	mov	x0, #0xe4                  	// #228
     65c:	f2a64fc0 	movk	x0, #0x327e, lsl #16
     660:	b9400001 	ldr	w1, [x0]
     664:	d2801c80 	mov	x0, #0xe4                  	// #228
     668:	f2a64fc0 	movk	x0, #0x327e, lsl #16
     66c:	32140421 	orr	w1, w1, #0x3000
     670:	b9000001 	str	w1, [x0]
     674:	d65f03c0 	ret
     678:	d2804480 	mov	x0, #0x224                 	// #548
     67c:	f2a64100 	movk	x0, #0x3208, lsl #16
     680:	52800041 	mov	w1, #0x2                   	// #2
     684:	b9000001 	str	w1, [x0]
     688:	d2805100 	mov	x0, #0x288                 	// #648
     68c:	f2a64fc0 	movk	x0, #0x327e, lsl #16
     690:	b9400002 	ldr	w2, [x0]
     694:	d2805100 	mov	x0, #0x288                 	// #648
     698:	f2a64fc0 	movk	x0, #0x327e, lsl #16
     69c:	32180042 	orr	w2, w2, #0x100
     6a0:	b9000002 	str	w2, [x0]
     6a4:	d2805980 	mov	x0, #0x2cc                 	// #716
     6a8:	f2a64100 	movk	x0, #0x3208, lsl #16
     6ac:	b9000001 	str	w1, [x0]
     6b0:	d280a180 	mov	x0, #0x50c                 	// #1292
     6b4:	f2a64fc0 	movk	x0, #0x327e, lsl #16
     6b8:	b9400001 	ldr	w1, [x0]
     6bc:	d280a180 	mov	x0, #0x50c                 	// #1292
     6c0:	f2a64fc0 	movk	x0, #0x327e, lsl #16
     6c4:	32000021 	orr	w1, w1, #0x1
     6c8:	b9000001 	str	w1, [x0]
     6cc:	d2804b00 	mov	x0, #0x258                 	// #600
     6d0:	f2a64fc0 	movk	x0, #0x327e, lsl #16
     6d4:	b9400001 	ldr	w1, [x0]
     6d8:	d2804b00 	mov	x0, #0x258                 	// #600
     6dc:	f2a64fc0 	movk	x0, #0x327e, lsl #16
     6e0:	32000021 	orr	w1, w1, #0x1
     6e4:	b9000001 	str	w1, [x0]
     6e8:	d65f03c0 	ret
     6ec:	a9be7bfd 	stp	x29, x30, [sp, #-32]!
     6f0:	5289cac1 	mov	w1, #0x4e56                	// #20054
     6f4:	910003fd 	mov	x29, sp
     6f8:	f9000bf3 	str	x19, [sp, #16]
     6fc:	d2b04013 	mov	x19, #0x82000000            	// #2181038080
     700:	72a868a1 	movk	w1, #0x4345, lsl #16
     704:	7104081f 	cmp	w0, #0x102
     708:	b9000261 	str	w1, [x19]
     70c:	b9000660 	str	w0, [x19, #4]
     710:	f900067f 	str	xzr, [x19, #8]
     714:	54000081 	b.ne	0x724  // b.any
     718:	97fffe6e 	bl	0xd0
     71c:	b9001e60 	str	w0, [x19, #28]
     720:	14000002 	b	0x728
     724:	b9001e7f 	str	wzr, [x19, #28]
     728:	f9400bf3 	ldr	x19, [sp, #16]
     72c:	a8c27bfd 	ldp	x29, x30, [sp], #32
     730:	d65f03c0 	ret
     734:	a9be7bfd 	stp	x29, x30, [sp, #-32]!
     738:	b0000060 	adrp	x0, 0xd000
     73c:	910003fd 	mov	x29, sp
     740:	91304000 	add	x0, x0, #0xc10
     744:	f9000bf3 	str	x19, [sp, #16]
     748:	9400024b 	bl	0x1074
     74c:	d2801c00 	mov	x0, #0xe0                  	// #224
     750:	f2a64fa0 	movk	x0, #0x327d, lsl #16
     754:	b0000073 	adrp	x19, 0xd000
     758:	91336673 	add	x19, x19, #0xcd9
     75c:	b9400000 	ldr	w0, [x0]
     760:	94000228 	bl	0x1000
     764:	d2801c80 	mov	x0, #0xe4                  	// #228
     768:	f2a64fa0 	movk	x0, #0x327d, lsl #16
     76c:	b9400000 	ldr	w0, [x0]
     770:	94000224 	bl	0x1000
     774:	d2801f00 	mov	x0, #0xf8                  	// #248
     778:	f2a64fa0 	movk	x0, #0x327d, lsl #16
     77c:	b9400000 	ldr	w0, [x0]
     780:	94000220 	bl	0x1000
     784:	aa1303e0 	mov	x0, x19
     788:	9400023b 	bl	0x1074
     78c:	b0000060 	adrp	x0, 0xd000
     790:	91306c00 	add	x0, x0, #0xc1b
     794:	94000238 	bl	0x1074
     798:	52830000 	mov	w0, #0x1800                	// #6144
     79c:	72a64240 	movk	w0, #0x3212, lsl #16
     7a0:	94001f76 	bl	0x8578
     7a4:	94000217 	bl	0x1000
     7a8:	52830080 	mov	w0, #0x1804                	// #6148
     7ac:	72a64240 	movk	w0, #0x3212, lsl #16
     7b0:	94001f72 	bl	0x8578
     7b4:	94000213 	bl	0x1000
     7b8:	aa1303e0 	mov	x0, x19
     7bc:	9400022e 	bl	0x1074
     7c0:	b0000060 	adrp	x0, 0xd000
     7c4:	91309800 	add	x0, x0, #0xc26
     7c8:	9400022b 	bl	0x1074
     7cc:	52836f80 	mov	w0, #0x1b7c                	// #7036
     7d0:	72a64240 	movk	w0, #0x3212, lsl #16
     7d4:	94001f69 	bl	0x8578
     7d8:	d3410400 	ubfx	x0, x0, #1, #1
     7dc:	94000209 	bl	0x1000
     7e0:	aa1303e0 	mov	x0, x19
     7e4:	94000224 	bl	0x1074
     7e8:	b0000060 	adrp	x0, 0xd000
     7ec:	9130c800 	add	x0, x0, #0xc32
     7f0:	94000221 	bl	0x1074
     7f4:	52836f80 	mov	w0, #0x1b7c                	// #7036
     7f8:	72a64240 	movk	w0, #0x3212, lsl #16
     7fc:	94001f5f 	bl	0x8578
     800:	d3420800 	ubfx	x0, x0, #2, #1
     804:	940001ff 	bl	0x1000
     808:	aa1303e0 	mov	x0, x19
     80c:	9400021a 	bl	0x1074
     810:	b0000060 	adrp	x0, 0xd000
     814:	9130f800 	add	x0, x0, #0xc3e
     818:	94000217 	bl	0x1074
     81c:	52836d00 	mov	w0, #0x1b68                	// #7016
     820:	72a64240 	movk	w0, #0x3212, lsl #16
     824:	94001f55 	bl	0x8578
     828:	d3420800 	ubfx	x0, x0, #2, #1
     82c:	940001f5 	bl	0x1000
     830:	aa1303e0 	mov	x0, x19
     834:	94000210 	bl	0x1074
     838:	b0000060 	adrp	x0, 0xd000
     83c:	91312800 	add	x0, x0, #0xc4a
     840:	9400020d 	bl	0x1074
     844:	52836d00 	mov	w0, #0x1b68                	// #7016
     848:	72a64240 	movk	w0, #0x3212, lsl #16
     84c:	94001f4b 	bl	0x8578
     850:	d3430c00 	ubfx	x0, x0, #3, #1
     854:	940001eb 	bl	0x1000
     858:	aa1303e0 	mov	x0, x19
     85c:	94000206 	bl	0x1074
     860:	b0000060 	adrp	x0, 0xd000
     864:	91315800 	add	x0, x0, #0xc56
     868:	94000203 	bl	0x1074
     86c:	52836d00 	mov	w0, #0x1b68                	// #7016
     870:	72a64240 	movk	w0, #0x3212, lsl #16
     874:	94001f41 	bl	0x8578
     878:	d34f3c00 	ubfx	x0, x0, #15, #1
     87c:	940001e1 	bl	0x1000
     880:	aa1303e0 	mov	x0, x19
     884:	940001fc 	bl	0x1074
     888:	b0000060 	adrp	x0, 0xd000
     88c:	91318800 	add	x0, x0, #0xc62
     890:	940001f9 	bl	0x1074
     894:	52836d00 	mov	w0, #0x1b68                	// #7016
     898:	72a64240 	movk	w0, #0x3212, lsl #16
     89c:	94001f37 	bl	0x8578
     8a0:	d3441000 	ubfx	x0, x0, #4, #1
     8a4:	940001d7 	bl	0x1000
     8a8:	aa1303e0 	mov	x0, x19
     8ac:	f9400bf3 	ldr	x19, [sp, #16]
     8b0:	a8c27bfd 	ldp	x29, x30, [sp], #32
     8b4:	140001f0 	b	0x1074
     8b8:	d2806000 	mov	x0, #0x300                 	// #768
     8bc:	f2a64fc0 	movk	x0, #0x327e, lsl #16
     8c0:	a9bd7bfd 	stp	x29, x30, [sp, #-48]!
     8c4:	910003fd 	mov	x29, sp
     8c8:	b9400001 	ldr	w1, [x0]
     8cc:	d2806000 	mov	x0, #0x300                 	// #768
     8d0:	f2a64fc0 	movk	x0, #0x327e, lsl #16
     8d4:	f9000bf3 	str	x19, [sp, #16]
     8d8:	320e0021 	orr	w1, w1, #0x40000
     8dc:	b9000001 	str	w1, [x0]
     8e0:	d53e1101 	mrs	x1, scr_el3
     8e4:	b27d0021 	orr	x1, x1, #0x8
     8e8:	d51e1101 	msr	scr_el3, x1
     8ec:	d50344ff 	msr	daifclr, #0x4
     8f0:	9400253f 	bl	0x9dec
     8f4:	d2800080 	mov	x0, #0x4                   	// #4
     8f8:	f2a64fa0 	movk	x0, #0x327d, lsl #16
     8fc:	b9400001 	ldr	w1, [x0]
     900:	d2800080 	mov	x0, #0x4                   	// #4
     904:	f2a64fa0 	movk	x0, #0x327d, lsl #16
     908:	32140021 	orr	w1, w1, #0x1000
     90c:	b9000001 	str	w1, [x0]
     910:	d2a64fa0 	mov	x0, #0x327d0000            	// #847052800
     914:	b9400001 	ldr	w1, [x0]
     918:	32000021 	orr	w1, w1, #0x1
     91c:	b9000001 	str	w1, [x0]
     920:	d2800180 	mov	x0, #0xc                   	// #12
     924:	f2a64fa0 	movk	x0, #0x327d, lsl #16
     928:	b9400001 	ldr	w1, [x0]
     92c:	d2800180 	mov	x0, #0xc                   	// #12
     930:	f2a64fa0 	movk	x0, #0x327d, lsl #16
     934:	32000021 	orr	w1, w1, #0x1
     938:	b9000001 	str	w1, [x0]
     93c:	528003c0 	mov	w0, #0x1e                  	// #30
     940:	940024f4 	bl	0x9d10
     944:	d2800180 	mov	x0, #0xc                   	// #12
     948:	f2a64fa0 	movk	x0, #0x327d, lsl #16
     94c:	b9400001 	ldr	w1, [x0]
     950:	d2800180 	mov	x0, #0xc                   	// #12
     954:	f2a64fa0 	movk	x0, #0x327d, lsl #16
     958:	121f7821 	and	w1, w1, #0xfffffffe
     95c:	b9000001 	str	w1, [x0]
     960:	d2802680 	mov	x0, #0x134                 	// #308
     964:	f2a64fa0 	movk	x0, #0x327d, lsl #16
     968:	b9400001 	ldr	w1, [x0]
     96c:	d2802680 	mov	x0, #0x134                 	// #308
     970:	f2a64fa0 	movk	x0, #0x327d, lsl #16
     974:	32000021 	orr	w1, w1, #0x1
     978:	b9000001 	str	w1, [x0]
     97c:	d2802680 	mov	x0, #0x134                 	// #308
     980:	f2a64fa0 	movk	x0, #0x327d, lsl #16
     984:	b9400001 	ldr	w1, [x0]
     988:	d2802680 	mov	x0, #0x134                 	// #308
     98c:	f2a64fa0 	movk	x0, #0x327d, lsl #16
     990:	321b0021 	orr	w1, w1, #0x20
     994:	b9000001 	str	w1, [x0]
     998:	d2802680 	mov	x0, #0x134                 	// #308
     99c:	f2a64fa0 	movk	x0, #0x327d, lsl #16
     9a0:	b9400000 	ldr	w0, [x0]
     9a4:	3637ffa0 	tbz	w0, #6, 0x998
     9a8:	90000073 	adrp	x19, 0xc000
     9ac:	911a8273 	add	x19, x19, #0x6a0
     9b0:	97ffff32 	bl	0x678
     9b4:	97fffe49 	bl	0x2d8
     9b8:	94001f19 	bl	0x861c
     9bc:	97fffec9 	bl	0x4e0
     9c0:	940023ca 	bl	0x98e8
     9c4:	b9409e61 	ldr	w1, [x19, #156]
     9c8:	90000060 	adrp	x0, 0xc000
     9cc:	9131b800 	add	x0, x0, #0xc6e
     9d0:	94002402 	bl	0x99d8
     9d4:	b940aa61 	ldr	w1, [x19, #168]
     9d8:	90000060 	adrp	x0, 0xc000
     9dc:	9131d400 	add	x0, x0, #0xc75
     9e0:	940023fe 	bl	0x99d8
     9e4:	b940b661 	ldr	w1, [x19, #180]
     9e8:	90000060 	adrp	x0, 0xc000
     9ec:	9131f400 	add	x0, x0, #0xc7d
     9f0:	940023fa 	bl	0x99d8
     9f4:	b9002fbf 	str	wzr, [x29, #44]
     9f8:	b9402fa0 	ldr	w0, [x29, #44]
     9fc:	7103fc1f 	cmp	w0, #0xff
     a00:	540000a8 	b.hi	0xa14  // b.pmore
     a04:	b9402fa0 	ldr	w0, [x29, #44]
     a08:	11000400 	add	w0, w0, #0x1
     a0c:	b9002fa0 	str	w0, [x29, #44]
     a10:	17fffffa 	b	0x9f8
     a14:	97fffdb3 	bl	0xe0
     a18:	52927c00 	mov	w0, #0x93e0                	// #37856
     a1c:	72a00080 	movk	w0, #0x4, lsl #16
     a20:	94002546 	bl	0x9f38
     a24:	94002441 	bl	0x9b28
     a28:	94000aaf 	bl	0x34e4
     a2c:	94001f51 	bl	0x8770
     a30:	97ffff41 	bl	0x734
     a34:	d2805a00 	mov	x0, #0x2d0                 	// #720
     a38:	f2a64100 	movk	x0, #0x3208, lsl #16
     a3c:	f9400bf3 	ldr	x19, [sp, #16]
     a40:	b9400001 	ldr	w1, [x0]
     a44:	d2805a00 	mov	x0, #0x2d0                 	// #720
     a48:	f2a64100 	movk	x0, #0x3208, lsl #16
     a4c:	32000421 	orr	w1, w1, #0x3
     a50:	b9000001 	str	w1, [x0]
     a54:	a8c37bfd 	ldp	x29, x30, [sp], #48
     a58:	d65f03c0 	ret
     a5c:	14002057 	b	0x8bb8
     a60:	a9bf7bfd 	stp	x29, x30, [sp, #-16]!
     a64:	910003fd 	mov	x29, sp
     a68:	39402003 	ldrb	w3, [x0, #8]
     a6c:	7100147f 	cmp	w3, #0x5
     a70:	540000a1 	b.ne	0xa84  // b.any
     a74:	9400003d 	bl	0xb68
     a78:	6b1f001f 	cmp	w0, wzr
     a7c:	5a9f03e0 	csetm	w0, ne  // ne = any
     a80:	14000002 	b	0xa88
     a84:	12800000 	mov	w0, #0xffffffff            	// #-1
     a88:	a8c17bfd 	ldp	x29, x30, [sp], #16
     a8c:	d65f03c0 	ret
     a90:	a9be7bfd 	stp	x29, x30, [sp, #-32]!
     a94:	910003fd 	mov	x29, sp
     a98:	f9000bf3 	str	x19, [sp, #16]
     a9c:	aa0303f3 	mov	x19, x3
     aa0:	b4000040 	cbz	x0, 0xaa8
     aa4:	b5000061 	cbnz	x1, 0xab0
     aa8:	d2800000 	mov	x0, #0x0                   	// #0
     aac:	1400000a 	b	0xad4
     ab0:	f9403804 	ldr	x4, [x0, #112]
     ab4:	b9400400 	ldr	w0, [x0, #4]
     ab8:	f9402421 	ldr	x1, [x1, #72]
     abc:	8b22c021 	add	x1, x1, w2, sxtw
     ac0:	d2800022 	mov	x2, #0x1                   	// #1
     ac4:	d63f0080 	blr	x4
     ac8:	f100041f 	cmp	x0, #0x1
     acc:	54fffee1 	b.ne	0xaa8  // b.any
     ad0:	aa1303e0 	mov	x0, x19
     ad4:	f9400bf3 	ldr	x19, [sp, #16]
     ad8:	a8c27bfd 	ldp	x29, x30, [sp], #32
     adc:	d65f03c0 	ret
     ae0:	a9bd7bfd 	stp	x29, x30, [sp, #-48]!
     ae4:	910003fd 	mov	x29, sp
     ae8:	a90153f3 	stp	x19, x20, [sp, #16]
     aec:	f90013f5 	str	x21, [sp, #32]
     af0:	aa0203f3 	mov	x19, x2
     af4:	aa0103f5 	mov	x21, x1
     af8:	b4000080 	cbz	x0, 0xb08
     afc:	eb1f005f 	cmp	x2, xzr
     b00:	1a9f17f4 	cset	w20, eq  // eq = none
     b04:	34000074 	cbz	w20, 0xb10
     b08:	52800000 	mov	w0, #0x0                   	// #0
     b0c:	14000013 	b	0xb58
     b10:	f9403804 	ldr	x4, [x0, #112]
     b14:	b9400400 	ldr	w0, [x0, #4]
     b18:	d2800022 	mov	x2, #0x1                   	// #1
     b1c:	aa1303e3 	mov	x3, x19
     b20:	d63f0080 	blr	x4
     b24:	f100041f 	cmp	x0, #0x1
     b28:	54ffff01 	b.ne	0xb08  // b.any
     b2c:	d288c8a2 	mov	x2, #0x4645                	// #17989
     b30:	f2a40922 	movk	x2, #0x2049, lsl #16
     b34:	f9400263 	ldr	x3, [x19]
     b38:	f2c82a02 	movk	x2, #0x4150, lsl #32
     b3c:	f2ea8a42 	movk	x2, #0x5452, lsl #48
     b40:	eb02007f 	cmp	x3, x2
     b44:	2a1403e0 	mov	w0, w20
     b48:	54000081 	b.ne	0xb58  // b.any
     b4c:	f9400e60 	ldr	x0, [x19, #24]
     b50:	eb15001f 	cmp	x0, x21
     b54:	1a9f17e0 	cset	w0, eq  // eq = none
     b58:	a94153f3 	ldp	x19, x20, [sp, #16]
     b5c:	f94013f5 	ldr	x21, [sp, #32]
     b60:	a8c37bfd 	ldp	x29, x30, [sp], #48
     b64:	d65f03c0 	ret
     b68:	d110c3ff 	sub	sp, sp, #0x430
     b6c:	a9bc7bfd 	stp	x29, x30, [sp, #-64]!
     b70:	910003fd 	mov	x29, sp
     b74:	a90153f3 	stp	x19, x20, [sp, #16]
     b78:	a90363f7 	stp	x23, x24, [sp, #48]
     b7c:	a9025bf5 	stp	x21, x22, [sp, #32]
     b80:	aa0003f3 	mov	x19, x0
     b84:	aa0103f7 	mov	x23, x1
     b88:	aa0203f4 	mov	x20, x2
     b8c:	b4000040 	cbz	x0, 0xb94
     b90:	b5000062 	cbnz	x2, 0xb9c
     b94:	12800000 	mov	w0, #0xffffffff            	// #-1
     b98:	1400003e 	b	0xc90
     b9c:	b4ffffc1 	cbz	x1, 0xb94
     ba0:	d2800021 	mov	x1, #0x1                   	// #1
     ba4:	9101c3a2 	add	x2, x29, #0x70
     ba8:	910103a3 	add	x3, x29, #0x40
     bac:	f90023bf 	str	xzr, [x29, #64]
     bb0:	97ffffcc 	bl	0xae0
     bb4:	7100041f 	cmp	w0, #0x1
     bb8:	54000081 	b.ne	0xbc8  // b.any
     bbc:	52800016 	mov	w22, #0x0                   	// #0
     bc0:	910123b8 	add	x24, x29, #0x48
     bc4:	1400000d 	b	0xbf8
     bc8:	f9400a61 	ldr	x1, [x19, #16]
     bcc:	aa1303e0 	mov	x0, x19
     bd0:	d1000421 	sub	x1, x1, #0x1
     bd4:	9101c3a2 	add	x2, x29, #0x70
     bd8:	910103a3 	add	x3, x29, #0x40
     bdc:	97ffffc1 	bl	0xae0
     be0:	7100041f 	cmp	w0, #0x1
     be4:	54fffec0 	b.eq	0xbbc  // b.none
     be8:	17ffffeb 	b	0xb94
     bec:	110006d6 	add	w22, w22, #0x1
     bf0:	7100c2df 	cmp	w22, #0x30
     bf4:	54fffd00 	b.eq	0xb94  // b.none
     bf8:	aa1303e0 	mov	x0, x19
     bfc:	9101c3a1 	add	x1, x29, #0x70
     c00:	2a1603e2 	mov	w2, w22
     c04:	9109c3a3 	add	x3, x29, #0x270
     c08:	97ffffa2 	bl	0xa90
     c0c:	b4fffc40 	cbz	x0, 0xb94
     c10:	52800015 	mov	w21, #0x0                   	// #0
     c14:	f9400e60 	ldr	x0, [x19, #24]
     c18:	d347fc00 	lsr	x0, x0, #7
     c1c:	eb35401f 	cmp	x0, w21, uxtw
     c20:	54fffe69 	b.ls	0xbec  // b.plast
     c24:	d37962a0 	ubfiz	x0, x21, #7, #25
     c28:	9109c3a1 	add	x1, x29, #0x270
     c2c:	8b000020 	add	x0, x1, x0
     c30:	d2800003 	mov	x3, #0x0                   	// #0
     c34:	f90023a0 	str	x0, [x29, #64]
     c38:	8b030401 	add	x1, x0, x3, lsl #1
     c3c:	79407021 	ldrh	w1, [x1, #56]
     c40:	38386861 	strb	w1, [x3, x24]
     c44:	91000463 	add	x3, x3, #0x1
     c48:	f100907f 	cmp	x3, #0x24
     c4c:	54ffff61 	b.ne	0xc38  // b.any
     c50:	aa1803e0 	mov	x0, x24
     c54:	aa1703e1 	mov	x1, x23
     c58:	94000098 	bl	0xeb8
     c5c:	35000160 	cbnz	w0, 0xc88
     c60:	f94023a2 	ldr	x2, [x29, #64]
     c64:	f9401041 	ldr	x1, [x2, #32]
     c68:	f9401442 	ldr	x2, [x2, #40]
     c6c:	f9000281 	str	x1, [x20]
     c70:	91000442 	add	x2, x2, #0x1
     c74:	cb010041 	sub	x1, x2, x1
     c78:	f9000681 	str	x1, [x20, #8]
     c7c:	f9400e61 	ldr	x1, [x19, #24]
     c80:	f9000a81 	str	x1, [x20, #16]
     c84:	14000003 	b	0xc90
     c88:	110006b5 	add	w21, w21, #0x1
     c8c:	17ffffe2 	b	0xc14
     c90:	a94153f3 	ldp	x19, x20, [sp, #16]
     c94:	a9425bf5 	ldp	x21, x22, [sp, #32]
     c98:	a94363f7 	ldp	x23, x24, [sp, #48]
     c9c:	a8c47bfd 	ldp	x29, x30, [sp], #64
     ca0:	9110c3ff 	add	sp, sp, #0x430
     ca4:	d65f03c0 	ret
     ca8:	a9be7bfd 	stp	x29, x30, [sp, #-32]!
     cac:	52810401 	mov	w1, #0x820                 	// #2080
     cb0:	910003fd 	mov	x29, sp
     cb4:	f9000bf3 	str	x19, [sp, #16]
     cb8:	aa0003f3 	mov	x19, x0
     cbc:	90000060 	adrp	x0, 0xc000
     cc0:	91321000 	add	x0, x0, #0xc84
     cc4:	d2b3e002 	mov	x2, #0x9f000000            	// #2667577344
     cc8:	9400250d 	bl	0xa0fc
     ccc:	35000b80 	cbnz	w0, 0xe3c
     cd0:	d2810001 	mov	x1, #0x800                 	// #2048
     cd4:	f2b3e001 	movk	x1, #0x9f00, lsl #16
     cd8:	52886842 	mov	w2, #0x4342                	// #17218
     cdc:	72a84822 	movk	w2, #0x4241, lsl #16
     ce0:	b9400423 	ldr	w3, [x1, #4]
     ce4:	2a0003e1 	mov	w1, w0
     ce8:	6b02007f 	cmp	w3, w2
     cec:	54000aa1 	b.ne	0xe40  // b.any
     cf0:	d2810001 	mov	x1, #0x800                 	// #2048
     cf4:	f2b3e001 	movk	x1, #0x9f00, lsl #16
     cf8:	39402022 	ldrb	w2, [x1, #8]
     cfc:	2a0003e1 	mov	w1, w0
     d00:	7100045f 	cmp	w2, #0x1
     d04:	540009e8 	b.hi	0xe40  // b.pmore
     d08:	d2810001 	mov	x1, #0x800                 	// #2048
     d0c:	f2b3e001 	movk	x1, #0x9f00, lsl #16
     d10:	39402420 	ldrb	w0, [x1, #9]
     d14:	12000800 	and	w0, w0, #0x7
     d18:	7100101f 	cmp	w0, #0x4
     d1c:	540000e9 	b.ls	0xd38  // b.plast
     d20:	d2810001 	mov	x1, #0x800                 	// #2048
     d24:	f2b3e001 	movk	x1, #0x9f00, lsl #16
     d28:	52800080 	mov	w0, #0x4                   	// #4
     d2c:	39402422 	ldrb	w2, [x1, #9]
     d30:	33000802 	bfxil	w2, w0, #0, #3
     d34:	39002422 	strb	w2, [x1, #9]
     d38:	d2810001 	mov	x1, #0x800                 	// #2048
     d3c:	f2b3e001 	movk	x1, #0x9f00, lsl #16
     d40:	f0000060 	adrp	x0, 0xf000
     d44:	d2800002 	mov	x2, #0x0                   	// #0
     d48:	39402c21 	ldrb	w1, [x1, #11]
     d4c:	39014001 	strb	w1, [x0, #80]
     d50:	d2810001 	mov	x1, #0x800                 	// #2048
     d54:	f2b3e001 	movk	x1, #0x9f00, lsl #16
     d58:	39402420 	ldrb	w0, [x1, #9]
     d5c:	12800001 	mov	w1, #0xffffffff            	// #-1
     d60:	12000800 	and	w0, w0, #0x7
     d64:	6b00005f 	cmp	w2, w0
     d68:	2a0203e7 	mov	w7, w2
     d6c:	540005aa 	b.ge	0xe20  // b.tcont
     d70:	d2810004 	mov	x4, #0x800                 	// #2048
     d74:	f2b3e004 	movk	x4, #0x9f00, lsl #16
     d78:	937f7c43 	sbfiz	x3, x2, #1, #32
     d7c:	8b030084 	add	x4, x4, x3
     d80:	39403484 	ldrb	w4, [x4, #13]
     d84:	370004a4 	tbnz	w4, #0, 0xe18
     d88:	d2810004 	mov	x4, #0x800                 	// #2048
     d8c:	f2b3e004 	movk	x4, #0x9f00, lsl #16
     d90:	8b030083 	add	x3, x4, x3
     d94:	39403063 	ldrb	w3, [x3, #12]
     d98:	d3441863 	ubfx	x3, x3, #4, #3
     d9c:	340003e3 	cbz	w3, 0xe18
     da0:	3100043f 	cmn	w1, #0x1
     da4:	54000380 	b.eq	0xe14  // b.none
     da8:	d28080c3 	mov	x3, #0x406                 	// #1030
     dac:	f2a9f003 	movk	x3, #0x4f80, lsl #16
     db0:	8b030043 	add	x3, x2, x3
     db4:	d37ff864 	lsl	x4, x3, #1
     db8:	d2810003 	mov	x3, #0x800                 	// #2048
     dbc:	f2b3e003 	movk	x3, #0x9f00, lsl #16
     dc0:	39400084 	ldrb	w4, [x4]
     dc4:	8b21c463 	add	x3, x3, w1, sxtw #1
     dc8:	39403063 	ldrb	w3, [x3, #12]
     dcc:	12000c85 	and	w5, w4, #0xf
     dd0:	12000c66 	and	w6, w3, #0xf
     dd4:	6b0600bf 	cmp	w5, w6
     dd8:	540000a1 	b.ne	0xdec  // b.any
     ddc:	d3471c85 	ubfx	x5, x4, #7, #1
     de0:	d3471c66 	ubfx	x6, x3, #7, #1
     de4:	6b0600bf 	cmp	w5, w6
     de8:	54000060 	b.eq	0xdf4  // b.none
     dec:	4b0500c3 	sub	w3, w6, w5
     df0:	14000006 	b	0xe08
     df4:	d3441884 	ubfx	x4, x4, #4, #3
     df8:	d3441863 	ubfx	x3, x3, #4, #3
     dfc:	6b03009f 	cmp	w4, w3
     e00:	540000c0 	b.eq	0xe18  // b.none
     e04:	4b040063 	sub	w3, w3, w4
     e08:	6b1f007f 	cmp	w3, wzr
     e0c:	1a87a021 	csel	w1, w1, w7, ge  // ge = tcont
     e10:	14000002 	b	0xe18
     e14:	2a0203e1 	mov	w1, w2
     e18:	91000442 	add	x2, x2, #0x1
     e1c:	17ffffd2 	b	0xd64
     e20:	d2810002 	mov	x2, #0x800                 	// #2048
     e24:	f2b3e002 	movk	x2, #0x9f00, lsl #16
     e28:	8b21c442 	add	x2, x2, w1, sxtw #1
     e2c:	39403042 	ldrb	w2, [x2, #12]
     e30:	d3471c42 	ubfx	x2, x2, #7, #1
     e34:	39000262 	strb	w2, [x19]
     e38:	14000002 	b	0xe40
     e3c:	12800001 	mov	w1, #0xffffffff            	// #-1
     e40:	2a0103e0 	mov	w0, w1
     e44:	f9400bf3 	ldr	x19, [sp, #16]
     e48:	a8c27bfd 	ldp	x29, x30, [sp], #32
     e4c:	d65f03c0 	ret
     e50:	f0000060 	adrp	x0, 0xf000
     e54:	39414000 	ldrb	w0, [x0, #80]
     e58:	d65f03c0 	ret
     e5c:	aa010003 	orr	x3, x0, x1
     e60:	f2400863 	ands	x3, x3, #0x7
     e64:	aa0003e4 	mov	x4, x0
     e68:	54000181 	b.ne	0xe98  // b.any
     e6c:	cb030044 	sub	x4, x2, x3
     e70:	f1001c9f 	cmp	x4, #0x7
     e74:	540000a9 	b.ls	0xe88  // b.plast
     e78:	f8636824 	ldr	x4, [x1, x3]
     e7c:	f8236804 	str	x4, [x0, x3]
     e80:	91002063 	add	x3, x3, #0x8
     e84:	17fffffa 	b	0xe6c
     e88:	927df043 	and	x3, x2, #0xfffffffffffffff8
     e8c:	8b030004 	add	x4, x0, x3
     e90:	8b030021 	add	x1, x1, x3
     e94:	92400842 	and	x2, x2, #0x7
     e98:	d2800003 	mov	x3, #0x0                   	// #0
     e9c:	eb02007f 	cmp	x3, x2
     ea0:	540000a0 	b.eq	0xeb4  // b.none
     ea4:	38636825 	ldrb	w5, [x1, x3]
     ea8:	38236885 	strb	w5, [x4, x3]
     eac:	91000463 	add	x3, x3, #0x1
     eb0:	17fffffb 	b	0xe9c
     eb4:	d65f03c0 	ret
     eb8:	aa0003e5 	mov	x5, x0
     ebc:	d2800002 	mov	x2, #0x0                   	// #0
     ec0:	386268a3 	ldrb	w3, [x5, x2]
     ec4:	38626824 	ldrb	w4, [x1, x2]
     ec8:	4b040064 	sub	w4, w3, w4
     ecc:	13001c80 	sxtb	w0, w4
     ed0:	35000060 	cbnz	w0, 0xedc
     ed4:	91000442 	add	x2, x2, #0x1
     ed8:	35ffff43 	cbnz	w3, 0xec0
     edc:	d65f03c0 	ret
     ee0:	2a0003e0 	mov	w0, w0
     ee4:	52800024 	mov	w4, #0x1                   	// #1
     ee8:	1ac22082 	lsl	w2, w4, w2
     eec:	51000442 	sub	w2, w2, #0x1
     ef0:	b9400004 	ldr	w4, [x0]
     ef4:	1ac12045 	lsl	w5, w2, w1
     ef8:	0a030043 	and	w3, w2, w3
     efc:	0a250084 	bic	w4, w4, w5
     f00:	1ac12061 	lsl	w1, w3, w1
     f04:	2a010084 	orr	w4, w4, w1
     f08:	b9000004 	str	w4, [x0]
     f0c:	d65f03c0 	ret
     f10:	2a0003e0 	mov	w0, w0
     f14:	52800023 	mov	w3, #0x1                   	// #1
     f18:	1ac22062 	lsl	w2, w3, w2
     f1c:	b9400000 	ldr	w0, [x0]
     f20:	51000443 	sub	w3, w2, #0x1
     f24:	1ac12063 	lsl	w3, w3, w1
     f28:	0a000060 	and	w0, w3, w0
     f2c:	1ac12400 	lsr	w0, w0, w1
     f30:	d65f03c0 	ret
     f34:	d10043ff 	sub	sp, sp, #0x10
     f38:	b90007ff 	str	wzr, [sp, #4]
     f3c:	b9000bff 	str	wzr, [sp, #8]
     f40:	b9000fff 	str	wzr, [sp, #12]
     f44:	b90007ff 	str	wzr, [sp, #4]
     f48:	b94007e1 	ldr	w1, [sp, #4]
     f4c:	6b00003f 	cmp	w1, w0
     f50:	54000222 	b.cs	0xf94  // b.hs, b.nlast
     f54:	b9000bff 	str	wzr, [sp, #8]
     f58:	b9400be1 	ldr	w1, [sp, #8]
     f5c:	7100183f 	cmp	w1, #0x6
     f60:	54000128 	b.hi	0xf84  // b.pmore
     f64:	d280f701 	mov	x1, #0x7b8                 	// #1976
     f68:	f2a64fc1 	movk	x1, #0x327e, lsl #16
     f6c:	b9400021 	ldr	w1, [x1]
     f70:	b9000fe1 	str	w1, [sp, #12]
     f74:	b9400be1 	ldr	w1, [sp, #8]
     f78:	11000421 	add	w1, w1, #0x1
     f7c:	b9000be1 	str	w1, [sp, #8]
     f80:	17fffff6 	b	0xf58
     f84:	b94007e1 	ldr	w1, [sp, #4]
     f88:	11000421 	add	w1, w1, #0x1
     f8c:	b90007e1 	str	w1, [sp, #4]
     f90:	17ffffee 	b	0xf48
     f94:	910043ff 	add	sp, sp, #0x10
     f98:	d65f03c0 	ret
     f9c:	d10043ff 	sub	sp, sp, #0x10
     fa0:	b9000bff 	str	wzr, [sp, #8]
     fa4:	b9000fff 	str	wzr, [sp, #12]
     fa8:	b9000bff 	str	wzr, [sp, #8]
     fac:	b9400be1 	ldr	w1, [sp, #8]
     fb0:	6b00003f 	cmp	w1, w0
     fb4:	540000a2 	b.cs	0xfc8  // b.hs, b.nlast
     fb8:	b9400be1 	ldr	w1, [sp, #8]
     fbc:	11000421 	add	w1, w1, #0x1
     fc0:	b9000be1 	str	w1, [sp, #8]
     fc4:	17fffffa 	b	0xfac
     fc8:	910043ff 	add	sp, sp, #0x10
     fcc:	d65f03c0 	ret
     fd0:	d2ae0203 	mov	x3, #0x70100000            	// #1880096768
     fd4:	39400001 	ldrb	w1, [x0]
     fd8:	34000121 	cbz	w1, 0xffc
     fdc:	d2800182 	mov	x2, #0xc                   	// #12
     fe0:	f2ae0202 	movk	x2, #0x7010, lsl #16
     fe4:	b9400042 	ldr	w2, [x2]
     fe8:	d3483c42 	ubfx	x2, x2, #8, #8
     fec:	35ffff82 	cbnz	w2, 0xfdc
     ff0:	b9000061 	str	w1, [x3]
     ff4:	91000400 	add	x0, x0, #0x1
     ff8:	17fffff7 	b	0xfd4
     ffc:	d65f03c0 	ret
    1000:	a9bf7bfd 	stp	x29, x30, [sp, #-16]!
    1004:	f0000063 	adrp	x3, 0x10000
    1008:	91016062 	add	x2, x3, #0x58
    100c:	52800601 	mov	w1, #0x30                  	// #48
    1010:	910003fd 	mov	x29, sp
    1014:	39016061 	strb	w1, [x3, #88]
    1018:	52800f01 	mov	w1, #0x78                  	// #120
    101c:	aa0303e5 	mov	x5, x3
    1020:	39000441 	strb	w1, [x2, #1]
    1024:	52800381 	mov	w1, #0x1c                  	// #28
    1028:	1ac12403 	lsr	w3, w0, w1
    102c:	12000c63 	and	w3, w3, #0xf
    1030:	7100247f 	cmp	w3, #0x9
    1034:	1100c064 	add	w4, w3, #0x30
    1038:	54000049 	b.ls	0x1040  // b.plast
    103c:	1100dc64 	add	w4, w3, #0x37
    1040:	51001021 	sub	w1, w1, #0x4
    1044:	39000844 	strb	w4, [x2, #2]
    1048:	3100103f 	cmn	w1, #0x4
    104c:	91000442 	add	x2, x2, #0x1
    1050:	54fffec1 	b.ne	0x1028  // b.any
    1054:	910160a0 	add	x0, x5, #0x58
    1058:	52800401 	mov	w1, #0x20                  	// #32
    105c:	39002c1f 	strb	wzr, [x0, #11]
    1060:	39002801 	strb	w1, [x0, #10]
    1064:	97ffffdb 	bl	0xfd0
    1068:	52800000 	mov	w0, #0x0                   	// #0
    106c:	a8c17bfd 	ldp	x29, x30, [sp], #16
    1070:	d65f03c0 	ret
    1074:	a9bf7bfd 	stp	x29, x30, [sp, #-16]!
    1078:	910003fd 	mov	x29, sp
    107c:	97ffffd5 	bl	0xfd0
    1080:	52800000 	mov	w0, #0x0                   	// #0
    1084:	a8c17bfd 	ldp	x29, x30, [sp], #16
    1088:	d65f03c0 	ret
    108c:	a9bd7bfd 	stp	x29, x30, [sp, #-48]!
    1090:	910003fd 	mov	x29, sp
    1094:	a90153f3 	stp	x19, x20, [sp, #16]
    1098:	90000074 	adrp	x20, 0xd000
    109c:	52800413 	mov	w19, #0x20                  	// #32
    10a0:	f90013f5 	str	x21, [sp, #32]
    10a4:	91256294 	add	x20, x20, #0x958
    10a8:	72a62013 	movk	w19, #0x3100, lsl #16
    10ac:	b9400283 	ldr	w3, [x20]
    10b0:	2a1303e0 	mov	w0, w19
    10b4:	52800301 	mov	w1, #0x18                  	// #24
    10b8:	52800102 	mov	w2, #0x8                   	// #8
    10bc:	91004294 	add	x20, x20, #0x10
    10c0:	97ffff88 	bl	0xee0
    10c4:	b85f4283 	ldur	w3, [x20, #-12]
    10c8:	2a1303e0 	mov	w0, w19
    10cc:	52800201 	mov	w1, #0x10                  	// #16
    10d0:	52800102 	mov	w2, #0x8                   	// #8
    10d4:	97ffff83 	bl	0xee0
    10d8:	b85f8295 	ldur	w21, [x20, #-8]
    10dc:	2a1303e0 	mov	w0, w19
    10e0:	52800001 	mov	w1, #0x0                   	// #0
    10e4:	52800082 	mov	w2, #0x4                   	// #4
    10e8:	2a1503e3 	mov	w3, w21
    10ec:	11001273 	add	w19, w19, #0x4
    10f0:	97ffff7c 	bl	0xee0
    10f4:	2a1303e0 	mov	w0, w19
    10f8:	52800001 	mov	w1, #0x0                   	// #0
    10fc:	52800082 	mov	w2, #0x4                   	// #4
    1100:	2a1503e3 	mov	w3, w21
    1104:	97ffff77 	bl	0xee0
    1108:	52800780 	mov	w0, #0x3c                  	// #60
    110c:	72a62000 	movk	w0, #0x3100, lsl #16
    1110:	6b00027f 	cmp	w19, w0
    1114:	54fffcc1 	b.ne	0x10ac  // b.any
    1118:	a94153f3 	ldp	x19, x20, [sp, #16]
    111c:	f94013f5 	ldr	x21, [sp, #32]
    1120:	a8c37bfd 	ldp	x29, x30, [sp], #48
    1124:	d65f03c0 	ret
    1128:	a9bf7bfd 	stp	x29, x30, [sp, #-16]!
    112c:	52800022 	mov	w2, #0x1                   	// #1
    1130:	52800280 	mov	w0, #0x14                  	// #20
    1134:	910003fd 	mov	x29, sp
    1138:	52800121 	mov	w1, #0x9                   	// #9
    113c:	2a0203e3 	mov	w3, w2
    1140:	72a62000 	movk	w0, #0x3100, lsl #16
    1144:	97ffff67 	bl	0xee0
    1148:	d2802600 	mov	x0, #0x130                 	// #304
    114c:	f2a62000 	movk	x0, #0x3100, lsl #16
    1150:	52880801 	mov	w1, #0x4040                	// #16448
    1154:	72b01001 	movk	w1, #0x8080, lsl #16
    1158:	b9000001 	str	w1, [x0]
    115c:	a8c17bfd 	ldp	x29, x30, [sp], #16
    1160:	d65f03c0 	ret
    1164:	a9bf7bfd 	stp	x29, x30, [sp, #-16]!
    1168:	52863900 	mov	w0, #0x31c8                	// #12744
    116c:	910003fd 	mov	x29, sp
    1170:	52800001 	mov	w1, #0x0                   	// #0
    1174:	52800042 	mov	w2, #0x2                   	// #2
    1178:	52800063 	mov	w3, #0x3                   	// #3
    117c:	72a620a0 	movk	w0, #0x3105, lsl #16
    1180:	97ffff58 	bl	0xee0
    1184:	d2864000 	mov	x0, #0x3200                	// #12800
    1188:	f2a620a0 	movk	x0, #0x3105, lsl #16
    118c:	528cccc1 	mov	w1, #0x6666                	// #26214
    1190:	72aefba1 	movk	w1, #0x77dd, lsl #16
    1194:	529dcee3 	mov	w3, #0xee77                	// #61047
    1198:	b9000001 	str	w1, [x0]
    119c:	52864080 	mov	w0, #0x3204                	// #12804
    11a0:	52800001 	mov	w1, #0x0                   	// #0
    11a4:	52800302 	mov	w2, #0x18                  	// #24
    11a8:	72a01323 	movk	w3, #0x99, lsl #16
    11ac:	72a620a0 	movk	w0, #0x3105, lsl #16
    11b0:	97ffff4c 	bl	0xee0
    11b4:	d2868300 	mov	x0, #0x3418                	// #13336
    11b8:	f2a620a0 	movk	x0, #0x3105, lsl #16
    11bc:	528cc001 	mov	w1, #0x6600                	// #26112
    11c0:	72bff981 	movk	w1, #0xffcc, lsl #16
    11c4:	b9000001 	str	w1, [x0]
    11c8:	d2868380 	mov	x0, #0x341c                	// #13340
    11cc:	f2a620a0 	movk	x0, #0x3105, lsl #16
    11d0:	52800cc1 	mov	w1, #0x66                  	// #102
    11d4:	b9000001 	str	w1, [x0]
    11d8:	a8c17bfd 	ldp	x29, x30, [sp], #16
    11dc:	d65f03c0 	ret
    11e0:	a9bf7bfd 	stp	x29, x30, [sp, #-16]!
    11e4:	52800200 	mov	w0, #0x10                  	// #16
    11e8:	52800023 	mov	w3, #0x1                   	// #1
    11ec:	910003fd 	mov	x29, sp
    11f0:	52800001 	mov	w1, #0x0                   	// #0
    11f4:	52800282 	mov	w2, #0x14                  	// #20
    11f8:	72a00123 	movk	w3, #0x9, lsl #16
    11fc:	72a62000 	movk	w0, #0x3100, lsl #16
    1200:	97ffff38 	bl	0xee0
    1204:	52800480 	mov	w0, #0x24                  	// #36
    1208:	52800101 	mov	w1, #0x8                   	// #8
    120c:	52800022 	mov	w2, #0x1                   	// #1
    1210:	52800003 	mov	w3, #0x0                   	// #0
    1214:	72a62000 	movk	w0, #0x3100, lsl #16
    1218:	97ffff32 	bl	0xee0
    121c:	52800780 	mov	w0, #0x3c                  	// #60
    1220:	a8c17bfd 	ldp	x29, x30, [sp], #16
    1224:	72a62000 	movk	w0, #0x3100, lsl #16
    1228:	52800101 	mov	w1, #0x8                   	// #8
    122c:	52800022 	mov	w2, #0x1                   	// #1
    1230:	52800003 	mov	w3, #0x0                   	// #0
    1234:	17ffff2b 	b	0xee0
    1238:	a9bf7bfd 	stp	x29, x30, [sp, #-16]!
    123c:	52801600 	mov	w0, #0xb0                  	// #176
    1240:	910003fd 	mov	x29, sp
    1244:	52800101 	mov	w1, #0x8                   	// #8
    1248:	52800202 	mov	w2, #0x10                  	// #16
    124c:	528aaaa3 	mov	w3, #0x5555                	// #21845
    1250:	72a40200 	movk	w0, #0x2010, lsl #16
    1254:	97ffff23 	bl	0xee0
    1258:	d2801700 	mov	x0, #0xb8                  	// #184
    125c:	f2a40200 	movk	x0, #0x2010, lsl #16
    1260:	3200f3e1 	mov	w1, #0x55555555            	// #1431655765
    1264:	528cd9e3 	mov	w3, #0x66cf                	// #26319
    1268:	b9000001 	str	w1, [x0]
    126c:	52801780 	mov	w0, #0xbc                  	// #188
    1270:	52800001 	mov	w1, #0x0                   	// #0
    1274:	52800302 	mov	w2, #0x18                  	// #24
    1278:	72a00aa3 	movk	w3, #0x55, lsl #16
    127c:	72a40200 	movk	w0, #0x2010, lsl #16
    1280:	97ffff18 	bl	0xee0
    1284:	d2806500 	mov	x0, #0x328                 	// #808
    1288:	f2a64fa0 	movk	x0, #0x327d, lsl #16
    128c:	529fecc1 	mov	w1, #0xff66                	// #65382
    1290:	b9000001 	str	w1, [x0]
    1294:	a8c17bfd 	ldp	x29, x30, [sp], #16
    1298:	d65f03c0 	ret
    129c:	a9bf7bfd 	stp	x29, x30, [sp, #-16]!
    12a0:	910003fd 	mov	x29, sp
    12a4:	97ffff7a 	bl	0x108c
    12a8:	97ffffa0 	bl	0x1128
    12ac:	97ffffae 	bl	0x1164
    12b0:	97ffffcc 	bl	0x11e0
    12b4:	a8c17bfd 	ldp	x29, x30, [sp], #16
    12b8:	17ffffe0 	b	0x1238
    12bc:	a9bf7bfd 	stp	x29, x30, [sp, #-16]!
    12c0:	52800001 	mov	w1, #0x0                   	// #0
    12c4:	52800280 	mov	w0, #0x14                  	// #20
    12c8:	910003fd 	mov	x29, sp
    12cc:	2a0103e3 	mov	w3, w1
    12d0:	52800062 	mov	w2, #0x3                   	// #3
    12d4:	72a62000 	movk	w0, #0x3100, lsl #16
    12d8:	97ffff02 	bl	0xee0
    12dc:	f0000060 	adrp	x0, 0x10000
    12e0:	52800301 	mov	w1, #0x18                  	// #24
    12e4:	52800062 	mov	w2, #0x3                   	// #3
    12e8:	b9409000 	ldr	w0, [x0, #144]
    12ec:	7100c01f 	cmp	w0, #0x30
    12f0:	52802880 	mov	w0, #0x144                 	// #324
    12f4:	1a9f07e3 	cset	w3, ne  // ne = any
    12f8:	72a62000 	movk	w0, #0x3100, lsl #16
    12fc:	97fffef9 	bl	0xee0
    1300:	52800001 	mov	w1, #0x0                   	// #0
    1304:	52802900 	mov	w0, #0x148                 	// #328
    1308:	2a0103e3 	mov	w3, w1
    130c:	528001c2 	mov	w2, #0xe                   	// #14
    1310:	72a62000 	movk	w0, #0x3100, lsl #16
    1314:	97fffef3 	bl	0xee0
    1318:	52802900 	mov	w0, #0x148                 	// #328
    131c:	52800201 	mov	w1, #0x10                  	// #16
    1320:	528001c2 	mov	w2, #0xe                   	// #14
    1324:	52800003 	mov	w3, #0x0                   	// #0
    1328:	72a62000 	movk	w0, #0x3100, lsl #16
    132c:	97fffeed 	bl	0xee0
    1330:	52800001 	mov	w1, #0x0                   	// #0
    1334:	52802980 	mov	w0, #0x14c                 	// #332
    1338:	2a0103e3 	mov	w3, w1
    133c:	528001c2 	mov	w2, #0xe                   	// #14
    1340:	72a62000 	movk	w0, #0x3100, lsl #16
    1344:	97fffee7 	bl	0xee0
    1348:	52802980 	mov	w0, #0x14c                 	// #332
    134c:	52800201 	mov	w1, #0x10                  	// #16
    1350:	528001c2 	mov	w2, #0xe                   	// #14
    1354:	52800003 	mov	w3, #0x0                   	// #0
    1358:	72a62000 	movk	w0, #0x3100, lsl #16
    135c:	97fffee1 	bl	0xee0
    1360:	52800001 	mov	w1, #0x0                   	// #0
    1364:	52802a00 	mov	w0, #0x150                 	// #336
    1368:	2a0103e3 	mov	w3, w1
    136c:	528001c2 	mov	w2, #0xe                   	// #14
    1370:	72a62000 	movk	w0, #0x3100, lsl #16
    1374:	97fffedb 	bl	0xee0
    1378:	52802a00 	mov	w0, #0x150                 	// #336
    137c:	a8c17bfd 	ldp	x29, x30, [sp], #16
    1380:	72a62000 	movk	w0, #0x3100, lsl #16
    1384:	52800201 	mov	w1, #0x10                  	// #16
    1388:	528001c2 	mov	w2, #0xe                   	// #14
    138c:	52800003 	mov	w3, #0x0                   	// #0
    1390:	17fffed4 	b	0xee0
    1394:	f0000061 	adrp	x1, 0x10000
    1398:	2a0003e3 	mov	w3, w0
    139c:	91024022 	add	x2, x1, #0x90
    13a0:	b9409020 	ldr	w0, [x1, #144]
    13a4:	7100c01f 	cmp	w0, #0x30
    13a8:	54000061 	b.ne	0x13b4  // b.any
    13ac:	b9000c5f 	str	wzr, [x2, #12]
    13b0:	14000014 	b	0x1400
    13b4:	7100107f 	cmp	w3, #0x4
    13b8:	54000248 	b.hi	0x1400  // b.pmore
    13bc:	90000060 	adrp	x0, 0xd000
    13c0:	912fc000 	add	x0, x0, #0xbf0
    13c4:	91024021 	add	x1, x1, #0x90
    13c8:	38634802 	ldrb	w2, [x0, w3, uxtw]
    13cc:	10000064 	adr	x4, 0x13d8
    13d0:	8b228882 	add	x2, x4, w2, sxtb #2
    13d4:	d61f0040 	br	x2
    13d8:	52800800 	mov	w0, #0x40                  	// #64
    13dc:	14000008 	b	0x13fc
    13e0:	52801000 	mov	w0, #0x80                  	// #128
    13e4:	14000006 	b	0x13fc
    13e8:	52802000 	mov	w0, #0x100                 	// #256
    13ec:	14000004 	b	0x13fc
    13f0:	52804000 	mov	w0, #0x200                 	// #512
    13f4:	14000002 	b	0x13fc
    13f8:	52808000 	mov	w0, #0x400                 	// #1024
    13fc:	b9000c20 	str	w0, [x1, #12]
    1400:	52800280 	mov	w0, #0x14                  	// #20
    1404:	72a62000 	movk	w0, #0x3100, lsl #16
    1408:	52800001 	mov	w1, #0x0                   	// #0
    140c:	52800062 	mov	w2, #0x3                   	// #3
    1410:	17fffeb4 	b	0xee0
    1414:	a9be7bfd 	stp	x29, x30, [sp, #-32]!
    1418:	52800022 	mov	w2, #0x1                   	// #1
    141c:	910003fd 	mov	x29, sp
    1420:	a90153f3 	stp	x19, x20, [sp, #16]
    1424:	2a0003f3 	mov	w19, w0
    1428:	52800080 	mov	w0, #0x4                   	// #4
    142c:	2a0203e3 	mov	w3, w2
    1430:	52800001 	mov	w1, #0x0                   	// #0
    1434:	72a64720 	movk	w0, #0x3239, lsl #16
    1438:	97fffeaa 	bl	0xee0
    143c:	52800021 	mov	w1, #0x1                   	// #1
    1440:	52800080 	mov	w0, #0x4                   	// #4
    1444:	72a64720 	movk	w0, #0x3239, lsl #16
    1448:	2a0103e2 	mov	w2, w1
    144c:	2a0103e3 	mov	w3, w1
    1450:	97fffea4 	bl	0xee0
    1454:	7114d67f 	cmp	w19, #0x535
    1458:	540000e0 	b.eq	0x1474  // b.none
    145c:	711d2a7f 	cmp	w19, #0x74a
    1460:	54000140 	b.eq	0x1488  // b.none
    1464:	52800013 	mov	w19, #0x0                   	// #0
    1468:	2a1303f4 	mov	w20, w19
    146c:	2a1303e3 	mov	w3, w19
    1470:	1400000a 	b	0x1498
    1474:	528ec4f4 	mov	w20, #0x7627                	// #30247
    1478:	52800073 	mov	w19, #0x3                   	// #3
    147c:	72a00454 	movk	w20, #0x22, lsl #16
    1480:	52800663 	mov	w3, #0x33                  	// #51
    1484:	14000005 	b	0x1498
    1488:	528ec4f4 	mov	w20, #0x7627                	// #30247
    148c:	528000b3 	mov	w19, #0x5                   	// #5
    1490:	72a00c54 	movk	w20, #0x62, lsl #16
    1494:	528008e3 	mov	w3, #0x47                  	// #71
    1498:	52800100 	mov	w0, #0x8                   	// #8
    149c:	528002e1 	mov	w1, #0x17                  	// #23
    14a0:	528000e2 	mov	w2, #0x7                   	// #7
    14a4:	72a64720 	movk	w0, #0x3239, lsl #16
    14a8:	97fffe8e 	bl	0xee0
    14ac:	52800100 	mov	w0, #0x8                   	// #8
    14b0:	2a1403e3 	mov	w3, w20
    14b4:	52800001 	mov	w1, #0x0                   	// #0
    14b8:	528002e2 	mov	w2, #0x17                  	// #23
    14bc:	72a64720 	movk	w0, #0x3239, lsl #16
    14c0:	97fffe88 	bl	0xee0
    14c4:	52800080 	mov	w0, #0x4                   	// #4
    14c8:	2a1303e3 	mov	w3, w19
    14cc:	52800081 	mov	w1, #0x4                   	// #4
    14d0:	52800062 	mov	w2, #0x3                   	// #3
    14d4:	72a64720 	movk	w0, #0x3239, lsl #16
    14d8:	97fffe82 	bl	0xee0
    14dc:	a94153f3 	ldp	x19, x20, [sp, #16]
    14e0:	a8c27bfd 	ldp	x29, x30, [sp], #32
    14e4:	52802580 	mov	w0, #0x12c                 	// #300
    14e8:	17fffe93 	b	0xf34
    14ec:	12800002 	mov	w2, #0xffffffff            	// #-1
    14f0:	b9000022 	str	w2, [x1]
    14f4:	f0000062 	adrp	x2, 0x10000
    14f8:	91024042 	add	x2, x2, #0x90
    14fc:	b9400042 	ldr	w2, [x2]
    1500:	7100c05f 	cmp	w2, #0x30
    1504:	54000201 	b.ne	0x1544  // b.any
    1508:	7108001f 	cmp	w0, #0x200
    150c:	54000580 	b.eq	0x15bc  // b.none
    1510:	540000c8 	b.hi	0x1528  // b.pmore
    1514:	7104001f 	cmp	w0, #0x100
    1518:	540005c0 	b.eq	0x15d0  // b.none
    151c:	7106001f 	cmp	w0, #0x180
    1520:	54000520 	b.eq	0x15c4  // b.none
    1524:	14000007 	b	0x1540
    1528:	710c001f 	cmp	w0, #0x300
    152c:	54000400 	b.eq	0x15ac  // b.none
    1530:	710e941f 	cmp	w0, #0x3a5
    1534:	54000380 	b.eq	0x15a4  // b.none
    1538:	7109b81f 	cmp	w0, #0x26e
    153c:	540003c0 	b.eq	0x15b4  // b.none
    1540:	14000000 	b	0x1540
    1544:	710c001f 	cmp	w0, #0x300
    1548:	54000360 	b.eq	0x15b4  // b.none
    154c:	54000108 	b.hi	0x156c  // b.pmore
    1550:	7106001f 	cmp	w0, #0x180
    1554:	54000380 	b.eq	0x15c4  // b.none
    1558:	7108001f 	cmp	w0, #0x200
    155c:	54000300 	b.eq	0x15bc  // b.none
    1560:	7104001f 	cmp	w0, #0x100
    1564:	540003a1 	b.ne	0x15d8  // b.any
    1568:	1400001a 	b	0x15d0
    156c:	7114d41f 	cmp	w0, #0x535
    1570:	540001a0 	b.eq	0x15a4  // b.none
    1574:	54000088 	b.hi	0x1584  // b.pmore
    1578:	7110001f 	cmp	w0, #0x400
    157c:	54000180 	b.eq	0x15ac  // b.none
    1580:	14000016 	b	0x15d8
    1584:	7118001f 	cmp	w0, #0x600
    1588:	540000a0 	b.eq	0x159c  // b.none
    158c:	711d281f 	cmp	w0, #0x74a
    1590:	54000241 	b.ne	0x15d8  // b.any
    1594:	528000e0 	mov	w0, #0x7                   	// #7
    1598:	1400000c 	b	0x15c8
    159c:	528000c0 	mov	w0, #0x6                   	// #6
    15a0:	1400000a 	b	0x15c8
    15a4:	528000a0 	mov	w0, #0x5                   	// #5
    15a8:	14000008 	b	0x15c8
    15ac:	52800080 	mov	w0, #0x4                   	// #4
    15b0:	14000006 	b	0x15c8
    15b4:	52800060 	mov	w0, #0x3                   	// #3
    15b8:	14000004 	b	0x15c8
    15bc:	52800040 	mov	w0, #0x2                   	// #2
    15c0:	14000002 	b	0x15c8
    15c4:	52800020 	mov	w0, #0x1                   	// #1
    15c8:	b9000020 	str	w0, [x1]
    15cc:	14000004 	b	0x15dc
    15d0:	b900003f 	str	wzr, [x1]
    15d4:	14000002 	b	0x15dc
    15d8:	14000000 	b	0x15d8
    15dc:	52800000 	mov	w0, #0x0                   	// #0
    15e0:	d65f03c0 	ret
    15e4:	52800022 	mov	w2, #0x1                   	// #1
    15e8:	52868080 	mov	w0, #0x3404                	// #13316
    15ec:	72a620a0 	movk	w0, #0x3105, lsl #16
    15f0:	52800041 	mov	w1, #0x2                   	// #2
    15f4:	2a0203e3 	mov	w3, w2
    15f8:	17fffe3a 	b	0xee0
    15fc:	52868080 	mov	w0, #0x3404                	// #13316
    1600:	72a620a0 	movk	w0, #0x3105, lsl #16
    1604:	52800041 	mov	w1, #0x2                   	// #2
    1608:	52800022 	mov	w2, #0x1                   	// #1
    160c:	52800003 	mov	w3, #0x0                   	// #0
    1610:	17fffe34 	b	0xee0
    1614:	52800022 	mov	w2, #0x1                   	// #1
    1618:	52868080 	mov	w0, #0x3404                	// #13316
    161c:	72a620a0 	movk	w0, #0x3105, lsl #16
    1620:	52800001 	mov	w1, #0x0                   	// #0
    1624:	2a0203e3 	mov	w3, w2
    1628:	17fffe2e 	b	0xee0
    162c:	52800001 	mov	w1, #0x0                   	// #0
    1630:	52868080 	mov	w0, #0x3404                	// #13316
    1634:	72a620a0 	movk	w0, #0x3105, lsl #16
    1638:	52800022 	mov	w2, #0x1                   	// #1
    163c:	2a0103e3 	mov	w3, w1
    1640:	17fffe28 	b	0xee0
    1644:	a9bf7bfd 	stp	x29, x30, [sp, #-16]!
    1648:	52800022 	mov	w2, #0x1                   	// #1
    164c:	52820080 	mov	w0, #0x1004                	// #4100
    1650:	910003fd 	mov	x29, sp
    1654:	2a0203e3 	mov	w3, w2
    1658:	52800121 	mov	w1, #0x9                   	// #9
    165c:	72a62000 	movk	w0, #0x3100, lsl #16
    1660:	97fffe20 	bl	0xee0
    1664:	52820080 	mov	w0, #0x1004                	// #4100
    1668:	a8c17bfd 	ldp	x29, x30, [sp], #16
    166c:	72a62000 	movk	w0, #0x3100, lsl #16
    1670:	52800121 	mov	w1, #0x9                   	// #9
    1674:	52800022 	mov	w2, #0x1                   	// #1
    1678:	52800003 	mov	w3, #0x0                   	// #0
    167c:	17fffe19 	b	0xee0
    1680:	a9bd7bfd 	stp	x29, x30, [sp, #-48]!
    1684:	52800281 	mov	w1, #0x14                  	// #20
    1688:	910003fd 	mov	x29, sp
    168c:	a90153f3 	stp	x19, x20, [sp, #16]
    1690:	f0000074 	adrp	x20, 0x10000
    1694:	91032294 	add	x20, x20, #0xc8
    1698:	52800313 	mov	w19, #0x18                  	// #24
    169c:	f90013f5 	str	x21, [sp, #32]
    16a0:	9bb37c13 	umull	x19, w0, w19
    16a4:	2a0003f5 	mov	w21, w0
    16a8:	f9400280 	ldr	x0, [x20]
    16ac:	52800082 	mov	w2, #0x4                   	// #4
    16b0:	8b130003 	add	x3, x0, x19
    16b4:	52882000 	mov	w0, #0x4100                	// #16640
    16b8:	72a620a0 	movk	w0, #0x3105, lsl #16
    16bc:	b9401063 	ldr	w3, [x3, #16]
    16c0:	97fffe08 	bl	0xee0
    16c4:	f9400280 	ldr	x0, [x20]
    16c8:	52800021 	mov	w1, #0x1                   	// #1
    16cc:	8b130003 	add	x3, x0, x19
    16d0:	52882000 	mov	w0, #0x4100                	// #16640
    16d4:	528000e2 	mov	w2, #0x7                   	// #7
    16d8:	b9400863 	ldr	w3, [x3, #8]
    16dc:	72a620a0 	movk	w0, #0x3105, lsl #16
    16e0:	97fffe00 	bl	0xee0
    16e4:	f9400280 	ldr	x0, [x20]
    16e8:	52800241 	mov	w1, #0x12                  	// #18
    16ec:	8b130013 	add	x19, x0, x19
    16f0:	52882000 	mov	w0, #0x4100                	// #16640
    16f4:	52800042 	mov	w2, #0x2                   	// #2
    16f8:	b9400e63 	ldr	w3, [x19, #12]
    16fc:	72a620a0 	movk	w0, #0x3105, lsl #16
    1700:	97fffdf8 	bl	0xee0
    1704:	52882000 	mov	w0, #0x4100                	// #16640
    1708:	52800101 	mov	w1, #0x8                   	// #8
    170c:	52800062 	mov	w2, #0x3                   	// #3
    1710:	2a1503e3 	mov	w3, w21
    1714:	72a620a0 	movk	w0, #0x3105, lsl #16
    1718:	97fffdf2 	bl	0xee0
    171c:	52880080 	mov	w0, #0x4004                	// #16388
    1720:	52800022 	mov	w2, #0x1                   	// #1
    1724:	72a620a0 	movk	w0, #0x3105, lsl #16
    1728:	52800001 	mov	w1, #0x0                   	// #0
    172c:	2a0203e3 	mov	w3, w2
    1730:	97fffdec 	bl	0xee0
    1734:	d2880100 	mov	x0, #0x4008                	// #16392
    1738:	f2a620a0 	movk	x0, #0x3105, lsl #16
    173c:	b9400000 	ldr	w0, [x0]
    1740:	3607ffa0 	tbz	w0, #0, 0x1734
    1744:	52800001 	mov	w1, #0x0                   	// #0
    1748:	a94153f3 	ldp	x19, x20, [sp, #16]
    174c:	f94013f5 	ldr	x21, [sp, #32]
    1750:	52880080 	mov	w0, #0x4004                	// #16388
    1754:	a8c37bfd 	ldp	x29, x30, [sp], #48
    1758:	72a620a0 	movk	w0, #0x3105, lsl #16
    175c:	52800022 	mov	w2, #0x1                   	// #1
    1760:	2a0103e3 	mov	w3, w1
    1764:	17fffddf 	b	0xee0
    1768:	a9be7bfd 	stp	x29, x30, [sp, #-32]!
    176c:	52800081 	mov	w1, #0x4                   	// #4
    1770:	910003fd 	mov	x29, sp
    1774:	f9000bf3 	str	x19, [sp, #16]
    1778:	2a0003f3 	mov	w19, w0
    177c:	52802580 	mov	w0, #0x12c                 	// #300
    1780:	2a1303e3 	mov	w3, w19
    1784:	52800062 	mov	w2, #0x3                   	// #3
    1788:	72a62000 	movk	w0, #0x3100, lsl #16
    178c:	97fffdd5 	bl	0xee0
    1790:	52802580 	mov	w0, #0x12c                 	// #300
    1794:	2a1303e3 	mov	w3, w19
    1798:	52800081 	mov	w1, #0x4                   	// #4
    179c:	52800062 	mov	w2, #0x3                   	// #3
    17a0:	72a62000 	movk	w0, #0x3100, lsl #16
    17a4:	97fffdcf 	bl	0xee0
    17a8:	2a1303e0 	mov	w0, w19
    17ac:	f9400bf3 	ldr	x19, [sp, #16]
    17b0:	a8c27bfd 	ldp	x29, x30, [sp], #32
    17b4:	17ffffb3 	b	0x1680
    17b8:	f0000063 	adrp	x3, 0x10000
    17bc:	91024060 	add	x0, x3, #0x90
    17c0:	f0000062 	adrp	x2, 0x10000
    17c4:	b9400004 	ldr	w4, [x0]
    17c8:	91022040 	add	x0, x2, #0x88
    17cc:	7100c09f 	cmp	w4, #0x30
    17d0:	54000081 	b.ne	0x17e0  // b.any
    17d4:	b0000061 	adrp	x1, 0xe000
    17d8:	913a6021 	add	x1, x1, #0xe98
    17dc:	14000003 	b	0x17e8
    17e0:	b0000061 	adrp	x1, 0xe000
    17e4:	91092021 	add	x1, x1, #0x248
    17e8:	f9000001 	str	x1, [x0]
    17ec:	91022040 	add	x0, x2, #0x88
    17f0:	91024069 	add	x9, x3, #0x90
    17f4:	52800c05 	mov	w5, #0x60                  	// #96
    17f8:	f940000a 	ldr	x10, [x0]
    17fc:	52800000 	mov	w0, #0x0                   	// #0
    1800:	b9401121 	ldr	w1, [x9, #16]
    1804:	6b01001f 	cmp	w0, w1
    1808:	54000222 	b.cs	0x184c  // b.hs, b.nlast
    180c:	9ba57c06 	umull	x6, w0, w5
    1810:	1b057c0c 	mul	w12, w0, w5
    1814:	8b060146 	add	x6, x10, x6
    1818:	910040c6 	add	x6, x6, #0x10
    181c:	52800001 	mov	w1, #0x0                   	// #0
    1820:	52803007 	mov	w7, #0x180                 	// #384
    1824:	72a62007 	movk	w7, #0x3100, lsl #16
    1828:	0b070187 	add	w7, w12, w7
    182c:	0b0100e7 	add	w7, w7, w1
    1830:	b84044cb 	ldr	w11, [x6], #4
    1834:	11001021 	add	w1, w1, #0x4
    1838:	b90000eb 	str	w11, [x7]
    183c:	7101403f 	cmp	w1, #0x50
    1840:	54ffff01 	b.ne	0x1820  // b.any
    1844:	11000400 	add	w0, w0, #0x1
    1848:	17ffffee 	b	0x1800
    184c:	7101009f 	cmp	w4, #0x40
    1850:	54000701 	b.ne	0x1930  // b.any
    1854:	91022040 	add	x0, x2, #0x88
    1858:	90000064 	adrp	x4, 0xd000
    185c:	52800081 	mov	w1, #0x4                   	// #4
    1860:	f9400009 	ldr	x9, [x0]
    1864:	52806080 	mov	w0, #0x304                 	// #772
    1868:	72a62000 	movk	w0, #0x3100, lsl #16
    186c:	91024067 	add	x7, x3, #0x90
    1870:	52800c0a 	mov	w10, #0x60                  	// #96
    1874:	913fe084 	add	x4, x4, #0xff8
    1878:	b94010e5 	ldr	w5, [x7, #16]
    187c:	6b05003f 	cmp	w1, w5
    1880:	54000282 	b.cs	0x18d0  // b.hs, b.nlast
    1884:	9baa7c23 	umull	x3, w1, w10
    1888:	d37c7c26 	ubfiz	x6, x1, #4, #32
    188c:	8b030123 	add	x3, x9, x3
    1890:	2a0003eb 	mov	w11, w0
    1894:	8b060085 	add	x5, x4, x6
    1898:	b8666886 	ldr	w6, [x4, x6]
    189c:	b9001466 	str	w6, [x3, #20]
    18a0:	b9000166 	str	w6, [x11]
    18a4:	1100a00b 	add	w11, w0, #0x28
    18a8:	b94004a6 	ldr	w6, [x5, #4]
    18ac:	b9003c66 	str	w6, [x3, #60]
    18b0:	b9000166 	str	w6, [x11]
    18b4:	1100b006 	add	w6, w0, #0x2c
    18b8:	b94008a5 	ldr	w5, [x5, #8]
    18bc:	b9004065 	str	w5, [x3, #64]
    18c0:	b90000c5 	str	w5, [x6]
    18c4:	11000421 	add	w1, w1, #0x1
    18c8:	11018000 	add	w0, w0, #0x60
    18cc:	17ffffeb 	b	0x1878
    18d0:	91022042 	add	x2, x2, #0x88
    18d4:	90000061 	adrp	x1, 0xd000
    18d8:	913fe021 	add	x1, x1, #0xff8
    18dc:	f9400040 	ldr	x0, [x2]
    18e0:	d2803303 	mov	x3, #0x198                 	// #408
    18e4:	f2a62003 	movk	x3, #0x3100, lsl #16
    18e8:	b9400c22 	ldr	w2, [x1, #12]
    18ec:	b9002802 	str	w2, [x0, #40]
    18f0:	b9000062 	str	w2, [x3]
    18f4:	d2803f03 	mov	x3, #0x1f8                 	// #504
    18f8:	f2a62003 	movk	x3, #0x3100, lsl #16
    18fc:	b9401c22 	ldr	w2, [x1, #28]
    1900:	b9008802 	str	w2, [x0, #136]
    1904:	b9000062 	str	w2, [x3]
    1908:	d2804b03 	mov	x3, #0x258                 	// #600
    190c:	f2a62003 	movk	x3, #0x3100, lsl #16
    1910:	b9402c22 	ldr	w2, [x1, #44]
    1914:	b900e802 	str	w2, [x0, #232]
    1918:	b9000062 	str	w2, [x3]
    191c:	b9403c21 	ldr	w1, [x1, #60]
    1920:	b9014801 	str	w1, [x0, #328]
    1924:	d2805700 	mov	x0, #0x2b8                 	// #696
    1928:	f2a62000 	movk	x0, #0x3100, lsl #16
    192c:	b9000001 	str	w1, [x0]
    1930:	d65f03c0 	ret
    1934:	a9bf7bfd 	stp	x29, x30, [sp, #-16]!
    1938:	52800101 	mov	w1, #0x8                   	// #8
    193c:	910003fd 	mov	x29, sp
    1940:	52800022 	mov	w2, #0x1                   	// #1
    1944:	52800003 	mov	w3, #0x0                   	// #0
    1948:	52a62000 	mov	w0, #0x31000000            	// #822083584
    194c:	97fffd65 	bl	0xee0
    1950:	52802480 	mov	w0, #0x124                 	// #292
    1954:	a8c17bfd 	ldp	x29, x30, [sp], #16
    1958:	72a62000 	movk	w0, #0x3100, lsl #16
    195c:	52800181 	mov	w1, #0xc                   	// #12
    1960:	52800022 	mov	w2, #0x1                   	// #1
    1964:	52800003 	mov	w3, #0x0                   	// #0
    1968:	17fffd5e 	b	0xee0
    196c:	d0000060 	adrp	x0, 0xf000
    1970:	91024000 	add	x0, x0, #0x90
    1974:	a9bc7bfd 	stp	x29, x30, [sp, #-64]!
    1978:	52800101 	mov	w1, #0x8                   	// #8
    197c:	910003fd 	mov	x29, sp
    1980:	b9400000 	ldr	w0, [x0]
    1984:	a90153f3 	stp	x19, x20, [sp, #16]
    1988:	7100c01f 	cmp	w0, #0x30
    198c:	1a9f17f3 	cset	w19, eq  // eq = none
    1990:	52802000 	mov	w0, #0x100                 	// #256
    1994:	2a1303e3 	mov	w3, w19
    1998:	52800022 	mov	w2, #0x1                   	// #1
    199c:	72a62000 	movk	w0, #0x3100, lsl #16
    19a0:	a9025bf5 	stp	x21, x22, [sp, #32]
    19a4:	f9001bf7 	str	x23, [sp, #48]
    19a8:	97fffd4e 	bl	0xee0
    19ac:	52802000 	mov	w0, #0x100                 	// #256
    19b0:	2a1303e3 	mov	w3, w19
    19b4:	52800001 	mov	w1, #0x0                   	// #0
    19b8:	52800022 	mov	w2, #0x1                   	// #1
    19bc:	72a62000 	movk	w0, #0x3100, lsl #16
    19c0:	52800075 	mov	w21, #0x3                   	// #3
    19c4:	97fffd47 	bl	0xee0
    19c8:	52800096 	mov	w22, #0x4                   	// #4
    19cc:	6b1f027f 	cmp	w19, wzr
    19d0:	1a9502c3 	csel	w3, w22, w21, eq  // eq = none
    19d4:	2a1603e1 	mov	w1, w22
    19d8:	2a1503e2 	mov	w2, w21
    19dc:	52a62000 	mov	w0, #0x31000000            	// #822083584
    19e0:	52000277 	eor	w23, w19, #0x1
    19e4:	97fffd3f 	bl	0xee0
    19e8:	2a1703e3 	mov	w3, w23
    19ec:	528003a1 	mov	w1, #0x1d                  	// #29
    19f0:	52800022 	mov	w2, #0x1                   	// #1
    19f4:	52a62000 	mov	w0, #0x31000000            	// #822083584
    19f8:	52800034 	mov	w20, #0x1                   	// #1
    19fc:	97fffd39 	bl	0xee0
    1a00:	6b1f027f 	cmp	w19, wzr
    1a04:	52802000 	mov	w0, #0x100                 	// #256
    1a08:	1a9402a3 	csel	w3, w21, w20, eq  // eq = none
    1a0c:	2a1603e2 	mov	w2, w22
    1a10:	52800281 	mov	w1, #0x14                  	// #20
    1a14:	72a62000 	movk	w0, #0x3100, lsl #16
    1a18:	97fffd32 	bl	0xee0
    1a1c:	528000c4 	mov	w4, #0x6                   	// #6
    1a20:	6b1f027f 	cmp	w19, wzr
    1a24:	528000e3 	mov	w3, #0x7                   	// #7
    1a28:	1a830083 	csel	w3, w4, w3, eq  // eq = none
    1a2c:	2a1503e2 	mov	w2, w21
    1a30:	52800001 	mov	w1, #0x0                   	// #0
    1a34:	52a62000 	mov	w0, #0x31000000            	// #822083584
    1a38:	97fffd2a 	bl	0xee0
    1a3c:	6b1f027f 	cmp	w19, wzr
    1a40:	52802000 	mov	w0, #0x100                 	// #256
    1a44:	52800043 	mov	w3, #0x2                   	// #2
    1a48:	1a950063 	csel	w3, w3, w21, eq  // eq = none
    1a4c:	2a1603e1 	mov	w1, w22
    1a50:	2a1503e2 	mov	w2, w21
    1a54:	72a62000 	movk	w0, #0x3100, lsl #16
    1a58:	97fffd22 	bl	0xee0
    1a5c:	52802000 	mov	w0, #0x100                 	// #256
    1a60:	2a1403e2 	mov	w2, w20
    1a64:	2a1403e3 	mov	w3, w20
    1a68:	52800221 	mov	w1, #0x11                  	// #17
    1a6c:	72a62000 	movk	w0, #0x3100, lsl #16
    1a70:	97fffd1c 	bl	0xee0
    1a74:	52802000 	mov	w0, #0x100                 	// #256
    1a78:	2a1403e2 	mov	w2, w20
    1a7c:	2a1703e3 	mov	w3, w23
    1a80:	52800161 	mov	w1, #0xb                   	// #11
    1a84:	72a62000 	movk	w0, #0x3100, lsl #16
    1a88:	97fffd16 	bl	0xee0
    1a8c:	52802000 	mov	w0, #0x100                 	// #256
    1a90:	2a1403e2 	mov	w2, w20
    1a94:	2a1703e3 	mov	w3, w23
    1a98:	52800181 	mov	w1, #0xc                   	// #12
    1a9c:	72a62000 	movk	w0, #0x3100, lsl #16
    1aa0:	97fffd10 	bl	0xee0
    1aa4:	6b1f027f 	cmp	w19, wzr
    1aa8:	52802880 	mov	w0, #0x144                 	// #324
    1aac:	1a9402a3 	csel	w3, w21, w20, eq  // eq = none
    1ab0:	2a1603e2 	mov	w2, w22
    1ab4:	52800001 	mov	w1, #0x0                   	// #0
    1ab8:	72a62000 	movk	w0, #0x3100, lsl #16
    1abc:	97fffd09 	bl	0xee0
    1ac0:	52800280 	mov	w0, #0x14                  	// #20
    1ac4:	2a1403e2 	mov	w2, w20
    1ac8:	2a1403e3 	mov	w3, w20
    1acc:	528001a1 	mov	w1, #0xd                   	// #13
    1ad0:	72a62000 	movk	w0, #0x3100, lsl #16
    1ad4:	97fffd03 	bl	0xee0
    1ad8:	6b1f027f 	cmp	w19, wzr
    1adc:	528000a4 	mov	w4, #0x5                   	// #5
    1ae0:	52802580 	mov	w0, #0x12c                 	// #300
    1ae4:	52800143 	mov	w3, #0xa                   	// #10
    1ae8:	2a1603e2 	mov	w2, w22
    1aec:	52800181 	mov	w1, #0xc                   	// #12
    1af0:	1a830083 	csel	w3, w4, w3, eq  // eq = none
    1af4:	72a62000 	movk	w0, #0x3100, lsl #16
    1af8:	97fffcfa 	bl	0xee0
    1afc:	97fffdf0 	bl	0x12bc
    1b00:	a94153f3 	ldp	x19, x20, [sp, #16]
    1b04:	a9425bf5 	ldp	x21, x22, [sp, #32]
    1b08:	f9401bf7 	ldr	x23, [sp, #48]
    1b0c:	a8c47bfd 	ldp	x29, x30, [sp], #64
    1b10:	17fffde3 	b	0x129c
    1b14:	d0000066 	adrp	x6, 0xf000
    1b18:	910240c0 	add	x0, x6, #0x90
    1b1c:	d0000063 	adrp	x3, 0xf000
    1b20:	b9400007 	ldr	w7, [x0]
    1b24:	91020060 	add	x0, x3, #0x80
    1b28:	7100c0ff 	cmp	w7, #0x30
    1b2c:	54000081 	b.ne	0x1b3c  // b.any
    1b30:	90000061 	adrp	x1, 0xd000
    1b34:	911ae021 	add	x1, x1, #0x6b8
    1b38:	14000003 	b	0x1b44
    1b3c:	90000061 	adrp	x1, 0xd000
    1b40:	91286021 	add	x1, x1, #0xa18
    1b44:	f9000001 	str	x1, [x0]
    1b48:	91020060 	add	x0, x3, #0x80
    1b4c:	52821d84 	mov	w4, #0x10ec                	// #4332
    1b50:	72a62004 	movk	w4, #0x3100, lsl #16
    1b54:	f940000c 	ldr	x12, [x0]
    1b58:	52800002 	mov	w2, #0x0                   	// #0
    1b5c:	910240cb 	add	x11, x6, #0x90
    1b60:	5280120d 	mov	w13, #0x90                  	// #144
    1b64:	5280180e 	mov	w14, #0xc0                  	// #192
    1b68:	b9401160 	ldr	w0, [x11, #16]
    1b6c:	6b00005f 	cmp	w2, w0
    1b70:	54000642 	b.cs	0x1c38  // b.hs, b.nlast
    1b74:	9bad7c45 	umull	x5, w2, w13
    1b78:	1b0e7c50 	mul	w16, w2, w14
    1b7c:	8b050185 	add	x5, x12, x5
    1b80:	910020a9 	add	x9, x5, #0x8
    1b84:	aa0903e1 	mov	x1, x9
    1b88:	52800000 	mov	w0, #0x0                   	// #0
    1b8c:	5282080a 	mov	w10, #0x1040                	// #4160
    1b90:	72a6200a 	movk	w10, #0x3100, lsl #16
    1b94:	0b0a020a 	add	w10, w16, w10
    1b98:	0b00014a 	add	w10, w10, w0
    1b9c:	b840442f 	ldr	w15, [x1], #4
    1ba0:	11001000 	add	w0, w0, #0x4
    1ba4:	b900014f 	str	w15, [x10]
    1ba8:	7101001f 	cmp	w0, #0x40
    1bac:	54ffff01 	b.ne	0x1b8c  // b.any
    1bb0:	910120a0 	add	x0, x5, #0x48
    1bb4:	51018081 	sub	w1, w4, #0x60
    1bb8:	9101f129 	add	x9, x9, #0x7c
    1bbc:	2a0103ef 	mov	w15, w1
    1bc0:	b940000a 	ldr	w10, [x0]
    1bc4:	91005000 	add	x0, x0, #0x14
    1bc8:	b90001ea 	str	w10, [x15]
    1bcc:	1100102f 	add	w15, w1, #0x4
    1bd0:	b85f000a 	ldur	w10, [x0, #-16]
    1bd4:	b90001ea 	str	w10, [x15]
    1bd8:	1100202f 	add	w15, w1, #0x8
    1bdc:	b85f400a 	ldur	w10, [x0, #-12]
    1be0:	b90001ea 	str	w10, [x15]
    1be4:	1100302f 	add	w15, w1, #0xc
    1be8:	b85f800a 	ldur	w10, [x0, #-8]
    1bec:	b90001ea 	str	w10, [x15]
    1bf0:	1100402f 	add	w15, w1, #0x10
    1bf4:	b85fc00a 	ldur	w10, [x0, #-4]
    1bf8:	eb09001f 	cmp	x0, x9
    1bfc:	b90001ea 	str	w10, [x15]
    1c00:	11008021 	add	w1, w1, #0x20
    1c04:	54fffdc1 	b.ne	0x1bbc  // b.any
    1c08:	910210a0 	add	x0, x5, #0x84
    1c0c:	2a0403e1 	mov	w1, w4
    1c10:	910240a5 	add	x5, x5, #0x90
    1c14:	2a0103e9 	mov	w9, w1
    1c18:	b840440a 	ldr	w10, [x0], #4
    1c1c:	11001021 	add	w1, w1, #0x4
    1c20:	b900012a 	str	w10, [x9]
    1c24:	eb05001f 	cmp	x0, x5
    1c28:	54ffff61 	b.ne	0x1c14  // b.any
    1c2c:	11000442 	add	w2, w2, #0x1
    1c30:	11030084 	add	w4, w4, #0xc0
    1c34:	17ffffcd 	b	0x1b68
    1c38:	710100ff 	cmp	w7, #0x40
    1c3c:	540006c1 	b.ne	0x1d14  // b.any
    1c40:	91020060 	add	x0, x3, #0x80
    1c44:	52820a81 	mov	w1, #0x1054                	// #4180
    1c48:	90000062 	adrp	x2, 0xd000
    1c4c:	f9400007 	ldr	x7, [x0]
    1c50:	72a62001 	movk	w1, #0x3100, lsl #16
    1c54:	52800000 	mov	w0, #0x0                   	// #0
    1c58:	910240c6 	add	x6, x6, #0x90
    1c5c:	52801209 	mov	w9, #0x90                  	// #144
    1c60:	9101e042 	add	x2, x2, #0x78
    1c64:	5280030a 	mov	w10, #0x18                  	// #24
    1c68:	b94010c4 	ldr	w4, [x6, #16]
    1c6c:	6b04001f 	cmp	w0, w4
    1c70:	54000202 	b.cs	0x1cb0  // b.hs, b.nlast
    1c74:	9ba97c05 	umull	x5, w0, w9
    1c78:	9baa7c04 	umull	x4, w0, w10
    1c7c:	8b0500e5 	add	x5, x7, x5
    1c80:	2a0103eb 	mov	w11, w1
    1c84:	8b04004c 	add	x12, x2, x4
    1c88:	b8646844 	ldr	w4, [x2, x4]
    1c8c:	b9001ca4 	str	w4, [x5, #28]
    1c90:	b9000164 	str	w4, [x11]
    1c94:	1102802b 	add	w11, w1, #0xa0
    1c98:	b9400584 	ldr	w4, [x12, #4]
    1c9c:	b9008ca4 	str	w4, [x5, #140]
    1ca0:	b9000164 	str	w4, [x11]
    1ca4:	11000400 	add	w0, w0, #0x1
    1ca8:	11030021 	add	w1, w1, #0xc0
    1cac:	17ffffef 	b	0x1c68
    1cb0:	91020063 	add	x3, x3, #0x80
    1cb4:	90000062 	adrp	x2, 0xd000
    1cb8:	d2820880 	mov	x0, #0x1044                	// #4164
    1cbc:	f9400061 	ldr	x1, [x3]
    1cc0:	9101e042 	add	x2, x2, #0x78
    1cc4:	f2a62000 	movk	x0, #0x3100, lsl #16
    1cc8:	b9400843 	ldr	w3, [x2, #8]
    1ccc:	b9000c23 	str	w3, [x1, #12]
    1cd0:	b9000003 	str	w3, [x0]
    1cd4:	91030000 	add	x0, x0, #0xc0
    1cd8:	b9400c43 	ldr	w3, [x2, #12]
    1cdc:	b9001423 	str	w3, [x1, #20]
    1ce0:	b8148003 	stur	w3, [x0, #-184]
    1ce4:	91006042 	add	x2, x2, #0x18
    1ce8:	b85f8043 	ldur	w3, [x2, #-8]
    1cec:	b9002023 	str	w3, [x1, #32]
    1cf0:	b8154003 	stur	w3, [x0, #-172]
    1cf4:	91024021 	add	x1, x1, #0x90
    1cf8:	b85fc043 	ldur	w3, [x2, #-4]
    1cfc:	b8194023 	stur	w3, [x1, #-108]
    1d00:	b8158003 	stur	w3, [x0, #-168]
    1d04:	d2826883 	mov	x3, #0x1344                	// #4932
    1d08:	f2a62003 	movk	x3, #0x3100, lsl #16
    1d0c:	eb03001f 	cmp	x0, x3
    1d10:	54fffdc1 	b.ne	0x1cc8  // b.any
    1d14:	d65f03c0 	ret
    1d18:	d0000060 	adrp	x0, 0xf000
    1d1c:	91024000 	add	x0, x0, #0x90
    1d20:	52800241 	mov	w1, #0x12                  	// #18
    1d24:	52800022 	mov	w2, #0x1                   	// #1
    1d28:	b9400000 	ldr	w0, [x0]
    1d2c:	7100c01f 	cmp	w0, #0x30
    1d30:	52820080 	mov	w0, #0x1004                	// #4100
    1d34:	72a62000 	movk	w0, #0x3100, lsl #16
    1d38:	1a9f07e3 	cset	w3, ne  // ne = any
    1d3c:	17fffc69 	b	0xee0
    1d40:	d0000060 	adrp	x0, 0xf000
    1d44:	91024000 	add	x0, x0, #0x90
    1d48:	a9bf7bfd 	stp	x29, x30, [sp, #-16]!
    1d4c:	910003fd 	mov	x29, sp
    1d50:	b9400000 	ldr	w0, [x0]
    1d54:	7101001f 	cmp	w0, #0x40
    1d58:	540000a0 	b.eq	0x1d6c  // b.none
    1d5c:	7101041f 	cmp	w0, #0x41
    1d60:	54000060 	b.eq	0x1d6c  // b.none
    1d64:	7100c01f 	cmp	w0, #0x30
    1d68:	540000c1 	b.ne	0x1d80  // b.any
    1d6c:	528000e0 	mov	w0, #0x7                   	// #7
    1d70:	940017dd 	bl	0x7ce4
    1d74:	a8c17bfd 	ldp	x29, x30, [sp], #16
    1d78:	528000c0 	mov	w0, #0x6                   	// #6
    1d7c:	140017ec 	b	0x7d2c
    1d80:	a8c17bfd 	ldp	x29, x30, [sp], #16
    1d84:	d65f03c0 	ret
    1d88:	d0000061 	adrp	x1, 0xf000
    1d8c:	d0000060 	adrp	x0, 0xf000
    1d90:	91024021 	add	x1, x1, #0x90
    1d94:	91022000 	add	x0, x0, #0x88
    1d98:	aa0103e5 	mov	x5, x1
    1d9c:	b9400026 	ldr	w6, [x1]
    1da0:	f9400002 	ldr	x2, [x0]
    1da4:	52800c01 	mov	w1, #0x60                  	// #96
    1da8:	52800000 	mov	w0, #0x0                   	// #0
    1dac:	b94010a3 	ldr	w3, [x5, #16]
    1db0:	6b03001f 	cmp	w0, w3
    1db4:	54000222 	b.cs	0x1df8  // b.hs, b.nlast
    1db8:	7100c0df 	cmp	w6, #0x30
    1dbc:	540000c0 	b.eq	0x1dd4  // b.none
    1dc0:	9ba17c03 	umull	x3, w0, w1
    1dc4:	8b030043 	add	x3, x2, x3
    1dc8:	b9402064 	ldr	w4, [x3, #32]
    1dcc:	12127484 	and	w4, w4, #0xffffcfff
    1dd0:	b9002064 	str	w4, [x3, #32]
    1dd4:	9ba17c04 	umull	x4, w0, w1
    1dd8:	52803203 	mov	w3, #0x190                 	// #400
    1ddc:	72a62003 	movk	w3, #0x3100, lsl #16
    1de0:	8b040044 	add	x4, x2, x4
    1de4:	1b010c03 	madd	w3, w0, w1, w3
    1de8:	11000400 	add	w0, w0, #0x1
    1dec:	b9402084 	ldr	w4, [x4, #32]
    1df0:	b9000064 	str	w4, [x3]
    1df4:	17ffffee 	b	0x1dac
    1df8:	d65f03c0 	ret
    1dfc:	a9bf7bfd 	stp	x29, x30, [sp, #-16]!
    1e00:	52800022 	mov	w2, #0x1                   	// #1
    1e04:	52802180 	mov	w0, #0x10c                 	// #268
    1e08:	910003fd 	mov	x29, sp
    1e0c:	2a0203e3 	mov	w3, w2
    1e10:	528001e1 	mov	w1, #0xf                   	// #15
    1e14:	72a62000 	movk	w0, #0x3100, lsl #16
    1e18:	97fffc32 	bl	0xee0
    1e1c:	52800022 	mov	w2, #0x1                   	// #1
    1e20:	52802180 	mov	w0, #0x10c                 	// #268
    1e24:	a8c17bfd 	ldp	x29, x30, [sp], #16
    1e28:	72a62000 	movk	w0, #0x3100, lsl #16
    1e2c:	52800181 	mov	w1, #0xc                   	// #12
    1e30:	2a0203e3 	mov	w3, w2
    1e34:	17fffc2b 	b	0xee0
    1e38:	d282c800 	mov	x0, #0x1640                	// #5696
    1e3c:	a9bf7bfd 	stp	x29, x30, [sp, #-16]!
    1e40:	f2a62000 	movk	x0, #0x3100, lsl #16
    1e44:	910003fd 	mov	x29, sp
    1e48:	52908021 	mov	w1, #0x8401                	// #33793
    1e4c:	72a74221 	movk	w1, #0x3a11, lsl #16
    1e50:	b9000001 	str	w1, [x0]
    1e54:	d282d000 	mov	x0, #0x1680                	// #5760
    1e58:	f2a62000 	movk	x0, #0x3100, lsl #16
    1e5c:	52908021 	mov	w1, #0x8401                	// #33793
    1e60:	72a74221 	movk	w1, #0x3a11, lsl #16
    1e64:	b9000001 	str	w1, [x0]
    1e68:	d282d800 	mov	x0, #0x16c0                	// #5824
    1e6c:	f2a62000 	movk	x0, #0x3100, lsl #16
    1e70:	52908021 	mov	w1, #0x8401                	// #33793
    1e74:	72a74221 	movk	w1, #0x3a11, lsl #16
    1e78:	b9000001 	str	w1, [x0]
    1e7c:	d282e000 	mov	x0, #0x1700                	// #5888
    1e80:	f2a62000 	movk	x0, #0x3100, lsl #16
    1e84:	52908021 	mov	w1, #0x8401                	// #33793
    1e88:	72a74221 	movk	w1, #0x3a11, lsl #16
    1e8c:	b9000001 	str	w1, [x0]
    1e90:	d282e800 	mov	x0, #0x1740                	// #5952
    1e94:	f2a62000 	movk	x0, #0x3100, lsl #16
    1e98:	52908021 	mov	w1, #0x8401                	// #33793
    1e9c:	72a74221 	movk	w1, #0x3a11, lsl #16
    1ea0:	b9000001 	str	w1, [x0]
    1ea4:	d282f000 	mov	x0, #0x1780                	// #6016
    1ea8:	f2a62000 	movk	x0, #0x3100, lsl #16
    1eac:	52908021 	mov	w1, #0x8401                	// #33793
    1eb0:	72a74221 	movk	w1, #0x3a11, lsl #16
    1eb4:	b9000001 	str	w1, [x0]
    1eb8:	52800180 	mov	w0, #0xc                   	// #12
    1ebc:	72a62000 	movk	w0, #0x3100, lsl #16
    1ec0:	52800001 	mov	w1, #0x0                   	// #0
    1ec4:	52800082 	mov	w2, #0x4                   	// #4
    1ec8:	528001e3 	mov	w3, #0xf                   	// #15
    1ecc:	97fffc05 	bl	0xee0
    1ed0:	d2800180 	mov	x0, #0xc                   	// #12
    1ed4:	f2a62000 	movk	x0, #0x3100, lsl #16
    1ed8:	b9400000 	ldr	w0, [x0]
    1edc:	d3504c00 	ubfx	x0, x0, #16, #4
    1ee0:	71003c1f 	cmp	w0, #0xf
    1ee4:	54ffff61 	b.ne	0x1ed0  // b.any
    1ee8:	52800001 	mov	w1, #0x0                   	// #0
    1eec:	52800180 	mov	w0, #0xc                   	// #12
    1ef0:	a8c17bfd 	ldp	x29, x30, [sp], #16
    1ef4:	72a62000 	movk	w0, #0x3100, lsl #16
    1ef8:	52800082 	mov	w2, #0x4                   	// #4
    1efc:	2a0103e3 	mov	w3, w1
    1f00:	17fffbf8 	b	0xee0
    1f04:	a9be7bfd 	stp	x29, x30, [sp, #-32]!
    1f08:	2a0203e3 	mov	w3, w2
    1f0c:	910003fd 	mov	x29, sp
    1f10:	a90153f3 	stp	x19, x20, [sp, #16]
    1f14:	2a0003f4 	mov	w20, w0
    1f18:	52802100 	mov	w0, #0x108                 	// #264
    1f1c:	2a0103f3 	mov	w19, w1
    1f20:	52800102 	mov	w2, #0x8                   	// #8
    1f24:	52800001 	mov	w1, #0x0                   	// #0
    1f28:	72a62000 	movk	w0, #0x3100, lsl #16
    1f2c:	97fffbed 	bl	0xee0
    1f30:	52802080 	mov	w0, #0x104                 	// #260
    1f34:	72a62000 	movk	w0, #0x3100, lsl #16
    1f38:	52800001 	mov	w1, #0x0                   	// #0
    1f3c:	52800202 	mov	w2, #0x10                  	// #16
    1f40:	2a1403e3 	mov	w3, w20
    1f44:	97fffbe7 	bl	0xee0
    1f48:	7100067f 	cmp	w19, #0x1
    1f4c:	540002a0 	b.eq	0x1fa0  // b.none
    1f50:	34000113 	cbz	w19, 0x1f70
    1f54:	71000a7f 	cmp	w19, #0x2
    1f58:	540004a1 	b.ne	0x1fec  // b.any
    1f5c:	52802080 	mov	w0, #0x104                 	// #260
    1f60:	72a62000 	movk	w0, #0x3100, lsl #16
    1f64:	528003e1 	mov	w1, #0x1f                  	// #31
    1f68:	52800022 	mov	w2, #0x1                   	// #1
    1f6c:	14000017 	b	0x1fc8
    1f70:	52802080 	mov	w0, #0x104                 	// #260
    1f74:	528003e1 	mov	w1, #0x1f                  	// #31
    1f78:	52800022 	mov	w2, #0x1                   	// #1
    1f7c:	2a1303e3 	mov	w3, w19
    1f80:	72a62000 	movk	w0, #0x3100, lsl #16
    1f84:	97fffbd7 	bl	0xee0
    1f88:	52802080 	mov	w0, #0x104                 	// #260
    1f8c:	72a62000 	movk	w0, #0x3100, lsl #16
    1f90:	52800381 	mov	w1, #0x1c                  	// #28
    1f94:	52800022 	mov	w2, #0x1                   	// #1
    1f98:	2a1303e3 	mov	w3, w19
    1f9c:	1400000c 	b	0x1fcc
    1fa0:	52802080 	mov	w0, #0x104                 	// #260
    1fa4:	528003e1 	mov	w1, #0x1f                  	// #31
    1fa8:	2a1303e2 	mov	w2, w19
    1fac:	72a62000 	movk	w0, #0x3100, lsl #16
    1fb0:	52800003 	mov	w3, #0x0                   	// #0
    1fb4:	97fffbcb 	bl	0xee0
    1fb8:	52802080 	mov	w0, #0x104                 	// #260
    1fbc:	72a62000 	movk	w0, #0x3100, lsl #16
    1fc0:	52800381 	mov	w1, #0x1c                  	// #28
    1fc4:	2a1303e2 	mov	w2, w19
    1fc8:	2a0203e3 	mov	w3, w2
    1fcc:	97fffbc5 	bl	0xee0
    1fd0:	52800022 	mov	w2, #0x1                   	// #1
    1fd4:	52802080 	mov	w0, #0x104                 	// #260
    1fd8:	52800301 	mov	w1, #0x18                  	// #24
    1fdc:	2a0203e3 	mov	w3, w2
    1fe0:	72a62000 	movk	w0, #0x3100, lsl #16
    1fe4:	97fffbbf 	bl	0xee0
    1fe8:	14000002 	b	0x1ff0
    1fec:	14000000 	b	0x1fec
    1ff0:	d2802080 	mov	x0, #0x104                 	// #260
    1ff4:	f2a62000 	movk	x0, #0x3100, lsl #16
    1ff8:	b9400000 	ldr	w0, [x0]
    1ffc:	d3536c00 	ubfx	x0, x0, #19, #9
    2000:	35ffff80 	cbnz	w0, 0x1ff0
    2004:	a94153f3 	ldp	x19, x20, [sp, #16]
    2008:	a8c27bfd 	ldp	x29, x30, [sp], #32
    200c:	d65f03c0 	ret
    2010:	d0000061 	adrp	x1, 0x10000
    2014:	91024020 	add	x0, x1, #0x90
    2018:	a9be7bfd 	stp	x29, x30, [sp, #-32]!
    201c:	910003fd 	mov	x29, sp
    2020:	b9400003 	ldr	w3, [x0]
    2024:	a90153f3 	stp	x19, x20, [sp, #16]
    2028:	7100c07f 	cmp	w3, #0x30
    202c:	aa0103f4 	mov	x20, x1
    2030:	54000920 	b.eq	0x2154  // b.none
    2034:	d0000073 	adrp	x19, 0x10000
    2038:	b9401005 	ldr	w5, [x0, #16]
    203c:	91022260 	add	x0, x19, #0x88
    2040:	f9400006 	ldr	x6, [x0]
    2044:	d2800000 	mov	x0, #0x0                   	// #0
    2048:	2a0003e2 	mov	w2, w0
    204c:	6b05005f 	cmp	w2, w5
    2050:	54000100 	b.eq	0x2070  // b.none
    2054:	8b0000c1 	add	x1, x6, x0
    2058:	11000442 	add	w2, w2, #0x1
    205c:	91018000 	add	x0, x0, #0x60
    2060:	b9400824 	ldr	w4, [x1, #8]
    2064:	32190084 	orr	w4, w4, #0x80
    2068:	b9000824 	str	w4, [x1, #8]
    206c:	17fffff8 	b	0x204c
    2070:	52802180 	mov	w0, #0x10c                 	// #268
    2074:	52800003 	mov	w3, #0x0                   	// #0
    2078:	52800181 	mov	w1, #0xc                   	// #12
    207c:	52800022 	mov	w2, #0x1                   	// #1
    2080:	72a62000 	movk	w0, #0x3100, lsl #16
    2084:	91022273 	add	x19, x19, #0x88
    2088:	97fffb96 	bl	0xee0
    208c:	52800041 	mov	w1, #0x2                   	// #2
    2090:	52800802 	mov	w2, #0x40                  	// #64
    2094:	528001a0 	mov	w0, #0xd                   	// #13
    2098:	97ffff9b 	bl	0x1f04
    209c:	f9400262 	ldr	x2, [x19]
    20a0:	52800041 	mov	w1, #0x2                   	// #2
    20a4:	52800060 	mov	w0, #0x3                   	// #3
    20a8:	b9400842 	ldr	w2, [x2, #8]
    20ac:	97ffff96 	bl	0x1f04
    20b0:	52800041 	mov	w1, #0x2                   	// #2
    20b4:	52800002 	mov	w2, #0x0                   	// #0
    20b8:	528001a0 	mov	w0, #0xd                   	// #13
    20bc:	97ffff92 	bl	0x1f04
    20c0:	f9400262 	ldr	x2, [x19]
    20c4:	52800041 	mov	w1, #0x2                   	// #2
    20c8:	52800060 	mov	w0, #0x3                   	// #3
    20cc:	b9400842 	ldr	w2, [x2, #8]
    20d0:	97ffff8d 	bl	0x1f04
    20d4:	52800041 	mov	w1, #0x2                   	// #2
    20d8:	52800802 	mov	w2, #0x40                  	// #64
    20dc:	528001a0 	mov	w0, #0xd                   	// #13
    20e0:	97ffff89 	bl	0x1f04
    20e4:	52800022 	mov	w2, #0x1                   	// #1
    20e8:	52802180 	mov	w0, #0x10c                 	// #268
    20ec:	52800181 	mov	w1, #0xc                   	// #12
    20f0:	2a0203e3 	mov	w3, w2
    20f4:	72a62000 	movk	w0, #0x3100, lsl #16
    20f8:	97fffb7a 	bl	0xee0
    20fc:	91024281 	add	x1, x20, #0x90
    2100:	f9400262 	ldr	x2, [x19]
    2104:	aa0103e5 	mov	x5, x1
    2108:	52800000 	mov	w0, #0x0                   	// #0
    210c:	52800c01 	mov	w1, #0x60                  	// #96
    2110:	b94010a3 	ldr	w3, [x5, #16]
    2114:	6b03001f 	cmp	w0, w3
    2118:	540001e2 	b.cs	0x2154  // b.hs, b.nlast
    211c:	9ba17c03 	umull	x3, w0, w1
    2120:	8b030043 	add	x3, x2, x3
    2124:	b9402064 	ldr	w4, [x3, #32]
    2128:	32140084 	orr	w4, w4, #0x1000
    212c:	b9002064 	str	w4, [x3, #32]
    2130:	9ba17c04 	umull	x4, w0, w1
    2134:	52803203 	mov	w3, #0x190                 	// #400
    2138:	72a62003 	movk	w3, #0x3100, lsl #16
    213c:	8b040044 	add	x4, x2, x4
    2140:	1b010c03 	madd	w3, w0, w1, w3
    2144:	11000400 	add	w0, w0, #0x1
    2148:	b9402084 	ldr	w4, [x4, #32]
    214c:	b9000064 	str	w4, [x3]
    2150:	17fffff0 	b	0x2110
    2154:	a94153f3 	ldp	x19, x20, [sp, #16]
    2158:	a8c27bfd 	ldp	x29, x30, [sp], #32
    215c:	d65f03c0 	ret
    2160:	a9be7bfd 	stp	x29, x30, [sp, #-32]!
    2164:	2a0003e3 	mov	w3, w0
    2168:	910003fd 	mov	x29, sp
    216c:	52802080 	mov	w0, #0x104                 	// #260
    2170:	a90153f3 	stp	x19, x20, [sp, #16]
    2174:	72a62000 	movk	w0, #0x3100, lsl #16
    2178:	2a0103f4 	mov	w20, w1
    217c:	aa0203f3 	mov	x19, x2
    2180:	52800001 	mov	w1, #0x0                   	// #0
    2184:	52800202 	mov	w2, #0x10                  	// #16
    2188:	97fffb56 	bl	0xee0
    218c:	52802080 	mov	w0, #0x104                 	// #260
    2190:	528003e1 	mov	w1, #0x1f                  	// #31
    2194:	52800022 	mov	w2, #0x1                   	// #1
    2198:	52800003 	mov	w3, #0x0                   	// #0
    219c:	72a62000 	movk	w0, #0x3100, lsl #16
    21a0:	97fffb50 	bl	0xee0
    21a4:	52802080 	mov	w0, #0x104                 	// #260
    21a8:	52800381 	mov	w1, #0x1c                  	// #28
    21ac:	52800022 	mov	w2, #0x1                   	// #1
    21b0:	2a1403e3 	mov	w3, w20
    21b4:	72a62000 	movk	w0, #0x3100, lsl #16
    21b8:	97fffb4a 	bl	0xee0
    21bc:	52802080 	mov	w0, #0x104                 	// #260
    21c0:	52800022 	mov	w2, #0x1                   	// #1
    21c4:	72a62000 	movk	w0, #0x3100, lsl #16
    21c8:	52800321 	mov	w1, #0x19                  	// #25
    21cc:	2a0203e3 	mov	w3, w2
    21d0:	97fffb44 	bl	0xee0
    21d4:	d2802080 	mov	x0, #0x104                 	// #260
    21d8:	f2a62000 	movk	x0, #0x3100, lsl #16
    21dc:	b9400000 	ldr	w0, [x0]
    21e0:	d3536c00 	ubfx	x0, x0, #19, #9
    21e4:	35ffff80 	cbnz	w0, 0x21d4
    21e8:	d2801400 	mov	x0, #0xa0                  	// #160
    21ec:	f2a62000 	movk	x0, #0x3100, lsl #16
    21f0:	d2801501 	mov	x1, #0xa8                  	// #168
    21f4:	f2a62001 	movk	x1, #0x3100, lsl #16
    21f8:	b9400004 	ldr	w4, [x0]
    21fc:	d2801480 	mov	x0, #0xa4                  	// #164
    2200:	f2a62000 	movk	x0, #0x3100, lsl #16
    2204:	b9400000 	ldr	w0, [x0]
    2208:	b9400022 	ldr	w2, [x1]
    220c:	d2801581 	mov	x1, #0xac                  	// #172
    2210:	f2a62001 	movk	x1, #0x3100, lsl #16
    2214:	d34c3000 	ubfx	x0, x0, #12, #1
    2218:	d34c3042 	ubfx	x2, x2, #12, #1
    221c:	b9400023 	ldr	w3, [x1]
    2220:	d34c3063 	ubfx	x3, x3, #12, #1
    2224:	376003c4 	tbnz	w4, #12, 0x229c
    2228:	34000360 	cbz	w0, 0x2294
    222c:	d2801600 	mov	x0, #0xb0                  	// #176
    2230:	f2a62000 	movk	x0, #0x3100, lsl #16
    2234:	b9400001 	ldr	w1, [x0]
    2238:	b9400260 	ldr	w0, [x19]
    223c:	53107c21 	lsr	w1, w1, #16
    2240:	53181c21 	ubfiz	w1, w1, #8, #8
    2244:	2a010000 	orr	w0, w0, w1
    2248:	b9000260 	str	w0, [x19]
    224c:	34000102 	cbz	w2, 0x226c
    2250:	d2801680 	mov	x0, #0xb4                  	// #180
    2254:	f2a62000 	movk	x0, #0x3100, lsl #16
    2258:	b9400001 	ldr	w1, [x0]
    225c:	b9400260 	ldr	w0, [x19]
    2260:	53101c21 	ubfiz	w1, w1, #16, #8
    2264:	2a010000 	orr	w0, w0, w1
    2268:	b9000260 	str	w0, [x19]
    226c:	52800000 	mov	w0, #0x0                   	// #0
    2270:	34000243 	cbz	w3, 0x22b8
    2274:	d2801681 	mov	x1, #0xb4                  	// #180
    2278:	f2a62001 	movk	x1, #0x3100, lsl #16
    227c:	b9400022 	ldr	w2, [x1]
    2280:	b9400261 	ldr	w1, [x19]
    2284:	53107c42 	lsr	w2, w2, #16
    2288:	2a026021 	orr	w1, w1, w2, lsl #24
    228c:	b9000261 	str	w1, [x19]
    2290:	1400000a 	b	0x22b8
    2294:	12800000 	mov	w0, #0xffffffff            	// #-1
    2298:	14000008 	b	0x22b8
    229c:	d2801601 	mov	x1, #0xb0                  	// #176
    22a0:	f2a62001 	movk	x1, #0x3100, lsl #16
    22a4:	b9400021 	ldr	w1, [x1]
    22a8:	12001c21 	and	w1, w1, #0xff
    22ac:	b9000261 	str	w1, [x19]
    22b0:	34fffce0 	cbz	w0, 0x224c
    22b4:	17ffffde 	b	0x222c
    22b8:	a94153f3 	ldp	x19, x20, [sp, #16]
    22bc:	a8c27bfd 	ldp	x29, x30, [sp], #32
    22c0:	d65f03c0 	ret
    22c4:	a9be7bfd 	stp	x29, x30, [sp, #-32]!
    22c8:	2a0003e3 	mov	w3, w0
    22cc:	910003fd 	mov	x29, sp
    22d0:	52802100 	mov	w0, #0x108                 	// #264
    22d4:	f9000bf3 	str	x19, [sp, #16]
    22d8:	72a62000 	movk	w0, #0x3100, lsl #16
    22dc:	2a0103f3 	mov	w19, w1
    22e0:	52800102 	mov	w2, #0x8                   	// #8
    22e4:	52800001 	mov	w1, #0x0                   	// #0
    22e8:	97fffafe 	bl	0xee0
    22ec:	7100067f 	cmp	w19, #0x1
    22f0:	540002a0 	b.eq	0x2344  // b.none
    22f4:	34000113 	cbz	w19, 0x2314
    22f8:	71000a7f 	cmp	w19, #0x2
    22fc:	540004a1 	b.ne	0x2390  // b.any
    2300:	52802080 	mov	w0, #0x104                 	// #260
    2304:	72a62000 	movk	w0, #0x3100, lsl #16
    2308:	528003e1 	mov	w1, #0x1f                  	// #31
    230c:	52800022 	mov	w2, #0x1                   	// #1
    2310:	14000017 	b	0x236c
    2314:	52802080 	mov	w0, #0x104                 	// #260
    2318:	528003e1 	mov	w1, #0x1f                  	// #31
    231c:	52800022 	mov	w2, #0x1                   	// #1
    2320:	2a1303e3 	mov	w3, w19
    2324:	72a62000 	movk	w0, #0x3100, lsl #16
    2328:	97fffaee 	bl	0xee0
    232c:	52802080 	mov	w0, #0x104                 	// #260
    2330:	72a62000 	movk	w0, #0x3100, lsl #16
    2334:	52800381 	mov	w1, #0x1c                  	// #28
    2338:	52800022 	mov	w2, #0x1                   	// #1
    233c:	2a1303e3 	mov	w3, w19
    2340:	1400000c 	b	0x2370
    2344:	52802080 	mov	w0, #0x104                 	// #260
    2348:	528003e1 	mov	w1, #0x1f                  	// #31
    234c:	2a1303e2 	mov	w2, w19
    2350:	72a62000 	movk	w0, #0x3100, lsl #16
    2354:	52800003 	mov	w3, #0x0                   	// #0
    2358:	97fffae2 	bl	0xee0
    235c:	52802080 	mov	w0, #0x104                 	// #260
    2360:	72a62000 	movk	w0, #0x3100, lsl #16
    2364:	52800381 	mov	w1, #0x1c                  	// #28
    2368:	2a1303e2 	mov	w2, w19
    236c:	2a0203e3 	mov	w3, w2
    2370:	97fffadc 	bl	0xee0
    2374:	52800022 	mov	w2, #0x1                   	// #1
    2378:	52802080 	mov	w0, #0x104                 	// #260
    237c:	52800361 	mov	w1, #0x1b                  	// #27
    2380:	2a0203e3 	mov	w3, w2
    2384:	72a62000 	movk	w0, #0x3100, lsl #16
    2388:	97fffad6 	bl	0xee0
    238c:	14000002 	b	0x2394
    2390:	14000000 	b	0x2390
    2394:	d2802080 	mov	x0, #0x104                 	// #260
    2398:	f2a62000 	movk	x0, #0x3100, lsl #16
    239c:	b9400000 	ldr	w0, [x0]
    23a0:	d3536c00 	ubfx	x0, x0, #19, #9
    23a4:	35ffff80 	cbnz	w0, 0x2394
    23a8:	f9400bf3 	ldr	x19, [sp, #16]
    23ac:	a8c27bfd 	ldp	x29, x30, [sp], #32
    23b0:	d65f03c0 	ret
    23b4:	a9be7bfd 	stp	x29, x30, [sp, #-32]!
    23b8:	52800281 	mov	w1, #0x14                  	// #20
    23bc:	910003fd 	mov	x29, sp
    23c0:	f9000bf3 	str	x19, [sp, #16]
    23c4:	2a0003f3 	mov	w19, w0
    23c8:	52802000 	mov	w0, #0x100                 	// #256
    23cc:	72a62000 	movk	w0, #0x3100, lsl #16
    23d0:	52800082 	mov	w2, #0x4                   	// #4
    23d4:	2a1303e3 	mov	w3, w19
    23d8:	97fffac2 	bl	0xee0
    23dc:	d0000060 	adrp	x0, 0x10000
    23e0:	91024000 	add	x0, x0, #0x90
    23e4:	b9400000 	ldr	w0, [x0]
    23e8:	7100c01f 	cmp	w0, #0x30
    23ec:	54000221 	b.ne	0x2430  // b.any
    23f0:	52800001 	mov	w1, #0x0                   	// #0
    23f4:	52801fe2 	mov	w2, #0xff                  	// #255
    23f8:	52800140 	mov	w0, #0xa                   	// #10
    23fc:	97fffec2 	bl	0x1f04
    2400:	52800020 	mov	w0, #0x1                   	// #1
    2404:	97fffacc 	bl	0xf34
    2408:	52800140 	mov	w0, #0xa                   	// #10
    240c:	52800021 	mov	w1, #0x1                   	// #1
    2410:	52801fe2 	mov	w2, #0xff                  	// #255
    2414:	97fffebc 	bl	0x1f04
    2418:	52802000 	mov	w0, #0x100                 	// #256
    241c:	72a62000 	movk	w0, #0x3100, lsl #16
    2420:	52800281 	mov	w1, #0x14                  	// #20
    2424:	52800082 	mov	w2, #0x4                   	// #4
    2428:	52800023 	mov	w3, #0x1                   	// #1
    242c:	14000018 	b	0x248c
    2430:	52800001 	mov	w1, #0x0                   	// #0
    2434:	528009e0 	mov	w0, #0x4f                  	// #79
    2438:	97ffffa3 	bl	0x22c4
    243c:	52800020 	mov	w0, #0x1                   	// #1
    2440:	97fffabd 	bl	0xf34
    2444:	52800a20 	mov	w0, #0x51                  	// #81
    2448:	52800001 	mov	w1, #0x0                   	// #0
    244c:	97ffff9e 	bl	0x22c4
    2450:	52800021 	mov	w1, #0x1                   	// #1
    2454:	528009e0 	mov	w0, #0x4f                  	// #79
    2458:	97ffff9b 	bl	0x22c4
    245c:	52800020 	mov	w0, #0x1                   	// #1
    2460:	97fffab5 	bl	0xf34
    2464:	52800a20 	mov	w0, #0x51                  	// #81
    2468:	52800021 	mov	w1, #0x1                   	// #1
    246c:	97ffff96 	bl	0x22c4
    2470:	71000a7f 	cmp	w19, #0x2
    2474:	54000121 	b.ne	0x2498  // b.any
    2478:	52802000 	mov	w0, #0x100                 	// #256
    247c:	72a62000 	movk	w0, #0x3100, lsl #16
    2480:	52800281 	mov	w1, #0x14                  	// #20
    2484:	52800082 	mov	w2, #0x4                   	// #4
    2488:	528001e3 	mov	w3, #0xf                   	// #15
    248c:	f9400bf3 	ldr	x19, [sp, #16]
    2490:	a8c27bfd 	ldp	x29, x30, [sp], #32
    2494:	17fffa93 	b	0xee0
    2498:	f9400bf3 	ldr	x19, [sp, #16]
    249c:	a8c27bfd 	ldp	x29, x30, [sp], #32
    24a0:	d65f03c0 	ret
    24a4:	a9be7bfd 	stp	x29, x30, [sp, #-32]!
    24a8:	52800022 	mov	w2, #0x1                   	// #1
    24ac:	910003fd 	mov	x29, sp
    24b0:	a90153f3 	stp	x19, x20, [sp, #16]
    24b4:	2a0003f3 	mov	w19, w0
    24b8:	52802000 	mov	w0, #0x100                 	// #256
    24bc:	2a0203e3 	mov	w3, w2
    24c0:	528001c1 	mov	w1, #0xe                   	// #14
    24c4:	72a62000 	movk	w0, #0x3100, lsl #16
    24c8:	d0000074 	adrp	x20, 0x10000
    24cc:	97fffa85 	bl	0xee0
    24d0:	52801900 	mov	w0, #0xc8                  	// #200
    24d4:	91022294 	add	x20, x20, #0x88
    24d8:	97fffa97 	bl	0xf34
    24dc:	d2802081 	mov	x1, #0x104                 	// #260
    24e0:	f2a62001 	movk	x1, #0x3100, lsl #16
    24e4:	528007e2 	mov	w2, #0x3f                  	// #63
    24e8:	72b02002 	movk	w2, #0x8100, lsl #16
    24ec:	52800140 	mov	w0, #0xa                   	// #10
    24f0:	b9000022 	str	w2, [x1]
    24f4:	97fffa90 	bl	0xf34
    24f8:	52800020 	mov	w0, #0x1                   	// #1
    24fc:	97ffffae 	bl	0x23b4
    2500:	52800020 	mov	w0, #0x1                   	// #1
    2504:	97fffa8c 	bl	0xf34
    2508:	52800c00 	mov	w0, #0x60                  	// #96
    250c:	9ba07e73 	umull	x19, w19, w0
    2510:	f9400280 	ldr	x0, [x20]
    2514:	8b130002 	add	x2, x0, x19
    2518:	52800040 	mov	w0, #0x2                   	// #2
    251c:	2a0003e1 	mov	w1, w0
    2520:	b9400442 	ldr	w2, [x2, #4]
    2524:	97fffe78 	bl	0x1f04
    2528:	f9400282 	ldr	x2, [x20]
    252c:	52800020 	mov	w0, #0x1                   	// #1
    2530:	52800041 	mov	w1, #0x2                   	// #2
    2534:	b8736842 	ldr	w2, [x2, x19]
    2538:	a94153f3 	ldp	x19, x20, [sp, #16]
    253c:	a8c27bfd 	ldp	x29, x30, [sp], #32
    2540:	17fffe71 	b	0x1f04
    2544:	a9bd7bfd 	stp	x29, x30, [sp, #-48]!
    2548:	910003fd 	mov	x29, sp
    254c:	a90153f3 	stp	x19, x20, [sp, #16]
    2550:	2a0003f3 	mov	w19, w0
    2554:	52801900 	mov	w0, #0xc8                  	// #200
    2558:	f90013f5 	str	x21, [sp, #32]
    255c:	97fffa76 	bl	0xf34
    2560:	52800022 	mov	w2, #0x1                   	// #1
    2564:	52802000 	mov	w0, #0x100                 	// #256
    2568:	2a0203e3 	mov	w3, w2
    256c:	528001e1 	mov	w1, #0xf                   	// #15
    2570:	72a62000 	movk	w0, #0x3100, lsl #16
    2574:	52800c14 	mov	w20, #0x60                  	// #96
    2578:	97fffa5a 	bl	0xee0
    257c:	5280fa00 	mov	w0, #0x7d0                 	// #2000
    2580:	9bb47e74 	umull	x20, w19, w20
    2584:	97fffa6c 	bl	0xf34
    2588:	52800022 	mov	w2, #0x1                   	// #1
    258c:	52802000 	mov	w0, #0x100                 	// #256
    2590:	d0000073 	adrp	x19, 0x10000
    2594:	2a0203e3 	mov	w3, w2
    2598:	91022275 	add	x21, x19, #0x88
    259c:	528001c1 	mov	w1, #0xe                   	// #14
    25a0:	72a62000 	movk	w0, #0x3100, lsl #16
    25a4:	97fffa4f 	bl	0xee0
    25a8:	f94002a0 	ldr	x0, [x21]
    25ac:	8b140002 	add	x2, x0, x20
    25b0:	52800040 	mov	w0, #0x2                   	// #2
    25b4:	2a0003e1 	mov	w1, w0
    25b8:	b9400442 	ldr	w2, [x2, #4]
    25bc:	97fffe52 	bl	0x1f04
    25c0:	d0000060 	adrp	x0, 0x10000
    25c4:	91024001 	add	x1, x0, #0x90
    25c8:	52800002 	mov	w2, #0x0                   	// #0
    25cc:	b9401024 	ldr	w4, [x1, #16]
    25d0:	f94002a1 	ldr	x1, [x21]
    25d4:	aa0003f5 	mov	x21, x0
    25d8:	6b04005f 	cmp	w2, w4
    25dc:	54000100 	b.eq	0x25fc  // b.none
    25e0:	b9400823 	ldr	w3, [x1, #8]
    25e4:	11000442 	add	w2, w2, #0x1
    25e8:	121a7063 	and	w3, w3, #0xffffffc7
    25ec:	321c0463 	orr	w3, w3, #0x30
    25f0:	91018021 	add	x1, x1, #0x60
    25f4:	b81a8023 	stur	w3, [x1, #-88]
    25f8:	17fffff8 	b	0x25d8
    25fc:	91022273 	add	x19, x19, #0x88
    2600:	52800060 	mov	w0, #0x3                   	// #3
    2604:	f9400261 	ldr	x1, [x19]
    2608:	8b140034 	add	x20, x1, x20
    260c:	52800041 	mov	w1, #0x2                   	// #2
    2610:	b9400a82 	ldr	w2, [x20, #8]
    2614:	97fffe3c 	bl	0x1f04
    2618:	910242a0 	add	x0, x21, #0x90
    261c:	f9400266 	ldr	x6, [x19]
    2620:	52800001 	mov	w1, #0x0                   	// #0
    2624:	b9400007 	ldr	w7, [x0]
    2628:	aa0003e5 	mov	x5, x0
    262c:	52800c04 	mov	w4, #0x60                  	// #96
    2630:	528000a9 	mov	w9, #0x5                   	// #5
    2634:	52a000aa 	mov	w10, #0x50000               	// #327680
    2638:	b94010a2 	ldr	w2, [x5, #16]
    263c:	6b02003f 	cmp	w1, w2
    2640:	54000362 	b.cs	0x26ac  // b.hs, b.nlast
    2644:	9ba47c20 	umull	x0, w1, w4
    2648:	710104ff 	cmp	w7, #0x41
    264c:	8b0000c0 	add	x0, x6, x0
    2650:	b9400c03 	ldr	w3, [x0, #12]
    2654:	b9404002 	ldr	w2, [x0, #64]
    2658:	121d7063 	and	w3, w3, #0xfffffff8
    265c:	120d7042 	and	w2, w2, #0xfff8ffff
    2660:	b9000c03 	str	w3, [x0, #12]
    2664:	b9004002 	str	w2, [x0, #64]
    2668:	540000a1 	b.ne	0x267c  // b.any
    266c:	2a090063 	orr	w3, w3, w9
    2670:	2a0a0042 	orr	w2, w2, w10
    2674:	b9000c03 	str	w3, [x0, #12]
    2678:	14000004 	b	0x2688
    267c:	321f0463 	orr	w3, w3, #0x6
    2680:	320f0442 	orr	w2, w2, #0x60000
    2684:	b9000c03 	str	w3, [x0, #12]
    2688:	b9004002 	str	w2, [x0, #64]
    268c:	52803602 	mov	w2, #0x1b0                 	// #432
    2690:	72a62002 	movk	w2, #0x3100, lsl #16
    2694:	b9404000 	ldr	w0, [x0, #64]
    2698:	d503201f 	nop
    269c:	1b040822 	madd	w2, w1, w4, w2
    26a0:	11000421 	add	w1, w1, #0x1
    26a4:	b9000040 	str	w0, [x2]
    26a8:	17ffffe4 	b	0x2638
    26ac:	52800020 	mov	w0, #0x1                   	// #1
    26b0:	97ffff41 	bl	0x23b4
    26b4:	a94153f3 	ldp	x19, x20, [sp, #16]
    26b8:	f94013f5 	ldr	x21, [sp, #32]
    26bc:	a8c37bfd 	ldp	x29, x30, [sp], #48
    26c0:	52800040 	mov	w0, #0x2                   	// #2
    26c4:	17ffff3c 	b	0x23b4
    26c8:	a9be7bfd 	stp	x29, x30, [sp, #-32]!
    26cc:	52800022 	mov	w2, #0x1                   	// #1
    26d0:	910003fd 	mov	x29, sp
    26d4:	f9000bf3 	str	x19, [sp, #16]
    26d8:	2a0003f3 	mov	w19, w0
    26dc:	52820080 	mov	w0, #0x1004                	// #4100
    26e0:	2a0203e3 	mov	w3, w2
    26e4:	52800121 	mov	w1, #0x9                   	// #9
    26e8:	72a62000 	movk	w0, #0x3100, lsl #16
    26ec:	97fff9fd 	bl	0xee0
    26f0:	52820080 	mov	w0, #0x1004                	// #4100
    26f4:	52800121 	mov	w1, #0x9                   	// #9
    26f8:	52800022 	mov	w2, #0x1                   	// #1
    26fc:	52800003 	mov	w3, #0x0                   	// #0
    2700:	72a62000 	movk	w0, #0x3100, lsl #16
    2704:	97fff9f7 	bl	0xee0
    2708:	52800022 	mov	w2, #0x1                   	// #1
    270c:	52820080 	mov	w0, #0x1004                	// #4100
    2710:	2a0203e3 	mov	w3, w2
    2714:	52800141 	mov	w1, #0xa                   	// #10
    2718:	72a62000 	movk	w0, #0x3100, lsl #16
    271c:	97fff9f1 	bl	0xee0
    2720:	52800022 	mov	w2, #0x1                   	// #1
    2724:	52820080 	mov	w0, #0x1004                	// #4100
    2728:	72a62000 	movk	w0, #0x3100, lsl #16
    272c:	52800261 	mov	w1, #0x13                  	// #19
    2730:	2a0203e3 	mov	w3, w2
    2734:	97fff9eb 	bl	0xee0
    2738:	d0000060 	adrp	x0, 0x10000
    273c:	91024000 	add	x0, x0, #0x90
    2740:	b9400000 	ldr	w0, [x0]
    2744:	7100c01f 	cmp	w0, #0x30
    2748:	2a1303e0 	mov	w0, w19
    274c:	54000081 	b.ne	0x275c  // b.any
    2750:	f9400bf3 	ldr	x19, [sp, #16]
    2754:	a8c27bfd 	ldp	x29, x30, [sp], #32
    2758:	17ffff53 	b	0x24a4
    275c:	f9400bf3 	ldr	x19, [sp, #16]
    2760:	a8c27bfd 	ldp	x29, x30, [sp], #32
    2764:	17ffff78 	b	0x2544
    2768:	a9bf7bfd 	stp	x29, x30, [sp, #-16]!
    276c:	52800101 	mov	w1, #0x8                   	// #8
    2770:	910003fd 	mov	x29, sp
    2774:	52800042 	mov	w2, #0x2                   	// #2
    2778:	52800063 	mov	w3, #0x3                   	// #3
    277c:	52a62000 	mov	w0, #0x31000000            	// #822083584
    2780:	97fff9d8 	bl	0xee0
    2784:	52800001 	mov	w1, #0x0                   	// #0
    2788:	52802280 	mov	w0, #0x114                 	// #276
    278c:	2a0103e3 	mov	w3, w1
    2790:	52800342 	mov	w2, #0x1a                  	// #26
    2794:	72a62000 	movk	w0, #0x3100, lsl #16
    2798:	97fff9d2 	bl	0xee0
    279c:	52802580 	mov	w0, #0x12c                 	// #300
    27a0:	52800001 	mov	w1, #0x0                   	// #0
    27a4:	52800082 	mov	w2, #0x4                   	// #4
    27a8:	528001a3 	mov	w3, #0xd                   	// #13
    27ac:	72a62000 	movk	w0, #0x3100, lsl #16
    27b0:	97fff9cc 	bl	0xee0
    27b4:	52800022 	mov	w2, #0x1                   	// #1
    27b8:	52802580 	mov	w0, #0x12c                 	// #300
    27bc:	2a0203e3 	mov	w3, w2
    27c0:	52800221 	mov	w1, #0x11                  	// #17
    27c4:	72a62000 	movk	w0, #0x3100, lsl #16
    27c8:	97fff9c6 	bl	0xee0
    27cc:	52802300 	mov	w0, #0x118                 	// #280
    27d0:	52800321 	mov	w1, #0x19                  	// #25
    27d4:	52800042 	mov	w2, #0x2                   	// #2
    27d8:	52800003 	mov	w3, #0x0                   	// #0
    27dc:	72a62000 	movk	w0, #0x3100, lsl #16
    27e0:	97fff9c0 	bl	0xee0
    27e4:	52800022 	mov	w2, #0x1                   	// #1
    27e8:	52802880 	mov	w0, #0x144                 	// #324
    27ec:	2a0203e3 	mov	w3, w2
    27f0:	52800201 	mov	w1, #0x10                  	// #16
    27f4:	72a62000 	movk	w0, #0x3100, lsl #16
    27f8:	97fff9ba 	bl	0xee0
    27fc:	52802880 	mov	w0, #0x144                 	// #324
    2800:	52800081 	mov	w1, #0x4                   	// #4
    2804:	52800182 	mov	w2, #0xc                   	// #12
    2808:	52800323 	mov	w3, #0x19                  	// #25
    280c:	72a62000 	movk	w0, #0x3100, lsl #16
    2810:	97fff9b4 	bl	0xee0
    2814:	52802480 	mov	w0, #0x124                 	// #292
    2818:	52800001 	mov	w1, #0x0                   	// #0
    281c:	52800062 	mov	w2, #0x3                   	// #3
    2820:	528000a3 	mov	w3, #0x5                   	// #5
    2824:	72a62000 	movk	w0, #0x3100, lsl #16
    2828:	97fff9ae 	bl	0xee0
    282c:	52802480 	mov	w0, #0x124                 	// #292
    2830:	52800181 	mov	w1, #0xc                   	// #12
    2834:	52800062 	mov	w2, #0x3                   	// #3
    2838:	528000a3 	mov	w3, #0x5                   	// #5
    283c:	72a62000 	movk	w0, #0x3100, lsl #16
    2840:	97fff9a8 	bl	0xee0
    2844:	52802480 	mov	w0, #0x124                 	// #292
    2848:	a8c17bfd 	ldp	x29, x30, [sp], #16
    284c:	72a62000 	movk	w0, #0x3100, lsl #16
    2850:	52800201 	mov	w1, #0x10                  	// #16
    2854:	52800062 	mov	w2, #0x3                   	// #3
    2858:	528000e3 	mov	w3, #0x7                   	// #7
    285c:	17fff9a1 	b	0xee0
    2860:	a9bd7bfd 	stp	x29, x30, [sp, #-48]!
    2864:	910003fd 	mov	x29, sp
    2868:	9100c3a1 	add	x1, x29, #0x30
    286c:	a90153f3 	stp	x19, x20, [sp, #16]
    2870:	b81fcc3f 	str	wzr, [x1, #-4]!
    2874:	d0000073 	adrp	x19, 0x10000
    2878:	97fffb1d 	bl	0x14ec
    287c:	52800001 	mov	w1, #0x0                   	// #0
    2880:	52882280 	mov	w0, #0x4114                	// #16660
    2884:	2a0103e3 	mov	w3, w1
    2888:	52800022 	mov	w2, #0x1                   	// #1
    288c:	72a620a0 	movk	w0, #0x3105, lsl #16
    2890:	91032273 	add	x19, x19, #0xc8
    2894:	97fff993 	bl	0xee0
    2898:	52800022 	mov	w2, #0x1                   	// #1
    289c:	52880180 	mov	w0, #0x400c                	// #16396
    28a0:	2a0203e3 	mov	w3, w2
    28a4:	52800001 	mov	w1, #0x0                   	// #0
    28a8:	72a620a0 	movk	w0, #0x3105, lsl #16
    28ac:	52800314 	mov	w20, #0x18                  	// #24
    28b0:	97fff98c 	bl	0xee0
    28b4:	b9402fa0 	ldr	w0, [x29, #44]
    28b8:	528001e1 	mov	w1, #0xf                   	// #15
    28bc:	528000e2 	mov	w2, #0x7                   	// #7
    28c0:	9bb47c03 	umull	x3, w0, w20
    28c4:	f9400260 	ldr	x0, [x19]
    28c8:	8b030003 	add	x3, x0, x3
    28cc:	52882080 	mov	w0, #0x4104                	// #16644
    28d0:	72a620a0 	movk	w0, #0x3105, lsl #16
    28d4:	b9400863 	ldr	w3, [x3, #8]
    28d8:	97fff982 	bl	0xee0
    28dc:	b9402fa0 	ldr	w0, [x29, #44]
    28e0:	52800241 	mov	w1, #0x12                  	// #18
    28e4:	52800042 	mov	w2, #0x2                   	// #2
    28e8:	9bb47c03 	umull	x3, w0, w20
    28ec:	f9400260 	ldr	x0, [x19]
    28f0:	8b030003 	add	x3, x0, x3
    28f4:	52882100 	mov	w0, #0x4108                	// #16648
    28f8:	72a620a0 	movk	w0, #0x3105, lsl #16
    28fc:	b9400c63 	ldr	w3, [x3, #12]
    2900:	97fff978 	bl	0xee0
    2904:	b9402fa0 	ldr	w0, [x29, #44]
    2908:	52800101 	mov	w1, #0x8                   	// #8
    290c:	52800082 	mov	w2, #0x4                   	// #4
    2910:	9bb47c14 	umull	x20, w0, w20
    2914:	f9400260 	ldr	x0, [x19]
    2918:	8b140014 	add	x20, x0, x20
    291c:	52882100 	mov	w0, #0x4108                	// #16648
    2920:	72a620a0 	movk	w0, #0x3105, lsl #16
    2924:	b9401283 	ldr	w3, [x20, #16]
    2928:	97fff96e 	bl	0xee0
    292c:	b9402fa3 	ldr	w3, [x29, #44]
    2930:	52882080 	mov	w0, #0x4104                	// #16644
    2934:	52800081 	mov	w1, #0x4                   	// #4
    2938:	52800062 	mov	w2, #0x3                   	// #3
    293c:	72a620a0 	movk	w0, #0x3105, lsl #16
    2940:	97fff968 	bl	0xee0
    2944:	a94153f3 	ldp	x19, x20, [sp, #16]
    2948:	a8c37bfd 	ldp	x29, x30, [sp], #48
    294c:	d65f03c0 	ret
    2950:	a9bd7bfd 	stp	x29, x30, [sp, #-48]!
    2954:	52800101 	mov	w1, #0x8                   	// #8
    2958:	910003fd 	mov	x29, sp
    295c:	a90153f3 	stp	x19, x20, [sp, #16]
    2960:	b0000074 	adrp	x20, 0xf000
    2964:	91032294 	add	x20, x20, #0xc8
    2968:	52800313 	mov	w19, #0x18                  	// #24
    296c:	f90013f5 	str	x21, [sp, #32]
    2970:	9bb37c13 	umull	x19, w0, w19
    2974:	2a0003f5 	mov	w21, w0
    2978:	f9400280 	ldr	x0, [x20]
    297c:	528000e2 	mov	w2, #0x7                   	// #7
    2980:	8b130003 	add	x3, x0, x19
    2984:	52882080 	mov	w0, #0x4104                	// #16644
    2988:	72a620a0 	movk	w0, #0x3105, lsl #16
    298c:	b9400863 	ldr	w3, [x3, #8]
    2990:	97fff954 	bl	0xee0
    2994:	f9400280 	ldr	x0, [x20]
    2998:	52800201 	mov	w1, #0x10                  	// #16
    299c:	8b130003 	add	x3, x0, x19
    29a0:	52882100 	mov	w0, #0x4108                	// #16648
    29a4:	52800042 	mov	w2, #0x2                   	// #2
    29a8:	b9400c63 	ldr	w3, [x3, #12]
    29ac:	72a620a0 	movk	w0, #0x3105, lsl #16
    29b0:	97fff94c 	bl	0xee0
    29b4:	f9400280 	ldr	x0, [x20]
    29b8:	52800001 	mov	w1, #0x0                   	// #0
    29bc:	8b130013 	add	x19, x0, x19
    29c0:	52882100 	mov	w0, #0x4108                	// #16648
    29c4:	52800082 	mov	w2, #0x4                   	// #4
    29c8:	b9401263 	ldr	w3, [x19, #16]
    29cc:	72a620a0 	movk	w0, #0x3105, lsl #16
    29d0:	97fff944 	bl	0xee0
    29d4:	52882080 	mov	w0, #0x4104                	// #16644
    29d8:	52800081 	mov	w1, #0x4                   	// #4
    29dc:	52800062 	mov	w2, #0x3                   	// #3
    29e0:	2a1503e3 	mov	w3, w21
    29e4:	72a620a0 	movk	w0, #0x3105, lsl #16
    29e8:	97fff93e 	bl	0xee0
    29ec:	52800022 	mov	w2, #0x1                   	// #1
    29f0:	52882000 	mov	w0, #0x4100                	// #16640
    29f4:	2a0203e3 	mov	w3, w2
    29f8:	52800001 	mov	w1, #0x0                   	// #0
    29fc:	72a620a0 	movk	w0, #0x3105, lsl #16
    2a00:	97fff938 	bl	0xee0
    2a04:	52800022 	mov	w2, #0x1                   	// #1
    2a08:	52882080 	mov	w0, #0x4104                	// #16644
    2a0c:	2a0203e3 	mov	w3, w2
    2a10:	52800001 	mov	w1, #0x0                   	// #0
    2a14:	72a620a0 	movk	w0, #0x3105, lsl #16
    2a18:	97fff932 	bl	0xee0
    2a1c:	52800021 	mov	w1, #0x1                   	// #1
    2a20:	52882080 	mov	w0, #0x4104                	// #16644
    2a24:	72a620a0 	movk	w0, #0x3105, lsl #16
    2a28:	2a0103e2 	mov	w2, w1
    2a2c:	2a0103e3 	mov	w3, w1
    2a30:	97fff92c 	bl	0xee0
    2a34:	d2882080 	mov	x0, #0x4104                	// #16644
    2a38:	f2a620a0 	movk	x0, #0x3105, lsl #16
    2a3c:	b9400000 	ldr	w0, [x0]
    2a40:	3617ffa0 	tbz	w0, #2, 0x2a34
    2a44:	52800021 	mov	w1, #0x1                   	// #1
    2a48:	a94153f3 	ldp	x19, x20, [sp, #16]
    2a4c:	f94013f5 	ldr	x21, [sp, #32]
    2a50:	52882080 	mov	w0, #0x4104                	// #16644
    2a54:	a8c37bfd 	ldp	x29, x30, [sp], #48
    2a58:	72a620a0 	movk	w0, #0x3105, lsl #16
    2a5c:	2a0103e2 	mov	w2, w1
    2a60:	52800003 	mov	w3, #0x0                   	// #0
    2a64:	17fff91f 	b	0xee0
    2a68:	a9ba7bfd 	stp	x29, x30, [sp, #-96]!
    2a6c:	910003fd 	mov	x29, sp
    2a70:	a9025bf5 	stp	x21, x22, [sp, #32]
    2a74:	b0000076 	adrp	x22, 0xf000
    2a78:	2a0003f5 	mov	w21, w0
    2a7c:	910242c0 	add	x0, x22, #0x90
    2a80:	a90363f7 	stp	x23, x24, [sp, #48]
    2a84:	a90153f3 	stp	x19, x20, [sp, #16]
    2a88:	b9400000 	ldr	w0, [x0]
    2a8c:	a9046bf9 	stp	x25, x26, [sp, #64]
    2a90:	b9005fbf 	str	wzr, [x29, #92]
    2a94:	7100c01f 	cmp	w0, #0x30
    2a98:	2a0103f8 	mov	w24, w1
    2a9c:	54000060 	b.eq	0x2aa8  // b.none
    2aa0:	52800040 	mov	w0, #0x2                   	// #2
    2aa4:	97fffa3c 	bl	0x1394
    2aa8:	b0000079 	adrp	x25, 0xf000
    2aac:	d0000057 	adrp	x23, 0xc000
    2ab0:	d000005a 	adrp	x26, 0xc000
    2ab4:	52800054 	mov	w20, #0x2                   	// #2
    2ab8:	91032339 	add	x25, x25, #0xc8
    2abc:	9131d6f7 	add	x23, x23, #0xc75
    2ac0:	91322f5a 	add	x26, x26, #0xc8b
    2ac4:	910242c0 	add	x0, x22, #0x90
    2ac8:	b9401000 	ldr	w0, [x0, #16]
    2acc:	6b00029f 	cmp	w20, w0
    2ad0:	540005c2 	b.cs	0x2b88  // b.hs, b.nlast
    2ad4:	52800301 	mov	w1, #0x18                  	// #24
    2ad8:	f9400320 	ldr	x0, [x25]
    2adc:	9ba17e81 	umull	x1, w20, w1
    2ae0:	b8616813 	ldr	w19, [x0, x1]
    2ae4:	6b13031f 	cmp	w24, w19
    2ae8:	54000503 	b.cc	0x2b88  // b.lo, b.ul, b.last
    2aec:	11002280 	add	w0, w20, #0x8
    2af0:	1ac026a0 	lsr	w0, w21, w0
    2af4:	37000460 	tbnz	w0, #0, 0x2b80
    2af8:	7114d27f 	cmp	w19, #0x534
    2afc:	54000389 	b.ls	0x2b6c  // b.plast
    2b00:	7114d67f 	cmp	w19, #0x535
    2b04:	540000a1 	b.ne	0x2b18  // b.any
    2b08:	aa1703e0 	mov	x0, x23
    2b0c:	52806401 	mov	w1, #0x320                 	// #800
    2b10:	94001bb2 	bl	0x99d8
    2b14:	14000016 	b	0x2b6c
    2b18:	7117fe7f 	cmp	w19, #0x5ff
    2b1c:	54000289 	b.ls	0x2b6c  // b.plast
    2b20:	aa1703e0 	mov	x0, x23
    2b24:	52807081 	mov	w1, #0x384                 	// #900
    2b28:	94001bac 	bl	0x99d8
    2b2c:	711d2a7f 	cmp	w19, #0x74a
    2b30:	540001e1 	b.ne	0x2b6c  // b.any
    2b34:	37600175 	tbnz	w21, #12, 0x2b60
    2b38:	910173a1 	add	x1, x29, #0x5c
    2b3c:	52808000 	mov	w0, #0x400                 	// #1024
    2b40:	97fffa6b 	bl	0x14ec
    2b44:	b9405fa0 	ldr	w0, [x29, #92]
    2b48:	97ffff82 	bl	0x2950
    2b4c:	b9405fa0 	ldr	w0, [x29, #92]
    2b50:	97ffff80 	bl	0x2950
    2b54:	2a1303e0 	mov	w0, w19
    2b58:	97fffa2f 	bl	0x1414
    2b5c:	14000004 	b	0x2b6c
    2b60:	aa1a03e0 	mov	x0, x26
    2b64:	97fff91b 	bl	0xfd0
    2b68:	14000006 	b	0x2b80
    2b6c:	2a1303e0 	mov	w0, w19
    2b70:	94000fd6 	bl	0x6ac8
    2b74:	94000fbd 	bl	0x6a68
    2b78:	34000040 	cbz	w0, 0x2b80
    2b7c:	14000000 	b	0x2b7c
    2b80:	11000694 	add	w20, w20, #0x1
    2b84:	17ffffd0 	b	0x2ac4
    2b88:	910242d6 	add	x22, x22, #0x90
    2b8c:	b94002c0 	ldr	w0, [x22]
    2b90:	7100c01f 	cmp	w0, #0x30
    2b94:	54000060 	b.eq	0x2ba0  // b.none
    2b98:	52800020 	mov	w0, #0x1                   	// #1
    2b9c:	97fff9fe 	bl	0x1394
    2ba0:	a94153f3 	ldp	x19, x20, [sp, #16]
    2ba4:	a9425bf5 	ldp	x21, x22, [sp, #32]
    2ba8:	a94363f7 	ldp	x23, x24, [sp, #48]
    2bac:	a9446bf9 	ldp	x25, x26, [sp, #64]
    2bb0:	a8c67bfd 	ldp	x29, x30, [sp], #96
    2bb4:	d65f03c0 	ret
    2bb8:	52801f00 	mov	w0, #0xf8                  	// #248
    2bbc:	72a64fc0 	movk	w0, #0x327e, lsl #16
    2bc0:	52800201 	mov	w1, #0x10                  	// #16
    2bc4:	52800142 	mov	w2, #0xa                   	// #10
    2bc8:	52800003 	mov	w3, #0x0                   	// #0
    2bcc:	17fff8c5 	b	0xee0
    2bd0:	a9bf7bfd 	stp	x29, x30, [sp, #-16]!
    2bd4:	52801f00 	mov	w0, #0xf8                  	// #248
    2bd8:	910003fd 	mov	x29, sp
    2bdc:	52800201 	mov	w1, #0x10                  	// #16
    2be0:	52800142 	mov	w2, #0xa                   	// #10
    2be4:	52807fe3 	mov	w3, #0x3ff                 	// #1023
    2be8:	72a64fc0 	movk	w0, #0x327e, lsl #16
    2bec:	97fff8bd 	bl	0xee0
    2bf0:	52801900 	mov	w0, #0xc8                  	// #200
    2bf4:	52800001 	mov	w1, #0x0                   	// #0
    2bf8:	52800202 	mov	w2, #0x10                  	// #16
    2bfc:	529fffe3 	mov	w3, #0xffff                	// #65535
    2c00:	72a64fc0 	movk	w0, #0x327e, lsl #16
    2c04:	97fff8b7 	bl	0xee0
    2c08:	52800022 	mov	w2, #0x1                   	// #1
    2c0c:	52804600 	mov	w0, #0x230                 	// #560
    2c10:	2a0203e3 	mov	w3, w2
    2c14:	52800141 	mov	w1, #0xa                   	// #10
    2c18:	72a64fc0 	movk	w0, #0x327e, lsl #16
    2c1c:	97fff8b1 	bl	0xee0
    2c20:	52804600 	mov	w0, #0x230                 	// #560
    2c24:	52800201 	mov	w1, #0x10                  	// #16
    2c28:	528000a2 	mov	w2, #0x5                   	// #5
    2c2c:	52800363 	mov	w3, #0x1b                  	// #27
    2c30:	72a64fc0 	movk	w0, #0x327e, lsl #16
    2c34:	97fff8ab 	bl	0xee0
    2c38:	52806700 	mov	w0, #0x338                 	// #824
    2c3c:	a8c17bfd 	ldp	x29, x30, [sp], #16
    2c40:	72a64fc0 	movk	w0, #0x327e, lsl #16
    2c44:	52800001 	mov	w1, #0x0                   	// #0
    2c48:	52800202 	mov	w2, #0x10                  	// #16
    2c4c:	52801003 	mov	w3, #0x80                  	// #128
    2c50:	17fff8a4 	b	0xee0
    2c54:	52800022 	mov	w2, #0x1                   	// #1
    2c58:	52804a00 	mov	w0, #0x250                 	// #592
    2c5c:	72a64fc0 	movk	w0, #0x327e, lsl #16
    2c60:	52800001 	mov	w1, #0x0                   	// #0
    2c64:	2a0203e3 	mov	w3, w2
    2c68:	17fff89e 	b	0xee0
    2c6c:	a9be7bfd 	stp	x29, x30, [sp, #-32]!
    2c70:	910003fd 	mov	x29, sp
    2c74:	910073a1 	add	x1, x29, #0x1c
    2c78:	97fffa1d 	bl	0x14ec
    2c7c:	97fffb2e 	bl	0x1934
    2c80:	97fffa65 	bl	0x1614
    2c84:	97fffba4 	bl	0x1b14
    2c88:	97fffc24 	bl	0x1d18
    2c8c:	97fffa68 	bl	0x162c
    2c90:	97fffa55 	bl	0x15e4
    2c94:	97fffac9 	bl	0x17b8
    2c98:	97fffb35 	bl	0x196c
    2c9c:	97fffa58 	bl	0x15fc
    2ca0:	97fffc28 	bl	0x1d40
    2ca4:	b9401fa0 	ldr	w0, [x29, #28]
    2ca8:	97fffab0 	bl	0x1768
    2cac:	97fffc63 	bl	0x1e38
    2cb0:	b9401fa0 	ldr	w0, [x29, #28]
    2cb4:	97fffe85 	bl	0x26c8
    2cb8:	a8c27bfd 	ldp	x29, x30, [sp], #32
    2cbc:	d65f03c0 	ret
    2cc0:	d2801380 	mov	x0, #0x9c                  	// #156
    2cc4:	f2a62000 	movk	x0, #0x3100, lsl #16
    2cc8:	b900001f 	str	wzr, [x0]
    2ccc:	d283ff80 	mov	x0, #0x1ffc                	// #8188
    2cd0:	f2a62000 	movk	x0, #0x3100, lsl #16
    2cd4:	b900001f 	str	wzr, [x0]
    2cd8:	d65f03c0 	ret
    2cdc:	a9bd7bfd 	stp	x29, x30, [sp, #-48]!
    2ce0:	52800102 	mov	w2, #0x8                   	// #8
    2ce4:	910003fd 	mov	x29, sp
    2ce8:	a9025bf5 	stp	x21, x22, [sp, #32]
    2cec:	2a0003f6 	mov	w22, w0
    2cf0:	52821e80 	mov	w0, #0x10f4                	// #4340
    2cf4:	2a1603e3 	mov	w3, w22
    2cf8:	2a0103f5 	mov	w21, w1
    2cfc:	72a62000 	movk	w0, #0x3100, lsl #16
    2d00:	52800301 	mov	w1, #0x18                  	// #24
    2d04:	a90153f3 	stp	x19, x20, [sp, #16]
    2d08:	97fff876 	bl	0xee0
    2d0c:	52821e80 	mov	w0, #0x10f4                	// #4340
    2d10:	528002e1 	mov	w1, #0x17                  	// #23
    2d14:	52800022 	mov	w2, #0x1                   	// #1
    2d18:	52800003 	mov	w3, #0x0                   	// #0
    2d1c:	72a62000 	movk	w0, #0x3100, lsl #16
    2d20:	97fff870 	bl	0xee0
    2d24:	b0000060 	adrp	x0, 0xf000
    2d28:	91024000 	add	x0, x0, #0x90
    2d2c:	52800201 	mov	w1, #0x10                  	// #16
    2d30:	52800022 	mov	w2, #0x1                   	// #1
    2d34:	b9400000 	ldr	w0, [x0]
    2d38:	7101041f 	cmp	w0, #0x41
    2d3c:	52820080 	mov	w0, #0x1004                	// #4100
    2d40:	1a9f17e3 	cset	w3, eq  // eq = none
    2d44:	72a62000 	movk	w0, #0x3100, lsl #16
    2d48:	97fff866 	bl	0xee0
    2d4c:	52820000 	mov	w0, #0x1000                	// #4096
    2d50:	52800201 	mov	w1, #0x10                  	// #16
    2d54:	52800062 	mov	w2, #0x3                   	// #3
    2d58:	52800023 	mov	w3, #0x1                   	// #1
    2d5c:	72a62000 	movk	w0, #0x3100, lsl #16
    2d60:	97fff860 	bl	0xee0
    2d64:	52820000 	mov	w0, #0x1000                	// #4096
    2d68:	52800181 	mov	w1, #0xc                   	// #12
    2d6c:	52800082 	mov	w2, #0x4                   	// #4
    2d70:	528001e3 	mov	w3, #0xf                   	// #15
    2d74:	72a62000 	movk	w0, #0x3100, lsl #16
    2d78:	97fff85a 	bl	0xee0
    2d7c:	52820000 	mov	w0, #0x1000                	// #4096
    2d80:	52800101 	mov	w1, #0x8                   	// #8
    2d84:	52800082 	mov	w2, #0x4                   	// #4
    2d88:	52800003 	mov	w3, #0x0                   	// #0
    2d8c:	72a62000 	movk	w0, #0x3100, lsl #16
    2d90:	97fff854 	bl	0xee0
    2d94:	52820000 	mov	w0, #0x1000                	// #4096
    2d98:	52800201 	mov	w1, #0x10                  	// #16
    2d9c:	52800022 	mov	w2, #0x1                   	// #1
    2da0:	52800003 	mov	w3, #0x0                   	// #0
    2da4:	72a62000 	movk	w0, #0x3100, lsl #16
    2da8:	97fff84e 	bl	0xee0
    2dac:	52801900 	mov	w0, #0xc8                  	// #200
    2db0:	97fff861 	bl	0xf34
    2db4:	52800022 	mov	w2, #0x1                   	// #1
    2db8:	52820000 	mov	w0, #0x1000                	// #4096
    2dbc:	52800221 	mov	w1, #0x11                  	// #17
    2dc0:	2a0203e3 	mov	w3, w2
    2dc4:	72a62000 	movk	w0, #0x3100, lsl #16
    2dc8:	97fff846 	bl	0xee0
    2dcc:	52801900 	mov	w0, #0xc8                  	// #200
    2dd0:	97fff859 	bl	0xf34
    2dd4:	d2820000 	mov	x0, #0x1000                	// #4096
    2dd8:	f2a62000 	movk	x0, #0x3100, lsl #16
    2ddc:	b9400001 	ldr	w1, [x0]
    2de0:	d2820000 	mov	x0, #0x1000                	// #4096
    2de4:	f2a62000 	movk	x0, #0x3100, lsl #16
    2de8:	b9400000 	ldr	w0, [x0]
    2dec:	d2820000 	mov	x0, #0x1000                	// #4096
    2df0:	f2a62000 	movk	x0, #0x3100, lsl #16
    2df4:	b9400013 	ldr	w19, [x0]
    2df8:	d34c3e73 	ubfx	x19, x19, #12, #4
    2dfc:	37a00241 	tbnz	w1, #20, 0x2e44
    2e00:	51000673 	sub	w19, w19, #0x1
    2e04:	52820000 	mov	w0, #0x1000                	// #4096
    2e08:	52800181 	mov	w1, #0xc                   	// #12
    2e0c:	52800082 	mov	w2, #0x4                   	// #4
    2e10:	2a1303e3 	mov	w3, w19
    2e14:	72a62000 	movk	w0, #0x3100, lsl #16
    2e18:	97fff832 	bl	0xee0
    2e1c:	52801900 	mov	w0, #0xc8                  	// #200
    2e20:	97fff845 	bl	0xf34
    2e24:	d2820000 	mov	x0, #0x1000                	// #4096
    2e28:	f2a62000 	movk	x0, #0x3100, lsl #16
    2e2c:	b9400000 	ldr	w0, [x0]
    2e30:	37a000a0 	tbnz	w0, #20, 0x2e44
    2e34:	35fffe73 	cbnz	w19, 0x2e00
    2e38:	d0000040 	adrp	x0, 0xc000
    2e3c:	91328800 	add	x0, x0, #0xca2
    2e40:	1400003c 	b	0x2f30
    2e44:	52820000 	mov	w0, #0x1000                	// #4096
    2e48:	52800181 	mov	w1, #0xc                   	// #12
    2e4c:	52800082 	mov	w2, #0x4                   	// #4
    2e50:	52800003 	mov	w3, #0x0                   	// #0
    2e54:	72a62000 	movk	w0, #0x3100, lsl #16
    2e58:	97fff822 	bl	0xee0
    2e5c:	52801900 	mov	w0, #0xc8                  	// #200
    2e60:	97fff835 	bl	0xf34
    2e64:	d2820000 	mov	x0, #0x1000                	// #4096
    2e68:	f2a62000 	movk	x0, #0x3100, lsl #16
    2e6c:	b9400001 	ldr	w1, [x0]
    2e70:	d2820000 	mov	x0, #0x1000                	// #4096
    2e74:	f2a62000 	movk	x0, #0x3100, lsl #16
    2e78:	b9400014 	ldr	w20, [x0]
    2e7c:	d34c3e94 	ubfx	x20, x20, #12, #4
    2e80:	36a00341 	tbz	w1, #20, 0x2ee8
    2e84:	11000694 	add	w20, w20, #0x1
    2e88:	52820000 	mov	w0, #0x1000                	// #4096
    2e8c:	52800181 	mov	w1, #0xc                   	// #12
    2e90:	52800082 	mov	w2, #0x4                   	// #4
    2e94:	2a1403e3 	mov	w3, w20
    2e98:	72a62000 	movk	w0, #0x3100, lsl #16
    2e9c:	97fff811 	bl	0xee0
    2ea0:	52801900 	mov	w0, #0xc8                  	// #200
    2ea4:	97fff824 	bl	0xf34
    2ea8:	d2820000 	mov	x0, #0x1000                	// #4096
    2eac:	f2a62000 	movk	x0, #0x3100, lsl #16
    2eb0:	b9400000 	ldr	w0, [x0]
    2eb4:	36a001a0 	tbz	w0, #20, 0x2ee8
    2eb8:	71003e9f 	cmp	w20, #0xf
    2ebc:	54fffe41 	b.ne	0x2e84  // b.any
    2ec0:	d0000040 	adrp	x0, 0xc000
    2ec4:	9132a800 	add	x0, x0, #0xcaa
    2ec8:	12800014 	mov	w20, #0xffffffff            	// #-1
    2ecc:	97fff841 	bl	0xfd0
    2ed0:	71003e7f 	cmp	w19, #0xf
    2ed4:	54001681 	b.ne	0x31a4  // b.any
    2ed8:	d0000040 	adrp	x0, 0xc000
    2edc:	9132c800 	add	x0, x0, #0xcb2
    2ee0:	97fff83c 	bl	0xfd0
    2ee4:	140000b0 	b	0x31a4
    2ee8:	710142df 	cmp	w22, #0x50
    2eec:	54000120 	b.eq	0x2f10  // b.none
    2ef0:	52821e80 	mov	w0, #0x10f4                	// #4340
    2ef4:	72a62000 	movk	w0, #0x3100, lsl #16
    2ef8:	52800301 	mov	w1, #0x18                  	// #24
    2efc:	52800102 	mov	w2, #0x8                   	// #8
    2f00:	52800a03 	mov	w3, #0x50                  	// #80
    2f04:	52800013 	mov	w19, #0x0                   	// #0
    2f08:	97fff7f6 	bl	0xee0
    2f0c:	1400000e 	b	0x2f44
    2f10:	6b14027f 	cmp	w19, w20
    2f14:	4b140260 	sub	w0, w19, w20
    2f18:	54000048 	b.hi	0x2f20  // b.pmore
    2f1c:	4b130280 	sub	w0, w20, w19
    2f20:	71000c1f 	cmp	w0, #0x3
    2f24:	540000c9 	b.ls	0x2f3c  // b.plast
    2f28:	d0000040 	adrp	x0, 0xc000
    2f2c:	9132f400 	add	x0, x0, #0xcbd
    2f30:	97fff828 	bl	0xfd0
    2f34:	12800014 	mov	w20, #0xffffffff            	// #-1
    2f38:	1400009b 	b	0x31a4
    2f3c:	0b130293 	add	w19, w20, w19
    2f40:	53017e73 	lsr	w19, w19, #1
    2f44:	52820000 	mov	w0, #0x1000                	// #4096
    2f48:	2a1303e3 	mov	w3, w19
    2f4c:	52800181 	mov	w1, #0xc                   	// #12
    2f50:	52800082 	mov	w2, #0x4                   	// #4
    2f54:	72a62000 	movk	w0, #0x3100, lsl #16
    2f58:	97fff7e2 	bl	0xee0
    2f5c:	52800081 	mov	w1, #0x4                   	// #4
    2f60:	52820000 	mov	w0, #0x1000                	// #4096
    2f64:	2a0103e2 	mov	w2, w1
    2f68:	2a1303e3 	mov	w3, w19
    2f6c:	72a62000 	movk	w0, #0x3100, lsl #16
    2f70:	97fff7dc 	bl	0xee0
    2f74:	52820000 	mov	w0, #0x1000                	// #4096
    2f78:	52800221 	mov	w1, #0x11                  	// #17
    2f7c:	52800022 	mov	w2, #0x1                   	// #1
    2f80:	52800003 	mov	w3, #0x0                   	// #0
    2f84:	72a62000 	movk	w0, #0x3100, lsl #16
    2f88:	97fff7d6 	bl	0xee0
    2f8c:	52801900 	mov	w0, #0xc8                  	// #200
    2f90:	97fff7e9 	bl	0xf34
    2f94:	52821e80 	mov	w0, #0x10f4                	// #4340
    2f98:	52800301 	mov	w1, #0x18                  	// #24
    2f9c:	52800102 	mov	w2, #0x8                   	// #8
    2fa0:	2a1503e3 	mov	w3, w21
    2fa4:	72a62000 	movk	w0, #0x3100, lsl #16
    2fa8:	97fff7ce 	bl	0xee0
    2fac:	52800022 	mov	w2, #0x1                   	// #1
    2fb0:	52820000 	mov	w0, #0x1000                	// #4096
    2fb4:	52800241 	mov	w1, #0x12                  	// #18
    2fb8:	2a0203e3 	mov	w3, w2
    2fbc:	72a62000 	movk	w0, #0x3100, lsl #16
    2fc0:	97fff7c8 	bl	0xee0
    2fc4:	52801900 	mov	w0, #0xc8                  	// #200
    2fc8:	97fff7db 	bl	0xf34
    2fcc:	d2820000 	mov	x0, #0x1000                	// #4096
    2fd0:	f2a62000 	movk	x0, #0x3100, lsl #16
    2fd4:	b9400001 	ldr	w1, [x0]
    2fd8:	d2820000 	mov	x0, #0x1000                	// #4096
    2fdc:	f2a62000 	movk	x0, #0x3100, lsl #16
    2fe0:	b9400013 	ldr	w19, [x0]
    2fe4:	d3482e73 	ubfx	x19, x19, #8, #4
    2fe8:	37a80261 	tbnz	w1, #21, 0x3034
    2fec:	11000673 	add	w19, w19, #0x1
    2ff0:	52820000 	mov	w0, #0x1000                	// #4096
    2ff4:	52800101 	mov	w1, #0x8                   	// #8
    2ff8:	52800082 	mov	w2, #0x4                   	// #4
    2ffc:	2a1303e3 	mov	w3, w19
    3000:	72a62000 	movk	w0, #0x3100, lsl #16
    3004:	97fff7b7 	bl	0xee0
    3008:	52801900 	mov	w0, #0xc8                  	// #200
    300c:	97fff7ca 	bl	0xf34
    3010:	d2820000 	mov	x0, #0x1000                	// #4096
    3014:	f2a62000 	movk	x0, #0x3100, lsl #16
    3018:	b9400000 	ldr	w0, [x0]
    301c:	37a800c0 	tbnz	w0, #21, 0x3034
    3020:	71003e7f 	cmp	w19, #0xf
    3024:	54fffe41 	b.ne	0x2fec  // b.any
    3028:	d0000040 	adrp	x0, 0xd000
    302c:	91330c00 	add	x0, x0, #0xcc3
    3030:	14000034 	b	0x3100
    3034:	52820000 	mov	w0, #0x1000                	// #4096
    3038:	52800101 	mov	w1, #0x8                   	// #8
    303c:	52800082 	mov	w2, #0x4                   	// #4
    3040:	528001e3 	mov	w3, #0xf                   	// #15
    3044:	72a62000 	movk	w0, #0x3100, lsl #16
    3048:	97fff7a6 	bl	0xee0
    304c:	52801900 	mov	w0, #0xc8                  	// #200
    3050:	97fff7b9 	bl	0xf34
    3054:	d2820000 	mov	x0, #0x1000                	// #4096
    3058:	f2a62000 	movk	x0, #0x3100, lsl #16
    305c:	b9400001 	ldr	w1, [x0]
    3060:	d2820000 	mov	x0, #0x1000                	// #4096
    3064:	f2a62000 	movk	x0, #0x3100, lsl #16
    3068:	b9400014 	ldr	w20, [x0]
    306c:	d3482e94 	ubfx	x20, x20, #8, #4
    3070:	36a80241 	tbz	w1, #21, 0x30b8
    3074:	51000694 	sub	w20, w20, #0x1
    3078:	52820000 	mov	w0, #0x1000                	// #4096
    307c:	52800101 	mov	w1, #0x8                   	// #8
    3080:	52800082 	mov	w2, #0x4                   	// #4
    3084:	2a1403e3 	mov	w3, w20
    3088:	72a62000 	movk	w0, #0x3100, lsl #16
    308c:	97fff795 	bl	0xee0
    3090:	52801900 	mov	w0, #0xc8                  	// #200
    3094:	97fff7a8 	bl	0xf34
    3098:	d2820000 	mov	x0, #0x1000                	// #4096
    309c:	f2a62000 	movk	x0, #0x3100, lsl #16
    30a0:	b9400000 	ldr	w0, [x0]
    30a4:	36a800a0 	tbz	w0, #21, 0x30b8
    30a8:	35fffe74 	cbnz	w20, 0x3074
    30ac:	d0000040 	adrp	x0, 0xd000
    30b0:	91332400 	add	x0, x0, #0xcc9
    30b4:	14000013 	b	0x3100
    30b8:	710142bf 	cmp	w21, #0x50
    30bc:	54000120 	b.eq	0x30e0  // b.none
    30c0:	52821e80 	mov	w0, #0x10f4                	// #4340
    30c4:	72a62000 	movk	w0, #0x3100, lsl #16
    30c8:	52800301 	mov	w1, #0x18                  	// #24
    30cc:	52800102 	mov	w2, #0x8                   	// #8
    30d0:	52800a03 	mov	w3, #0x50                  	// #80
    30d4:	528001f3 	mov	w19, #0xf                   	// #15
    30d8:	97fff782 	bl	0xee0
    30dc:	1400000e 	b	0x3114
    30e0:	6b14027f 	cmp	w19, w20
    30e4:	4b140260 	sub	w0, w19, w20
    30e8:	54000048 	b.hi	0x30f0  // b.pmore
    30ec:	4b130280 	sub	w0, w20, w19
    30f0:	71000c1f 	cmp	w0, #0x3
    30f4:	540000c9 	b.ls	0x310c  // b.plast
    30f8:	d0000040 	adrp	x0, 0xd000
    30fc:	91334400 	add	x0, x0, #0xcd1
    3100:	97fff7b4 	bl	0xfd0
    3104:	52800034 	mov	w20, #0x1                   	// #1
    3108:	14000027 	b	0x31a4
    310c:	0b130293 	add	w19, w20, w19
    3110:	53017e73 	lsr	w19, w19, #1
    3114:	52820000 	mov	w0, #0x1000                	// #4096
    3118:	52800101 	mov	w1, #0x8                   	// #8
    311c:	52800082 	mov	w2, #0x4                   	// #4
    3120:	2a1303e3 	mov	w3, w19
    3124:	72a62000 	movk	w0, #0x3100, lsl #16
    3128:	52800014 	mov	w20, #0x0                   	// #0
    312c:	97fff76d 	bl	0xee0
    3130:	52820000 	mov	w0, #0x1000                	// #4096
    3134:	52800001 	mov	w1, #0x0                   	// #0
    3138:	52800082 	mov	w2, #0x4                   	// #4
    313c:	2a1303e3 	mov	w3, w19
    3140:	72a62000 	movk	w0, #0x3100, lsl #16
    3144:	97fff767 	bl	0xee0
    3148:	52820000 	mov	w0, #0x1000                	// #4096
    314c:	52800241 	mov	w1, #0x12                  	// #18
    3150:	52800022 	mov	w2, #0x1                   	// #1
    3154:	52800003 	mov	w3, #0x0                   	// #0
    3158:	72a62000 	movk	w0, #0x3100, lsl #16
    315c:	97fff761 	bl	0xee0
    3160:	52800022 	mov	w2, #0x1                   	// #1
    3164:	52820000 	mov	w0, #0x1000                	// #4096
    3168:	52800201 	mov	w1, #0x10                  	// #16
    316c:	2a0203e3 	mov	w3, w2
    3170:	72a62000 	movk	w0, #0x3100, lsl #16
    3174:	97fff75b 	bl	0xee0
    3178:	d0000040 	adrp	x0, 0xd000
    317c:	91335c00 	add	x0, x0, #0xcd7
    3180:	97fff794 	bl	0xfd0
    3184:	d2820000 	mov	x0, #0x1000                	// #4096
    3188:	f2a62000 	movk	x0, #0x3100, lsl #16
    318c:	b9400000 	ldr	w0, [x0]
    3190:	97fff79c 	bl	0x1000
    3194:	d2821e80 	mov	x0, #0x10f4                	// #4340
    3198:	f2a62000 	movk	x0, #0x3100, lsl #16
    319c:	b9400000 	ldr	w0, [x0]
    31a0:	97fff798 	bl	0x1000
    31a4:	2a1403e0 	mov	w0, w20
    31a8:	a9425bf5 	ldp	x21, x22, [sp, #32]
    31ac:	a94153f3 	ldp	x19, x20, [sp, #16]
    31b0:	a8c37bfd 	ldp	x29, x30, [sp], #48
    31b4:	d65f03c0 	ret
    31b8:	a9be7bfd 	stp	x29, x30, [sp, #-32]!
    31bc:	b0000062 	adrp	x2, 0x10000
    31c0:	910003fd 	mov	x29, sp
    31c4:	f9000bf3 	str	x19, [sp, #16]
    31c8:	2a0003f3 	mov	w19, w0
    31cc:	d2801f00 	mov	x0, #0xf8                  	// #248
    31d0:	91024042 	add	x2, x2, #0x90
    31d4:	f2a64fa0 	movk	x0, #0x327d, lsl #16
    31d8:	7118003f 	cmp	w1, #0x600
    31dc:	b9400003 	ldr	w3, [x0]
    31e0:	b9400040 	ldr	w0, [x2]
    31e4:	d3441c04 	ubfx	x4, x0, #4, #4
    31e8:	12000c05 	and	w5, w0, #0xf
    31ec:	0b050085 	add	w5, w4, w5
    31f0:	b9401444 	ldr	w4, [x2, #20]
    31f4:	2a0410a4 	orr	w4, w5, w4, lsl #4
    31f8:	d2860105 	mov	x5, #0x3008                	// #12296
    31fc:	b90000a4 	str	w4, [x5]
    3200:	d2860185 	mov	x5, #0x300c                	// #12300
    3204:	b9402844 	ldr	w4, [x2, #40]
    3208:	b90000a4 	str	w4, [x5]
    320c:	b9402c44 	ldr	w4, [x2, #44]
    3210:	d2860202 	mov	x2, #0x3010                	// #12304
    3214:	b9000044 	str	w4, [x2]
    3218:	d2868082 	mov	x2, #0x3404                	// #13316
    321c:	12000264 	and	w4, w19, #0x1
    3220:	b9000044 	str	w4, [x2]
    3224:	54000060 	b.eq	0x3230  // b.none
    3228:	711d283f 	cmp	w1, #0x74a
    322c:	54000081 	b.ne	0x323c  // b.any
    3230:	34000063 	cbz	w3, 0x323c
    3234:	52807083 	mov	w3, #0x384                 	// #900
    3238:	14000007 	b	0x3254
    323c:	7114d43f 	cmp	w1, #0x535
    3240:	54000081 	b.ne	0x3250  // b.any
    3244:	34000063 	cbz	w3, 0x3250
    3248:	52806403 	mov	w3, #0x320                 	// #800
    324c:	14000002 	b	0x3254
    3250:	52805dc3 	mov	w3, #0x2ee                 	// #750
    3254:	d2868182 	mov	x2, #0x340c                	// #13324
    3258:	7101001f 	cmp	w0, #0x40
    325c:	b9000043 	str	w3, [x2]
    3260:	d2860402 	mov	x2, #0x3020                	// #12320
    3264:	b9000041 	str	w1, [x2]
    3268:	54000120 	b.eq	0x328c  // b.none
    326c:	7101041f 	cmp	w0, #0x41
    3270:	540000e0 	b.eq	0x328c  // b.none
    3274:	7100c01f 	cmp	w0, #0x30
    3278:	54000261 	b.ne	0x32c4  // b.any
    327c:	d3483e60 	ubfx	x0, x19, #8, #8
    3280:	52801901 	mov	w1, #0xc8                  	// #200
    3284:	2a010000 	orr	w0, w0, w1
    3288:	14000002 	b	0x3290
    328c:	d3483e60 	ubfx	x0, x19, #8, #8
    3290:	d2868101 	mov	x1, #0x3408                	// #13320
    3294:	b9000020 	str	w0, [x1]
    3298:	36200193 	tbz	w19, #4, 0x32c8
    329c:	52800001 	mov	w1, #0x0                   	// #0
    32a0:	52801900 	mov	w0, #0xc8                  	// #200
    32a4:	2a0103e3 	mov	w3, w1
    32a8:	72a64fc0 	movk	w0, #0x327e, lsl #16
    32ac:	52800022 	mov	w2, #0x1                   	// #1
    32b0:	97fff70c 	bl	0xee0
    32b4:	d286e080 	mov	x0, #0x3704                	// #14084
    32b8:	52800021 	mov	w1, #0x1                   	// #1
    32bc:	b9000001 	str	w1, [x0]
    32c0:	14000002 	b	0x32c8
    32c4:	14000000 	b	0x32c4
    32c8:	36280093 	tbz	w19, #5, 0x32d8
    32cc:	d286e100 	mov	x0, #0x3708                	// #14088
    32d0:	52800021 	mov	w1, #0x1                   	// #1
    32d4:	b9000001 	str	w1, [x0]
    32d8:	f9400bf3 	ldr	x19, [sp, #16]
    32dc:	a8c27bfd 	ldp	x29, x30, [sp], #32
    32e0:	d65f03c0 	ret
    32e4:	d2a64520 	mov	x0, #0x32290000            	// #841547776
    32e8:	b9400001 	ldr	w1, [x0]
    32ec:	528d28e0 	mov	w0, #0x6947                	// #26951
    32f0:	72abc900 	movk	w0, #0x5e48, lsl #16
    32f4:	6b00003f 	cmp	w1, w0
    32f8:	54000181 	b.ne	0x3328  // b.any
    32fc:	d2800100 	mov	x0, #0x8                   	// #8
    3300:	f2a64520 	movk	x0, #0x3229, lsl #16
    3304:	b9400000 	ldr	w0, [x0]
    3308:	12000400 	and	w0, w0, #0x3
    330c:	71000c1f 	cmp	w0, #0x3
    3310:	540000c1 	b.ne	0x3328  // b.any
    3314:	d2800100 	mov	x0, #0x8                   	// #8
    3318:	f2a64520 	movk	x0, #0x3229, lsl #16
    331c:	52a32f21 	mov	w1, #0x19790000            	// #427360256
    3320:	b9000001 	str	w1, [x0]
    3324:	1400000e 	b	0x335c
    3328:	d2800100 	mov	x0, #0x8                   	// #8
    332c:	f2a64520 	movk	x0, #0x3229, lsl #16
    3330:	52a32f21 	mov	w1, #0x19790000            	// #427360256
    3334:	b9000001 	str	w1, [x0]
    3338:	d2800080 	mov	x0, #0x4                   	// #4
    333c:	f2a64520 	movk	x0, #0x3229, lsl #16
    3340:	52860061 	mov	w1, #0x3003                	// #12291
    3344:	72ad4721 	movk	w1, #0x6a39, lsl #16
    3348:	b9000001 	str	w1, [x0]
    334c:	d2a64521 	mov	x1, #0x32290000            	// #841547776
    3350:	528d28e0 	mov	w0, #0x6947                	// #26951
    3354:	72abc900 	movk	w0, #0x5e48, lsl #16
    3358:	b9000020 	str	w0, [x1]
    335c:	d65f03c0 	ret
    3360:	d28bff00 	mov	x0, #0x5ff8                	// #24568
    3364:	f2a00020 	movk	x0, #0x1, lsl #16
    3368:	b9400001 	ldr	w1, [x0]
    336c:	528acf00 	mov	w0, #0x5678                	// #22136
    3370:	72a24680 	movk	w0, #0x1234, lsl #16
    3374:	6b00003f 	cmp	w1, w0
    3378:	54000140 	b.eq	0x33a0  // b.none
    337c:	d28bff00 	mov	x0, #0x5ff8                	// #24568
    3380:	f2a00020 	movk	x0, #0x1, lsl #16
    3384:	528acf01 	mov	w1, #0x5678                	// #22136
    3388:	72a24681 	movk	w1, #0x1234, lsl #16
    338c:	b9000001 	str	w1, [x0]
    3390:	d28bff80 	mov	x0, #0x5ffc                	// #24572
    3394:	f2a00020 	movk	x0, #0x1, lsl #16
    3398:	52800021 	mov	w1, #0x1                   	// #1
    339c:	14000007 	b	0x33b8
    33a0:	d28bff80 	mov	x0, #0x5ffc                	// #24572
    33a4:	f2a00020 	movk	x0, #0x1, lsl #16
    33a8:	b9400001 	ldr	w1, [x0]
    33ac:	d28bff80 	mov	x0, #0x5ffc                	// #24572
    33b0:	11000421 	add	w1, w1, #0x1
    33b4:	f2a00020 	movk	x0, #0x1, lsl #16
    33b8:	b9000001 	str	w1, [x0]
    33bc:	d65f03c0 	ret
    33c0:	a9bd7bfd 	stp	x29, x30, [sp, #-48]!
    33c4:	910003fd 	mov	x29, sp
    33c8:	a90153f3 	stp	x19, x20, [sp, #16]
    33cc:	aa0003f3 	mov	x19, x0
    33d0:	b0000060 	adrp	x0, 0x10000
    33d4:	91024000 	add	x0, x0, #0x90
    33d8:	b9002fbf 	str	wzr, [x29, #44]
    33dc:	2a0103f4 	mov	w20, w1
    33e0:	b9400000 	ldr	w0, [x0]
    33e4:	7100c01f 	cmp	w0, #0x30
    33e8:	540000a1 	b.ne	0x33fc  // b.any
    33ec:	b9400260 	ldr	w0, [x19]
    33f0:	6b01001f 	cmp	w0, w1
    33f4:	54000049 	b.ls	0x33fc  // b.plast
    33f8:	b9000261 	str	w1, [x19]
    33fc:	b9400260 	ldr	w0, [x19]
    3400:	9100b3a1 	add	x1, x29, #0x2c
    3404:	97fff83a 	bl	0x14ec
    3408:	34000060 	cbz	w0, 0x3414
    340c:	b9000274 	str	w20, [x19]
    3410:	1400002f 	b	0x34cc
    3414:	b9400260 	ldr	w0, [x19]
    3418:	6b14001f 	cmp	w0, w20
    341c:	54000462 	b.cs	0x34a8  // b.hs, b.nlast
    3420:	7114d29f 	cmp	w20, #0x534
    3424:	54000389 	b.ls	0x3494  // b.plast
    3428:	711d2a9f 	cmp	w20, #0x74a
    342c:	54000101 	b.ne	0x344c  // b.any
    3430:	9100b3a1 	add	x1, x29, #0x2c
    3434:	52808000 	mov	w0, #0x400                 	// #1024
    3438:	97fff82d 	bl	0x14ec
    343c:	b9402fa0 	ldr	w0, [x29, #44]
    3440:	97fffd44 	bl	0x2950
    3444:	5280a6a0 	mov	w0, #0x535                 	// #1333
    3448:	97fff7f3 	bl	0x1414
    344c:	b9400260 	ldr	w0, [x19]
    3450:	7114d41f 	cmp	w0, #0x535
    3454:	540000a1 	b.ne	0x3468  // b.any
    3458:	d0000040 	adrp	x0, 0xd000
    345c:	9131d400 	add	x0, x0, #0xc75
    3460:	52806401 	mov	w1, #0x320                 	// #800
    3464:	14000008 	b	0x3484
    3468:	7118001f 	cmp	w0, #0x600
    346c:	540000e0 	b.eq	0x3488  // b.none
    3470:	d0000040 	adrp	x0, 0xd000
    3474:	911a8000 	add	x0, x0, #0x6a0
    3478:	b940a801 	ldr	w1, [x0, #168]
    347c:	d0000040 	adrp	x0, 0xd000
    3480:	9131d400 	add	x0, x0, #0xc75
    3484:	94001955 	bl	0x99d8
    3488:	b9400260 	ldr	w0, [x19]
    348c:	7110001f 	cmp	w0, #0x400
    3490:	540000e0 	b.eq	0x34ac  // b.none
    3494:	9100b3a1 	add	x1, x29, #0x2c
    3498:	97fff815 	bl	0x14ec
    349c:	b9402fa0 	ldr	w0, [x29, #44]
    34a0:	97fffd2c 	bl	0x2950
    34a4:	14000002 	b	0x34ac
    34a8:	b9000274 	str	w20, [x19]
    34ac:	d0000040 	adrp	x0, 0xd000
    34b0:	9133f000 	add	x0, x0, #0xcfc
    34b4:	97fff6c7 	bl	0xfd0
    34b8:	b9400260 	ldr	w0, [x19]
    34bc:	97fff6d1 	bl	0x1000
    34c0:	d0000040 	adrp	x0, 0xd000
    34c4:	91343c00 	add	x0, x0, #0xd0f
    34c8:	97fff6c2 	bl	0xfd0
    34cc:	a94153f3 	ldp	x19, x20, [sp, #16]
    34d0:	a8c37bfd 	ldp	x29, x30, [sp], #48
    34d4:	d65f03c0 	ret
    34d8:	d0000040 	adrp	x0, 0xd000
    34dc:	91344c00 	add	x0, x0, #0xd13
    34e0:	17fff6bc 	b	0xfd0
    34e4:	a9bb7bfd 	stp	x29, x30, [sp, #-80]!
    34e8:	d0000040 	adrp	x0, 0xd000
    34ec:	910003fd 	mov	x29, sp
    34f0:	9134fc00 	add	x0, x0, #0xd3f
    34f4:	a9025bf5 	stp	x21, x22, [sp, #32]
    34f8:	a90153f3 	stp	x19, x20, [sp, #16]
    34fc:	f9001bf7 	str	x23, [sp, #48]
    3500:	97fff6b4 	bl	0xfd0
    3504:	d0000040 	adrp	x0, 0xd000
    3508:	911a8000 	add	x0, x0, #0x6a0
    350c:	52884801 	mov	w1, #0x4240                	// #16960
    3510:	72a001e1 	movk	w1, #0xf, lsl #16
    3514:	b9408402 	ldr	w2, [x0, #132]
    3518:	b9004bbf 	str	wzr, [x29, #72]
    351c:	b9409015 	ldr	w21, [x0, #144]
    3520:	1ac10841 	udiv	w1, w2, w1
    3524:	b9004fa1 	str	w1, [x29, #76]
    3528:	97fffda4 	bl	0x2bb8
    352c:	94000f21 	bl	0x71b0
    3530:	b0000060 	adrp	x0, 0x10000
    3534:	91024000 	add	x0, x0, #0x90
    3538:	b9400000 	ldr	w0, [x0]
    353c:	7100c01f 	cmp	w0, #0x30
    3540:	54000061 	b.ne	0x354c  // b.any
    3544:	5280e940 	mov	w0, #0x74a                 	// #1866
    3548:	97fff7b3 	bl	0x1414
    354c:	52800a13 	mov	w19, #0x50                  	// #80
    3550:	2a1503e0 	mov	w0, w21
    3554:	d0000057 	adrp	x23, 0xd000
    3558:	2a1303f4 	mov	w20, w19
    355c:	91356af7 	add	x23, x23, #0xd5a
    3560:	2a1303f6 	mov	w22, w19
    3564:	94001182 	bl	0x7b6c
    3568:	b9004ba0 	str	w0, [x29, #72]
    356c:	97ffff5e 	bl	0x32e4
    3570:	aa1703e0 	mov	x0, x23
    3574:	97fff697 	bl	0xfd0
    3578:	2a1403e0 	mov	w0, w20
    357c:	97fff6a1 	bl	0x1000
    3580:	2a1303e0 	mov	w0, w19
    3584:	97fff69f 	bl	0x1000
    3588:	2a1303e1 	mov	w1, w19
    358c:	2a1403e0 	mov	w0, w20
    3590:	97fffdd3 	bl	0x2cdc
    3594:	3100041f 	cmn	w0, #0x1
    3598:	2a0003e1 	mov	w1, w0
    359c:	54000221 	b.ne	0x35e0  // b.any
    35a0:	51010680 	sub	w0, w20, #0x41
    35a4:	71003c1f 	cmp	w0, #0xf
    35a8:	54000068 	b.hi	0x35b4  // b.pmore
    35ac:	51002294 	sub	w20, w20, #0x8
    35b0:	52800001 	mov	w1, #0x0                   	// #0
    35b4:	3100043f 	cmn	w1, #0x1
    35b8:	54000061 	b.ne	0x35c4  // b.any
    35bc:	7101029f 	cmp	w20, #0x40
    35c0:	1a961294 	csel	w20, w20, w22, ne  // ne = any
    35c4:	51014281 	sub	w1, w20, #0x50
    35c8:	7100403f 	cmp	w1, #0x10
    35cc:	11002280 	add	w0, w20, #0x8
    35d0:	1a949014 	csel	w20, w0, w20, ls  // ls = plast
    35d4:	7101829f 	cmp	w20, #0x60
    35d8:	54fffcc9 	b.ls	0x3570  // b.plast
    35dc:	14000000 	b	0x35dc
    35e0:	7100041f 	cmp	w0, #0x1
    35e4:	54000201 	b.ne	0x3624  // b.any
    35e8:	51014260 	sub	w0, w19, #0x50
    35ec:	71003c1f 	cmp	w0, #0xf
    35f0:	54000068 	b.hi	0x35fc  // b.pmore
    35f4:	11002273 	add	w19, w19, #0x8
    35f8:	52800001 	mov	w1, #0x0                   	// #0
    35fc:	36000061 	tbz	w1, #0, 0x3608
    3600:	7101827f 	cmp	w19, #0x60
    3604:	1a961273 	csel	w19, w19, w22, ne  // ne = any
    3608:	51010261 	sub	w1, w19, #0x40
    360c:	7100403f 	cmp	w1, #0x10
    3610:	51002260 	sub	w0, w19, #0x8
    3614:	1a939013 	csel	w19, w0, w19, ls  // ls = plast
    3618:	7100fe7f 	cmp	w19, #0x3f
    361c:	54fffaa8 	b.hi	0x3570  // b.pmore
    3620:	14000000 	b	0x3620
    3624:	9400118d 	bl	0x7c58
    3628:	52802000 	mov	w0, #0x100                 	// #256
    362c:	97fffd90 	bl	0x2c6c
    3630:	940010e6 	bl	0x79c8
    3634:	52802000 	mov	w0, #0x100                 	// #256
    3638:	97fffc8a 	bl	0x2860
    363c:	910123a0 	add	x0, x29, #0x48
    3640:	9400114a 	bl	0x7b68
    3644:	97fff9d1 	bl	0x1d88
    3648:	b9404ba1 	ldr	w1, [x29, #72]
    364c:	2a1503e0 	mov	w0, w21
    3650:	97fffd06 	bl	0x2a68
    3654:	b9404ba1 	ldr	w1, [x29, #72]
    3658:	910133a0 	add	x0, x29, #0x4c
    365c:	97ffff59 	bl	0x33c0
    3660:	b9404ba1 	ldr	w1, [x29, #72]
    3664:	910133a0 	add	x0, x29, #0x4c
    3668:	97ffff56 	bl	0x33c0
    366c:	97fff9e4 	bl	0x1dfc
    3670:	52800001 	mov	w1, #0x0                   	// #0
    3674:	2a0103e2 	mov	w2, w1
    3678:	52800040 	mov	w0, #0x2                   	// #2
    367c:	94001374 	bl	0x844c
    3680:	b9404fa0 	ldr	w0, [x29, #76]
    3684:	97fffa63 	bl	0x2010
    3688:	97fffc38 	bl	0x2768
    368c:	97fffd51 	bl	0x2bd0
    3690:	97fffd71 	bl	0x2c54
    3694:	94001117 	bl	0x7af0
    3698:	97ffff32 	bl	0x3360
    369c:	b9404ba1 	ldr	w1, [x29, #72]
    36a0:	2a1503e0 	mov	w0, w21
    36a4:	97fffec5 	bl	0x31b8
    36a8:	97ffff8c 	bl	0x34d8
    36ac:	97fffd85 	bl	0x2cc0
    36b0:	a94153f3 	ldp	x19, x20, [sp, #16]
    36b4:	a9425bf5 	ldp	x21, x22, [sp, #32]
    36b8:	f9401bf7 	ldr	x23, [sp, #48]
    36bc:	a8c57bfd 	ldp	x29, x30, [sp], #80
    36c0:	d65f03c0 	ret
    36c4:	a9bf7bfd 	stp	x29, x30, [sp, #-16]!
    36c8:	52800022 	mov	w2, #0x1                   	// #1
    36cc:	52802a80 	mov	w0, #0x154                 	// #340
    36d0:	910003fd 	mov	x29, sp
    36d4:	2a0203e3 	mov	w3, w2
    36d8:	52800041 	mov	w1, #0x2                   	// #2
    36dc:	72a62000 	movk	w0, #0x3100, lsl #16
    36e0:	97fff600 	bl	0xee0
    36e4:	52800020 	mov	w0, #0x1                   	// #1
    36e8:	97fff62d 	bl	0xf9c
    36ec:	52802a80 	mov	w0, #0x154                 	// #340
    36f0:	52800041 	mov	w1, #0x2                   	// #2
    36f4:	52800022 	mov	w2, #0x1                   	// #1
    36f8:	52800003 	mov	w3, #0x0                   	// #0
    36fc:	72a62000 	movk	w0, #0x3100, lsl #16
    3700:	97fff5f8 	bl	0xee0
    3704:	a8c17bfd 	ldp	x29, x30, [sp], #16
    3708:	52800020 	mov	w0, #0x1                   	// #1
    370c:	17fff624 	b	0xf9c
    3710:	d2800c00 	mov	x0, #0x60                  	// #96
    3714:	f0000043 	adrp	x3, 0xe000
    3718:	f2a62000 	movk	x0, #0x3100, lsl #16
    371c:	91066063 	add	x3, x3, #0x198
    3720:	92a62001 	mov	x1, #0xffffffffceffffff    	// #-822083585
    3724:	8b000062 	add	x2, x3, x0
    3728:	f29ff401 	movk	x1, #0xffa0
    372c:	b8616841 	ldr	w1, [x2, x1]
    3730:	b8004401 	str	w1, [x0], #4
    3734:	d2801001 	mov	x1, #0x80                  	// #128
    3738:	f2a62001 	movk	x1, #0x3100, lsl #16
    373c:	eb01001f 	cmp	x0, x1
    3740:	54ffff01 	b.ne	0x3720  // b.any
    3744:	52800301 	mov	w1, #0x18                  	// #24
    3748:	52802d00 	mov	w0, #0x168                 	// #360
    374c:	72a62000 	movk	w0, #0x3100, lsl #16
    3750:	52800102 	mov	w2, #0x8                   	// #8
    3754:	2a0103e3 	mov	w3, w1
    3758:	17fff5e2 	b	0xee0
    375c:	d2800c00 	mov	x0, #0x60                  	// #96
    3760:	f0000043 	adrp	x3, 0xe000
    3764:	f2a62000 	movk	x0, #0x3100, lsl #16
    3768:	91056063 	add	x3, x3, #0x158
    376c:	92a62001 	mov	x1, #0xffffffffceffffff    	// #-822083585
    3770:	8b000062 	add	x2, x3, x0
    3774:	f29ff401 	movk	x1, #0xffa0
    3778:	b8616841 	ldr	w1, [x2, x1]
    377c:	b8004401 	str	w1, [x0], #4
    3780:	d2801001 	mov	x1, #0x80                  	// #128
    3784:	f2a62001 	movk	x1, #0x3100, lsl #16
    3788:	eb01001f 	cmp	x0, x1
    378c:	54ffff01 	b.ne	0x376c  // b.any
    3790:	52802d00 	mov	w0, #0x168                 	// #360
    3794:	72a62000 	movk	w0, #0x3100, lsl #16
    3798:	52800301 	mov	w1, #0x18                  	// #24
    379c:	52800102 	mov	w2, #0x8                   	// #8
    37a0:	52800003 	mov	w3, #0x0                   	// #0
    37a4:	17fff5cf 	b	0xee0
    37a8:	a9be7bfd 	stp	x29, x30, [sp, #-32]!
    37ac:	52802580 	mov	w0, #0x12c                 	// #300
    37b0:	910003fd 	mov	x29, sp
    37b4:	a90153f3 	stp	x19, x20, [sp, #16]
    37b8:	52800001 	mov	w1, #0x0                   	// #0
    37bc:	52800082 	mov	w2, #0x4                   	// #4
    37c0:	72a62000 	movk	w0, #0x3100, lsl #16
    37c4:	528001e3 	mov	w3, #0xf                   	// #15
    37c8:	b0000073 	adrp	x19, 0x10000
    37cc:	97fff5c5 	bl	0xee0
    37d0:	52800181 	mov	w1, #0xc                   	// #12
    37d4:	b9409260 	ldr	w0, [x19, #144]
    37d8:	52800082 	mov	w2, #0x4                   	// #4
    37dc:	7100c01f 	cmp	w0, #0x30
    37e0:	52802580 	mov	w0, #0x12c                 	// #300
    37e4:	72a62000 	movk	w0, #0x3100, lsl #16
    37e8:	54000061 	b.ne	0x37f4  // b.any
    37ec:	52800143 	mov	w3, #0xa                   	// #10
    37f0:	14000002 	b	0x37f8
    37f4:	528000a3 	mov	w3, #0x5                   	// #5
    37f8:	91024274 	add	x20, x19, #0x90
    37fc:	97fff5b9 	bl	0xee0
    3800:	b9401680 	ldr	w0, [x20, #20]
    3804:	7100081f 	cmp	w0, #0x2
    3808:	540001e1 	b.ne	0x3844  // b.any
    380c:	52800022 	mov	w2, #0x1                   	// #1
    3810:	52802000 	mov	w0, #0x100                 	// #256
    3814:	2a0203e3 	mov	w3, w2
    3818:	52800161 	mov	w1, #0xb                   	// #11
    381c:	72a62000 	movk	w0, #0x3100, lsl #16
    3820:	97fff5b0 	bl	0xee0
    3824:	b9401680 	ldr	w0, [x20, #20]
    3828:	52800181 	mov	w1, #0xc                   	// #12
    382c:	7100081f 	cmp	w0, #0x2
    3830:	52802000 	mov	w0, #0x100                 	// #256
    3834:	72a62000 	movk	w0, #0x3100, lsl #16
    3838:	52800022 	mov	w2, #0x1                   	// #1
    383c:	1a9f17e3 	cset	w3, eq  // eq = none
    3840:	97fff5a8 	bl	0xee0
    3844:	52800020 	mov	w0, #0x1                   	// #1
    3848:	97fff5d5 	bl	0xf9c
    384c:	52802280 	mov	w0, #0x114                 	// #276
    3850:	52800301 	mov	w1, #0x18                  	// #24
    3854:	52800022 	mov	w2, #0x1                   	// #1
    3858:	52800003 	mov	w3, #0x0                   	// #0
    385c:	72a62000 	movk	w0, #0x3100, lsl #16
    3860:	97fff5a0 	bl	0xee0
    3864:	52802300 	mov	w0, #0x118                 	// #280
    3868:	52800301 	mov	w1, #0x18                  	// #24
    386c:	52800022 	mov	w2, #0x1                   	// #1
    3870:	52800003 	mov	w3, #0x0                   	// #0
    3874:	72a62000 	movk	w0, #0x3100, lsl #16
    3878:	97fff59a 	bl	0xee0
    387c:	52802880 	mov	w0, #0x144                 	// #324
    3880:	52800201 	mov	w1, #0x10                  	// #16
    3884:	52800042 	mov	w2, #0x2                   	// #2
    3888:	52800003 	mov	w3, #0x0                   	// #0
    388c:	72a62000 	movk	w0, #0x3100, lsl #16
    3890:	97fff594 	bl	0xee0
    3894:	52800022 	mov	w2, #0x1                   	// #1
    3898:	52802180 	mov	w0, #0x10c                 	// #268
    389c:	2a0203e3 	mov	w3, w2
    38a0:	52800181 	mov	w1, #0xc                   	// #12
    38a4:	72a62000 	movk	w0, #0x3100, lsl #16
    38a8:	97fff58e 	bl	0xee0
    38ac:	52802080 	mov	w0, #0x104                 	// #260
    38b0:	72a62000 	movk	w0, #0x3100, lsl #16
    38b4:	528003e1 	mov	w1, #0x1f                  	// #31
    38b8:	52800022 	mov	w2, #0x1                   	// #1
    38bc:	52800003 	mov	w3, #0x0                   	// #0
    38c0:	97fff588 	bl	0xee0
    38c4:	b9409260 	ldr	w0, [x19, #144]
    38c8:	7100c01f 	cmp	w0, #0x30
    38cc:	540001c1 	b.ne	0x3904  // b.any
    38d0:	d2800c00 	mov	x0, #0x60                  	// #96
    38d4:	f0000043 	adrp	x3, 0xe000
    38d8:	f2a62000 	movk	x0, #0x3100, lsl #16
    38dc:	91072063 	add	x3, x3, #0x1c8
    38e0:	92a62001 	mov	x1, #0xffffffffceffffff    	// #-822083585
    38e4:	8b000062 	add	x2, x3, x0
    38e8:	f29ff401 	movk	x1, #0xffa0
    38ec:	b8616841 	ldr	w1, [x2, x1]
    38f0:	b8004401 	str	w1, [x0], #4
    38f4:	d2801001 	mov	x1, #0x80                  	// #128
    38f8:	f2a62001 	movk	x1, #0x3100, lsl #16
    38fc:	eb01001f 	cmp	x0, x1
    3900:	54ffff01 	b.ne	0x38e0  // b.any
    3904:	a94153f3 	ldp	x19, x20, [sp, #16]
    3908:	a8c27bfd 	ldp	x29, x30, [sp], #32
    390c:	d65f03c0 	ret
    3910:	90000060 	adrp	x0, 0xf000
    3914:	9103e000 	add	x0, x0, #0xf8
    3918:	52803901 	mov	w1, #0x1c8                 	// #456
    391c:	72a62001 	movk	w1, #0x3100, lsl #16
    3920:	b9400402 	ldr	w2, [x0, #4]
    3924:	52800c00 	mov	w0, #0x60                  	// #96
    3928:	1b000440 	madd	w0, w2, w0, w1
    392c:	52800022 	mov	w2, #0x1                   	// #1
    3930:	52800201 	mov	w1, #0x10                  	// #16
    3934:	2a0203e3 	mov	w3, w2
    3938:	17fff56a 	b	0xee0
    393c:	a9bd7bfd 	stp	x29, x30, [sp, #-48]!
    3940:	910003fd 	mov	x29, sp
    3944:	f90013f5 	str	x21, [sp, #32]
    3948:	2a0003f5 	mov	w21, w0
    394c:	90000060 	adrp	x0, 0xf000
    3950:	a90153f3 	stp	x19, x20, [sp, #16]
    3954:	b9409000 	ldr	w0, [x0, #144]
    3958:	7100c01f 	cmp	w0, #0x30
    395c:	540007c0 	b.eq	0x3a54  // b.none
    3960:	90000074 	adrp	x20, 0xf000
    3964:	39439293 	ldrb	w19, [x20, #228]
    3968:	11000673 	add	w19, w19, #0x1
    396c:	53001e73 	uxtb	w19, w19
    3970:	7100067f 	cmp	w19, #0x1
    3974:	39039293 	strb	w19, [x20, #228]
    3978:	540002c1 	b.ne	0x39d0  // b.any
    397c:	52802180 	mov	w0, #0x10c                 	// #268
    3980:	2a1303e2 	mov	w2, w19
    3984:	52800003 	mov	w3, #0x0                   	// #0
    3988:	52800181 	mov	w1, #0xc                   	// #12
    398c:	72a62000 	movk	w0, #0x3100, lsl #16
    3990:	97fff554 	bl	0xee0
    3994:	52800041 	mov	w1, #0x2                   	// #2
    3998:	52800802 	mov	w2, #0x40                  	// #64
    399c:	528001a0 	mov	w0, #0xd                   	// #13
    39a0:	97fff959 	bl	0x1f04
    39a4:	52802180 	mov	w0, #0x10c                 	// #268
    39a8:	2a1303e2 	mov	w2, w19
    39ac:	2a1303e3 	mov	w3, w19
    39b0:	52800181 	mov	w1, #0xc                   	// #12
    39b4:	72a62000 	movk	w0, #0x3100, lsl #16
    39b8:	97fff54a 	bl	0xee0
    39bc:	2a1503e0 	mov	w0, w21
    39c0:	a94153f3 	ldp	x19, x20, [sp, #16]
    39c4:	f94013f5 	ldr	x21, [sp, #32]
    39c8:	a8c37bfd 	ldp	x29, x30, [sp], #48
    39cc:	17fffbe1 	b	0x2950
    39d0:	71000a7f 	cmp	w19, #0x2
    39d4:	54000401 	b.ne	0x3a54  // b.any
    39d8:	52802180 	mov	w0, #0x10c                 	// #268
    39dc:	52800003 	mov	w3, #0x0                   	// #0
    39e0:	52800181 	mov	w1, #0xc                   	// #12
    39e4:	52800022 	mov	w2, #0x1                   	// #1
    39e8:	72a62000 	movk	w0, #0x3100, lsl #16
    39ec:	97fff53d 	bl	0xee0
    39f0:	2a1303e1 	mov	w1, w19
    39f4:	52800002 	mov	w2, #0x0                   	// #0
    39f8:	528001a0 	mov	w0, #0xd                   	// #13
    39fc:	97fff942 	bl	0x1f04
    3a00:	52800022 	mov	w2, #0x1                   	// #1
    3a04:	52802180 	mov	w0, #0x10c                 	// #268
    3a08:	2a0203e3 	mov	w3, w2
    3a0c:	52800181 	mov	w1, #0xc                   	// #12
    3a10:	72a62000 	movk	w0, #0x3100, lsl #16
    3a14:	97fff533 	bl	0xee0
    3a18:	52800022 	mov	w2, #0x1                   	// #1
    3a1c:	52802b00 	mov	w0, #0x158                 	// #344
    3a20:	2a0203e3 	mov	w3, w2
    3a24:	52800161 	mov	w1, #0xb                   	// #11
    3a28:	72a62000 	movk	w0, #0x3100, lsl #16
    3a2c:	97fff52d 	bl	0xee0
    3a30:	52800020 	mov	w0, #0x1                   	// #1
    3a34:	97fff540 	bl	0xf34
    3a38:	52802b00 	mov	w0, #0x158                 	// #344
    3a3c:	72a62000 	movk	w0, #0x3100, lsl #16
    3a40:	52800161 	mov	w1, #0xb                   	// #11
    3a44:	52800022 	mov	w2, #0x1                   	// #1
    3a48:	52800003 	mov	w3, #0x0                   	// #0
    3a4c:	97fff525 	bl	0xee0
    3a50:	3903929f 	strb	wzr, [x20, #228]
    3a54:	a94153f3 	ldp	x19, x20, [sp, #16]
    3a58:	f94013f5 	ldr	x21, [sp, #32]
    3a5c:	a8c37bfd 	ldp	x29, x30, [sp], #48
    3a60:	d65f03c0 	ret
    3a64:	d2802b01 	mov	x1, #0x158                 	// #344
    3a68:	f2a62001 	movk	x1, #0x3100, lsl #16
    3a6c:	531e7400 	lsl	w0, w0, #2
    3a70:	b9400022 	ldr	w2, [x1]
    3a74:	529dddc1 	mov	w1, #0xeeee                	// #61166
    3a78:	72bfddc1 	movk	w1, #0xfeee, lsl #16
    3a7c:	0a010041 	and	w1, w2, w1
    3a80:	52800022 	mov	w2, #0x1                   	// #1
    3a84:	1ac02040 	lsl	w0, w2, w0
    3a88:	2a010001 	orr	w1, w0, w1
    3a8c:	d2802b00 	mov	x0, #0x158                 	// #344
    3a90:	f2a62000 	movk	x0, #0x3100, lsl #16
    3a94:	b9000001 	str	w1, [x0]
    3a98:	d65f03c0 	ret
    3a9c:	90000061 	adrp	x1, 0xf000
    3aa0:	9103e021 	add	x1, x1, #0xf8
    3aa4:	531e7400 	lsl	w0, w0, #2
    3aa8:	b9400422 	ldr	w2, [x1, #4]
    3aac:	52801201 	mov	w1, #0x90                  	// #144
    3ab0:	9ba17c41 	umull	x1, w2, w1
    3ab4:	90000062 	adrp	x2, 0xf000
    3ab8:	f9404042 	ldr	x2, [x2, #128]
    3abc:	8b010041 	add	x1, x2, x1
    3ac0:	b9400421 	ldr	w1, [x1, #4]
    3ac4:	1ac02420 	lsr	w0, w1, w0
    3ac8:	12000000 	and	w0, w0, #0x1
    3acc:	d65f03c0 	ret
    3ad0:	a9bc7bfd 	stp	x29, x30, [sp, #-64]!
    3ad4:	910003fd 	mov	x29, sp
    3ad8:	a9025bf5 	stp	x21, x22, [sp, #32]
    3adc:	531e7415 	lsl	w21, w0, #2
    3ae0:	a90153f3 	stp	x19, x20, [sp, #16]
    3ae4:	a90363f7 	stp	x23, x24, [sp, #48]
    3ae8:	2a0003f4 	mov	w20, w0
    3aec:	52800037 	mov	w23, #0x1                   	// #1
    3af0:	110006a0 	add	w0, w21, #0x1
    3af4:	53001c36 	uxtb	w22, w1
    3af8:	1ac022f7 	lsl	w23, w23, w0
    3afc:	5280bb93 	mov	w19, #0x5dc                 	// #1500
    3b00:	90000078 	adrp	x24, 0xf000
    3b04:	d2802b00 	mov	x0, #0x158                 	// #344
    3b08:	f2a62000 	movk	x0, #0x3100, lsl #16
    3b0c:	b9400000 	ldr	w0, [x0]
    3b10:	6a0002ff 	tst	w23, w0
    3b14:	54000701 	b.ne	0x3bf4  // b.any
    3b18:	52800020 	mov	w0, #0x1                   	// #1
    3b1c:	97fff506 	bl	0xf34
    3b20:	b9409300 	ldr	w0, [x24, #144]
    3b24:	7100c01f 	cmp	w0, #0x30
    3b28:	54000600 	b.eq	0x3be8  // b.none
    3b2c:	7100169f 	cmp	w20, #0x5
    3b30:	540005c1 	b.ne	0x3be8  // b.any
    3b34:	d2802e00 	mov	x0, #0x170                 	// #368
    3b38:	f2a62000 	movk	x0, #0x3100, lsl #16
    3b3c:	b9400003 	ldr	w3, [x0]
    3b40:	d2802d80 	mov	x0, #0x16c                 	// #364
    3b44:	f2a62000 	movk	x0, #0x3100, lsl #16
    3b48:	b9400002 	ldr	w2, [x0]
    3b4c:	d2802e00 	mov	x0, #0x170                 	// #368
    3b50:	f2a62000 	movk	x0, #0x3100, lsl #16
    3b54:	b9400005 	ldr	w5, [x0]
    3b58:	d2802d80 	mov	x0, #0x16c                 	// #364
    3b5c:	f2a62000 	movk	x0, #0x3100, lsl #16
    3b60:	0b0300a3 	add	w3, w5, w3
    3b64:	b9400001 	ldr	w1, [x0]
    3b68:	d2802e00 	mov	x0, #0x170                 	// #368
    3b6c:	f2a62000 	movk	x0, #0x3100, lsl #16
    3b70:	b9400004 	ldr	w4, [x0]
    3b74:	d2802d80 	mov	x0, #0x16c                 	// #364
    3b78:	f2a62000 	movk	x0, #0x3100, lsl #16
    3b7c:	2b04007f 	cmn	w3, w4
    3b80:	b9400000 	ldr	w0, [x0]
    3b84:	54000321 	b.ne	0x3be8  // b.any
    3b88:	6b01005f 	cmp	w2, w1
    3b8c:	540002e1 	b.ne	0x3be8  // b.any
    3b90:	6b00005f 	cmp	w2, w0
    3b94:	540002a1 	b.ne	0x3be8  // b.any
    3b98:	90000060 	adrp	x0, 0xf000
    3b9c:	9103e000 	add	x0, x0, #0xf8
    3ba0:	b9401000 	ldr	w0, [x0, #16]
    3ba4:	35000080 	cbnz	w0, 0x3bb4
    3ba8:	53001c43 	uxtb	w3, w2
    3bac:	d3483c42 	ubfx	x2, x2, #8, #8
    3bb0:	14000003 	b	0x3bbc
    3bb4:	d3505c43 	ubfx	x3, x2, #16, #8
    3bb8:	53187c42 	lsr	w2, w2, #24
    3bbc:	6b02007f 	cmp	w3, w2
    3bc0:	1a828063 	csel	w3, w3, w2, hi  // hi = pmore
    3bc4:	52802c80 	mov	w0, #0x164                 	// #356
    3bc8:	53001c63 	uxtb	w3, w3
    3bcc:	72a62000 	movk	w0, #0x3100, lsl #16
    3bd0:	52800301 	mov	w1, #0x18                  	// #24
    3bd4:	52800102 	mov	w2, #0x8                   	// #8
    3bd8:	11001063 	add	w3, w3, #0x4
    3bdc:	97fff4c1 	bl	0xee0
    3be0:	52800040 	mov	w0, #0x2                   	// #2
    3be4:	1400000d 	b	0x3c18
    3be8:	71000673 	subs	w19, w19, #0x1
    3bec:	54fff8c1 	b.ne	0x3b04  // b.any
    3bf0:	14000000 	b	0x3bf0
    3bf4:	d2802b00 	mov	x0, #0x158                 	// #344
    3bf8:	f2a62000 	movk	x0, #0x3100, lsl #16
    3bfc:	11000ab5 	add	w21, w21, #0x2
    3c00:	b9400002 	ldr	w2, [x0]
    3c04:	1ad52442 	lsr	w2, w2, w21
    3c08:	12000040 	and	w0, w2, #0x1
    3c0c:	36000062 	tbz	w2, #0, 0x3c18
    3c10:	6b1f02df 	cmp	w22, wzr
    3c14:	1a9f07e0 	cset	w0, ne  // ne = any
    3c18:	a94153f3 	ldp	x19, x20, [sp, #16]
    3c1c:	a9425bf5 	ldp	x21, x22, [sp, #32]
    3c20:	a94363f7 	ldp	x23, x24, [sp, #48]
    3c24:	a8c47bfd 	ldp	x29, x30, [sp], #64
    3c28:	d65f03c0 	ret
    3c2c:	d2802b00 	mov	x0, #0x158                 	// #344
    3c30:	f2a62000 	movk	x0, #0x3100, lsl #16
    3c34:	a9bf7bfd 	stp	x29, x30, [sp, #-16]!
    3c38:	910003fd 	mov	x29, sp
    3c3c:	b9400001 	ldr	w1, [x0]
    3c40:	52822220 	mov	w0, #0x1111                	// #4369
    3c44:	72a02220 	movk	w0, #0x111, lsl #16
    3c48:	2a000021 	orr	w1, w1, w0
    3c4c:	d2802b00 	mov	x0, #0x158                 	// #344
    3c50:	f2a62000 	movk	x0, #0x3100, lsl #16
    3c54:	b9000001 	str	w1, [x0]
    3c58:	52800020 	mov	w0, #0x1                   	// #1
    3c5c:	97fff4b6 	bl	0xf34
    3c60:	97fffe99 	bl	0x36c4
    3c64:	d2802b00 	mov	x0, #0x158                 	// #344
    3c68:	f2a62000 	movk	x0, #0x3100, lsl #16
    3c6c:	52800102 	mov	w2, #0x8                   	// #8
    3c70:	52800043 	mov	w3, #0x2                   	// #2
    3c74:	b9400001 	ldr	w1, [x0]
    3c78:	529dddc0 	mov	w0, #0xeeee                	// #61166
    3c7c:	72bfddc0 	movk	w0, #0xfeee, lsl #16
    3c80:	0a000021 	and	w1, w1, w0
    3c84:	d2802b00 	mov	x0, #0x158                 	// #344
    3c88:	f2a62000 	movk	x0, #0x3100, lsl #16
    3c8c:	b9000001 	str	w1, [x0]
    3c90:	52802a80 	mov	w0, #0x154                 	// #340
    3c94:	52800201 	mov	w1, #0x10                  	// #16
    3c98:	72a62000 	movk	w0, #0x3100, lsl #16
    3c9c:	97fff491 	bl	0xee0
    3ca0:	52800101 	mov	w1, #0x8                   	// #8
    3ca4:	52802a80 	mov	w0, #0x154                 	// #340
    3ca8:	a8c17bfd 	ldp	x29, x30, [sp], #16
    3cac:	72a62000 	movk	w0, #0x3100, lsl #16
    3cb0:	2a0103e2 	mov	w2, w1
    3cb4:	52800043 	mov	w3, #0x2                   	// #2
    3cb8:	17fff48a 	b	0xee0
    3cbc:	a9be7bfd 	stp	x29, x30, [sp, #-32]!
    3cc0:	910003fd 	mov	x29, sp
    3cc4:	f9000bf3 	str	x19, [sp, #16]
    3cc8:	5282c813 	mov	w19, #0x1640                	// #5696
    3ccc:	72a62013 	movk	w19, #0x3100, lsl #16
    3cd0:	52800022 	mov	w2, #0x1                   	// #1
    3cd4:	2a0203e3 	mov	w3, w2
    3cd8:	2a1303e0 	mov	w0, w19
    3cdc:	52800161 	mov	w1, #0xb                   	// #11
    3ce0:	97fff480 	bl	0xee0
    3ce4:	2a1303e0 	mov	w0, w19
    3ce8:	52800161 	mov	w1, #0xb                   	// #11
    3cec:	52800022 	mov	w2, #0x1                   	// #1
    3cf0:	52800003 	mov	w3, #0x0                   	// #0
    3cf4:	11010273 	add	w19, w19, #0x40
    3cf8:	97fff47a 	bl	0xee0
    3cfc:	5282f800 	mov	w0, #0x17c0                	// #6080
    3d00:	72a62000 	movk	w0, #0x3100, lsl #16
    3d04:	6b00027f 	cmp	w19, w0
    3d08:	54fffe41 	b.ne	0x3cd0  // b.any
    3d0c:	f9400bf3 	ldr	x19, [sp, #16]
    3d10:	a8c27bfd 	ldp	x29, x30, [sp], #32
    3d14:	d65f03c0 	ret
    3d18:	a9bb7bfd 	stp	x29, x30, [sp, #-80]!
    3d1c:	910003fd 	mov	x29, sp
    3d20:	a9025bf5 	stp	x21, x22, [sp, #32]
    3d24:	a90363f7 	stp	x23, x24, [sp, #48]
    3d28:	b9004fbf 	str	wzr, [x29, #76]
    3d2c:	90000075 	adrp	x21, 0xf000
    3d30:	d0000057 	adrp	x23, 0xd000
    3d34:	a90153f3 	stp	x19, x20, [sp, #16]
    3d38:	b9004fbf 	str	wzr, [x29, #76]
    3d3c:	9103e2b5 	add	x21, x21, #0xf8
    3d40:	52801816 	mov	w22, #0xc0                  	// #192
    3d44:	9106e2f7 	add	x23, x23, #0x1b8
    3d48:	b9404fa0 	ldr	w0, [x29, #76]
    3d4c:	90000074 	adrp	x20, 0xf000
    3d50:	7100141f 	cmp	w0, #0x5
    3d54:	540004a8 	b.hi	0x3de8  // b.pmore
    3d58:	b9404fa1 	ldr	w1, [x29, #76]
    3d5c:	52820000 	mov	w0, #0x1000                	// #4096
    3d60:	b94006b4 	ldr	w20, [x21, #4]
    3d64:	72a62000 	movk	w0, #0x3100, lsl #16
    3d68:	78615ae1 	ldrh	w1, [x23, w1, uxtw #1]
    3d6c:	1b160294 	madd	w20, w20, w22, w0
    3d70:	0b010294 	add	w20, w20, w1
    3d74:	2a1403e0 	mov	w0, w20
    3d78:	b9400001 	ldr	w1, [x0]
    3d7c:	b9400018 	ldr	w24, [x0]
    3d80:	b9400013 	ldr	w19, [x0]
    3d84:	12110318 	and	w24, w24, #0x8000
    3d88:	12001e73 	and	w19, w19, #0xff
    3d8c:	36b800e1 	tbz	w1, #23, 0x3da8
    3d90:	2a1403e0 	mov	w0, w20
    3d94:	528002e1 	mov	w1, #0x17                  	// #23
    3d98:	52800022 	mov	w2, #0x1                   	// #1
    3d9c:	52800003 	mov	w3, #0x0                   	// #0
    3da0:	11020273 	add	w19, w19, #0x80
    3da4:	97fff44f 	bl	0xee0
    3da8:	340000f8 	cbz	w24, 0x3dc4
    3dac:	2a1403e0 	mov	w0, w20
    3db0:	528001e1 	mov	w1, #0xf                   	// #15
    3db4:	52800022 	mov	w2, #0x1                   	// #1
    3db8:	52800003 	mov	w3, #0x0                   	// #0
    3dbc:	11010273 	add	w19, w19, #0x40
    3dc0:	97fff448 	bl	0xee0
    3dc4:	2a1403e0 	mov	w0, w20
    3dc8:	52800001 	mov	w1, #0x0                   	// #0
    3dcc:	52800102 	mov	w2, #0x8                   	// #8
    3dd0:	2a1303e3 	mov	w3, w19
    3dd4:	97fff443 	bl	0xee0
    3dd8:	b9404fa0 	ldr	w0, [x29, #76]
    3ddc:	11000400 	add	w0, w0, #0x1
    3de0:	b9004fa0 	str	w0, [x29, #76]
    3de4:	17ffffd9 	b	0x3d48
    3de8:	90000060 	adrp	x0, 0xf000
    3dec:	52800013 	mov	w19, #0x0                   	// #0
    3df0:	b9409000 	ldr	w0, [x0, #144]
    3df4:	7100c01f 	cmp	w0, #0x30
    3df8:	540000a1 	b.ne	0x3e0c  // b.any
    3dfc:	52800013 	mov	w19, #0x0                   	// #0
    3e00:	9103e294 	add	x20, x20, #0xf8
    3e04:	528000d5 	mov	w21, #0x6                   	// #6
    3e08:	14000010 	b	0x3e48
    3e0c:	9103e296 	add	x22, x20, #0xf8
    3e10:	528000d5 	mov	w21, #0x6                   	// #6
    3e14:	b94006c0 	ldr	w0, [x22, #4]
    3e18:	52820d81 	mov	w1, #0x106c                	// #4204
    3e1c:	72a62001 	movk	w1, #0x3100, lsl #16
    3e20:	1b154c00 	madd	w0, w0, w21, w19
    3e24:	52800022 	mov	w2, #0x1                   	// #1
    3e28:	2a0203e3 	mov	w3, w2
    3e2c:	0b001420 	add	w0, w1, w0, lsl #5
    3e30:	528001e1 	mov	w1, #0xf                   	// #15
    3e34:	11000673 	add	w19, w19, #0x1
    3e38:	97fff42a 	bl	0xee0
    3e3c:	7100127f 	cmp	w19, #0x4
    3e40:	54fffea1 	b.ne	0x3e14  // b.any
    3e44:	17ffffee 	b	0x3dfc
    3e48:	b9400680 	ldr	w0, [x20, #4]
    3e4c:	52820f81 	mov	w1, #0x107c                	// #4220
    3e50:	72a62001 	movk	w1, #0x3100, lsl #16
    3e54:	1b154c00 	madd	w0, w0, w21, w19
    3e58:	52800102 	mov	w2, #0x8                   	// #8
    3e5c:	11000673 	add	w19, w19, #0x1
    3e60:	0b001420 	add	w0, w1, w0, lsl #5
    3e64:	52800001 	mov	w1, #0x0                   	// #0
    3e68:	2a0103e3 	mov	w3, w1
    3e6c:	97fff41d 	bl	0xee0
    3e70:	7100127f 	cmp	w19, #0x4
    3e74:	54fffea1 	b.ne	0x3e48  // b.any
    3e78:	a94153f3 	ldp	x19, x20, [sp, #16]
    3e7c:	a9425bf5 	ldp	x21, x22, [sp, #32]
    3e80:	a94363f7 	ldp	x23, x24, [sp, #48]
    3e84:	a8c57bfd 	ldp	x29, x30, [sp], #80
    3e88:	d65f03c0 	ret
    3e8c:	a9bb7bfd 	stp	x29, x30, [sp, #-80]!
    3e90:	52802180 	mov	w0, #0x10c                 	// #268
    3e94:	910003fd 	mov	x29, sp
    3e98:	52800181 	mov	w1, #0xc                   	// #12
    3e9c:	52800022 	mov	w2, #0x1                   	// #1
    3ea0:	52800003 	mov	w3, #0x0                   	// #0
    3ea4:	72a62000 	movk	w0, #0x3100, lsl #16
    3ea8:	a90363f7 	stp	x23, x24, [sp, #48]
    3eac:	a90153f3 	stp	x19, x20, [sp, #16]
    3eb0:	f90023f9 	str	x25, [sp, #64]
    3eb4:	a9025bf5 	stp	x21, x22, [sp, #32]
    3eb8:	90000077 	adrp	x23, 0xf000
    3ebc:	97fff409 	bl	0xee0
    3ec0:	d0000059 	adrp	x25, 0xd000
    3ec4:	52800040 	mov	w0, #0x2                   	// #2
    3ec8:	d2800014 	mov	x20, #0x0                   	// #0
    3ecc:	9103e2f7 	add	x23, x23, #0xf8
    3ed0:	52801818 	mov	w24, #0xc0                  	// #192
    3ed4:	9106e339 	add	x25, x25, #0x1b8
    3ed8:	97fff431 	bl	0xf9c
    3edc:	52820000 	mov	w0, #0x1000                	// #4096
    3ee0:	b94006f3 	ldr	w19, [x23, #4]
    3ee4:	72a62000 	movk	w0, #0x3100, lsl #16
    3ee8:	78796a81 	ldrh	w1, [x20, x25]
    3eec:	1b180273 	madd	w19, w19, w24, w0
    3ef0:	0b010273 	add	w19, w19, w1
    3ef4:	2a1303e0 	mov	w0, w19
    3ef8:	b9400001 	ldr	w1, [x0]
    3efc:	b9400015 	ldr	w21, [x0]
    3f00:	b9400016 	ldr	w22, [x0]
    3f04:	d34f3eb5 	ubfx	x21, x21, #15, #1
    3f08:	d3575ed6 	ubfx	x22, x22, #23, #1
    3f0c:	12001c23 	and	w3, w1, #0xff
    3f10:	36380221 	tbz	w1, #7, 0x3f54
    3f14:	34000176 	cbz	w22, 0x3f40
    3f18:	350004b5 	cbnz	w21, 0x3fac
    3f1c:	2a1503e1 	mov	w1, w21
    3f20:	52800102 	mov	w2, #0x8                   	// #8
    3f24:	2a1303e0 	mov	w0, w19
    3f28:	51010063 	sub	w3, w3, #0x40
    3f2c:	97fff3ed 	bl	0xee0
    3f30:	2a1303e0 	mov	w0, w19
    3f34:	528001e1 	mov	w1, #0xf                   	// #15
    3f38:	2a1603e2 	mov	w2, w22
    3f3c:	1400001a 	b	0x3fa4
    3f40:	2a1303e0 	mov	w0, w19
    3f44:	52800001 	mov	w1, #0x0                   	// #0
    3f48:	52800102 	mov	w2, #0x8                   	// #8
    3f4c:	51020063 	sub	w3, w3, #0x80
    3f50:	14000011 	b	0x3f94
    3f54:	7100fc7f 	cmp	w3, #0x3f
    3f58:	540002a9 	b.ls	0x3fac  // b.plast
    3f5c:	520002a0 	eor	w0, w21, #0x1
    3f60:	520002d6 	eor	w22, w22, #0x1
    3f64:	2a160000 	orr	w0, w0, w22
    3f68:	34000220 	cbz	w0, 0x3fac
    3f6c:	52800001 	mov	w1, #0x0                   	// #0
    3f70:	52800102 	mov	w2, #0x8                   	// #8
    3f74:	2a1303e0 	mov	w0, w19
    3f78:	51010063 	sub	w3, w3, #0x40
    3f7c:	97fff3d9 	bl	0xee0
    3f80:	2a1303e0 	mov	w0, w19
    3f84:	528001e1 	mov	w1, #0xf                   	// #15
    3f88:	52800022 	mov	w2, #0x1                   	// #1
    3f8c:	340000d5 	cbz	w21, 0x3fa4
    3f90:	52800003 	mov	w3, #0x0                   	// #0
    3f94:	97fff3d3 	bl	0xee0
    3f98:	2a1303e0 	mov	w0, w19
    3f9c:	528002e1 	mov	w1, #0x17                  	// #23
    3fa0:	52800022 	mov	w2, #0x1                   	// #1
    3fa4:	2a0203e3 	mov	w3, w2
    3fa8:	97fff3ce 	bl	0xee0
    3fac:	91000a94 	add	x20, x20, #0x2
    3fb0:	f100329f 	cmp	x20, #0xc
    3fb4:	54fff941 	b.ne	0x3edc  // b.any
    3fb8:	97ffff41 	bl	0x3cbc
    3fbc:	2a1403e1 	mov	w1, w20
    3fc0:	52800022 	mov	w2, #0x1                   	// #1
    3fc4:	a94153f3 	ldp	x19, x20, [sp, #16]
    3fc8:	a9425bf5 	ldp	x21, x22, [sp, #32]
    3fcc:	a94363f7 	ldp	x23, x24, [sp, #48]
    3fd0:	f94023f9 	ldr	x25, [sp, #64]
    3fd4:	52802180 	mov	w0, #0x10c                 	// #268
    3fd8:	a8c57bfd 	ldp	x29, x30, [sp], #80
    3fdc:	72a62000 	movk	w0, #0x3100, lsl #16
    3fe0:	2a0203e3 	mov	w3, w2
    3fe4:	17fff3bf 	b	0xee0
    3fe8:	a9bf7bfd 	stp	x29, x30, [sp, #-16]!
    3fec:	52820080 	mov	w0, #0x1004                	// #4100
    3ff0:	910003fd 	mov	x29, sp
    3ff4:	52800141 	mov	w1, #0xa                   	// #10
    3ff8:	52800022 	mov	w2, #0x1                   	// #1
    3ffc:	52800003 	mov	w3, #0x0                   	// #0
    4000:	72a62000 	movk	w0, #0x3100, lsl #16
    4004:	97fff3b7 	bl	0xee0
    4008:	52802180 	mov	w0, #0x10c                 	// #268
    400c:	52800181 	mov	w1, #0xc                   	// #12
    4010:	52800022 	mov	w2, #0x1                   	// #1
    4014:	52800003 	mov	w3, #0x0                   	// #0
    4018:	72a62000 	movk	w0, #0x3100, lsl #16
    401c:	97fff3b1 	bl	0xee0
    4020:	97ffff3e 	bl	0x3d18
    4024:	97ffff26 	bl	0x3cbc
    4028:	52800022 	mov	w2, #0x1                   	// #1
    402c:	52802180 	mov	w0, #0x10c                 	// #268
    4030:	a8c17bfd 	ldp	x29, x30, [sp], #16
    4034:	72a62000 	movk	w0, #0x3100, lsl #16
    4038:	52800181 	mov	w1, #0xc                   	// #12
    403c:	2a0203e3 	mov	w3, w2
    4040:	17fff3a8 	b	0xee0
    4044:	90000066 	adrp	x6, 0x10000
    4048:	910240c4 	add	x4, x6, #0x90
    404c:	90000065 	adrp	x5, 0x10000
    4050:	9103e0a3 	add	x3, x5, #0xf8
    4054:	f9401082 	ldr	x2, [x4, #32]
    4058:	f9400c81 	ldr	x1, [x4, #24]
    405c:	11000400 	add	w0, w0, #0x1
    4060:	8b010041 	add	x1, x2, x1
    4064:	d360fc22 	lsr	x2, x1, #32
    4068:	b9001c62 	str	w2, [x3, #28]
    406c:	35000101 	cbnz	w1, 0x408c
    4070:	b40000e2 	cbz	x2, 0x408c
    4074:	b9400c81 	ldr	w1, [x4, #12]
    4078:	51000442 	sub	w2, w2, #0x1
    407c:	b9001c62 	str	w2, [x3, #28]
    4080:	1b00fc20 	mneg	w0, w1, w0
    4084:	b9001860 	str	w0, [x3, #24]
    4088:	14000006 	b	0x40a0
    408c:	910240c6 	add	x6, x6, #0x90
    4090:	9103e0a5 	add	x5, x5, #0xf8
    4094:	b9400cc2 	ldr	w2, [x6, #12]
    4098:	1b028401 	msub	w1, w0, w2, w1
    409c:	b90018a1 	str	w1, [x5, #24]
    40a0:	d65f03c0 	ret
    40a4:	a9be7bfd 	stp	x29, x30, [sp, #-32]!
    40a8:	90000063 	adrp	x3, 0x10000
    40ac:	910003fd 	mov	x29, sp
    40b0:	f9000bf3 	str	x19, [sp, #16]
    40b4:	90000073 	adrp	x19, 0x10000
    40b8:	9103e262 	add	x2, x19, #0xf8
    40bc:	91024064 	add	x4, x3, #0x90
    40c0:	b9409063 	ldr	w3, [x3, #144]
    40c4:	b9000c41 	str	w1, [x2, #12]
    40c8:	b9001040 	str	w0, [x2, #16]
    40cc:	7100c07f 	cmp	w3, #0x30
    40d0:	540000c1 	b.ne	0x40e8  // b.any
    40d4:	528001e0 	mov	w0, #0xf                   	// #15
    40d8:	b900185f 	str	wzr, [x2, #24]
    40dc:	b9001440 	str	w0, [x2, #20]
    40e0:	b9001c5f 	str	wzr, [x2, #28]
    40e4:	14000012 	b	0x412c
    40e8:	35000100 	cbnz	w0, 0x4108
    40ec:	52800060 	mov	w0, #0x3                   	// #3
    40f0:	b9001440 	str	w0, [x2, #20]
    40f4:	35000061 	cbnz	w1, 0x4100
    40f8:	b9001841 	str	w1, [x2, #24]
    40fc:	14000008 	b	0x411c
    4100:	52800020 	mov	w0, #0x1                   	// #1
    4104:	14000009 	b	0x4128
    4108:	52800180 	mov	w0, #0xc                   	// #12
    410c:	b9001440 	str	w0, [x2, #20]
    4110:	350000a1 	cbnz	w1, 0x4124
    4114:	b9400c80 	ldr	w0, [x4, #12]
    4118:	b9001840 	str	w0, [x2, #24]
    411c:	b9001c41 	str	w1, [x2, #28]
    4120:	14000003 	b	0x412c
    4124:	52800000 	mov	w0, #0x0                   	// #0
    4128:	97ffffc7 	bl	0x4044
    412c:	9103e273 	add	x19, x19, #0xf8
    4130:	52802b00 	mov	w0, #0x158                 	// #344
    4134:	528003e1 	mov	w1, #0x1f                  	// #31
    4138:	b9400e63 	ldr	w3, [x19, #12]
    413c:	52800022 	mov	w2, #0x1                   	// #1
    4140:	72a62000 	movk	w0, #0x3100, lsl #16
    4144:	97fff367 	bl	0xee0
    4148:	b9401263 	ldr	w3, [x19, #16]
    414c:	52802a80 	mov	w0, #0x154                 	// #340
    4150:	52800061 	mov	w1, #0x3                   	// #3
    4154:	52800022 	mov	w2, #0x1                   	// #1
    4158:	72a62000 	movk	w0, #0x3100, lsl #16
    415c:	97fff361 	bl	0xee0
    4160:	52800081 	mov	w1, #0x4                   	// #4
    4164:	b9401663 	ldr	w3, [x19, #20]
    4168:	52802a80 	mov	w0, #0x154                 	// #340
    416c:	2a0103e2 	mov	w2, w1
    4170:	72a62000 	movk	w0, #0x3100, lsl #16
    4174:	97fff35b 	bl	0xee0
    4178:	d2802b80 	mov	x0, #0x15c                 	// #348
    417c:	f2a62000 	movk	x0, #0x3100, lsl #16
    4180:	b9401a61 	ldr	w1, [x19, #24]
    4184:	52800042 	mov	w2, #0x2                   	// #2
    4188:	b9000001 	str	w1, [x0]
    418c:	52802b00 	mov	w0, #0x158                 	// #344
    4190:	b9401e63 	ldr	w3, [x19, #28]
    4194:	f9400bf3 	ldr	x19, [sp, #16]
    4198:	a8c27bfd 	ldp	x29, x30, [sp], #32
    419c:	72a62000 	movk	w0, #0x3100, lsl #16
    41a0:	52800381 	mov	w1, #0x1c                  	// #28
    41a4:	17fff34f 	b	0xee0
    41a8:	a9bd7bfd 	stp	x29, x30, [sp, #-48]!
    41ac:	910003fd 	mov	x29, sp
    41b0:	a90153f3 	stp	x19, x20, [sp, #16]
    41b4:	53001c54 	uxtb	w20, w2
    41b8:	2a0103f3 	mov	w19, w1
    41bc:	2a1403e1 	mov	w1, w20
    41c0:	f90013f5 	str	x21, [sp, #32]
    41c4:	2a0003f5 	mov	w21, w0
    41c8:	97fffe42 	bl	0x3ad0
    41cc:	340002c0 	cbz	w0, 0x4224
    41d0:	340002b3 	cbz	w19, 0x4224
    41d4:	52800021 	mov	w1, #0x1                   	// #1
    41d8:	52802a80 	mov	w0, #0x154                 	// #340
    41dc:	2a0103e2 	mov	w2, w1
    41e0:	52800003 	mov	w3, #0x0                   	// #0
    41e4:	72a62000 	movk	w0, #0x3100, lsl #16
    41e8:	51000673 	sub	w19, w19, #0x1
    41ec:	97fff33d 	bl	0xee0
    41f0:	52800020 	mov	w0, #0x1                   	// #1
    41f4:	97fff36a 	bl	0xf9c
    41f8:	97fffd33 	bl	0x36c4
    41fc:	52800021 	mov	w1, #0x1                   	// #1
    4200:	52802a80 	mov	w0, #0x154                 	// #340
    4204:	2a0103e2 	mov	w2, w1
    4208:	2a0103e3 	mov	w3, w1
    420c:	72a62000 	movk	w0, #0x3100, lsl #16
    4210:	97fff334 	bl	0xee0
    4214:	2a1503e0 	mov	w0, w21
    4218:	2a1403e1 	mov	w1, w20
    421c:	97fffe2d 	bl	0x3ad0
    4220:	35fffd60 	cbnz	w0, 0x41cc
    4224:	34000060 	cbz	w0, 0x4230
    4228:	35000053 	cbnz	w19, 0x4230
    422c:	14000000 	b	0x422c
    4230:	90000060 	adrp	x0, 0x10000
    4234:	b9409000 	ldr	w0, [x0, #144]
    4238:	7100c01f 	cmp	w0, #0x30
    423c:	54000180 	b.eq	0x426c  // b.none
    4240:	710016bf 	cmp	w21, #0x5
    4244:	54000141 	b.ne	0x426c  // b.any
    4248:	a94153f3 	ldp	x19, x20, [sp, #16]
    424c:	f94013f5 	ldr	x21, [sp, #32]
    4250:	52802c80 	mov	w0, #0x164                 	// #356
    4254:	a8c37bfd 	ldp	x29, x30, [sp], #48
    4258:	72a62000 	movk	w0, #0x3100, lsl #16
    425c:	52800301 	mov	w1, #0x18                  	// #24
    4260:	52800102 	mov	w2, #0x8                   	// #8
    4264:	52800003 	mov	w3, #0x0                   	// #0
    4268:	17fff31e 	b	0xee0
    426c:	a94153f3 	ldp	x19, x20, [sp, #16]
    4270:	f94013f5 	ldr	x21, [sp, #32]
    4274:	a8c37bfd 	ldp	x29, x30, [sp], #48
    4278:	d65f03c0 	ret
    427c:	d0000041 	adrp	x1, 0xe000
    4280:	d100c3ff 	sub	sp, sp, #0x30
    4284:	9107a021 	add	x1, x1, #0x1e8
    4288:	91018026 	add	x6, x1, #0x60
    428c:	910023e0 	add	x0, sp, #0x8
    4290:	b9400025 	ldr	w5, [x1]
    4294:	b9400422 	ldr	w2, [x1, #4]
    4298:	b9400824 	ldr	w4, [x1, #8]
    429c:	b94000a3 	ldr	w3, [x5]
    42a0:	b9400042 	ldr	w2, [x2]
    42a4:	b9400084 	ldr	w4, [x4]
    42a8:	d3483c84 	ubfx	x4, x4, #8, #8
    42ac:	b9002004 	str	w4, [x0, #32]
    42b0:	12001c64 	and	w4, w3, #0xff
    42b4:	b9000004 	str	w4, [x0]
    42b8:	d3483c64 	ubfx	x4, x3, #8, #8
    42bc:	b9000404 	str	w4, [x0, #4]
    42c0:	d3505c64 	ubfx	x4, x3, #16, #8
    42c4:	53187c63 	lsr	w3, w3, #24
    42c8:	b9000c03 	str	w3, [x0, #12]
    42cc:	12001c43 	and	w3, w2, #0xff
    42d0:	b9001003 	str	w3, [x0, #16]
    42d4:	d3483c43 	ubfx	x3, x2, #8, #8
    42d8:	b9001403 	str	w3, [x0, #20]
    42dc:	d3505c43 	ubfx	x3, x2, #16, #8
    42e0:	53187c42 	lsr	w2, w2, #24
    42e4:	b9001803 	str	w3, [x0, #24]
    42e8:	b9001c02 	str	w2, [x0, #28]
    42ec:	b9000804 	str	w4, [x0, #8]
    42f0:	d2800002 	mov	x2, #0x0                   	// #0
    42f4:	52801fe3 	mov	w3, #0xff                  	// #255
    42f8:	b8626804 	ldr	w4, [x0, x2]
    42fc:	91001042 	add	x2, x2, #0x4
    4300:	6b03009f 	cmp	w4, w3
    4304:	121e1487 	and	w7, w4, #0xfc
    4308:	1a8330e3 	csel	w3, w7, w3, cc  // cc = lo, ul, last
    430c:	f100905f 	cmp	x2, #0x24
    4310:	54ffff41 	b.ne	0x42f8  // b.any
    4314:	d2800002 	mov	x2, #0x0                   	// #0
    4318:	b8626804 	ldr	w4, [x0, x2]
    431c:	4b030084 	sub	w4, w4, w3
    4320:	b8226804 	str	w4, [x0, x2]
    4324:	91001042 	add	x2, x2, #0x4
    4328:	f100905f 	cmp	x2, #0x24
    432c:	54ffff61 	b.ne	0x4318  // b.any
    4330:	b9400404 	ldr	w4, [x0, #4]
    4334:	b9400803 	ldr	w3, [x0, #8]
    4338:	b9400c02 	ldr	w2, [x0, #12]
    433c:	53103c63 	lsl	w3, w3, #16
    4340:	2a042064 	orr	w4, w3, w4, lsl #8
    4344:	b9400003 	ldr	w3, [x0]
    4348:	91003021 	add	x1, x1, #0xc
    434c:	2a030083 	orr	w3, w4, w3
    4350:	2a026067 	orr	w7, w3, w2, lsl #24
    4354:	b9401404 	ldr	w4, [x0, #20]
    4358:	b9401803 	ldr	w3, [x0, #24]
    435c:	b90000a7 	str	w7, [x5]
    4360:	53103c63 	lsl	w3, w3, #16
    4364:	b85f8025 	ldur	w5, [x1, #-8]
    4368:	2a042064 	orr	w4, w3, w4, lsl #8
    436c:	b9401c02 	ldr	w2, [x0, #28]
    4370:	b9401003 	ldr	w3, [x0, #16]
    4374:	2a030083 	orr	w3, w4, w3
    4378:	2a026062 	orr	w2, w3, w2, lsl #24
    437c:	b90000a2 	str	w2, [x5]
    4380:	b9402002 	ldr	w2, [x0, #32]
    4384:	b85fc023 	ldur	w3, [x1, #-4]
    4388:	53185c42 	lsl	w2, w2, #8
    438c:	eb06003f 	cmp	x1, x6
    4390:	b9000062 	str	w2, [x3]
    4394:	54fff7e1 	b.ne	0x4290  // b.any
    4398:	9100c3ff 	add	sp, sp, #0x30
    439c:	d65f03c0 	ret
    43a0:	d282c882 	mov	x2, #0x1644                	// #5700
    43a4:	f2a62002 	movk	x2, #0x3100, lsl #16
    43a8:	a9bd7bfd 	stp	x29, x30, [sp, #-48]!
    43ac:	910003fd 	mov	x29, sp
    43b0:	b9400040 	ldr	w0, [x2]
    43b4:	a90153f3 	stp	x19, x20, [sp, #16]
    43b8:	90000074 	adrp	x20, 0x10000
    43bc:	9103e281 	add	x1, x20, #0xf8
    43c0:	12001400 	and	w0, w0, #0x3f
    43c4:	f90013f5 	str	x21, [sp, #32]
    43c8:	7100f01f 	cmp	w0, #0x3c
    43cc:	b9400423 	ldr	w3, [x1, #4]
    43d0:	54000209 	b.ls	0x4410  // b.plast
    43d4:	b9400021 	ldr	w1, [x1]
    43d8:	7109b83f 	cmp	w1, #0x26e
    43dc:	54000060 	b.eq	0x43e8  // b.none
    43e0:	7108003f 	cmp	w1, #0x200
    43e4:	54000161 	b.ne	0x4410  // b.any
    43e8:	90000061 	adrp	x1, 0x10000
    43ec:	52801200 	mov	w0, #0x90                  	// #144
    43f0:	f9404021 	ldr	x1, [x1, #128]
    43f4:	9ba07c60 	umull	x0, w3, w0
    43f8:	8b000020 	add	x0, x1, x0
    43fc:	529ffde1 	mov	w1, #0xffef                	// #65519
    4400:	72bfdfe1 	movk	w1, #0xfeff, lsl #16
    4404:	b9400402 	ldr	w2, [x0, #4]
    4408:	0a010041 	and	w1, w2, w1
    440c:	b9000401 	str	w1, [x0, #4]
    4410:	52800102 	mov	w2, #0x8                   	// #8
    4414:	52802c80 	mov	w0, #0x164                 	// #356
    4418:	2a0203e3 	mov	w3, w2
    441c:	52800001 	mov	w1, #0x0                   	// #0
    4420:	72a62000 	movk	w0, #0x3100, lsl #16
    4424:	52821e93 	mov	w19, #0x10f4                	// #4340
    4428:	97fff2ae 	bl	0xee0
    442c:	52802c80 	mov	w0, #0x164                 	// #356
    4430:	52800201 	mov	w1, #0x10                  	// #16
    4434:	52800102 	mov	w2, #0x8                   	// #8
    4438:	52800303 	mov	w3, #0x18                  	// #24
    443c:	72a62000 	movk	w0, #0x3100, lsl #16
    4440:	72a62013 	movk	w19, #0x3100, lsl #16
    4444:	97fff2a7 	bl	0xee0
    4448:	9103e280 	add	x0, x20, #0xf8
    444c:	52820c01 	mov	w1, #0x1060                	// #4192
    4450:	72a62001 	movk	w1, #0x3100, lsl #16
    4454:	b9400402 	ldr	w2, [x0, #4]
    4458:	52801800 	mov	w0, #0xc0                  	// #192
    445c:	52800023 	mov	w3, #0x1                   	// #1
    4460:	1b000440 	madd	w0, w2, w0, w1
    4464:	52800081 	mov	w1, #0x4                   	// #4
    4468:	2a0103e2 	mov	w2, w1
    446c:	97fff29d 	bl	0xee0
    4470:	2a1303e0 	mov	w0, w19
    4474:	52800301 	mov	w1, #0x18                  	// #24
    4478:	52800102 	mov	w2, #0x8                   	// #8
    447c:	52800a03 	mov	w3, #0x50                  	// #80
    4480:	11030273 	add	w19, w19, #0xc0
    4484:	97fff297 	bl	0xee0
    4488:	5282c680 	mov	w0, #0x1634                	// #5684
    448c:	72a62000 	movk	w0, #0x3100, lsl #16
    4490:	6b00027f 	cmp	w19, w0
    4494:	54fffee1 	b.ne	0x4470  // b.any
    4498:	52800000 	mov	w0, #0x0                   	// #0
    449c:	2a0003e1 	mov	w1, w0
    44a0:	97ffff01 	bl	0x40a4
    44a4:	52802180 	mov	w0, #0x10c                 	// #268
    44a8:	52800181 	mov	w1, #0xc                   	// #12
    44ac:	52800022 	mov	w2, #0x1                   	// #1
    44b0:	52800003 	mov	w3, #0x0                   	// #0
    44b4:	72a62000 	movk	w0, #0x3100, lsl #16
    44b8:	97fff28a 	bl	0xee0
    44bc:	52802080 	mov	w0, #0x104                 	// #260
    44c0:	52800381 	mov	w1, #0x1c                  	// #28
    44c4:	52800022 	mov	w2, #0x1                   	// #1
    44c8:	52800003 	mov	w3, #0x0                   	// #0
    44cc:	72a62000 	movk	w0, #0x3100, lsl #16
    44d0:	97fff284 	bl	0xee0
    44d4:	52802b00 	mov	w0, #0x158                 	// #344
    44d8:	528003e1 	mov	w1, #0x1f                  	// #31
    44dc:	72a62000 	movk	w0, #0x3100, lsl #16
    44e0:	52800022 	mov	w2, #0x1                   	// #1
    44e4:	52800003 	mov	w3, #0x0                   	// #0
    44e8:	97fff27e 	bl	0xee0
    44ec:	d2800c00 	mov	x0, #0x60                  	// #96
    44f0:	f2a62000 	movk	x0, #0x3100, lsl #16
    44f4:	52807fe1 	mov	w1, #0x3ff                 	// #1023
    44f8:	b9000001 	str	w1, [x0]
    44fc:	d282c880 	mov	x0, #0x1644                	// #5700
    4500:	f2a62000 	movk	x0, #0x3100, lsl #16
    4504:	b9400013 	ldr	w19, [x0]
    4508:	52800000 	mov	w0, #0x0                   	// #0
    450c:	12001a73 	and	w19, w19, #0x7f
    4510:	97fffd63 	bl	0x3a9c
    4514:	34000560 	cbz	w0, 0x45c0
    4518:	90000060 	adrp	x0, 0x10000
    451c:	aa0003f5 	mov	x21, x0
    4520:	39434001 	ldrb	w1, [x0, #208]
    4524:	350004e1 	cbnz	w1, 0x45c0
    4528:	7100be7f 	cmp	w19, #0x2f
    452c:	540000a9 	b.ls	0x4540  // b.plast
    4530:	9103e280 	add	x0, x20, #0xf8
    4534:	b9400000 	ldr	w0, [x0]
    4538:	710c001f 	cmp	w0, #0x300
    453c:	54000429 	b.ls	0x45c0  // b.plast
    4540:	52800022 	mov	w2, #0x1                   	// #1
    4544:	52802b00 	mov	w0, #0x158                 	// #344
    4548:	2a0203e3 	mov	w3, w2
    454c:	52800001 	mov	w1, #0x0                   	// #0
    4550:	72a62000 	movk	w0, #0x3100, lsl #16
    4554:	97fff263 	bl	0xee0
    4558:	52800020 	mov	w0, #0x1                   	// #1
    455c:	97fff290 	bl	0xf9c
    4560:	52800021 	mov	w1, #0x1                   	// #1
    4564:	52802a80 	mov	w0, #0x154                 	// #340
    4568:	2a0103e3 	mov	w3, w1
    456c:	2a0103e2 	mov	w2, w1
    4570:	72a62000 	movk	w0, #0x3100, lsl #16
    4574:	97fff25b 	bl	0xee0
    4578:	52800000 	mov	w0, #0x0                   	// #0
    457c:	2a0003e1 	mov	w1, w0
    4580:	52800022 	mov	w2, #0x1                   	// #1
    4584:	97ffff09 	bl	0x41a8
    4588:	52800021 	mov	w1, #0x1                   	// #1
    458c:	52802a80 	mov	w0, #0x154                 	// #340
    4590:	2a0103e2 	mov	w2, w1
    4594:	52800003 	mov	w3, #0x0                   	// #0
    4598:	72a62000 	movk	w0, #0x3100, lsl #16
    459c:	97fff251 	bl	0xee0
    45a0:	52800001 	mov	w1, #0x0                   	// #0
    45a4:	52802b00 	mov	w0, #0x158                 	// #344
    45a8:	72a62000 	movk	w0, #0x3100, lsl #16
    45ac:	52800022 	mov	w2, #0x1                   	// #1
    45b0:	2a0103e3 	mov	w3, w1
    45b4:	97fff24b 	bl	0xee0
    45b8:	52800020 	mov	w0, #0x1                   	// #1
    45bc:	390342a0 	strb	w0, [x21, #208]
    45c0:	52800020 	mov	w0, #0x1                   	// #1
    45c4:	97fffd36 	bl	0x3a9c
    45c8:	340004a0 	cbz	w0, 0x465c
    45cc:	52800022 	mov	w2, #0x1                   	// #1
    45d0:	52802b00 	mov	w0, #0x158                 	// #344
    45d4:	2a0203e3 	mov	w3, w2
    45d8:	52800081 	mov	w1, #0x4                   	// #4
    45dc:	72a62000 	movk	w0, #0x3100, lsl #16
    45e0:	97fff240 	bl	0xee0
    45e4:	52800021 	mov	w1, #0x1                   	// #1
    45e8:	52802a80 	mov	w0, #0x154                 	// #340
    45ec:	2a0103e3 	mov	w3, w1
    45f0:	2a0103e2 	mov	w2, w1
    45f4:	72a62000 	movk	w0, #0x3100, lsl #16
    45f8:	97fff23a 	bl	0xee0
    45fc:	52800020 	mov	w0, #0x1                   	// #1
    4600:	97fff267 	bl	0xf9c
    4604:	52800020 	mov	w0, #0x1                   	// #1
    4608:	2a0003e2 	mov	w2, w0
    460c:	52800001 	mov	w1, #0x0                   	// #0
    4610:	97fffee6 	bl	0x41a8
    4614:	d2802d00 	mov	x0, #0x168                 	// #360
    4618:	f2a62000 	movk	x0, #0x3100, lsl #16
    461c:	52800081 	mov	w1, #0x4                   	// #4
    4620:	52800022 	mov	w2, #0x1                   	// #1
    4624:	b9400000 	ldr	w0, [x0]
    4628:	d2802d00 	mov	x0, #0x168                 	// #360
    462c:	f2a62000 	movk	x0, #0x3100, lsl #16
    4630:	52800003 	mov	w3, #0x0                   	// #0
    4634:	b9400000 	ldr	w0, [x0]
    4638:	52802b00 	mov	w0, #0x158                 	// #344
    463c:	72a62000 	movk	w0, #0x3100, lsl #16
    4640:	97fff228 	bl	0xee0
    4644:	52802a80 	mov	w0, #0x154                 	// #340
    4648:	52800021 	mov	w1, #0x1                   	// #1
    464c:	72a62000 	movk	w0, #0x3100, lsl #16
    4650:	2a0103e2 	mov	w2, w1
    4654:	52800003 	mov	w3, #0x0                   	// #0
    4658:	97fff222 	bl	0xee0
    465c:	d2800c00 	mov	x0, #0x60                  	// #96
    4660:	f2a62000 	movk	x0, #0x3100, lsl #16
    4664:	52800022 	mov	w2, #0x1                   	// #1
    4668:	52800181 	mov	w1, #0xc                   	// #12
    466c:	b900001f 	str	wzr, [x0]
    4670:	52802180 	mov	w0, #0x10c                 	// #268
    4674:	72a62000 	movk	w0, #0x3100, lsl #16
    4678:	2a0203e3 	mov	w3, w2
    467c:	97fff219 	bl	0xee0
    4680:	528000a0 	mov	w0, #0x5                   	// #5
    4684:	97fffd06 	bl	0x3a9c
    4688:	34000560 	cbz	w0, 0x4734
    468c:	90000060 	adrp	x0, 0x10000
    4690:	aa0003f5 	mov	x21, x0
    4694:	39436001 	ldrb	w1, [x0, #216]
    4698:	350004e1 	cbnz	w1, 0x4734
    469c:	7100be7f 	cmp	w19, #0x2f
    46a0:	540000a9 	b.ls	0x46b4  // b.plast
    46a4:	9103e280 	add	x0, x20, #0xf8
    46a8:	b9400000 	ldr	w0, [x0]
    46ac:	710c001f 	cmp	w0, #0x300
    46b0:	54000429 	b.ls	0x4734  // b.plast
    46b4:	52800022 	mov	w2, #0x1                   	// #1
    46b8:	52802b00 	mov	w0, #0x158                 	// #344
    46bc:	2a0203e3 	mov	w3, w2
    46c0:	52800281 	mov	w1, #0x14                  	// #20
    46c4:	72a62000 	movk	w0, #0x3100, lsl #16
    46c8:	97fff206 	bl	0xee0
    46cc:	52800021 	mov	w1, #0x1                   	// #1
    46d0:	52802a80 	mov	w0, #0x154                 	// #340
    46d4:	2a0103e3 	mov	w3, w1
    46d8:	2a0103e2 	mov	w2, w1
    46dc:	72a62000 	movk	w0, #0x3100, lsl #16
    46e0:	97fff200 	bl	0xee0
    46e4:	528000a0 	mov	w0, #0x5                   	// #5
    46e8:	52800141 	mov	w1, #0xa                   	// #10
    46ec:	52800022 	mov	w2, #0x1                   	// #1
    46f0:	97fffeae 	bl	0x41a8
    46f4:	52800020 	mov	w0, #0x1                   	// #1
    46f8:	52800021 	mov	w1, #0x1                   	// #1
    46fc:	390362a0 	strb	w0, [x21, #216]
    4700:	52802a80 	mov	w0, #0x154                 	// #340
    4704:	2a0103e2 	mov	w2, w1
    4708:	52800003 	mov	w3, #0x0                   	// #0
    470c:	72a62000 	movk	w0, #0x3100, lsl #16
    4710:	97fff1f4 	bl	0xee0
    4714:	97fffbec 	bl	0x36c4
    4718:	97fffed9 	bl	0x427c
    471c:	52802b00 	mov	w0, #0x158                 	// #344
    4720:	72a62000 	movk	w0, #0x3100, lsl #16
    4724:	52800281 	mov	w1, #0x14                  	// #20
    4728:	52800022 	mov	w2, #0x1                   	// #1
    472c:	52800003 	mov	w3, #0x0                   	// #0
    4730:	97fff1ec 	bl	0xee0
    4734:	528000c0 	mov	w0, #0x6                   	// #6
    4738:	97fffcd9 	bl	0x3a9c
    473c:	34000520 	cbz	w0, 0x47e0
    4740:	52800022 	mov	w2, #0x1                   	// #1
    4744:	52802b00 	mov	w0, #0x158                 	// #344
    4748:	72a62000 	movk	w0, #0x3100, lsl #16
    474c:	52800301 	mov	w1, #0x18                  	// #24
    4750:	2a0203e3 	mov	w3, w2
    4754:	52800013 	mov	w19, #0x0                   	// #0
    4758:	52800035 	mov	w21, #0x1                   	// #1
    475c:	97fff1e1 	bl	0xee0
    4760:	52800081 	mov	w1, #0x4                   	// #4
    4764:	52802a80 	mov	w0, #0x154                 	// #340
    4768:	2a0103e2 	mov	w2, w1
    476c:	1ad322a3 	lsl	w3, w21, w19
    4770:	72a62000 	movk	w0, #0x3100, lsl #16
    4774:	11000673 	add	w19, w19, #0x1
    4778:	97fff1da 	bl	0xee0
    477c:	97fffbd2 	bl	0x36c4
    4780:	52800021 	mov	w1, #0x1                   	// #1
    4784:	52802a80 	mov	w0, #0x154                 	// #340
    4788:	2a0103e3 	mov	w3, w1
    478c:	2a0103e2 	mov	w2, w1
    4790:	72a62000 	movk	w0, #0x3100, lsl #16
    4794:	97fff1d3 	bl	0xee0
    4798:	528000c0 	mov	w0, #0x6                   	// #6
    479c:	52800001 	mov	w1, #0x0                   	// #0
    47a0:	52800022 	mov	w2, #0x1                   	// #1
    47a4:	97fffe81 	bl	0x41a8
    47a8:	52800021 	mov	w1, #0x1                   	// #1
    47ac:	52802a80 	mov	w0, #0x154                 	// #340
    47b0:	72a62000 	movk	w0, #0x3100, lsl #16
    47b4:	2a0103e2 	mov	w2, w1
    47b8:	52800003 	mov	w3, #0x0                   	// #0
    47bc:	97fff1c9 	bl	0xee0
    47c0:	7100127f 	cmp	w19, #0x4
    47c4:	54fffce1 	b.ne	0x4760  // b.any
    47c8:	52802b00 	mov	w0, #0x158                 	// #344
    47cc:	72a62000 	movk	w0, #0x3100, lsl #16
    47d0:	52800301 	mov	w1, #0x18                  	// #24
    47d4:	52800022 	mov	w2, #0x1                   	// #1
    47d8:	52800003 	mov	w3, #0x0                   	// #0
    47dc:	97fff1c1 	bl	0xee0
    47e0:	52800060 	mov	w0, #0x3                   	// #3
    47e4:	97fffcae 	bl	0x3a9c
    47e8:	34000460 	cbz	w0, 0x4874
    47ec:	90000075 	adrp	x21, 0x10000
    47f0:	3943a2b3 	ldrb	w19, [x21, #232]
    47f4:	35000413 	cbnz	w19, 0x4874
    47f8:	52800022 	mov	w2, #0x1                   	// #1
    47fc:	52802b00 	mov	w0, #0x158                 	// #344
    4800:	2a0203e3 	mov	w3, w2
    4804:	52800181 	mov	w1, #0xc                   	// #12
    4808:	72a62000 	movk	w0, #0x3100, lsl #16
    480c:	97fff1b5 	bl	0xee0
    4810:	97fffbad 	bl	0x36c4
    4814:	52800021 	mov	w1, #0x1                   	// #1
    4818:	52802a80 	mov	w0, #0x154                 	// #340
    481c:	2a0103e3 	mov	w3, w1
    4820:	2a0103e2 	mov	w2, w1
    4824:	72a62000 	movk	w0, #0x3100, lsl #16
    4828:	97fff1ae 	bl	0xee0
    482c:	52800060 	mov	w0, #0x3                   	// #3
    4830:	2a1303e1 	mov	w1, w19
    4834:	52800022 	mov	w2, #0x1                   	// #1
    4838:	97fffe5c 	bl	0x41a8
    483c:	52800021 	mov	w1, #0x1                   	// #1
    4840:	52802a80 	mov	w0, #0x154                 	// #340
    4844:	2a0103e2 	mov	w2, w1
    4848:	2a1303e3 	mov	w3, w19
    484c:	72a62000 	movk	w0, #0x3100, lsl #16
    4850:	97fff1a4 	bl	0xee0
    4854:	52802b00 	mov	w0, #0x158                 	// #344
    4858:	72a62000 	movk	w0, #0x3100, lsl #16
    485c:	52800181 	mov	w1, #0xc                   	// #12
    4860:	52800022 	mov	w2, #0x1                   	// #1
    4864:	2a1303e3 	mov	w3, w19
    4868:	97fff19e 	bl	0xee0
    486c:	52800020 	mov	w0, #0x1                   	// #1
    4870:	3903a2a0 	strb	w0, [x21, #232]
    4874:	52800080 	mov	w0, #0x4                   	// #4
    4878:	97fffc89 	bl	0x3a9c
    487c:	34000520 	cbz	w0, 0x4920
    4880:	52800022 	mov	w2, #0x1                   	// #1
    4884:	52802b00 	mov	w0, #0x158                 	// #344
    4888:	72a62000 	movk	w0, #0x3100, lsl #16
    488c:	52800201 	mov	w1, #0x10                  	// #16
    4890:	2a0203e3 	mov	w3, w2
    4894:	52800013 	mov	w19, #0x0                   	// #0
    4898:	52800035 	mov	w21, #0x1                   	// #1
    489c:	97fff191 	bl	0xee0
    48a0:	52800081 	mov	w1, #0x4                   	// #4
    48a4:	52802a80 	mov	w0, #0x154                 	// #340
    48a8:	2a0103e2 	mov	w2, w1
    48ac:	1ad322a3 	lsl	w3, w21, w19
    48b0:	72a62000 	movk	w0, #0x3100, lsl #16
    48b4:	11000673 	add	w19, w19, #0x1
    48b8:	97fff18a 	bl	0xee0
    48bc:	97fffb82 	bl	0x36c4
    48c0:	52800021 	mov	w1, #0x1                   	// #1
    48c4:	52802a80 	mov	w0, #0x154                 	// #340
    48c8:	2a0103e3 	mov	w3, w1
    48cc:	2a0103e2 	mov	w2, w1
    48d0:	72a62000 	movk	w0, #0x3100, lsl #16
    48d4:	97fff183 	bl	0xee0
    48d8:	52800080 	mov	w0, #0x4                   	// #4
    48dc:	52800001 	mov	w1, #0x0                   	// #0
    48e0:	52800022 	mov	w2, #0x1                   	// #1
    48e4:	97fffe31 	bl	0x41a8
    48e8:	52800021 	mov	w1, #0x1                   	// #1
    48ec:	52802a80 	mov	w0, #0x154                 	// #340
    48f0:	72a62000 	movk	w0, #0x3100, lsl #16
    48f4:	2a0103e2 	mov	w2, w1
    48f8:	52800003 	mov	w3, #0x0                   	// #0
    48fc:	97fff179 	bl	0xee0
    4900:	7100127f 	cmp	w19, #0x4
    4904:	54fffce1 	b.ne	0x48a0  // b.any
    4908:	52802b00 	mov	w0, #0x158                 	// #344
    490c:	72a62000 	movk	w0, #0x3100, lsl #16
    4910:	52800201 	mov	w1, #0x10                  	// #16
    4914:	52800022 	mov	w2, #0x1                   	// #1
    4918:	52800003 	mov	w3, #0x0                   	// #0
    491c:	97fff171 	bl	0xee0
    4920:	9103e294 	add	x20, x20, #0xf8
    4924:	52820c01 	mov	w1, #0x1060                	// #4192
    4928:	72a62001 	movk	w1, #0x3100, lsl #16
    492c:	b9400682 	ldr	w2, [x20, #4]
    4930:	52801800 	mov	w0, #0xc0                  	// #192
    4934:	528001e3 	mov	w3, #0xf                   	// #15
    4938:	1b000440 	madd	w0, w2, w0, w1
    493c:	52800081 	mov	w1, #0x4                   	// #4
    4940:	2a0103e2 	mov	w2, w1
    4944:	97fff167 	bl	0xee0
    4948:	52800021 	mov	w1, #0x1                   	// #1
    494c:	52802a80 	mov	w0, #0x154                 	// #340
    4950:	2a0103e2 	mov	w2, w1
    4954:	52800003 	mov	w3, #0x0                   	// #0
    4958:	72a62000 	movk	w0, #0x3100, lsl #16
    495c:	97fff161 	bl	0xee0
    4960:	52802b00 	mov	w0, #0x158                 	// #344
    4964:	52800301 	mov	w1, #0x18                  	// #24
    4968:	52800022 	mov	w2, #0x1                   	// #1
    496c:	52800003 	mov	w3, #0x0                   	// #0
    4970:	72a62000 	movk	w0, #0x3100, lsl #16
    4974:	97fff15b 	bl	0xee0
    4978:	52802b00 	mov	w0, #0x158                 	// #344
    497c:	52800281 	mov	w1, #0x14                  	// #20
    4980:	52800022 	mov	w2, #0x1                   	// #1
    4984:	52800003 	mov	w3, #0x0                   	// #0
    4988:	72a62000 	movk	w0, #0x3100, lsl #16
    498c:	97fff155 	bl	0xee0
    4990:	52802b00 	mov	w0, #0x158                 	// #344
    4994:	52800201 	mov	w1, #0x10                  	// #16
    4998:	52800022 	mov	w2, #0x1                   	// #1
    499c:	52800003 	mov	w3, #0x0                   	// #0
    49a0:	72a62000 	movk	w0, #0x3100, lsl #16
    49a4:	97fff14f 	bl	0xee0
    49a8:	52802b00 	mov	w0, #0x158                 	// #344
    49ac:	52800181 	mov	w1, #0xc                   	// #12
    49b0:	52800022 	mov	w2, #0x1                   	// #1
    49b4:	52800003 	mov	w3, #0x0                   	// #0
    49b8:	72a62000 	movk	w0, #0x3100, lsl #16
    49bc:	97fff149 	bl	0xee0
    49c0:	52802b00 	mov	w0, #0x158                 	// #344
    49c4:	a94153f3 	ldp	x19, x20, [sp, #16]
    49c8:	f94013f5 	ldr	x21, [sp, #32]
    49cc:	a8c37bfd 	ldp	x29, x30, [sp], #48
    49d0:	72a62000 	movk	w0, #0x3100, lsl #16
    49d4:	52800101 	mov	w1, #0x8                   	// #8
    49d8:	52800022 	mov	w2, #0x1                   	// #1
    49dc:	52800003 	mov	w3, #0x0                   	// #0
    49e0:	17fff140 	b	0xee0
    49e4:	f0000040 	adrp	x0, 0xf000
    49e8:	9103e002 	add	x2, x0, #0xf8
    49ec:	d282c883 	mov	x3, #0x1644                	// #5700
    49f0:	f2a62003 	movk	x3, #0x3100, lsl #16
    49f4:	b9400441 	ldr	w1, [x2, #4]
    49f8:	b9400042 	ldr	w2, [x2]
    49fc:	b9400063 	ldr	w3, [x3]
    4a00:	12177842 	and	w2, w2, #0xfffffeff
    4a04:	7108005f 	cmp	w2, #0x200
    4a08:	540001c1 	b.ne	0x4a40  // b.any
    4a0c:	12001862 	and	w2, w3, #0x7f
    4a10:	7101585f 	cmp	w2, #0x56
    4a14:	54000169 	b.ls	0x4a40  // b.plast
    4a18:	f0000043 	adrp	x3, 0xf000
    4a1c:	52801202 	mov	w2, #0x90                  	// #144
    4a20:	f9404063 	ldr	x3, [x3, #128]
    4a24:	9ba27c22 	umull	x2, w1, w2
    4a28:	8b020062 	add	x2, x3, x2
    4a2c:	529ffdc3 	mov	w3, #0xffee                	// #65518
    4a30:	72bffde3 	movk	w3, #0xffef, lsl #16
    4a34:	b9400444 	ldr	w4, [x2, #4]
    4a38:	0a030083 	and	w3, w4, w3
    4a3c:	b9000443 	str	w3, [x2, #4]
    4a40:	52801e02 	mov	w2, #0xf0                  	// #240
    4a44:	1ac12841 	asr	w1, w2, w1
    4a48:	12000022 	and	w2, w1, #0x1
    4a4c:	37000061 	tbnz	w1, #0, 0x4a58
    4a50:	9103e001 	add	x1, x0, #0xf8
    4a54:	14000003 	b	0x4a60
    4a58:	9103e001 	add	x1, x0, #0xf8
    4a5c:	52800022 	mov	w2, #0x1                   	// #1
    4a60:	9103e000 	add	x0, x0, #0xf8
    4a64:	b9000822 	str	w2, [x1, #8]
    4a68:	b900201f 	str	wzr, [x0, #32]
    4a6c:	b9002c1f 	str	wzr, [x0, #44]
    4a70:	b900381f 	str	wzr, [x0, #56]
    4a74:	d65f03c0 	ret
    4a78:	a9b97bfd 	stp	x29, x30, [sp, #-112]!
    4a7c:	910003fd 	mov	x29, sp
    4a80:	a90363f7 	stp	x23, x24, [sp, #48]
    4a84:	2a0003f8 	mov	w24, w0
    4a88:	52800020 	mov	w0, #0x1                   	// #1
    4a8c:	a90153f3 	stp	x19, x20, [sp, #16]
    4a90:	a9025bf5 	stp	x21, x22, [sp, #32]
    4a94:	a9046bf9 	stp	x25, x26, [sp, #64]
    4a98:	a90573fb 	stp	x27, x28, [sp, #80]
    4a9c:	97fffc00 	bl	0x3a9c
    4aa0:	34001bc0 	cbz	w0, 0x4e18
    4aa4:	52802080 	mov	w0, #0x104                 	// #260
    4aa8:	52800381 	mov	w1, #0x1c                  	// #28
    4aac:	52800022 	mov	w2, #0x1                   	// #1
    4ab0:	52800003 	mov	w3, #0x0                   	// #0
    4ab4:	72a62000 	movk	w0, #0x3100, lsl #16
    4ab8:	97fff10a 	bl	0xee0
    4abc:	52802080 	mov	w0, #0x104                 	// #260
    4ac0:	72a62000 	movk	w0, #0x3100, lsl #16
    4ac4:	528003e1 	mov	w1, #0x1f                  	// #31
    4ac8:	52800022 	mov	w2, #0x1                   	// #1
    4acc:	52800003 	mov	w3, #0x0                   	// #0
    4ad0:	97fff104 	bl	0xee0
    4ad4:	7100071f 	cmp	w24, #0x1
    4ad8:	54000161 	b.ne	0x4b04  // b.any
    4adc:	f0000040 	adrp	x0, 0xf000
    4ae0:	52800e41 	mov	w1, #0x72                  	// #114
    4ae4:	b90067a1 	str	w1, [x29, #100]
    4ae8:	b9409000 	ldr	w0, [x0, #144]
    4aec:	52800801 	mov	w1, #0x40                  	// #64
    4af0:	7101041f 	cmp	w0, #0x41
    4af4:	528009a0 	mov	w0, #0x4d                  	// #77
    4af8:	1a801020 	csel	w0, w1, w0, ne  // ne = any
    4afc:	b9006fa0 	str	w0, [x29, #108]
    4b00:	14000009 	b	0x4b24
    4b04:	f0000040 	adrp	x0, 0xf000
    4b08:	9103e000 	add	x0, x0, #0xf8
    4b0c:	b9402801 	ldr	w1, [x0, #40]
    4b10:	b9402400 	ldr	w0, [x0, #36]
    4b14:	0b000020 	add	w0, w1, w0
    4b18:	53017c00 	lsr	w0, w0, #1
    4b1c:	b9006fa0 	str	w0, [x29, #108]
    4b20:	b90067a0 	str	w0, [x29, #100]
    4b24:	52800020 	mov	w0, #0x1                   	// #1
    4b28:	52800014 	mov	w20, #0x0                   	// #0
    4b2c:	97fffbce 	bl	0x3a64
    4b30:	b9406fb6 	ldr	w22, [x29, #108]
    4b34:	2a1403fb 	mov	w27, w20
    4b38:	2a1403fc 	mov	w28, w20
    4b3c:	2a1403f5 	mov	w21, w20
    4b40:	2a1403fa 	mov	w26, w20
    4b44:	2a1403f7 	mov	w23, w20
    4b48:	b9006bb4 	str	w20, [x29, #104]
    4b4c:	b94067a1 	ldr	w1, [x29, #100]
    4b50:	6b0102df 	cmp	w22, w1
    4b54:	54000b48 	b.hi	0x4cbc  // b.pmore
    4b58:	97fffadb 	bl	0x36c4
    4b5c:	52802180 	mov	w0, #0x10c                 	// #268
    4b60:	52800181 	mov	w1, #0xc                   	// #12
    4b64:	52800022 	mov	w2, #0x1                   	// #1
    4b68:	52800003 	mov	w3, #0x0                   	// #0
    4b6c:	72a62000 	movk	w0, #0x3100, lsl #16
    4b70:	97fff0dc 	bl	0xee0
    4b74:	52800020 	mov	w0, #0x1                   	// #1
    4b78:	97fff109 	bl	0xf9c
    4b7c:	52802c80 	mov	w0, #0x164                 	// #356
    4b80:	52800101 	mov	w1, #0x8                   	// #8
    4b84:	528000e2 	mov	w2, #0x7                   	// #7
    4b88:	2a1603e3 	mov	w3, w22
    4b8c:	72a62000 	movk	w0, #0x3100, lsl #16
    4b90:	97fff0d4 	bl	0xee0
    4b94:	52802c80 	mov	w0, #0x164                 	// #356
    4b98:	52800001 	mov	w1, #0x0                   	// #0
    4b9c:	52800102 	mov	w2, #0x8                   	// #8
    4ba0:	52800403 	mov	w3, #0x20                  	// #32
    4ba4:	72a62000 	movk	w0, #0x3100, lsl #16
    4ba8:	97fff0ce 	bl	0xee0
    4bac:	52800020 	mov	w0, #0x1                   	// #1
    4bb0:	97fff0fb 	bl	0xf9c
    4bb4:	52800021 	mov	w1, #0x1                   	// #1
    4bb8:	52802a80 	mov	w0, #0x154                 	// #340
    4bbc:	2a0103e2 	mov	w2, w1
    4bc0:	2a0103e3 	mov	w3, w1
    4bc4:	72a62000 	movk	w0, #0x3100, lsl #16
    4bc8:	97fff0c6 	bl	0xee0
    4bcc:	52800020 	mov	w0, #0x1                   	// #1
    4bd0:	97fff0f3 	bl	0xf9c
    4bd4:	7100071f 	cmp	w24, #0x1
    4bd8:	540000a1 	b.ne	0x4bec  // b.any
    4bdc:	52800001 	mov	w1, #0x0                   	// #0
    4be0:	2a1803e0 	mov	w0, w24
    4be4:	2a0103e2 	mov	w2, w1
    4be8:	14000004 	b	0x4bf8
    4bec:	52800020 	mov	w0, #0x1                   	// #1
    4bf0:	52800001 	mov	w1, #0x0                   	// #0
    4bf4:	2a0003e2 	mov	w2, w0
    4bf8:	97fffd6c 	bl	0x41a8
    4bfc:	d2802d00 	mov	x0, #0x168                 	// #360
    4c00:	f2a62000 	movk	x0, #0x3100, lsl #16
    4c04:	7100071f 	cmp	w24, #0x1
    4c08:	b9400013 	ldr	w19, [x0]
    4c0c:	d2802d00 	mov	x0, #0x168                 	// #360
    4c10:	f2a62000 	movk	x0, #0x3100, lsl #16
    4c14:	12002a73 	and	w19, w19, #0x7ff
    4c18:	b9400000 	ldr	w0, [x0]
    4c1c:	54000341 	b.ne	0x4c84  // b.any
    4c20:	b9406fa0 	ldr	w0, [x29, #108]
    4c24:	6b0002df 	cmp	w22, w0
    4c28:	54000140 	b.eq	0x4c50  // b.none
    4c2c:	6b13033f 	cmp	w25, w19
    4c30:	54000089 	b.ls	0x4c40  // b.plast
    4c34:	4b130320 	sub	w0, w25, w19
    4c38:	51000b39 	sub	w25, w25, #0x2
    4c3c:	14000003 	b	0x4c48
    4c40:	4b190260 	sub	w0, w19, w25
    4c44:	11000b39 	add	w25, w25, #0x2
    4c48:	71000c1f 	cmp	w0, #0x3
    4c4c:	1a932333 	csel	w19, w25, w19, cs  // cs = hs, nlast
    4c50:	6b17027f 	cmp	w19, w23
    4c54:	54000068 	b.hi	0x4c60  // b.pmore
    4c58:	1a96139c 	csel	w28, w28, w22, ne  // ne = any
    4c5c:	14000003 	b	0x4c68
    4c60:	2a1603f5 	mov	w21, w22
    4c64:	2a1303f7 	mov	w23, w19
    4c68:	6b17027f 	cmp	w19, w23
    4c6c:	54000062 	b.cs	0x4c78  // b.hs, b.nlast
    4c70:	6b1a027f 	cmp	w19, w26
    4c74:	540000e8 	b.hi	0x4c90  // b.pmore
    4c78:	6b1a027f 	cmp	w19, w26
    4c7c:	1a961294 	csel	w20, w20, w22, ne  // ne = any
    4c80:	14000006 	b	0x4c98
    4c84:	b9006bb3 	str	w19, [x29, #104]
    4c88:	2a1903f3 	mov	w19, w25
    4c8c:	14000003 	b	0x4c98
    4c90:	2a1603fb 	mov	w27, w22
    4c94:	2a1303fa 	mov	w26, w19
    4c98:	52800021 	mov	w1, #0x1                   	// #1
    4c9c:	52802a80 	mov	w0, #0x154                 	// #340
    4ca0:	72a62000 	movk	w0, #0x3100, lsl #16
    4ca4:	2a0103e2 	mov	w2, w1
    4ca8:	52800003 	mov	w3, #0x0                   	// #0
    4cac:	11000ad6 	add	w22, w22, #0x2
    4cb0:	97fff08c 	bl	0xee0
    4cb4:	2a1303f9 	mov	w25, w19
    4cb8:	17ffffa5 	b	0x4b4c
    4cbc:	7100071f 	cmp	w24, #0x1
    4cc0:	2a1503e0 	mov	w0, w21
    4cc4:	2a1703e1 	mov	w1, w23
    4cc8:	54000261 	b.ne	0x4d14  // b.any
    4ccc:	6b1c02bf 	cmp	w21, w28
    4cd0:	1a9c22bc 	csel	w28, w21, w28, cs  // cs = hs, nlast
    4cd4:	6b1f037f 	cmp	w27, wzr
    4cd8:	1a9b02b5 	csel	w21, w21, w27, eq  // eq = none
    4cdc:	6b1f037f 	cmp	w27, wzr
    4ce0:	1a9a02f7 	csel	w23, w23, w26, eq  // eq = none
    4ce4:	0b00039c 	add	w28, w28, w0
    4ce8:	6b1402bf 	cmp	w21, w20
    4cec:	f0000040 	adrp	x0, 0xf000
    4cf0:	1a9422b4 	csel	w20, w21, w20, cs  // cs = hs, nlast
    4cf4:	9103e000 	add	x0, x0, #0xf8
    4cf8:	0b150295 	add	w21, w20, w21
    4cfc:	0b0102f7 	add	w23, w23, w1
    4d00:	53027f9c 	lsr	w28, w28, #2
    4d04:	53017ef7 	lsr	w23, w23, #1
    4d08:	0b550b95 	add	w21, w28, w21, lsr #2
    4d0c:	b9006bb7 	str	w23, [x29, #104]
    4d10:	b9002015 	str	w21, [x0, #32]
    4d14:	b9406ba0 	ldr	w0, [x29, #104]
    4d18:	350000a0 	cbnz	w0, 0x4d2c
    4d1c:	90000040 	adrp	x0, 0xc000
    4d20:	9135a800 	add	x0, x0, #0xd6a
    4d24:	97fff0ab 	bl	0xfd0
    4d28:	14000000 	b	0x4d28
    4d2c:	f0000053 	adrp	x19, 0xf000
    4d30:	9103e273 	add	x19, x19, #0xf8
    4d34:	52800024 	mov	w4, #0x1                   	// #1
    4d38:	52802000 	mov	w0, #0x100                 	// #256
    4d3c:	b9401263 	ldr	w3, [x19, #16]
    4d40:	72a62000 	movk	w0, #0x3100, lsl #16
    4d44:	52800281 	mov	w1, #0x14                  	// #20
    4d48:	52800082 	mov	w2, #0x4                   	// #4
    4d4c:	1ac32083 	lsl	w3, w4, w3
    4d50:	97fff064 	bl	0xee0
    4d54:	7100071f 	cmp	w24, #0x1
    4d58:	540003c1 	b.ne	0x4dd0  // b.any
    4d5c:	b9402262 	ldr	w2, [x19, #32]
    4d60:	52800041 	mov	w1, #0x2                   	// #2
    4d64:	52800180 	mov	w0, #0xc                   	// #12
    4d68:	97fff467 	bl	0x1f04
    4d6c:	b9400660 	ldr	w0, [x19, #4]
    4d70:	f0000042 	adrp	x2, 0xf000
    4d74:	52800c03 	mov	w3, #0x60                  	// #96
    4d78:	b9402264 	ldr	w4, [x19, #32]
    4d7c:	9ba37c01 	umull	x1, w0, w3
    4d80:	f9404442 	ldr	x2, [x2, #136]
    4d84:	8b010042 	add	x2, x2, x1
    4d88:	b9404841 	ldr	w1, [x2, #72]
    4d8c:	12185c21 	and	w1, w1, #0xffffff00
    4d90:	2a040021 	orr	w1, w1, w4
    4d94:	b9004841 	str	w1, [x2, #72]
    4d98:	52803702 	mov	w2, #0x1b8                 	// #440
    4d9c:	72a62002 	movk	w2, #0x3100, lsl #16
    4da0:	1b030800 	madd	w0, w0, w3, w2
    4da4:	b9000001 	str	w1, [x0]
    4da8:	528000a0 	mov	w0, #0x5                   	// #5
    4dac:	97fff07c 	bl	0xf9c
    4db0:	97fffa45 	bl	0x36c4
    4db4:	b9401260 	ldr	w0, [x19, #16]
    4db8:	35000080 	cbnz	w0, 0x4dc8
    4dbc:	b9402260 	ldr	w0, [x19, #32]
    4dc0:	b9002660 	str	w0, [x19, #36]
    4dc4:	14000003 	b	0x4dd0
    4dc8:	b9402260 	ldr	w0, [x19, #32]
    4dcc:	b9002a60 	str	w0, [x19, #40]
    4dd0:	52802000 	mov	w0, #0x100                 	// #256
    4dd4:	52800281 	mov	w1, #0x14                  	// #20
    4dd8:	52800082 	mov	w2, #0x4                   	// #4
    4ddc:	52800063 	mov	w3, #0x3                   	// #3
    4de0:	72a62000 	movk	w0, #0x3100, lsl #16
    4de4:	97fff03f 	bl	0xee0
    4de8:	52800022 	mov	w2, #0x1                   	// #1
    4dec:	a94153f3 	ldp	x19, x20, [sp, #16]
    4df0:	a9425bf5 	ldp	x21, x22, [sp, #32]
    4df4:	a94363f7 	ldp	x23, x24, [sp, #48]
    4df8:	a9446bf9 	ldp	x25, x26, [sp, #64]
    4dfc:	a94573fb 	ldp	x27, x28, [sp, #80]
    4e00:	52802180 	mov	w0, #0x10c                 	// #268
    4e04:	a8c77bfd 	ldp	x29, x30, [sp], #112
    4e08:	72a62000 	movk	w0, #0x3100, lsl #16
    4e0c:	52800181 	mov	w1, #0xc                   	// #12
    4e10:	2a0203e3 	mov	w3, w2
    4e14:	17fff033 	b	0xee0
    4e18:	a94153f3 	ldp	x19, x20, [sp, #16]
    4e1c:	a9425bf5 	ldp	x21, x22, [sp, #32]
    4e20:	a94363f7 	ldp	x23, x24, [sp, #48]
    4e24:	a9446bf9 	ldp	x25, x26, [sp, #64]
    4e28:	a94573fb 	ldp	x27, x28, [sp, #80]
    4e2c:	a8c77bfd 	ldp	x29, x30, [sp], #112
    4e30:	d65f03c0 	ret
    4e34:	a9bd7bfd 	stp	x29, x30, [sp, #-48]!
    4e38:	910003fd 	mov	x29, sp
    4e3c:	a9025bf5 	stp	x21, x22, [sp, #32]
    4e40:	aa0003f5 	mov	x21, x0
    4e44:	52800000 	mov	w0, #0x0                   	// #0
    4e48:	a90153f3 	stp	x19, x20, [sp, #16]
    4e4c:	97fffb14 	bl	0x3a9c
    4e50:	34000f60 	cbz	w0, 0x503c
    4e54:	f0000056 	adrp	x22, 0xf000
    4e58:	9103e2d3 	add	x19, x22, #0xf8
    4e5c:	f0000041 	adrp	x1, 0xf000
    4e60:	91034021 	add	x1, x1, #0xd0
    4e64:	b9401260 	ldr	w0, [x19, #16]
    4e68:	38606822 	ldrb	w2, [x1, x0]
    4e6c:	7100045f 	cmp	w2, #0x1
    4e70:	54000061 	b.ne	0x4e7c  // b.any
    4e74:	b90002a2 	str	w2, [x21]
    4e78:	14000072 	b	0x5040
    4e7c:	52800022 	mov	w2, #0x1                   	// #1
    4e80:	38206822 	strb	w2, [x1, x0]
    4e84:	52802080 	mov	w0, #0x104                 	// #260
    4e88:	52800381 	mov	w1, #0x1c                  	// #28
    4e8c:	52800022 	mov	w2, #0x1                   	// #1
    4e90:	52800003 	mov	w3, #0x0                   	// #0
    4e94:	72a62000 	movk	w0, #0x3100, lsl #16
    4e98:	97fff012 	bl	0xee0
    4e9c:	52802080 	mov	w0, #0x104                 	// #260
    4ea0:	528003e1 	mov	w1, #0x1f                  	// #31
    4ea4:	52800022 	mov	w2, #0x1                   	// #1
    4ea8:	52800003 	mov	w3, #0x0                   	// #0
    4eac:	72a62000 	movk	w0, #0x3100, lsl #16
    4eb0:	97fff00c 	bl	0xee0
    4eb4:	52802180 	mov	w0, #0x10c                 	// #268
    4eb8:	52800181 	mov	w1, #0xc                   	// #12
    4ebc:	52800022 	mov	w2, #0x1                   	// #1
    4ec0:	72a62000 	movk	w0, #0x3100, lsl #16
    4ec4:	52800003 	mov	w3, #0x0                   	// #0
    4ec8:	97fff006 	bl	0xee0
    4ecc:	b9400662 	ldr	w2, [x19, #4]
    4ed0:	52820c81 	mov	w1, #0x1064                	// #4196
    4ed4:	72a62001 	movk	w1, #0x3100, lsl #16
    4ed8:	52801800 	mov	w0, #0xc0                  	// #192
    4edc:	1b000440 	madd	w0, w2, w0, w1
    4ee0:	b9400014 	ldr	w20, [x0]
    4ee4:	12001e81 	and	w1, w20, #0xff
    4ee8:	7101003f 	cmp	w1, #0x40
    4eec:	54000089 	b.ls	0x4efc  // b.plast
    4ef0:	32110281 	orr	w1, w20, #0x8000
    4ef4:	51010021 	sub	w1, w1, #0x40
    4ef8:	14000003 	b	0x4f04
    4efc:	12185e81 	and	w1, w20, #0xffffff00
    4f00:	32110021 	orr	w1, w1, #0x8000
    4f04:	b9000001 	str	w1, [x0]
    4f08:	9103e2c0 	add	x0, x22, #0xf8
    4f0c:	52820d01 	mov	w1, #0x1068                	// #4200
    4f10:	72a62001 	movk	w1, #0x3100, lsl #16
    4f14:	b9400402 	ldr	w2, [x0, #4]
    4f18:	52801800 	mov	w0, #0xc0                  	// #192
    4f1c:	1b000440 	madd	w0, w2, w0, w1
    4f20:	b9400013 	ldr	w19, [x0]
    4f24:	12001e61 	and	w1, w19, #0xff
    4f28:	7101003f 	cmp	w1, #0x40
    4f2c:	54000089 	b.ls	0x4f3c  // b.plast
    4f30:	32110261 	orr	w1, w19, #0x8000
    4f34:	51010021 	sub	w1, w1, #0x40
    4f38:	14000003 	b	0x4f44
    4f3c:	12185e61 	and	w1, w19, #0xffffff00
    4f40:	32110021 	orr	w1, w1, #0x8000
    4f44:	b9000001 	str	w1, [x0]
    4f48:	97fffb5d 	bl	0x3cbc
    4f4c:	52800000 	mov	w0, #0x0                   	// #0
    4f50:	97fffac5 	bl	0x3a64
    4f54:	97fff9dc 	bl	0x36c4
    4f58:	52802180 	mov	w0, #0x10c                 	// #268
    4f5c:	52800181 	mov	w1, #0xc                   	// #12
    4f60:	72a62000 	movk	w0, #0x3100, lsl #16
    4f64:	52800022 	mov	w2, #0x1                   	// #1
    4f68:	52800003 	mov	w3, #0x0                   	// #0
    4f6c:	97ffefdd 	bl	0xee0
    4f70:	9103e2c0 	add	x0, x22, #0xf8
    4f74:	b9402001 	ldr	w1, [x0, #32]
    4f78:	35000061 	cbnz	w1, 0x4f84
    4f7c:	528009a1 	mov	w1, #0x4d                  	// #77
    4f80:	b9002001 	str	w1, [x0, #32]
    4f84:	9103e2d6 	add	x22, x22, #0xf8
    4f88:	52802c80 	mov	w0, #0x164                 	// #356
    4f8c:	52800101 	mov	w1, #0x8                   	// #8
    4f90:	b94022c3 	ldr	w3, [x22, #32]
    4f94:	528000e2 	mov	w2, #0x7                   	// #7
    4f98:	72a62000 	movk	w0, #0x3100, lsl #16
    4f9c:	97ffefd1 	bl	0xee0
    4fa0:	52800020 	mov	w0, #0x1                   	// #1
    4fa4:	97ffeffe 	bl	0xf9c
    4fa8:	52800021 	mov	w1, #0x1                   	// #1
    4fac:	52802a80 	mov	w0, #0x154                 	// #340
    4fb0:	2a0103e3 	mov	w3, w1
    4fb4:	2a0103e2 	mov	w2, w1
    4fb8:	72a62000 	movk	w0, #0x3100, lsl #16
    4fbc:	97ffefc9 	bl	0xee0
    4fc0:	52800020 	mov	w0, #0x1                   	// #1
    4fc4:	97ffeff6 	bl	0xf9c
    4fc8:	52800000 	mov	w0, #0x0                   	// #0
    4fcc:	2a0003e1 	mov	w1, w0
    4fd0:	52800022 	mov	w2, #0x1                   	// #1
    4fd4:	97fffc75 	bl	0x41a8
    4fd8:	52800021 	mov	w1, #0x1                   	// #1
    4fdc:	52802a80 	mov	w0, #0x154                 	// #340
    4fe0:	2a0103e2 	mov	w2, w1
    4fe4:	52800003 	mov	w3, #0x0                   	// #0
    4fe8:	72a62000 	movk	w0, #0x3100, lsl #16
    4fec:	97ffefbd 	bl	0xee0
    4ff0:	b94006c2 	ldr	w2, [x22, #4]
    4ff4:	52820c80 	mov	w0, #0x1064                	// #4196
    4ff8:	52801801 	mov	w1, #0xc0                  	// #192
    4ffc:	72a62000 	movk	w0, #0x3100, lsl #16
    5000:	1b010040 	madd	w0, w2, w1, w0
    5004:	b9000014 	str	w20, [x0]
    5008:	52820d00 	mov	w0, #0x1068                	// #4200
    500c:	b94006c2 	ldr	w2, [x22, #4]
    5010:	72a62000 	movk	w0, #0x3100, lsl #16
    5014:	1b010040 	madd	w0, w2, w1, w0
    5018:	b9000013 	str	w19, [x0]
    501c:	97fffb28 	bl	0x3cbc
    5020:	52800022 	mov	w2, #0x1                   	// #1
    5024:	52802180 	mov	w0, #0x10c                 	// #268
    5028:	72a62000 	movk	w0, #0x3100, lsl #16
    502c:	52800181 	mov	w1, #0xc                   	// #12
    5030:	2a0203e3 	mov	w3, w2
    5034:	97ffefab 	bl	0xee0
    5038:	52800020 	mov	w0, #0x1                   	// #1
    503c:	b90002a0 	str	w0, [x21]
    5040:	a94153f3 	ldp	x19, x20, [sp, #16]
    5044:	a9425bf5 	ldp	x21, x22, [sp, #32]
    5048:	a8c37bfd 	ldp	x29, x30, [sp], #48
    504c:	d65f03c0 	ret
    5050:	a9b87bfd 	stp	x29, x30, [sp, #-128]!
    5054:	910003fd 	mov	x29, sp
    5058:	a9046bf9 	stp	x25, x26, [sp, #64]
    505c:	2a0003f9 	mov	w25, w0
    5060:	52800080 	mov	w0, #0x4                   	// #4
    5064:	a90153f3 	stp	x19, x20, [sp, #16]
    5068:	a9025bf5 	stp	x21, x22, [sp, #32]
    506c:	a90363f7 	stp	x23, x24, [sp, #48]
    5070:	a90573fb 	stp	x27, x28, [sp, #80]
    5074:	97fffa8a 	bl	0x3a9c
    5078:	34001c00 	cbz	w0, 0x53f8
    507c:	52800080 	mov	w0, #0x4                   	// #4
    5080:	f000005a 	adrp	x26, 0x10000
    5084:	97fffa78 	bl	0x3a64
    5088:	52800020 	mov	w0, #0x1                   	// #1
    508c:	97ffefc4 	bl	0xf9c
    5090:	7100073f 	cmp	w25, #0x1
    5094:	9103e340 	add	x0, x26, #0xf8
    5098:	54000301 	b.ne	0x50f8  // b.any
    509c:	b9400801 	ldr	w1, [x0, #8]
    50a0:	f0000040 	adrp	x0, 0x10000
    50a4:	b9409000 	ldr	w0, [x0, #144]
    50a8:	7101041f 	cmp	w0, #0x41
    50ac:	34000141 	cbz	w1, 0x50d4
    50b0:	52800301 	mov	w1, #0x18                  	// #24
    50b4:	52800802 	mov	w2, #0x40                  	// #64
    50b8:	1a810041 	csel	w1, w2, w1, eq  // eq = none
    50bc:	52800217 	mov	w23, #0x10                  	// #16
    50c0:	7101041f 	cmp	w0, #0x41
    50c4:	52800080 	mov	w0, #0x4                   	// #4
    50c8:	b90077a1 	str	w1, [x29, #116]
    50cc:	1a8002f7 	csel	w23, w23, w0, eq  // eq = none
    50d0:	1400000f 	b	0x510c
    50d4:	52800fe1 	mov	w1, #0x7f                  	// #127
    50d8:	52800302 	mov	w2, #0x18                  	// #24
    50dc:	1a811041 	csel	w1, w2, w1, ne  // ne = any
    50e0:	52800097 	mov	w23, #0x4                   	// #4
    50e4:	7101041f 	cmp	w0, #0x41
    50e8:	52800400 	mov	w0, #0x20                  	// #32
    50ec:	b90077a1 	str	w1, [x29, #116]
    50f0:	1a8012f7 	csel	w23, w23, w0, ne  // ne = any
    50f4:	14000006 	b	0x510c
    50f8:	b9403417 	ldr	w23, [x0, #52]
    50fc:	b9403000 	ldr	w0, [x0, #48]
    5100:	0b0002f7 	add	w23, w23, w0
    5104:	53017ef7 	lsr	w23, w23, #1
    5108:	b90077b7 	str	w23, [x29, #116]
    510c:	52800014 	mov	w20, #0x0                   	// #0
    5110:	2a1703f5 	mov	w21, w23
    5114:	b9007bb4 	str	w20, [x29, #120]
    5118:	b9007fb4 	str	w20, [x29, #124]
    511c:	2a1403fc 	mov	w28, w20
    5120:	2a1403fb 	mov	w27, w20
    5124:	9103e358 	add	x24, x26, #0xf8
    5128:	b94077a2 	ldr	w2, [x29, #116]
    512c:	6b0202bf 	cmp	w21, w2
    5130:	54000de8 	b.hi	0x52ec  // b.pmore
    5134:	97fff964 	bl	0x36c4
    5138:	52800022 	mov	w2, #0x1                   	// #1
    513c:	52802180 	mov	w0, #0x10c                 	// #268
    5140:	2a0203e3 	mov	w3, w2
    5144:	52800181 	mov	w1, #0xc                   	// #12
    5148:	72a62000 	movk	w0, #0x3100, lsl #16
    514c:	97ffef65 	bl	0xee0
    5150:	52800040 	mov	w0, #0x2                   	// #2
    5154:	97ffef92 	bl	0xf9c
    5158:	b9400701 	ldr	w1, [x24, #4]
    515c:	52821e80 	mov	w0, #0x10f4                	// #4340
    5160:	52801802 	mov	w2, #0xc0                  	// #192
    5164:	72a62000 	movk	w0, #0x3100, lsl #16
    5168:	52800003 	mov	w3, #0x0                   	// #0
    516c:	1b020020 	madd	w0, w1, w2, w0
    5170:	528002e1 	mov	w1, #0x17                  	// #23
    5174:	52800022 	mov	w2, #0x1                   	// #1
    5178:	97ffef5a 	bl	0xee0
    517c:	b9400701 	ldr	w1, [x24, #4]
    5180:	52821e80 	mov	w0, #0x10f4                	// #4340
    5184:	52801803 	mov	w3, #0xc0                  	// #192
    5188:	72a62000 	movk	w0, #0x3100, lsl #16
    518c:	52800102 	mov	w2, #0x8                   	// #8
    5190:	1b030020 	madd	w0, w1, w3, w0
    5194:	52800301 	mov	w1, #0x18                  	// #24
    5198:	2a1503e3 	mov	w3, w21
    519c:	97ffef51 	bl	0xee0
    51a0:	52800021 	mov	w1, #0x1                   	// #1
    51a4:	52802a80 	mov	w0, #0x154                 	// #340
    51a8:	2a0103e2 	mov	w2, w1
    51ac:	2a0103e3 	mov	w3, w1
    51b0:	72a62000 	movk	w0, #0x3100, lsl #16
    51b4:	97ffef4b 	bl	0xee0
    51b8:	52800020 	mov	w0, #0x1                   	// #1
    51bc:	97ffef78 	bl	0xf9c
    51c0:	7100073f 	cmp	w25, #0x1
    51c4:	52800001 	mov	w1, #0x0                   	// #0
    51c8:	52800080 	mov	w0, #0x4                   	// #4
    51cc:	2a0103e2 	mov	w2, w1
    51d0:	54000040 	b.eq	0x51d8  // b.none
    51d4:	52800022 	mov	w2, #0x1                   	// #1
    51d8:	97fffbf4 	bl	0x41a8
    51dc:	d2802e00 	mov	x0, #0x170                 	// #368
    51e0:	f2a62000 	movk	x0, #0x3100, lsl #16
    51e4:	b9401301 	ldr	w1, [x24, #16]
    51e8:	52801802 	mov	w2, #0xc0                  	// #192
    51ec:	b9400013 	ldr	w19, [x0]
    51f0:	6b1f003f 	cmp	w1, wzr
    51f4:	52800201 	mov	w1, #0x10                  	// #16
    51f8:	1a8103e0 	csel	w0, wzr, w1, eq  // eq = none
    51fc:	1ac02673 	lsr	w19, w19, w0
    5200:	b9400701 	ldr	w1, [x24, #4]
    5204:	52820e00 	mov	w0, #0x1070                	// #4208
    5208:	72a62000 	movk	w0, #0x3100, lsl #16
    520c:	12001e73 	and	w19, w19, #0xff
    5210:	1b020020 	madd	w0, w1, w2, w0
    5214:	52800001 	mov	w1, #0x0                   	// #0
    5218:	2a0003e2 	mov	w2, w0
    521c:	b9407fa3 	ldr	w3, [x29, #124]
    5220:	b9400042 	ldr	w2, [x2]
    5224:	12001c42 	and	w2, w2, #0xff
    5228:	1ac12042 	lsl	w2, w2, w1
    522c:	2a02039c 	orr	w28, w28, w2
    5230:	11001002 	add	w2, w0, #0x4
    5234:	11008000 	add	w0, w0, #0x20
    5238:	b9400042 	ldr	w2, [x2]
    523c:	12001c42 	and	w2, w2, #0xff
    5240:	1ac12042 	lsl	w2, w2, w1
    5244:	11002021 	add	w1, w1, #0x8
    5248:	2a020063 	orr	w3, w3, w2
    524c:	7100803f 	cmp	w1, #0x20
    5250:	b9007fa3 	str	w3, [x29, #124]
    5254:	54fffe21 	b.ne	0x5218  // b.any
    5258:	7100073f 	cmp	w25, #0x1
    525c:	54000201 	b.ne	0x529c  // b.any
    5260:	6b1702bf 	cmp	w21, w23
    5264:	54000140 	b.eq	0x528c  // b.none
    5268:	6b1302df 	cmp	w22, w19
    526c:	54000089 	b.ls	0x527c  // b.plast
    5270:	4b1302c0 	sub	w0, w22, w19
    5274:	51000ad6 	sub	w22, w22, #0x2
    5278:	14000003 	b	0x5284
    527c:	4b160260 	sub	w0, w19, w22
    5280:	11000ad6 	add	w22, w22, #0x2
    5284:	71000c1f 	cmp	w0, #0x3
    5288:	1a9322d3 	csel	w19, w22, w19, cs  // cs = hs, nlast
    528c:	6b1b027f 	cmp	w19, w27
    5290:	54000128 	b.hi	0x52b4  // b.pmore
    5294:	1a951294 	csel	w20, w20, w21, ne  // ne = any
    5298:	1400000c 	b	0x52c8
    529c:	b9407fa0 	ldr	w0, [x29, #124]
    52a0:	2a1303fb 	mov	w27, w19
    52a4:	b9006fa0 	str	w0, [x29, #108]
    52a8:	b90073bc 	str	w28, [x29, #112]
    52ac:	2a1603f3 	mov	w19, w22
    52b0:	14000006 	b	0x52c8
    52b4:	b9407fa1 	ldr	w1, [x29, #124]
    52b8:	b9007bb5 	str	w21, [x29, #120]
    52bc:	b9006fa1 	str	w1, [x29, #108]
    52c0:	b90073bc 	str	w28, [x29, #112]
    52c4:	2a1303fb 	mov	w27, w19
    52c8:	52800021 	mov	w1, #0x1                   	// #1
    52cc:	52802a80 	mov	w0, #0x154                 	// #340
    52d0:	72a62000 	movk	w0, #0x3100, lsl #16
    52d4:	2a0103e2 	mov	w2, w1
    52d8:	52800003 	mov	w3, #0x0                   	// #0
    52dc:	11000ab5 	add	w21, w21, #0x2
    52e0:	97ffef00 	bl	0xee0
    52e4:	2a1303f6 	mov	w22, w19
    52e8:	17ffff90 	b	0x5128
    52ec:	3500005b 	cbnz	w27, 0x52f4
    52f0:	14000000 	b	0x52f0
    52f4:	52800015 	mov	w21, #0x0                   	// #0
    52f8:	9103e353 	add	x19, x26, #0xf8
    52fc:	528000d6 	mov	w22, #0x6                   	// #6
    5300:	b9400660 	ldr	w0, [x19, #4]
    5304:	b94073a2 	ldr	w2, [x29, #112]
    5308:	531d72b7 	lsl	w23, w21, #3
    530c:	1b165400 	madd	w0, w0, w22, w21
    5310:	1ad72443 	lsr	w3, w2, w23
    5314:	52820e01 	mov	w1, #0x1070                	// #4208
    5318:	72a62001 	movk	w1, #0x3100, lsl #16
    531c:	0b001420 	add	w0, w1, w0, lsl #5
    5320:	52800102 	mov	w2, #0x8                   	// #8
    5324:	52800001 	mov	w1, #0x0                   	// #0
    5328:	53001c63 	uxtb	w3, w3
    532c:	97ffeeed 	bl	0xee0
    5330:	b9400660 	ldr	w0, [x19, #4]
    5334:	b9406fa2 	ldr	w2, [x29, #108]
    5338:	52820e81 	mov	w1, #0x1074                	// #4212
    533c:	1b165400 	madd	w0, w0, w22, w21
    5340:	1ad72443 	lsr	w3, w2, w23
    5344:	72a62001 	movk	w1, #0x3100, lsl #16
    5348:	0b001420 	add	w0, w1, w0, lsl #5
    534c:	52800102 	mov	w2, #0x8                   	// #8
    5350:	52800001 	mov	w1, #0x0                   	// #0
    5354:	53001c63 	uxtb	w3, w3
    5358:	110006b5 	add	w21, w21, #0x1
    535c:	97ffeee1 	bl	0xee0
    5360:	710012bf 	cmp	w21, #0x4
    5364:	54fffce1 	b.ne	0x5300  // b.any
    5368:	97fffa55 	bl	0x3cbc
    536c:	52800040 	mov	w0, #0x2                   	// #2
    5370:	97ffef0b 	bl	0xf9c
    5374:	7100073f 	cmp	w25, #0x1
    5378:	54000401 	b.ne	0x53f8  // b.any
    537c:	b9400661 	ldr	w1, [x19, #4]
    5380:	f0000042 	adrp	x2, 0x10000
    5384:	52801200 	mov	w0, #0x90                  	// #144
    5388:	b9407ba3 	ldr	w3, [x29, #120]
    538c:	f9404042 	ldr	x2, [x2, #128]
    5390:	9ba07c20 	umull	x0, w1, w0
    5394:	6b14007f 	cmp	w3, w20
    5398:	8b000040 	add	x0, x2, x0
    539c:	1a942074 	csel	w20, w3, w20, cs  // cs = hs, nlast
    53a0:	0b030298 	add	w24, w20, w3
    53a4:	b9408c02 	ldr	w2, [x0, #140]
    53a8:	53017f03 	lsr	w3, w24, #1
    53ac:	12005c42 	and	w2, w2, #0xffffff
    53b0:	2a036042 	orr	w2, w2, w3, lsl #24
    53b4:	b9008c02 	str	w2, [x0, #140]
    53b8:	52821e80 	mov	w0, #0x10f4                	// #4340
    53bc:	52801802 	mov	w2, #0xc0                  	// #192
    53c0:	72a62000 	movk	w0, #0x3100, lsl #16
    53c4:	b9002e63 	str	w3, [x19, #44]
    53c8:	1b020020 	madd	w0, w1, w2, w0
    53cc:	52800301 	mov	w1, #0x18                  	// #24
    53d0:	52800102 	mov	w2, #0x8                   	// #8
    53d4:	97ffeec3 	bl	0xee0
    53d8:	97fff8bb 	bl	0x36c4
    53dc:	b9401260 	ldr	w0, [x19, #16]
    53e0:	35000080 	cbnz	w0, 0x53f0
    53e4:	b9402e60 	ldr	w0, [x19, #44]
    53e8:	b9003260 	str	w0, [x19, #48]
    53ec:	14000003 	b	0x53f8
    53f0:	b9402e60 	ldr	w0, [x19, #44]
    53f4:	b9003660 	str	w0, [x19, #52]
    53f8:	a94153f3 	ldp	x19, x20, [sp, #16]
    53fc:	a9425bf5 	ldp	x21, x22, [sp, #32]
    5400:	a94363f7 	ldp	x23, x24, [sp, #48]
    5404:	a9446bf9 	ldp	x25, x26, [sp, #64]
    5408:	a94573fb 	ldp	x27, x28, [sp, #80]
    540c:	a8c87bfd 	ldp	x29, x30, [sp], #128
    5410:	d65f03c0 	ret
    5414:	a9bc7bfd 	stp	x29, x30, [sp, #-64]!
    5418:	52800181 	mov	w1, #0xc                   	// #12
    541c:	910003fd 	mov	x29, sp
    5420:	a90153f3 	stp	x19, x20, [sp, #16]
    5424:	a9025bf5 	stp	x21, x22, [sp, #32]
    5428:	910103b4 	add	x20, x29, #0x40
    542c:	2a0003f5 	mov	w21, w0
    5430:	52802180 	mov	w0, #0x10c                 	// #268
    5434:	52800022 	mov	w2, #0x1                   	// #1
    5438:	52800003 	mov	w3, #0x0                   	// #0
    543c:	72a62000 	movk	w0, #0x3100, lsl #16
    5440:	b81fce9f 	str	wzr, [x20, #-4]!
    5444:	f0000056 	adrp	x22, 0x10000
    5448:	97ffeea6 	bl	0xee0
    544c:	9103e2d6 	add	x22, x22, #0xf8
    5450:	52800040 	mov	w0, #0x2                   	// #2
    5454:	52800033 	mov	w19, #0x1                   	// #1
    5458:	97ffeed1 	bl	0xf9c
    545c:	b94012c3 	ldr	w3, [x22, #16]
    5460:	52802000 	mov	w0, #0x100                 	// #256
    5464:	1ac32263 	lsl	w3, w19, w3
    5468:	52800281 	mov	w1, #0x14                  	// #20
    546c:	52800082 	mov	w2, #0x4                   	// #4
    5470:	72a62000 	movk	w0, #0x3100, lsl #16
    5474:	97ffee9b 	bl	0xee0
    5478:	52800041 	mov	w1, #0x2                   	// #2
    547c:	2a1503e2 	mov	w2, w21
    5480:	528001c0 	mov	w0, #0xe                   	// #14
    5484:	97fff2a0 	bl	0x1f04
    5488:	97fffa0d 	bl	0x3cbc
    548c:	52800c80 	mov	w0, #0x64                  	// #100
    5490:	97ffeec3 	bl	0xf9c
    5494:	52800041 	mov	w1, #0x2                   	// #2
    5498:	528001c0 	mov	w0, #0xe                   	// #14
    549c:	aa1403e2 	mov	x2, x20
    54a0:	97fff330 	bl	0x2160
    54a4:	b94012c0 	ldr	w0, [x22, #16]
    54a8:	b9403fa1 	ldr	w1, [x29, #60]
    54ac:	531d7000 	lsl	w0, w0, #3
    54b0:	1ac02420 	lsr	w0, w1, w0
    54b4:	6b2002bf 	cmp	w21, w0, uxtb
    54b8:	54000040 	b.eq	0x54c0  // b.none
    54bc:	14000000 	b	0x54bc
    54c0:	52802080 	mov	w0, #0x104                 	// #260
    54c4:	2a1303e2 	mov	w2, w19
    54c8:	528003e1 	mov	w1, #0x1f                  	// #31
    54cc:	52800003 	mov	w3, #0x0                   	// #0
    54d0:	72a62000 	movk	w0, #0x3100, lsl #16
    54d4:	97ffee83 	bl	0xee0
    54d8:	528000a0 	mov	w0, #0x5                   	// #5
    54dc:	97ffeeb0 	bl	0xf9c
    54e0:	52802000 	mov	w0, #0x100                 	// #256
    54e4:	52800281 	mov	w1, #0x14                  	// #20
    54e8:	52800082 	mov	w2, #0x4                   	// #4
    54ec:	52800063 	mov	w3, #0x3                   	// #3
    54f0:	72a62000 	movk	w0, #0x3100, lsl #16
    54f4:	97ffee7b 	bl	0xee0
    54f8:	52800040 	mov	w0, #0x2                   	// #2
    54fc:	97ffeea8 	bl	0xf9c
    5500:	52802180 	mov	w0, #0x10c                 	// #268
    5504:	2a1303e2 	mov	w2, w19
    5508:	2a1303e3 	mov	w3, w19
    550c:	52800181 	mov	w1, #0xc                   	// #12
    5510:	72a62000 	movk	w0, #0x3100, lsl #16
    5514:	97ffee73 	bl	0xee0
    5518:	a94153f3 	ldp	x19, x20, [sp, #16]
    551c:	a9425bf5 	ldp	x21, x22, [sp, #32]
    5520:	a8c47bfd 	ldp	x29, x30, [sp], #64
    5524:	d65f03c0 	ret
    5528:	a9b87bfd 	stp	x29, x30, [sp, #-128]!
    552c:	910003fd 	mov	x29, sp
    5530:	a90573fb 	stp	x27, x28, [sp, #80]
    5534:	2a0003fb 	mov	w27, w0
    5538:	528000c0 	mov	w0, #0x6                   	// #6
    553c:	a90153f3 	stp	x19, x20, [sp, #16]
    5540:	a9025bf5 	stp	x21, x22, [sp, #32]
    5544:	a90363f7 	stp	x23, x24, [sp, #48]
    5548:	a9046bf9 	stp	x25, x26, [sp, #64]
    554c:	97fff954 	bl	0x3a9c
    5550:	34001a20 	cbz	w0, 0x5894
    5554:	528000c0 	mov	w0, #0x6                   	// #6
    5558:	f0000053 	adrp	x19, 0x10000
    555c:	97fff942 	bl	0x3a64
    5560:	7100077f 	cmp	w27, #0x1
    5564:	9103e260 	add	x0, x19, #0xf8
    5568:	54000301 	b.ne	0x55c8  // b.any
    556c:	b9400801 	ldr	w1, [x0, #8]
    5570:	f0000040 	adrp	x0, 0x10000
    5574:	b9409000 	ldr	w0, [x0, #144]
    5578:	7101041f 	cmp	w0, #0x41
    557c:	34000141 	cbz	w1, 0x55a4
    5580:	528003c1 	mov	w1, #0x1e                  	// #30
    5584:	528005a2 	mov	w2, #0x2d                  	// #45
    5588:	1a810041 	csel	w1, w2, w1, eq  // eq = none
    558c:	52800158 	mov	w24, #0xa                   	// #10
    5590:	7101041f 	cmp	w0, #0x41
    5594:	528000a0 	mov	w0, #0x5                   	// #5
    5598:	b9007fa1 	str	w1, [x29, #124]
    559c:	1a800318 	csel	w24, w24, w0, eq  // eq = none
    55a0:	1400000f 	b	0x55dc
    55a4:	52800e01 	mov	w1, #0x70                  	// #112
    55a8:	52800d42 	mov	w2, #0x6a                  	// #106
    55ac:	1a811041 	csel	w1, w2, w1, ne  // ne = any
    55b0:	52800818 	mov	w24, #0x40                  	// #64
    55b4:	7101041f 	cmp	w0, #0x41
    55b8:	528009a0 	mov	w0, #0x4d                  	// #77
    55bc:	b9007fa1 	str	w1, [x29, #124]
    55c0:	1a801318 	csel	w24, w24, w0, ne  // ne = any
    55c4:	14000006 	b	0x55dc
    55c8:	b9404018 	ldr	w24, [x0, #64]
    55cc:	b9403c00 	ldr	w0, [x0, #60]
    55d0:	0b000318 	add	w24, w24, w0
    55d4:	53017f18 	lsr	w24, w24, #1
    55d8:	b9007fb8 	str	w24, [x29, #124]
    55dc:	9103e260 	add	x0, x19, #0xf8
    55e0:	52800015 	mov	w21, #0x0                   	// #0
    55e4:	f9003ba0 	str	x0, [x29, #112]
    55e8:	f0000040 	adrp	x0, 0x10000
    55ec:	91038000 	add	x0, x0, #0xe0
    55f0:	2a1803f6 	mov	w22, w24
    55f4:	2a1503fa 	mov	w26, w21
    55f8:	2a1503f9 	mov	w25, w21
    55fc:	2a1503fc 	mov	w28, w21
    5600:	f90037a0 	str	x0, [x29, #104]
    5604:	b9407fa2 	ldr	w2, [x29, #124]
    5608:	6b0202df 	cmp	w22, w2
    560c:	54000ac8 	b.hi	0x5764  // b.pmore
    5610:	97fff82d 	bl	0x36c4
    5614:	2a1603e0 	mov	w0, w22
    5618:	97ffff7f 	bl	0x5414
    561c:	52800201 	mov	w1, #0x10                  	// #16
    5620:	52802c80 	mov	w0, #0x164                 	// #356
    5624:	2a0103e3 	mov	w3, w1
    5628:	52800102 	mov	w2, #0x8                   	// #8
    562c:	72a62000 	movk	w0, #0x3100, lsl #16
    5630:	97ffee2c 	bl	0xee0
    5634:	52800021 	mov	w1, #0x1                   	// #1
    5638:	52802a80 	mov	w0, #0x154                 	// #340
    563c:	2a0103e2 	mov	w2, w1
    5640:	2a0103e3 	mov	w3, w1
    5644:	72a62000 	movk	w0, #0x3100, lsl #16
    5648:	97ffee26 	bl	0xee0
    564c:	52800020 	mov	w0, #0x1                   	// #1
    5650:	97ffee53 	bl	0xf9c
    5654:	7100077f 	cmp	w27, #0x1
    5658:	528000c0 	mov	w0, #0x6                   	// #6
    565c:	54000081 	b.ne	0x566c  // b.any
    5660:	52800001 	mov	w1, #0x0                   	// #0
    5664:	2a0103e2 	mov	w2, w1
    5668:	14000003 	b	0x5674
    566c:	52800141 	mov	w1, #0xa                   	// #10
    5670:	52800022 	mov	w2, #0x1                   	// #1
    5674:	97fffacd 	bl	0x41a8
    5678:	d2802e00 	mov	x0, #0x170                 	// #368
    567c:	f2a62000 	movk	x0, #0x3100, lsl #16
    5680:	f9403ba1 	ldr	x1, [x29, #112]
    5684:	f9403ba2 	ldr	x2, [x29, #112]
    5688:	b9400014 	ldr	w20, [x0]
    568c:	b9401020 	ldr	w0, [x1, #16]
    5690:	7100077f 	cmp	w27, #0x1
    5694:	531c6c01 	lsl	w1, w0, #4
    5698:	1ac12694 	lsr	w20, w20, w1
    569c:	b9400441 	ldr	w1, [x2, #4]
    56a0:	52821182 	mov	w2, #0x108c                	// #4236
    56a4:	72a62002 	movk	w2, #0x3100, lsl #16
    56a8:	0b010421 	add	w1, w1, w1, lsl #1
    56ac:	0b000020 	add	w0, w1, w0
    56b0:	52820d81 	mov	w1, #0x106c                	// #4204
    56b4:	531a6400 	lsl	w0, w0, #6
    56b8:	72a62001 	movk	w1, #0x3100, lsl #16
    56bc:	0b010001 	add	w1, w0, w1
    56c0:	0b020000 	add	w0, w0, w2
    56c4:	12001e94 	and	w20, w20, #0xff
    56c8:	b9400023 	ldr	w3, [x1]
    56cc:	b9400019 	ldr	w25, [x0]
    56d0:	12001c60 	and	w0, w3, #0xff
    56d4:	53181f39 	ubfiz	w25, w25, #8, #8
    56d8:	2a000339 	orr	w25, w25, w0
    56dc:	540002a1 	b.ne	0x5730  // b.any
    56e0:	6b1802df 	cmp	w22, w24
    56e4:	54000140 	b.eq	0x570c  // b.none
    56e8:	6b1402ff 	cmp	w23, w20
    56ec:	54000089 	b.ls	0x56fc  // b.plast
    56f0:	4b1402e0 	sub	w0, w23, w20
    56f4:	51000af7 	sub	w23, w23, #0x2
    56f8:	14000003 	b	0x5704
    56fc:	4b170280 	sub	w0, w20, w23
    5700:	11000af7 	add	w23, w23, #0x2
    5704:	71000c1f 	cmp	w0, #0x3
    5708:	1a9422f4 	csel	w20, w23, w20, cs  // cs = hs, nlast
    570c:	6b1c029f 	cmp	w20, w28
    5710:	540000c9 	b.ls	0x5728  // b.plast
    5714:	f94037a0 	ldr	x0, [x29, #104]
    5718:	2a1603fa 	mov	w26, w22
    571c:	2a1403fc 	mov	w28, w20
    5720:	b9000019 	str	w25, [x0]
    5724:	14000007 	b	0x5740
    5728:	1a9612b5 	csel	w21, w21, w22, ne  // ne = any
    572c:	14000005 	b	0x5740
    5730:	f94037a1 	ldr	x1, [x29, #104]
    5734:	2a1403fc 	mov	w28, w20
    5738:	2a1703f4 	mov	w20, w23
    573c:	b9000039 	str	w25, [x1]
    5740:	52800021 	mov	w1, #0x1                   	// #1
    5744:	52802a80 	mov	w0, #0x154                 	// #340
    5748:	72a62000 	movk	w0, #0x3100, lsl #16
    574c:	2a0103e2 	mov	w2, w1
    5750:	52800003 	mov	w3, #0x0                   	// #0
    5754:	11000ad6 	add	w22, w22, #0x2
    5758:	97ffede2 	bl	0xee0
    575c:	2a1403f7 	mov	w23, w20
    5760:	17ffffa9 	b	0x5604
    5764:	97fff7d8 	bl	0x36c4
    5768:	350000bc 	cbnz	w28, 0x577c
    576c:	90000040 	adrp	x0, 0xd000
    5770:	9135dc00 	add	x0, x0, #0xd77
    5774:	97ffee17 	bl	0xfd0
    5778:	14000000 	b	0x5778
    577c:	9103e273 	add	x19, x19, #0xf8
    5780:	52800102 	mov	w2, #0x8                   	// #8
    5784:	53001f23 	uxtb	w3, w25
    5788:	b9400660 	ldr	w0, [x19, #4]
    578c:	b9401261 	ldr	w1, [x19, #16]
    5790:	0b000400 	add	w0, w0, w0, lsl #1
    5794:	0b010000 	add	w0, w0, w1
    5798:	52820d81 	mov	w1, #0x106c                	// #4204
    579c:	72a62001 	movk	w1, #0x3100, lsl #16
    57a0:	0b001820 	add	w0, w1, w0, lsl #6
    57a4:	52800001 	mov	w1, #0x0                   	// #0
    57a8:	97ffedce 	bl	0xee0
    57ac:	b9400660 	ldr	w0, [x19, #4]
    57b0:	b9401261 	ldr	w1, [x19, #16]
    57b4:	52800102 	mov	w2, #0x8                   	// #8
    57b8:	0b000400 	add	w0, w0, w0, lsl #1
    57bc:	0b010000 	add	w0, w0, w1
    57c0:	52821181 	mov	w1, #0x108c                	// #4236
    57c4:	72a62001 	movk	w1, #0x3100, lsl #16
    57c8:	53087f23 	lsr	w3, w25, #8
    57cc:	0b001820 	add	w0, w1, w0, lsl #6
    57d0:	52800001 	mov	w1, #0x0                   	// #0
    57d4:	97ffedc3 	bl	0xee0
    57d8:	97fff939 	bl	0x3cbc
    57dc:	52800040 	mov	w0, #0x2                   	// #2
    57e0:	97ffedef 	bl	0xf9c
    57e4:	7100077f 	cmp	w27, #0x1
    57e8:	540003c1 	b.ne	0x5860  // b.any
    57ec:	6b15035f 	cmp	w26, w21
    57f0:	1a952355 	csel	w21, w26, w21, cs  // cs = hs, nlast
    57f4:	0b1a02ba 	add	w26, w21, w26
    57f8:	53017f40 	lsr	w0, w26, #1
    57fc:	b9003a60 	str	w0, [x19, #56]
    5800:	97ffff05 	bl	0x5414
    5804:	b9400660 	ldr	w0, [x19, #4]
    5808:	f0000042 	adrp	x2, 0x10000
    580c:	52800c03 	mov	w3, #0x60                  	// #96
    5810:	b9403a64 	ldr	w4, [x19, #56]
    5814:	9ba37c01 	umull	x1, w0, w3
    5818:	f9404442 	ldr	x2, [x2, #136]
    581c:	8b010042 	add	x2, x2, x1
    5820:	b9404041 	ldr	w1, [x2, #64]
    5824:	12185c21 	and	w1, w1, #0xffffff00
    5828:	2a040021 	orr	w1, w1, w4
    582c:	b9004041 	str	w1, [x2, #64]
    5830:	52803602 	mov	w2, #0x1b0                 	// #432
    5834:	72a62002 	movk	w2, #0x3100, lsl #16
    5838:	1b030800 	madd	w0, w0, w3, w2
    583c:	b9000001 	str	w1, [x0]
    5840:	97fff7a1 	bl	0x36c4
    5844:	b9401260 	ldr	w0, [x19, #16]
    5848:	35000080 	cbnz	w0, 0x5858
    584c:	b9403a60 	ldr	w0, [x19, #56]
    5850:	b9003e60 	str	w0, [x19, #60]
    5854:	14000003 	b	0x5860
    5858:	b9403a60 	ldr	w0, [x19, #56]
    585c:	b9004260 	str	w0, [x19, #64]
    5860:	52800022 	mov	w2, #0x1                   	// #1
    5864:	52802180 	mov	w0, #0x10c                 	// #268
    5868:	52800181 	mov	w1, #0xc                   	// #12
    586c:	2a0203e3 	mov	w3, w2
    5870:	72a62000 	movk	w0, #0x3100, lsl #16
    5874:	97ffed9b 	bl	0xee0
    5878:	a94153f3 	ldp	x19, x20, [sp, #16]
    587c:	a9425bf5 	ldp	x21, x22, [sp, #32]
    5880:	a94363f7 	ldp	x23, x24, [sp, #48]
    5884:	a9446bf9 	ldp	x25, x26, [sp, #64]
    5888:	a94573fb 	ldp	x27, x28, [sp, #80]
    588c:	a8c87bfd 	ldp	x29, x30, [sp], #128
    5890:	17fff78d 	b	0x36c4
    5894:	a94153f3 	ldp	x19, x20, [sp, #16]
    5898:	a9425bf5 	ldp	x21, x22, [sp, #32]
    589c:	a94363f7 	ldp	x23, x24, [sp, #48]
    58a0:	a9446bf9 	ldp	x25, x26, [sp, #64]
    58a4:	a94573fb 	ldp	x27, x28, [sp, #80]
    58a8:	a8c87bfd 	ldp	x29, x30, [sp], #128
    58ac:	d65f03c0 	ret
    58b0:	a9bc7bfd 	stp	x29, x30, [sp, #-64]!
    58b4:	910003fd 	mov	x29, sp
    58b8:	a90153f3 	stp	x19, x20, [sp, #16]
    58bc:	f0000053 	adrp	x19, 0x10000
    58c0:	9103e273 	add	x19, x19, #0xf8
    58c4:	aa0003f4 	mov	x20, x0
    58c8:	f9001bf7 	str	x23, [sp, #48]
    58cc:	b9401260 	ldr	w0, [x19, #16]
    58d0:	aa0103f7 	mov	x23, x1
    58d4:	2a0403e1 	mov	w1, w4
    58d8:	a9025bf5 	stp	x21, x22, [sp, #32]
    58dc:	aa0203f6 	mov	x22, x2
    58e0:	aa0303f5 	mov	x21, x3
    58e4:	97fff9f0 	bl	0x40a4
    58e8:	528000a0 	mov	w0, #0x5                   	// #5
    58ec:	97fff85e 	bl	0x3a64
    58f0:	97fff775 	bl	0x36c4
    58f4:	52800021 	mov	w1, #0x1                   	// #1
    58f8:	52802a80 	mov	w0, #0x154                 	// #340
    58fc:	2a0103e3 	mov	w3, w1
    5900:	2a0103e2 	mov	w2, w1
    5904:	72a62000 	movk	w0, #0x3100, lsl #16
    5908:	97ffed76 	bl	0xee0
    590c:	52800020 	mov	w0, #0x1                   	// #1
    5910:	97ffeda3 	bl	0xf9c
    5914:	528000a0 	mov	w0, #0x5                   	// #5
    5918:	52800061 	mov	w1, #0x3                   	// #3
    591c:	52800002 	mov	w2, #0x0                   	// #0
    5920:	97fffa22 	bl	0x41a8
    5924:	52800021 	mov	w1, #0x1                   	// #1
    5928:	52802a80 	mov	w0, #0x154                 	// #340
    592c:	52800003 	mov	w3, #0x0                   	// #0
    5930:	2a0103e2 	mov	w2, w1
    5934:	72a62000 	movk	w0, #0x3100, lsl #16
    5938:	97ffed6a 	bl	0xee0
    593c:	b9401260 	ldr	w0, [x19, #16]
    5940:	52800213 	mov	w19, #0x10                  	// #16
    5944:	6b1f001f 	cmp	w0, wzr
    5948:	1a9f1273 	csel	w19, w19, wzr, ne  // ne = any
    594c:	52802d80 	mov	w0, #0x16c                 	// #364
    5950:	2a1303e1 	mov	w1, w19
    5954:	52800102 	mov	w2, #0x8                   	// #8
    5958:	72a62000 	movk	w0, #0x3100, lsl #16
    595c:	97ffed6d 	bl	0xf10
    5960:	b9000280 	str	w0, [x20]
    5964:	11002274 	add	w20, w19, #0x8
    5968:	52802d80 	mov	w0, #0x16c                 	// #364
    596c:	2a1403e1 	mov	w1, w20
    5970:	52800102 	mov	w2, #0x8                   	// #8
    5974:	72a62000 	movk	w0, #0x3100, lsl #16
    5978:	97ffed66 	bl	0xf10
    597c:	b90002e0 	str	w0, [x23]
    5980:	52802e00 	mov	w0, #0x170                 	// #368
    5984:	2a1303e1 	mov	w1, w19
    5988:	52800102 	mov	w2, #0x8                   	// #8
    598c:	72a62000 	movk	w0, #0x3100, lsl #16
    5990:	97ffed60 	bl	0xf10
    5994:	b90002c0 	str	w0, [x22]
    5998:	52802e00 	mov	w0, #0x170                 	// #368
    599c:	2a1403e1 	mov	w1, w20
    59a0:	52800102 	mov	w2, #0x8                   	// #8
    59a4:	72a62000 	movk	w0, #0x3100, lsl #16
    59a8:	97ffed5a 	bl	0xf10
    59ac:	a94153f3 	ldp	x19, x20, [sp, #16]
    59b0:	b90002a0 	str	w0, [x21]
    59b4:	f9401bf7 	ldr	x23, [sp, #48]
    59b8:	a9425bf5 	ldp	x21, x22, [sp, #32]
    59bc:	a8c47bfd 	ldp	x29, x30, [sp], #64
    59c0:	d65f03c0 	ret
    59c4:	a9b57bfd 	stp	x29, x30, [sp, #-176]!
    59c8:	90000042 	adrp	x2, 0xd000
    59cc:	910003fd 	mov	x29, sp
    59d0:	a90153f3 	stp	x19, x20, [sp, #16]
    59d4:	f90013f5 	str	x21, [sp, #32]
    59d8:	b90033bf 	str	wzr, [x29, #48]
    59dc:	b90037bf 	str	wzr, [x29, #52]
    59e0:	b9003bbf 	str	wzr, [x29, #56]
    59e4:	b9003fbf 	str	wzr, [x29, #60]
    59e8:	b90043bf 	str	wzr, [x29, #64]
    59ec:	b90047bf 	str	wzr, [x29, #68]
    59f0:	b9004bbf 	str	wzr, [x29, #72]
    59f4:	b9004fbf 	str	wzr, [x29, #76]
    59f8:	d2800000 	mov	x0, #0x0                   	// #0
    59fc:	9107a042 	add	x2, x2, #0x1e8
    5a00:	910143b4 	add	x20, x29, #0x50
    5a04:	b8626801 	ldr	w1, [x0, x2]
    5a08:	b9400021 	ldr	w1, [x1]
    5a0c:	b8346801 	str	w1, [x0, x20]
    5a10:	91001000 	add	x0, x0, #0x4
    5a14:	f101801f 	cmp	x0, #0x60
    5a18:	54ffff61 	b.ne	0x5a04  // b.any
    5a1c:	9100c3a0 	add	x0, x29, #0x30
    5a20:	9100d3a1 	add	x1, x29, #0x34
    5a24:	9100e3a2 	add	x2, x29, #0x38
    5a28:	9100f3a3 	add	x3, x29, #0x3c
    5a2c:	52800004 	mov	w4, #0x0                   	// #0
    5a30:	97ffffa0 	bl	0x58b0
    5a34:	d0000040 	adrp	x0, 0xf000
    5a38:	91024001 	add	x1, x0, #0x90
    5a3c:	aa0003f5 	mov	x21, x0
    5a40:	b9401421 	ldr	w1, [x1, #20]
    5a44:	7100083f 	cmp	w1, #0x2
    5a48:	540000e1 	b.ne	0x5a64  // b.any
    5a4c:	910103a0 	add	x0, x29, #0x40
    5a50:	910113a1 	add	x1, x29, #0x44
    5a54:	910123a2 	add	x2, x29, #0x48
    5a58:	910133a3 	add	x3, x29, #0x4c
    5a5c:	52800024 	mov	w4, #0x1                   	// #1
    5a60:	97ffff94 	bl	0x58b0
    5a64:	d0000040 	adrp	x0, 0xf000
    5a68:	9103e000 	add	x0, x0, #0xf8
    5a6c:	910242b5 	add	x21, x21, #0x90
    5a70:	b9400413 	ldr	w19, [x0, #4]
    5a74:	b9401000 	ldr	w0, [x0, #16]
    5a78:	0b130673 	add	w19, w19, w19, lsl #1
    5a7c:	0b000273 	add	w19, w19, w0
    5a80:	b94016a0 	ldr	w0, [x21, #20]
    5a84:	531a6673 	lsl	w19, w19, #6
    5a88:	7100081f 	cmp	w0, #0x2
    5a8c:	b94033a0 	ldr	w0, [x29, #48]
    5a90:	54000701 	b.ne	0x5b70  // b.any
    5a94:	34000160 	cbz	w0, 0x5ac0
    5a98:	b94043a1 	ldr	w1, [x29, #64]
    5a9c:	34000121 	cbz	w1, 0x5ac0
    5aa0:	b9403ba2 	ldr	w2, [x29, #56]
    5aa4:	4b020000 	sub	w0, w0, w2
    5aa8:	7102401f 	cmp	w0, #0x90
    5aac:	54000189 	b.ls	0x5adc  // b.plast
    5ab0:	b9404ba0 	ldr	w0, [x29, #72]
    5ab4:	4b000020 	sub	w0, w1, w0
    5ab8:	7102401f 	cmp	w0, #0x90
    5abc:	54000149 	b.ls	0x5ae4  // b.plast
    5ac0:	52820d80 	mov	w0, #0x106c                	// #4204
    5ac4:	72a62000 	movk	w0, #0x3100, lsl #16
    5ac8:	52800022 	mov	w2, #0x1                   	// #1
    5acc:	0b000260 	add	w0, w19, w0
    5ad0:	528002e1 	mov	w1, #0x17                  	// #23
    5ad4:	2a0203e3 	mov	w3, w2
    5ad8:	14000013 	b	0x5b24
    5adc:	7101401f 	cmp	w0, #0x50
    5ae0:	54000249 	b.ls	0x5b28  // b.plast
    5ae4:	b9404ba0 	ldr	w0, [x29, #72]
    5ae8:	4b000021 	sub	w1, w1, w0
    5aec:	7101403f 	cmp	w1, #0x50
    5af0:	540001c9 	b.ls	0x5b28  // b.plast
    5af4:	52820d95 	mov	w21, #0x106c                	// #4204
    5af8:	72a62015 	movk	w21, #0x3100, lsl #16
    5afc:	52800022 	mov	w2, #0x1                   	// #1
    5b00:	0b150275 	add	w21, w19, w21
    5b04:	2a0203e3 	mov	w3, w2
    5b08:	528002e1 	mov	w1, #0x17                  	// #23
    5b0c:	2a1503e0 	mov	w0, w21
    5b10:	97ffecf4 	bl	0xee0
    5b14:	2a1503e0 	mov	w0, w21
    5b18:	528001e1 	mov	w1, #0xf                   	// #15
    5b1c:	52800022 	mov	w2, #0x1                   	// #1
    5b20:	52800003 	mov	w3, #0x0                   	// #0
    5b24:	97ffecef 	bl	0xee0
    5b28:	b94037a1 	ldr	w1, [x29, #52]
    5b2c:	34000641 	cbz	w1, 0x5bf4
    5b30:	b94047a0 	ldr	w0, [x29, #68]
    5b34:	34000600 	cbz	w0, 0x5bf4
    5b38:	b9403fa2 	ldr	w2, [x29, #60]
    5b3c:	4b020021 	sub	w1, w1, w2
    5b40:	7102403f 	cmp	w1, #0x90
    5b44:	540000c9 	b.ls	0x5b5c  // b.plast
    5b48:	b9404fa1 	ldr	w1, [x29, #76]
    5b4c:	4b010001 	sub	w1, w0, w1
    5b50:	7102403f 	cmp	w1, #0x90
    5b54:	54000089 	b.ls	0x5b64  // b.plast
    5b58:	14000027 	b	0x5bf4
    5b5c:	7101403f 	cmp	w1, #0x50
    5b60:	54000769 	b.ls	0x5c4c  // b.plast
    5b64:	b9404fa1 	ldr	w1, [x29, #76]
    5b68:	4b010000 	sub	w0, w0, w1
    5b6c:	14000029 	b	0x5c10
    5b70:	340000a0 	cbz	w0, 0x5b84
    5b74:	b9403ba1 	ldr	w1, [x29, #56]
    5b78:	4b010000 	sub	w0, w0, w1
    5b7c:	7102401f 	cmp	w0, #0x90
    5b80:	54000109 	b.ls	0x5ba0  // b.plast
    5b84:	52820d80 	mov	w0, #0x106c                	// #4204
    5b88:	72a62000 	movk	w0, #0x3100, lsl #16
    5b8c:	52800022 	mov	w2, #0x1                   	// #1
    5b90:	0b000260 	add	w0, w19, w0
    5b94:	528002e1 	mov	w1, #0x17                  	// #23
    5b98:	2a0203e3 	mov	w3, w2
    5b9c:	1400000f 	b	0x5bd8
    5ba0:	7101401f 	cmp	w0, #0x50
    5ba4:	540001c9 	b.ls	0x5bdc  // b.plast
    5ba8:	52820d95 	mov	w21, #0x106c                	// #4204
    5bac:	72a62015 	movk	w21, #0x3100, lsl #16
    5bb0:	52800022 	mov	w2, #0x1                   	// #1
    5bb4:	0b150275 	add	w21, w19, w21
    5bb8:	2a0203e3 	mov	w3, w2
    5bbc:	528002e1 	mov	w1, #0x17                  	// #23
    5bc0:	2a1503e0 	mov	w0, w21
    5bc4:	97ffecc7 	bl	0xee0
    5bc8:	2a1503e0 	mov	w0, w21
    5bcc:	528001e1 	mov	w1, #0xf                   	// #15
    5bd0:	52800022 	mov	w2, #0x1                   	// #1
    5bd4:	52800003 	mov	w3, #0x0                   	// #0
    5bd8:	97ffecc2 	bl	0xee0
    5bdc:	b94037a0 	ldr	w0, [x29, #52]
    5be0:	340000a0 	cbz	w0, 0x5bf4
    5be4:	b9403fa1 	ldr	w1, [x29, #60]
    5be8:	4b010000 	sub	w0, w0, w1
    5bec:	7102401f 	cmp	w0, #0x90
    5bf0:	54000109 	b.ls	0x5c10  // b.plast
    5bf4:	52821180 	mov	w0, #0x108c                	// #4236
    5bf8:	72a62000 	movk	w0, #0x3100, lsl #16
    5bfc:	52800022 	mov	w2, #0x1                   	// #1
    5c00:	0b000260 	add	w0, w19, w0
    5c04:	528002e1 	mov	w1, #0x17                  	// #23
    5c08:	2a0203e3 	mov	w3, w2
    5c0c:	1400000f 	b	0x5c48
    5c10:	7101401f 	cmp	w0, #0x50
    5c14:	540001c9 	b.ls	0x5c4c  // b.plast
    5c18:	52821180 	mov	w0, #0x108c                	// #4236
    5c1c:	72a62000 	movk	w0, #0x3100, lsl #16
    5c20:	52800022 	mov	w2, #0x1                   	// #1
    5c24:	0b000273 	add	w19, w19, w0
    5c28:	2a0203e3 	mov	w3, w2
    5c2c:	528002e1 	mov	w1, #0x17                  	// #23
    5c30:	2a1303e0 	mov	w0, w19
    5c34:	97ffecab 	bl	0xee0
    5c38:	2a1303e0 	mov	w0, w19
    5c3c:	528001e1 	mov	w1, #0xf                   	// #15
    5c40:	52800022 	mov	w2, #0x1                   	// #1
    5c44:	52800003 	mov	w3, #0x0                   	// #0
    5c48:	97ffeca6 	bl	0xee0
    5c4c:	97fff69e 	bl	0x36c4
    5c50:	90000043 	adrp	x3, 0xd000
    5c54:	d2800000 	mov	x0, #0x0                   	// #0
    5c58:	9107a063 	add	x3, x3, #0x1e8
    5c5c:	b8636802 	ldr	w2, [x0, x3]
    5c60:	b8606a81 	ldr	w1, [x20, x0]
    5c64:	91001000 	add	x0, x0, #0x4
    5c68:	b9000041 	str	w1, [x2]
    5c6c:	f101801f 	cmp	x0, #0x60
    5c70:	54ffff61 	b.ne	0x5c5c  // b.any
    5c74:	a94153f3 	ldp	x19, x20, [sp, #16]
    5c78:	f94013f5 	ldr	x21, [sp, #32]
    5c7c:	a8cb7bfd 	ldp	x29, x30, [sp], #176
    5c80:	d65f03c0 	ret
    5c84:	7100043f 	cmp	w1, #0x1
    5c88:	52800104 	mov	w4, #0x8                   	// #8
    5c8c:	52800085 	mov	w5, #0x4                   	// #4
    5c90:	1a8410a4 	csel	w4, w5, w4, ne  // ne = any
    5c94:	34000260 	cbz	w0, 0x5ce0
    5c98:	d0000046 	adrp	x6, 0xf000
    5c9c:	35000301 	cbnz	w1, 0x5cfc
    5ca0:	9103e0c6 	add	x6, x6, #0xf8
    5ca4:	90000047 	adrp	x7, 0xd000
    5ca8:	9104e0e7 	add	x7, x7, #0x138
    5cac:	b94010c9 	ldr	w9, [x6, #16]
    5cb0:	531f7929 	lsl	w9, w9, #1
    5cb4:	2a0903e5 	mov	w5, w9
    5cb8:	11000529 	add	w9, w9, #0x1
    5cbc:	d37df0a5 	lsl	x5, x5, #3
    5cc0:	d37df129 	lsl	x9, x9, #3
    5cc4:	8b0500ea 	add	x10, x7, x5
    5cc8:	8b0900eb 	add	x11, x7, x9
    5ccc:	b86568e6 	ldr	w6, [x7, x5]
    5cd0:	b9400545 	ldr	w5, [x10, #4]
    5cd4:	b86968ea 	ldr	w10, [x7, x9]
    5cd8:	b9400569 	ldr	w9, [x11, #4]
    5cdc:	14000014 	b	0x5d2c
    5ce0:	d2800005 	mov	x5, #0x0                   	// #0
    5ce4:	b825685f 	str	wzr, [x2, x5]
    5ce8:	b825687f 	str	wzr, [x3, x5]
    5cec:	910010a5 	add	x5, x5, #0x4
    5cf0:	f10090bf 	cmp	x5, #0x24
    5cf4:	54ffff81 	b.ne	0x5ce4  // b.any
    5cf8:	17ffffe8 	b	0x5c98
    5cfc:	9103e0c6 	add	x6, x6, #0xf8
    5d00:	52800009 	mov	w9, #0x0                   	// #0
    5d04:	2a0903ea 	mov	w10, w9
    5d08:	b94010c7 	ldr	w7, [x6, #16]
    5d0c:	b9400cc5 	ldr	w5, [x6, #12]
    5d10:	90000046 	adrp	x6, 0xd000
    5d14:	0b0704a5 	add	w5, w5, w7, lsl #1
    5d18:	d37d7ca5 	ubfiz	x5, x5, #3, #32
    5d1c:	9105e0c6 	add	x6, x6, #0x178
    5d20:	8b0500c7 	add	x7, x6, x5
    5d24:	b86568c6 	ldr	w6, [x6, x5]
    5d28:	b94004e5 	ldr	w5, [x7, #4]
    5d2c:	5282000e 	mov	w14, #0x1000                	// #4096
    5d30:	72a6200e 	movk	w14, #0x3100, lsl #16
    5d34:	0b0e00ce 	add	w14, w6, w14
    5d38:	b940044c 	ldr	w12, [x2, #4]
    5d3c:	b940004b 	ldr	w11, [x2]
    5d40:	b94001c7 	ldr	w7, [x14]
    5d44:	0b27016b 	add	w11, w11, w7, uxtb
    5d48:	b900004b 	str	w11, [x2]
    5d4c:	d3483ceb 	ubfx	x11, x7, #8, #8
    5d50:	0b0b018b 	add	w11, w12, w11
    5d54:	b940084c 	ldr	w12, [x2, #8]
    5d58:	b900044b 	str	w11, [x2, #4]
    5d5c:	d3505ceb 	ubfx	x11, x7, #16, #8
    5d60:	0b0b018b 	add	w11, w12, w11
    5d64:	5282008d 	mov	w13, #0x1004                	// #4100
    5d68:	b900084b 	str	w11, [x2, #8]
    5d6c:	72a6200d 	movk	w13, #0x3100, lsl #16
    5d70:	b9400c4b 	ldr	w11, [x2, #12]
    5d74:	0b0d00cd 	add	w13, w6, w13
    5d78:	0b476167 	add	w7, w11, w7, lsr #24
    5d7c:	b9000c47 	str	w7, [x2, #12]
    5d80:	b940144c 	ldr	w12, [x2, #20]
    5d84:	b94001a7 	ldr	w7, [x13]
    5d88:	b940104b 	ldr	w11, [x2, #16]
    5d8c:	0b27016b 	add	w11, w11, w7, uxtb
    5d90:	b900104b 	str	w11, [x2, #16]
    5d94:	d3483ceb 	ubfx	x11, x7, #8, #8
    5d98:	0b0b018b 	add	w11, w12, w11
    5d9c:	b940184c 	ldr	w12, [x2, #24]
    5da0:	b900144b 	str	w11, [x2, #20]
    5da4:	d3505ceb 	ubfx	x11, x7, #16, #8
    5da8:	0b0b018b 	add	w11, w12, w11
    5dac:	b900184b 	str	w11, [x2, #24]
    5db0:	b9401c4b 	ldr	w11, [x2, #28]
    5db4:	7100043f 	cmp	w1, #0x1
    5db8:	0b476167 	add	w7, w11, w7, lsr #24
    5dbc:	b9001c47 	str	w7, [x2, #28]
    5dc0:	54000121 	b.ne	0x5de4  // b.any
    5dc4:	52820207 	mov	w7, #0x1010                	// #4112
    5dc8:	72a62007 	movk	w7, #0x3100, lsl #16
    5dcc:	0b0700c7 	add	w7, w6, w7
    5dd0:	b940204b 	ldr	w11, [x2, #32]
    5dd4:	b94000e7 	ldr	w7, [x7]
    5dd8:	d3483ce7 	ubfx	x7, x7, #8, #8
    5ddc:	0b070167 	add	w7, w11, w7
    5de0:	b9002047 	str	w7, [x2, #32]
    5de4:	5282000c 	mov	w12, #0x1000                	// #4096
    5de8:	72a6200c 	movk	w12, #0x3100, lsl #16
    5dec:	0b0c00ac 	add	w12, w5, w12
    5df0:	b940046f 	ldr	w15, [x3, #4]
    5df4:	b940006b 	ldr	w11, [x3]
    5df8:	b9400187 	ldr	w7, [x12]
    5dfc:	0b27016b 	add	w11, w11, w7, uxtb
    5e00:	b900006b 	str	w11, [x3]
    5e04:	d3483ceb 	ubfx	x11, x7, #8, #8
    5e08:	0b0b01eb 	add	w11, w15, w11
    5e0c:	b940086f 	ldr	w15, [x3, #8]
    5e10:	b900046b 	str	w11, [x3, #4]
    5e14:	d3505ceb 	ubfx	x11, x7, #16, #8
    5e18:	0b0b01eb 	add	w11, w15, w11
    5e1c:	b900086b 	str	w11, [x3, #8]
    5e20:	b9400c6b 	ldr	w11, [x3, #12]
    5e24:	b9401470 	ldr	w16, [x3, #20]
    5e28:	0b476167 	add	w7, w11, w7, lsr #24
    5e2c:	5282008b 	mov	w11, #0x1004                	// #4100
    5e30:	72a6200b 	movk	w11, #0x3100, lsl #16
    5e34:	0b0b00ab 	add	w11, w5, w11
    5e38:	b9000c67 	str	w7, [x3, #12]
    5e3c:	b940106f 	ldr	w15, [x3, #16]
    5e40:	b9400167 	ldr	w7, [x11]
    5e44:	0b2701ef 	add	w15, w15, w7, uxtb
    5e48:	b900106f 	str	w15, [x3, #16]
    5e4c:	d3483cef 	ubfx	x15, x7, #8, #8
    5e50:	0b0f020f 	add	w15, w16, w15
    5e54:	b9401870 	ldr	w16, [x3, #24]
    5e58:	b900146f 	str	w15, [x3, #20]
    5e5c:	d3505cef 	ubfx	x15, x7, #16, #8
    5e60:	0b0f020f 	add	w15, w16, w15
    5e64:	b900186f 	str	w15, [x3, #24]
    5e68:	b9401c6f 	ldr	w15, [x3, #28]
    5e6c:	7100043f 	cmp	w1, #0x1
    5e70:	0b4761e7 	add	w7, w15, w7, lsr #24
    5e74:	b9001c67 	str	w7, [x3, #28]
    5e78:	54000121 	b.ne	0x5e9c  // b.any
    5e7c:	52820207 	mov	w7, #0x1010                	// #4112
    5e80:	72a62007 	movk	w7, #0x3100, lsl #16
    5e84:	0b0700a7 	add	w7, w5, w7
    5e88:	b940206f 	ldr	w15, [x3, #32]
    5e8c:	b94000e7 	ldr	w7, [x7]
    5e90:	d3483ce7 	ubfx	x7, x7, #8, #8
    5e94:	0b0701e7 	add	w7, w15, w7
    5e98:	b9002067 	str	w7, [x3, #32]
    5e9c:	51000487 	sub	w7, w4, #0x1
    5ea0:	6b07001f 	cmp	w0, w7
    5ea4:	54000ba1 	b.ne	0x6018  // b.any
    5ea8:	b9400c40 	ldr	w0, [x2, #12]
    5eac:	b9400047 	ldr	w7, [x2]
    5eb0:	b940084f 	ldr	w15, [x2, #8]
    5eb4:	1ac40800 	udiv	w0, w0, w4
    5eb8:	1ac408e7 	udiv	w7, w7, w4
    5ebc:	1ac409ef 	udiv	w15, w15, w4
    5ec0:	53103def 	lsl	w15, w15, #16
    5ec4:	2a0061e0 	orr	w0, w15, w0, lsl #24
    5ec8:	2a070000 	orr	w0, w0, w7
    5ecc:	b9400447 	ldr	w7, [x2, #4]
    5ed0:	1ac408e7 	udiv	w7, w7, w4
    5ed4:	2a072000 	orr	w0, w0, w7, lsl #8
    5ed8:	b90001c0 	str	w0, [x14]
    5edc:	350000a1 	cbnz	w1, 0x5ef0
    5ee0:	52820007 	mov	w7, #0x1000                	// #4096
    5ee4:	72a62007 	movk	w7, #0x3100, lsl #16
    5ee8:	0b070147 	add	w7, w10, w7
    5eec:	b90000e0 	str	w0, [x7]
    5ef0:	b9401c40 	ldr	w0, [x2, #28]
    5ef4:	b9401047 	ldr	w7, [x2, #16]
    5ef8:	b940184e 	ldr	w14, [x2, #24]
    5efc:	1ac40800 	udiv	w0, w0, w4
    5f00:	1ac408e7 	udiv	w7, w7, w4
    5f04:	1ac409ce 	udiv	w14, w14, w4
    5f08:	53103dce 	lsl	w14, w14, #16
    5f0c:	2a0061c0 	orr	w0, w14, w0, lsl #24
    5f10:	2a070000 	orr	w0, w0, w7
    5f14:	b9401447 	ldr	w7, [x2, #20]
    5f18:	1ac408e7 	udiv	w7, w7, w4
    5f1c:	2a072000 	orr	w0, w0, w7, lsl #8
    5f20:	b90001a0 	str	w0, [x13]
    5f24:	350000c1 	cbnz	w1, 0x5f3c
    5f28:	52820082 	mov	w2, #0x1004                	// #4100
    5f2c:	72a62002 	movk	w2, #0x3100, lsl #16
    5f30:	0b02014a 	add	w10, w10, w2
    5f34:	b9000140 	str	w0, [x10]
    5f38:	1400000a 	b	0x5f60
    5f3c:	7100043f 	cmp	w1, #0x1
    5f40:	54000101 	b.ne	0x5f60  // b.any
    5f44:	b9402042 	ldr	w2, [x2, #32]
    5f48:	52820200 	mov	w0, #0x1010                	// #4112
    5f4c:	72a62000 	movk	w0, #0x3100, lsl #16
    5f50:	0b0000c6 	add	w6, w6, w0
    5f54:	1ac40842 	udiv	w2, w2, w4
    5f58:	53185c42 	lsl	w2, w2, #8
    5f5c:	b90000c2 	str	w2, [x6]
    5f60:	b9400c60 	ldr	w0, [x3, #12]
    5f64:	b9400062 	ldr	w2, [x3]
    5f68:	b9400866 	ldr	w6, [x3, #8]
    5f6c:	1ac40800 	udiv	w0, w0, w4
    5f70:	1ac40842 	udiv	w2, w2, w4
    5f74:	1ac408c6 	udiv	w6, w6, w4
    5f78:	53103cc6 	lsl	w6, w6, #16
    5f7c:	2a0060c0 	orr	w0, w6, w0, lsl #24
    5f80:	2a020000 	orr	w0, w0, w2
    5f84:	b9400462 	ldr	w2, [x3, #4]
    5f88:	1ac40842 	udiv	w2, w2, w4
    5f8c:	2a022000 	orr	w0, w0, w2, lsl #8
    5f90:	b9000180 	str	w0, [x12]
    5f94:	350000a1 	cbnz	w1, 0x5fa8
    5f98:	52820002 	mov	w2, #0x1000                	// #4096
    5f9c:	72a62002 	movk	w2, #0x3100, lsl #16
    5fa0:	0b020122 	add	w2, w9, w2
    5fa4:	b9000040 	str	w0, [x2]
    5fa8:	b9401c60 	ldr	w0, [x3, #28]
    5fac:	b9401062 	ldr	w2, [x3, #16]
    5fb0:	b9401866 	ldr	w6, [x3, #24]
    5fb4:	1ac40800 	udiv	w0, w0, w4
    5fb8:	1ac40842 	udiv	w2, w2, w4
    5fbc:	1ac408c6 	udiv	w6, w6, w4
    5fc0:	53103cc6 	lsl	w6, w6, #16
    5fc4:	2a0060c0 	orr	w0, w6, w0, lsl #24
    5fc8:	2a020000 	orr	w0, w0, w2
    5fcc:	b9401462 	ldr	w2, [x3, #20]
    5fd0:	1ac40842 	udiv	w2, w2, w4
    5fd4:	2a022000 	orr	w0, w0, w2, lsl #8
    5fd8:	b9000160 	str	w0, [x11]
    5fdc:	350000c1 	cbnz	w1, 0x5ff4
    5fe0:	52820081 	mov	w1, #0x1004                	// #4100
    5fe4:	72a62001 	movk	w1, #0x3100, lsl #16
    5fe8:	0b010129 	add	w9, w9, w1
    5fec:	b9000120 	str	w0, [x9]
    5ff0:	1400000a 	b	0x6018
    5ff4:	7100043f 	cmp	w1, #0x1
    5ff8:	54000101 	b.ne	0x6018  // b.any
    5ffc:	b9402060 	ldr	w0, [x3, #32]
    6000:	1ac40804 	udiv	w4, w0, w4
    6004:	52820200 	mov	w0, #0x1010                	// #4112
    6008:	72a62000 	movk	w0, #0x3100, lsl #16
    600c:	0b0000a5 	add	w5, w5, w0
    6010:	53185c84 	lsl	w4, w4, #8
    6014:	b90000a4 	str	w4, [x5]
    6018:	d65f03c0 	ret
    601c:	a9b97bfd 	stp	x29, x30, [sp, #-112]!
    6020:	910003fd 	mov	x29, sp
    6024:	a90153f3 	stp	x19, x20, [sp, #16]
    6028:	aa0003f4 	mov	x20, x0
    602c:	52800060 	mov	w0, #0x3                   	// #3
    6030:	97fff69b 	bl	0x3a9c
    6034:	34000140 	cbz	w0, 0x605c
    6038:	d0000040 	adrp	x0, 0x10000
    603c:	9103e000 	add	x0, x0, #0xf8
    6040:	d0000041 	adrp	x1, 0x10000
    6044:	9103a021 	add	x1, x1, #0xe8
    6048:	b9401000 	ldr	w0, [x0, #16]
    604c:	38606822 	ldrb	w2, [x1, x0]
    6050:	7100045f 	cmp	w2, #0x1
    6054:	540000c1 	b.ne	0x606c  // b.any
    6058:	52800020 	mov	w0, #0x1                   	// #1
    605c:	b9000280 	str	w0, [x20]
    6060:	a94153f3 	ldp	x19, x20, [sp, #16]
    6064:	a8c77bfd 	ldp	x29, x30, [sp], #112
    6068:	d65f03c0 	ret
    606c:	52800022 	mov	w2, #0x1                   	// #1
    6070:	52800013 	mov	w19, #0x0                   	// #0
    6074:	38206822 	strb	w2, [x1, x0]
    6078:	52800060 	mov	w0, #0x3                   	// #3
    607c:	97fff67a 	bl	0x3a64
    6080:	97fff591 	bl	0x36c4
    6084:	52800021 	mov	w1, #0x1                   	// #1
    6088:	52802a80 	mov	w0, #0x154                 	// #340
    608c:	2a0103e3 	mov	w3, w1
    6090:	2a0103e2 	mov	w2, w1
    6094:	72a62000 	movk	w0, #0x3100, lsl #16
    6098:	97ffeb92 	bl	0xee0
    609c:	52800020 	mov	w0, #0x1                   	// #1
    60a0:	97ffebbf 	bl	0xf9c
    60a4:	52800060 	mov	w0, #0x3                   	// #3
    60a8:	52800001 	mov	w1, #0x0                   	// #0
    60ac:	52800022 	mov	w2, #0x1                   	// #1
    60b0:	97fff83e 	bl	0x41a8
    60b4:	52800021 	mov	w1, #0x1                   	// #1
    60b8:	52802a80 	mov	w0, #0x154                 	// #340
    60bc:	2a0103e2 	mov	w2, w1
    60c0:	52800003 	mov	w3, #0x0                   	// #0
    60c4:	72a62000 	movk	w0, #0x3100, lsl #16
    60c8:	97ffeb86 	bl	0xee0
    60cc:	2a1303e0 	mov	w0, w19
    60d0:	52800001 	mov	w1, #0x0                   	// #0
    60d4:	910083a2 	add	x2, x29, #0x20
    60d8:	910123a3 	add	x3, x29, #0x48
    60dc:	11000673 	add	w19, w19, #0x1
    60e0:	97fffee9 	bl	0x5c84
    60e4:	7100127f 	cmp	w19, #0x4
    60e8:	54fffcc1 	b.ne	0x6080  // b.any
    60ec:	17ffffdb 	b	0x6058
    60f0:	a9b97bfd 	stp	x29, x30, [sp, #-112]!
    60f4:	910003fd 	mov	x29, sp
    60f8:	a90153f3 	stp	x19, x20, [sp, #16]
    60fc:	aa0003f4 	mov	x20, x0
    6100:	528000a0 	mov	w0, #0x5                   	// #5
    6104:	97fff666 	bl	0x3a9c
    6108:	340001a0 	cbz	w0, 0x613c
    610c:	d0000041 	adrp	x1, 0x10000
    6110:	9103e021 	add	x1, x1, #0xf8
    6114:	b9401022 	ldr	w2, [x1, #16]
    6118:	b9400c20 	ldr	w0, [x1, #12]
    611c:	d0000041 	adrp	x1, 0x10000
    6120:	0b020400 	add	w0, w0, w2, lsl #1
    6124:	91036021 	add	x1, x1, #0xd8
    6128:	2a0003e0 	mov	w0, w0
    612c:	38606822 	ldrb	w2, [x1, x0]
    6130:	7100045f 	cmp	w2, #0x1
    6134:	540000c1 	b.ne	0x614c  // b.any
    6138:	52800020 	mov	w0, #0x1                   	// #1
    613c:	b9000280 	str	w0, [x20]
    6140:	a94153f3 	ldp	x19, x20, [sp, #16]
    6144:	a8c77bfd 	ldp	x29, x30, [sp], #112
    6148:	d65f03c0 	ret
    614c:	52800022 	mov	w2, #0x1                   	// #1
    6150:	52800013 	mov	w19, #0x0                   	// #0
    6154:	38206822 	strb	w2, [x1, x0]
    6158:	528000a0 	mov	w0, #0x5                   	// #5
    615c:	97fff642 	bl	0x3a64
    6160:	97fff559 	bl	0x36c4
    6164:	52800021 	mov	w1, #0x1                   	// #1
    6168:	52802a80 	mov	w0, #0x154                 	// #340
    616c:	2a0103e3 	mov	w3, w1
    6170:	2a0103e2 	mov	w2, w1
    6174:	72a62000 	movk	w0, #0x3100, lsl #16
    6178:	97ffeb5a 	bl	0xee0
    617c:	52800020 	mov	w0, #0x1                   	// #1
    6180:	97ffeb87 	bl	0xf9c
    6184:	528000a0 	mov	w0, #0x5                   	// #5
    6188:	52800061 	mov	w1, #0x3                   	// #3
    618c:	52800022 	mov	w2, #0x1                   	// #1
    6190:	97fff806 	bl	0x41a8
    6194:	52800021 	mov	w1, #0x1                   	// #1
    6198:	52802a80 	mov	w0, #0x154                 	// #340
    619c:	2a0103e2 	mov	w2, w1
    61a0:	52800003 	mov	w3, #0x0                   	// #0
    61a4:	72a62000 	movk	w0, #0x3100, lsl #16
    61a8:	97ffeb4e 	bl	0xee0
    61ac:	2a1303e0 	mov	w0, w19
    61b0:	52800021 	mov	w1, #0x1                   	// #1
    61b4:	910083a2 	add	x2, x29, #0x20
    61b8:	910123a3 	add	x3, x29, #0x48
    61bc:	11000673 	add	w19, w19, #0x1
    61c0:	97fffeb1 	bl	0x5c84
    61c4:	7100227f 	cmp	w19, #0x8
    61c8:	54fffcc1 	b.ne	0x6160  // b.any
    61cc:	17ffffdb 	b	0x6138
    61d0:	a9bc7bfd 	stp	x29, x30, [sp, #-64]!
    61d4:	528000c0 	mov	w0, #0x6                   	// #6
    61d8:	910003fd 	mov	x29, sp
    61dc:	a90153f3 	stp	x19, x20, [sp, #16]
    61e0:	a9025bf5 	stp	x21, x22, [sp, #32]
    61e4:	a90363f7 	stp	x23, x24, [sp, #48]
    61e8:	97fff62d 	bl	0x3a9c
    61ec:	34000bc0 	cbz	w0, 0x6364
    61f0:	d0000040 	adrp	x0, 0x10000
    61f4:	b940a400 	ldr	w0, [x0, #164]
    61f8:	7100041f 	cmp	w0, #0x1
    61fc:	54000b40 	b.eq	0x6364  // b.none
    6200:	528000c0 	mov	w0, #0x6                   	// #6
    6204:	d0000058 	adrp	x24, 0x10000
    6208:	97fff617 	bl	0x3a64
    620c:	97fff52e 	bl	0x36c4
    6210:	52800021 	mov	w1, #0x1                   	// #1
    6214:	52802a80 	mov	w0, #0x154                 	// #340
    6218:	2a0103e3 	mov	w3, w1
    621c:	2a0103e2 	mov	w2, w1
    6220:	72a62000 	movk	w0, #0x3100, lsl #16
    6224:	52800016 	mov	w22, #0x0                   	// #0
    6228:	97ffeb2e 	bl	0xee0
    622c:	52800020 	mov	w0, #0x1                   	// #1
    6230:	91038318 	add	x24, x24, #0xe0
    6234:	97ffeb5a 	bl	0xf9c
    6238:	528000c0 	mov	w0, #0x6                   	// #6
    623c:	52800141 	mov	w1, #0xa                   	// #10
    6240:	52800022 	mov	w2, #0x1                   	// #1
    6244:	97fff7d9 	bl	0x41a8
    6248:	d0000040 	adrp	x0, 0x10000
    624c:	9103e000 	add	x0, x0, #0xf8
    6250:	52800003 	mov	w3, #0x0                   	// #0
    6254:	b9400413 	ldr	w19, [x0, #4]
    6258:	b9401000 	ldr	w0, [x0, #16]
    625c:	0b130673 	add	w19, w19, w19, lsl #1
    6260:	0b000273 	add	w19, w19, w0
    6264:	d2802e00 	mov	x0, #0x170                 	// #368
    6268:	f2a62000 	movk	x0, #0x3100, lsl #16
    626c:	531a6673 	lsl	w19, w19, #6
    6270:	b9400000 	ldr	w0, [x0]
    6274:	52820d80 	mov	w0, #0x106c                	// #4204
    6278:	72a62000 	movk	w0, #0x3100, lsl #16
    627c:	0b000260 	add	w0, w19, w0
    6280:	b9400001 	ldr	w1, [x0]
    6284:	52821180 	mov	w0, #0x108c                	// #4236
    6288:	72a62000 	movk	w0, #0x3100, lsl #16
    628c:	0b000260 	add	w0, w19, w0
    6290:	b9400017 	ldr	w23, [x0]
    6294:	12001c20 	and	w0, w1, #0xff
    6298:	53181ef7 	ubfiz	w23, w23, #8, #8
    629c:	52800021 	mov	w1, #0x1                   	// #1
    62a0:	2a0002f7 	orr	w23, w23, w0
    62a4:	52802a80 	mov	w0, #0x154                 	// #340
    62a8:	2a0103e2 	mov	w2, w1
    62ac:	72a62000 	movk	w0, #0x3100, lsl #16
    62b0:	97ffeb0c 	bl	0xee0
    62b4:	52800020 	mov	w0, #0x1                   	// #1
    62b8:	97ffeb39 	bl	0xf9c
    62bc:	52820f80 	mov	w0, #0x107c                	// #4220
    62c0:	72a62000 	movk	w0, #0x3100, lsl #16
    62c4:	0b000273 	add	w19, w19, w0
    62c8:	b9400314 	ldr	w20, [x24]
    62cc:	1ad626f5 	lsr	w21, w23, w22
    62d0:	1ad62694 	lsr	w20, w20, w22
    62d4:	12001e94 	and	w20, w20, #0xff
    62d8:	12001eb5 	and	w21, w21, #0xff
    62dc:	4b150284 	sub	w4, w20, w21
    62e0:	6b1402bf 	cmp	w21, w20
    62e4:	4b1402a3 	sub	w3, w21, w20
    62e8:	1a839083 	csel	w3, w4, w3, ls  // ls = plast
    62ec:	2a1303e0 	mov	w0, w19
    62f0:	52800021 	mov	w1, #0x1                   	// #1
    62f4:	528000e2 	mov	w2, #0x7                   	// #7
    62f8:	110022d6 	add	w22, w22, #0x8
    62fc:	97ffeaf9 	bl	0xee0
    6300:	6b1402bf 	cmp	w21, w20
    6304:	1a9f97e3 	cset	w3, hi  // hi = pmore
    6308:	2a1303e0 	mov	w0, w19
    630c:	52800001 	mov	w1, #0x0                   	// #0
    6310:	52800022 	mov	w2, #0x1                   	// #1
    6314:	97ffeaf3 	bl	0xee0
    6318:	52800022 	mov	w2, #0x1                   	// #1
    631c:	2a0203e3 	mov	w3, w2
    6320:	2a1303e0 	mov	w0, w19
    6324:	528003e1 	mov	w1, #0x1f                  	// #31
    6328:	97ffeaee 	bl	0xee0
    632c:	6b1402bf 	cmp	w21, w20
    6330:	51004260 	sub	w0, w19, #0x10
    6334:	1a9492a3 	csel	w3, w21, w20, ls  // ls = plast
    6338:	52800001 	mov	w1, #0x0                   	// #0
    633c:	52800102 	mov	w2, #0x8                   	// #8
    6340:	11008273 	add	w19, w19, #0x20
    6344:	97ffeae7 	bl	0xee0
    6348:	710042df 	cmp	w22, #0x10
    634c:	54fffbe1 	b.ne	0x62c8  // b.any
    6350:	a94153f3 	ldp	x19, x20, [sp, #16]
    6354:	a9425bf5 	ldp	x21, x22, [sp, #32]
    6358:	a94363f7 	ldp	x23, x24, [sp, #48]
    635c:	a8c47bfd 	ldp	x29, x30, [sp], #64
    6360:	17fff657 	b	0x3cbc
    6364:	a94153f3 	ldp	x19, x20, [sp, #16]
    6368:	a9425bf5 	ldp	x21, x22, [sp, #32]
    636c:	a94363f7 	ldp	x23, x24, [sp, #48]
    6370:	a8c47bfd 	ldp	x29, x30, [sp], #64
    6374:	d65f03c0 	ret
    6378:	a9be7bfd 	stp	x29, x30, [sp, #-32]!
    637c:	52800022 	mov	w2, #0x1                   	// #1
    6380:	910003fd 	mov	x29, sp
    6384:	a90153f3 	stp	x19, x20, [sp, #16]
    6388:	d0000054 	adrp	x20, 0x10000
    638c:	52802b00 	mov	w0, #0x158                 	// #344
    6390:	9103e294 	add	x20, x20, #0xf8
    6394:	72a62000 	movk	w0, #0x3100, lsl #16
    6398:	528000e1 	mov	w1, #0x7                   	// #7
    639c:	2a0203e3 	mov	w3, w2
    63a0:	97ffead0 	bl	0xee0
    63a4:	b9401293 	ldr	w19, [x20, #16]
    63a8:	7100067f 	cmp	w19, #0x1
    63ac:	540005c1 	b.ne	0x6464  // b.any
    63b0:	52802000 	mov	w0, #0x100                 	// #256
    63b4:	52800281 	mov	w1, #0x14                  	// #20
    63b8:	52800082 	mov	w2, #0x4                   	// #4
    63bc:	52800043 	mov	w3, #0x2                   	// #2
    63c0:	72a62000 	movk	w0, #0x3100, lsl #16
    63c4:	97ffeac7 	bl	0xee0
    63c8:	b9400682 	ldr	w2, [x20, #4]
    63cc:	52821e80 	mov	w0, #0x10f4                	// #4340
    63d0:	52801801 	mov	w1, #0xc0                  	// #192
    63d4:	72a62000 	movk	w0, #0x3100, lsl #16
    63d8:	52800003 	mov	w3, #0x0                   	// #0
    63dc:	1b010040 	madd	w0, w2, w1, w0
    63e0:	2a1303e2 	mov	w2, w19
    63e4:	2a0003e1 	mov	w1, w0
    63e8:	52800cc0 	mov	w0, #0x66                  	// #102
    63ec:	72aa0e00 	movk	w0, #0x5070, lsl #16
    63f0:	b9000020 	str	w0, [x1]
    63f4:	52802180 	mov	w0, #0x10c                 	// #268
    63f8:	52800181 	mov	w1, #0xc                   	// #12
    63fc:	72a62000 	movk	w0, #0x3100, lsl #16
    6400:	97ffeab8 	bl	0xee0
    6404:	52800040 	mov	w0, #0x2                   	// #2
    6408:	97ffeacb 	bl	0xf34
    640c:	52800041 	mov	w1, #0x2                   	// #2
    6410:	52800002 	mov	w2, #0x0                   	// #0
    6414:	52800160 	mov	w0, #0xb                   	// #11
    6418:	97ffeebb 	bl	0x1f04
    641c:	52800041 	mov	w1, #0x2                   	// #2
    6420:	528007a2 	mov	w2, #0x3d                  	// #61
    6424:	528002c0 	mov	w0, #0x16                  	// #22
    6428:	97ffeeb7 	bl	0x1f04
    642c:	52800041 	mov	w1, #0x2                   	// #2
    6430:	52800ba2 	mov	w2, #0x5d                  	// #93
    6434:	528001c0 	mov	w0, #0xe                   	// #14
    6438:	97ffeeb3 	bl	0x1f04
    643c:	52800040 	mov	w0, #0x2                   	// #2
    6440:	97ffeabd 	bl	0xf34
    6444:	2a1303e2 	mov	w2, w19
    6448:	2a1303e3 	mov	w3, w19
    644c:	52802180 	mov	w0, #0x10c                 	// #268
    6450:	a94153f3 	ldp	x19, x20, [sp, #16]
    6454:	a8c27bfd 	ldp	x29, x30, [sp], #32
    6458:	72a62000 	movk	w0, #0x3100, lsl #16
    645c:	52800181 	mov	w1, #0xc                   	// #12
    6460:	17ffeaa0 	b	0xee0
    6464:	a94153f3 	ldp	x19, x20, [sp, #16]
    6468:	a8c27bfd 	ldp	x29, x30, [sp], #32
    646c:	d65f03c0 	ret
    6470:	a9bc7bfd 	stp	x29, x30, [sp, #-64]!
    6474:	7100041f 	cmp	w0, #0x1
    6478:	910003fd 	mov	x29, sp
    647c:	a90153f3 	stp	x19, x20, [sp, #16]
    6480:	a9025bf5 	stp	x21, x22, [sp, #32]
    6484:	f9001bf7 	str	x23, [sp, #48]
    6488:	2a0003e2 	mov	w2, w0
    648c:	54000141 	b.ne	0x64b4  // b.any
    6490:	a94153f3 	ldp	x19, x20, [sp, #16]
    6494:	a9425bf5 	ldp	x21, x22, [sp, #32]
    6498:	f9401bf7 	ldr	x23, [sp, #48]
    649c:	52802b00 	mov	w0, #0x158                 	// #344
    64a0:	a8c47bfd 	ldp	x29, x30, [sp], #64
    64a4:	72a62000 	movk	w0, #0x3100, lsl #16
    64a8:	528000e1 	mov	w1, #0x7                   	// #7
    64ac:	52800003 	mov	w3, #0x0                   	// #0
    64b0:	17ffea8c 	b	0xee0
    64b4:	d0000055 	adrp	x21, 0x10000
    64b8:	9103e2a0 	add	x0, x21, #0xf8
    64bc:	b9400001 	ldr	w1, [x0]
    64c0:	710c003f 	cmp	w1, #0x300
    64c4:	54000e09 	b.ls	0x6684  // b.plast
    64c8:	7114d43f 	cmp	w1, #0x535
    64cc:	52800257 	mov	w23, #0x12                  	// #18
    64d0:	540000a9 	b.ls	0x64e4  // b.plast
    64d4:	b9404017 	ldr	w23, [x0, #64]
    64d8:	b9403c00 	ldr	w0, [x0, #60]
    64dc:	0b0002f7 	add	w23, w23, w0
    64e0:	53017ef7 	lsr	w23, w23, #1
    64e4:	9103e2b3 	add	x19, x21, #0xf8
    64e8:	52800034 	mov	w20, #0x1                   	// #1
    64ec:	52802000 	mov	w0, #0x100                 	// #256
    64f0:	b9401263 	ldr	w3, [x19, #16]
    64f4:	52800281 	mov	w1, #0x14                  	// #20
    64f8:	52800082 	mov	w2, #0x4                   	// #4
    64fc:	1ac32283 	lsl	w3, w20, w3
    6500:	72a62000 	movk	w0, #0x3100, lsl #16
    6504:	d0000056 	adrp	x22, 0x10000
    6508:	97ffea76 	bl	0xee0
    650c:	b9400260 	ldr	w0, [x19]
    6510:	52800181 	mov	w1, #0xc                   	// #12
    6514:	7110001f 	cmp	w0, #0x400
    6518:	52802180 	mov	w0, #0x10c                 	// #268
    651c:	72a62000 	movk	w0, #0x3100, lsl #16
    6520:	2a1403e2 	mov	w2, w20
    6524:	52800003 	mov	w3, #0x0                   	// #0
    6528:	540003e1 	b.ne	0x65a4  // b.any
    652c:	97ffea6d 	bl	0xee0
    6530:	52800041 	mov	w1, #0x2                   	// #2
    6534:	528000a2 	mov	w2, #0x5                   	// #5
    6538:	52800160 	mov	w0, #0xb                   	// #11
    653c:	97ffee72 	bl	0x1f04
    6540:	52800041 	mov	w1, #0x2                   	// #2
    6544:	52800242 	mov	w2, #0x12                  	// #18
    6548:	528001c0 	mov	w0, #0xe                   	// #14
    654c:	97ffee6e 	bl	0x1f04
    6550:	52802180 	mov	w0, #0x10c                 	// #268
    6554:	52800181 	mov	w1, #0xc                   	// #12
    6558:	2a1403e2 	mov	w2, w20
    655c:	2a1403e3 	mov	w3, w20
    6560:	72a62000 	movk	w0, #0x3100, lsl #16
    6564:	97ffea5f 	bl	0xee0
    6568:	b9400662 	ldr	w2, [x19, #4]
    656c:	52800c01 	mov	w1, #0x60                  	// #96
    6570:	f94046c3 	ldr	x3, [x22, #136]
    6574:	9ba17c40 	umull	x0, w2, w1
    6578:	8b000063 	add	x3, x3, x0
    657c:	528160a0 	mov	w0, #0xb05                 	// #2821
    6580:	33103c00 	bfi	w0, w0, #16, #16
    6584:	b9003c60 	str	w0, [x3, #60]
    6588:	52803580 	mov	w0, #0x1ac                 	// #428
    658c:	72a62000 	movk	w0, #0x3100, lsl #16
    6590:	1b010041 	madd	w1, w2, w1, w0
    6594:	528160a0 	mov	w0, #0xb05                 	// #2821
    6598:	33103c00 	bfi	w0, w0, #16, #16
    659c:	b9000020 	str	w0, [x1]
    65a0:	1400002c 	b	0x6650
    65a4:	97ffea4f 	bl	0xee0
    65a8:	52800041 	mov	w1, #0x2                   	// #2
    65ac:	52800aa2 	mov	w2, #0x55                  	// #85
    65b0:	52800160 	mov	w0, #0xb                   	// #11
    65b4:	97ffee54 	bl	0x1f04
    65b8:	52800041 	mov	w1, #0x2                   	// #2
    65bc:	528006a2 	mov	w2, #0x35                  	// #53
    65c0:	528002c0 	mov	w0, #0x16                  	// #22
    65c4:	97ffee50 	bl	0x1f04
    65c8:	52800041 	mov	w1, #0x2                   	// #2
    65cc:	2a1703e2 	mov	w2, w23
    65d0:	528001c0 	mov	w0, #0xe                   	// #14
    65d4:	97ffee4c 	bl	0x1f04
    65d8:	52802180 	mov	w0, #0x10c                 	// #268
    65dc:	52800181 	mov	w1, #0xc                   	// #12
    65e0:	2a1403e2 	mov	w2, w20
    65e4:	2a1403e3 	mov	w3, w20
    65e8:	72a62000 	movk	w0, #0x3100, lsl #16
    65ec:	97ffea3d 	bl	0xee0
    65f0:	b9400662 	ldr	w2, [x19, #4]
    65f4:	52800c00 	mov	w0, #0x60                  	// #96
    65f8:	f94046c3 	ldr	x3, [x22, #136]
    65fc:	9ba07c41 	umull	x1, w2, w0
    6600:	8b010063 	add	x3, x3, x1
    6604:	52816aa1 	mov	w1, #0xb55                 	// #2901
    6608:	33103c21 	bfi	w1, w1, #16, #16
    660c:	b9003c61 	str	w1, [x3, #60]
    6610:	5281cba1 	mov	w1, #0xe5d                 	// #3677
    6614:	72a2c6a1 	movk	w1, #0x1635, lsl #16
    6618:	b9004061 	str	w1, [x3, #64]
    661c:	52803581 	mov	w1, #0x1ac                 	// #428
    6620:	72a62001 	movk	w1, #0x3100, lsl #16
    6624:	1b000442 	madd	w2, w2, w0, w1
    6628:	52816aa1 	mov	w1, #0xb55                 	// #2901
    662c:	33103c21 	bfi	w1, w1, #16, #16
    6630:	b9000041 	str	w1, [x2]
    6634:	52803601 	mov	w1, #0x1b0                 	// #432
    6638:	b9400662 	ldr	w2, [x19, #4]
    663c:	72a62001 	movk	w1, #0x3100, lsl #16
    6640:	1b000440 	madd	w0, w2, w0, w1
    6644:	5281cba1 	mov	w1, #0xe5d                 	// #3677
    6648:	72a2c6a1 	movk	w1, #0x1635, lsl #16
    664c:	b9000001 	str	w1, [x0]
    6650:	9103e2b5 	add	x21, x21, #0xf8
    6654:	b94012a0 	ldr	w0, [x21, #16]
    6658:	7100041f 	cmp	w0, #0x1
    665c:	54000341 	b.ne	0x66c4  // b.any
    6660:	b94006a2 	ldr	w2, [x21, #4]
    6664:	52821e80 	mov	w0, #0x10f4                	// #4340
    6668:	52801801 	mov	w1, #0xc0                  	// #192
    666c:	72a62000 	movk	w0, #0x3100, lsl #16
    6670:	1b010040 	madd	w0, w2, w1, w0
    6674:	2a0003e1 	mov	w1, w0
    6678:	528a0cc0 	mov	w0, #0x5066                	// #20582
    667c:	72a468c0 	movk	w0, #0x2346, lsl #16
    6680:	14000010 	b	0x66c0
    6684:	b9401001 	ldr	w1, [x0, #16]
    6688:	7100043f 	cmp	w1, #0x1
    668c:	540001c1 	b.ne	0x66c4  // b.any
    6690:	d0000041 	adrp	x1, 0x10000
    6694:	b9409021 	ldr	w1, [x1, #144]
    6698:	7101003f 	cmp	w1, #0x40
    669c:	54000141 	b.ne	0x66c4  // b.any
    66a0:	b9400402 	ldr	w2, [x0, #4]
    66a4:	52821e80 	mov	w0, #0x10f4                	// #4340
    66a8:	52801801 	mov	w1, #0xc0                  	// #192
    66ac:	72a62000 	movk	w0, #0x3100, lsl #16
    66b0:	1b010040 	madd	w0, w2, w1, w0
    66b4:	2a0003e1 	mov	w1, w0
    66b8:	528a0cc0 	mov	w0, #0x5066                	// #20582
    66bc:	72a508c0 	movk	w0, #0x2846, lsl #16
    66c0:	b9000020 	str	w0, [x1]
    66c4:	a94153f3 	ldp	x19, x20, [sp, #16]
    66c8:	a9425bf5 	ldp	x21, x22, [sp, #32]
    66cc:	f9401bf7 	ldr	x23, [sp, #48]
    66d0:	a8c47bfd 	ldp	x29, x30, [sp], #64
    66d4:	d65f03c0 	ret
    66d8:	d0000042 	adrp	x2, 0x10000
    66dc:	52801201 	mov	w1, #0x90                  	// #144
    66e0:	f9404042 	ldr	x2, [x2, #128]
    66e4:	9ba17c01 	umull	x1, w0, w1
    66e8:	8b010041 	add	x1, x2, x1
    66ec:	d0000042 	adrp	x2, 0x10000
    66f0:	9103e042 	add	x2, x2, #0xf8
    66f4:	b9403443 	ldr	w3, [x2, #52]
    66f8:	b9403042 	ldr	w2, [x2, #48]
    66fc:	0b020063 	add	w3, w3, w2
    6700:	b9408c22 	ldr	w2, [x1, #140]
    6704:	53017c63 	lsr	w3, w3, #1
    6708:	12005c42 	and	w2, w2, #0xffffff
    670c:	2a036042 	orr	w2, w2, w3, lsl #24
    6710:	b9008c22 	str	w2, [x1, #140]
    6714:	52821e81 	mov	w1, #0x10f4                	// #4340
    6718:	72a62001 	movk	w1, #0x3100, lsl #16
    671c:	52801802 	mov	w2, #0xc0                  	// #192
    6720:	1b020400 	madd	w0, w0, w2, w1
    6724:	52800301 	mov	w1, #0x18                  	// #24
    6728:	52800102 	mov	w2, #0x8                   	// #8
    672c:	17ffe9ed 	b	0xee0
    6730:	d0000042 	adrp	x2, 0x10000
    6734:	52800c03 	mov	w3, #0x60                  	// #96
    6738:	d0000044 	adrp	x4, 0x10000
    673c:	9ba37c01 	umull	x1, w0, w3
    6740:	f9404442 	ldr	x2, [x2, #136]
    6744:	9103e084 	add	x4, x4, #0xf8
    6748:	8b010042 	add	x2, x2, x1
    674c:	b9404085 	ldr	w5, [x4, #64]
    6750:	b9403c81 	ldr	w1, [x4, #60]
    6754:	b9404044 	ldr	w4, [x2, #64]
    6758:	0b0100a1 	add	w1, w5, w1
    675c:	12185c84 	and	w4, w4, #0xffffff00
    6760:	2a410481 	orr	w1, w4, w1, lsr #1
    6764:	b9004041 	str	w1, [x2, #64]
    6768:	52803602 	mov	w2, #0x1b0                 	// #432
    676c:	72a62002 	movk	w2, #0x3100, lsl #16
    6770:	1b030802 	madd	w2, w0, w3, w2
    6774:	b9000041 	str	w1, [x2]
    6778:	d65f03c0 	ret
    677c:	a9bb7bfd 	stp	x29, x30, [sp, #-80]!
    6780:	d2800c00 	mov	x0, #0x60                  	// #96
    6784:	910003fd 	mov	x29, sp
    6788:	a90153f3 	stp	x19, x20, [sp, #16]
    678c:	910143b3 	add	x19, x29, #0x50
    6790:	f2a62000 	movk	x0, #0x3100, lsl #16
    6794:	a9025bf5 	stp	x21, x22, [sp, #32]
    6798:	f9001bf7 	str	x23, [sp, #48]
    679c:	b81fce7f 	str	wzr, [x19, #-4]!
    67a0:	52807fe1 	mov	w1, #0x3ff                 	// #1023
    67a4:	b9000001 	str	w1, [x0]
    67a8:	52800000 	mov	w0, #0x0                   	// #0
    67ac:	2a0003e1 	mov	w1, w0
    67b0:	d0000056 	adrp	x22, 0x10000
    67b4:	97fff63c 	bl	0x40a4
    67b8:	97fffef0 	bl	0x6378
    67bc:	52800020 	mov	w0, #0x1                   	// #1
    67c0:	9103e2d4 	add	x20, x22, #0xf8
    67c4:	97fff8ad 	bl	0x4a78
    67c8:	52800001 	mov	w1, #0x0                   	// #0
    67cc:	52800020 	mov	w0, #0x1                   	// #1
    67d0:	52800015 	mov	w21, #0x0                   	// #0
    67d4:	97fff634 	bl	0x40a4
    67d8:	97fffee8 	bl	0x6378
    67dc:	52800020 	mov	w0, #0x1                   	// #1
    67e0:	52800037 	mov	w23, #0x1                   	// #1
    67e4:	97fff8a5 	bl	0x4a78
    67e8:	b9400680 	ldr	w0, [x20, #4]
    67ec:	d0000042 	adrp	x2, 0x10000
    67f0:	52800c03 	mov	w3, #0x60                  	// #96
    67f4:	b9402a84 	ldr	w4, [x20, #40]
    67f8:	9ba37c01 	umull	x1, w0, w3
    67fc:	f9404442 	ldr	x2, [x2, #136]
    6800:	8b010042 	add	x2, x2, x1
    6804:	b9402681 	ldr	w1, [x20, #36]
    6808:	0b010081 	add	w1, w4, w1
    680c:	b9404844 	ldr	w4, [x2, #72]
    6810:	12185c84 	and	w4, w4, #0xffffff00
    6814:	2a410481 	orr	w1, w4, w1, lsr #1
    6818:	b9004841 	str	w1, [x2, #72]
    681c:	52803702 	mov	w2, #0x1b8                 	// #440
    6820:	72a62002 	movk	w2, #0x3100, lsl #16
    6824:	1b030800 	madd	w0, w0, w3, w2
    6828:	b9000001 	str	w1, [x0]
    682c:	2a1503e0 	mov	w0, w21
    6830:	52800001 	mov	w1, #0x0                   	// #0
    6834:	110006b5 	add	w21, w21, #0x1
    6838:	97fff61b 	bl	0x40a4
    683c:	b9401283 	ldr	w3, [x20, #16]
    6840:	52802000 	mov	w0, #0x100                 	// #256
    6844:	1ac322e3 	lsl	w3, w23, w3
    6848:	52800281 	mov	w1, #0x14                  	// #20
    684c:	52800082 	mov	w2, #0x4                   	// #4
    6850:	72a62000 	movk	w0, #0x3100, lsl #16
    6854:	97ffe9a3 	bl	0xee0
    6858:	b9402680 	ldr	w0, [x20, #36]
    685c:	b9402a82 	ldr	w2, [x20, #40]
    6860:	52800041 	mov	w1, #0x2                   	// #2
    6864:	0b000042 	add	w2, w2, w0
    6868:	53017c42 	lsr	w2, w2, #1
    686c:	52800180 	mov	w0, #0xc                   	// #12
    6870:	97ffeda5 	bl	0x1f04
    6874:	52800020 	mov	w0, #0x1                   	// #1
    6878:	97fffefe 	bl	0x6470
    687c:	aa1303e0 	mov	x0, x19
    6880:	97fff96d 	bl	0x4e34
    6884:	52800040 	mov	w0, #0x2                   	// #2
    6888:	97fff87c 	bl	0x4a78
    688c:	52800040 	mov	w0, #0x2                   	// #2
    6890:	97fffef8 	bl	0x6470
    6894:	71000abf 	cmp	w21, #0x2
    6898:	54fffca1 	b.ne	0x682c  // b.any
    689c:	b9400680 	ldr	w0, [x20, #4]
    68a0:	52820c01 	mov	w1, #0x1060                	// #4192
    68a4:	72a62001 	movk	w1, #0x3100, lsl #16
    68a8:	52801802 	mov	w2, #0xc0                  	// #192
    68ac:	52800003 	mov	w3, #0x0                   	// #0
    68b0:	1b020400 	madd	w0, w0, w2, w1
    68b4:	52800081 	mov	w1, #0x4                   	// #4
    68b8:	2a0103e2 	mov	w2, w1
    68bc:	97ffe989 	bl	0xee0
    68c0:	97fff394 	bl	0x3710
    68c4:	52800000 	mov	w0, #0x0                   	// #0
    68c8:	2a0003e1 	mov	w1, w0
    68cc:	97fff5f6 	bl	0x40a4
    68d0:	52800020 	mov	w0, #0x1                   	// #1
    68d4:	97fff9df 	bl	0x5050
    68d8:	52800001 	mov	w1, #0x0                   	// #0
    68dc:	52800020 	mov	w0, #0x1                   	// #1
    68e0:	97fff5f1 	bl	0x40a4
    68e4:	52800020 	mov	w0, #0x1                   	// #1
    68e8:	97fff9da 	bl	0x5050
    68ec:	b9400680 	ldr	w0, [x20, #4]
    68f0:	97ffff7a 	bl	0x66d8
    68f4:	b9400680 	ldr	w0, [x20, #4]
    68f8:	7100081f 	cmp	w0, #0x2
    68fc:	540000a1 	b.ne	0x6910  // b.any
    6900:	52800000 	mov	w0, #0x0                   	// #0
    6904:	97ffff75 	bl	0x66d8
    6908:	52800020 	mov	w0, #0x1                   	// #1
    690c:	97ffff73 	bl	0x66d8
    6910:	52800000 	mov	w0, #0x0                   	// #0
    6914:	2a0003e1 	mov	w1, w0
    6918:	52800014 	mov	w20, #0x0                   	// #0
    691c:	97fff5e2 	bl	0x40a4
    6920:	aa1303e0 	mov	x0, x19
    6924:	9103e2d5 	add	x21, x22, #0xf8
    6928:	97fffdbd 	bl	0x601c
    692c:	52800040 	mov	w0, #0x2                   	// #2
    6930:	b0000057 	adrp	x23, 0xf000
    6934:	97fff9c7 	bl	0x5050
    6938:	52800001 	mov	w1, #0x0                   	// #0
    693c:	52800020 	mov	w0, #0x1                   	// #1
    6940:	97fff5d9 	bl	0x40a4
    6944:	aa1303e0 	mov	x0, x19
    6948:	97fffdb5 	bl	0x601c
    694c:	52800040 	mov	w0, #0x2                   	// #2
    6950:	97fff9c0 	bl	0x5050
    6954:	52800040 	mov	w0, #0x2                   	// #2
    6958:	97fff381 	bl	0x375c
    695c:	52800000 	mov	w0, #0x0                   	// #0
    6960:	2a0003e1 	mov	w1, w0
    6964:	97fff5d0 	bl	0x40a4
    6968:	97fffc17 	bl	0x59c4
    696c:	52800000 	mov	w0, #0x0                   	// #0
    6970:	2a0003e1 	mov	w1, w0
    6974:	97fff5cc 	bl	0x40a4
    6978:	52800020 	mov	w0, #0x1                   	// #1
    697c:	97fffaeb 	bl	0x5528
    6980:	52800020 	mov	w0, #0x1                   	// #1
    6984:	52800001 	mov	w1, #0x0                   	// #0
    6988:	97fff5c7 	bl	0x40a4
    698c:	97fffc0e 	bl	0x59c4
    6990:	52800020 	mov	w0, #0x1                   	// #1
    6994:	52800001 	mov	w1, #0x0                   	// #0
    6998:	97fff5c3 	bl	0x40a4
    699c:	52800020 	mov	w0, #0x1                   	// #1
    69a0:	97fffae2 	bl	0x5528
    69a4:	2a1403e0 	mov	w0, w20
    69a8:	52800001 	mov	w1, #0x0                   	// #0
    69ac:	97fff5be 	bl	0x40a4
    69b0:	b94042a1 	ldr	w1, [x21, #64]
    69b4:	b9403ea0 	ldr	w0, [x21, #60]
    69b8:	0b000020 	add	w0, w1, w0
    69bc:	53017c00 	lsr	w0, w0, #1
    69c0:	97fffa95 	bl	0x5414
    69c4:	b94006a0 	ldr	w0, [x21, #4]
    69c8:	97ffff5a 	bl	0x6730
    69cc:	b94006a0 	ldr	w0, [x21, #4]
    69d0:	7100081f 	cmp	w0, #0x2
    69d4:	540000a1 	b.ne	0x69e8  // b.any
    69d8:	52800000 	mov	w0, #0x0                   	// #0
    69dc:	97ffff55 	bl	0x6730
    69e0:	52800020 	mov	w0, #0x1                   	// #1
    69e4:	97ffff53 	bl	0x6730
    69e8:	aa1303e0 	mov	x0, x19
    69ec:	97fffdc1 	bl	0x60f0
    69f0:	52800040 	mov	w0, #0x2                   	// #2
    69f4:	97fffacd 	bl	0x5528
    69f8:	910242e0 	add	x0, x23, #0x90
    69fc:	b9401400 	ldr	w0, [x0, #20]
    6a00:	7100081f 	cmp	w0, #0x2
    6a04:	540000e1 	b.ne	0x6a20  // b.any
    6a08:	2a1403e0 	mov	w0, w20
    6a0c:	52800021 	mov	w1, #0x1                   	// #1
    6a10:	97fff5a5 	bl	0x40a4
    6a14:	aa1303e0 	mov	x0, x19
    6a18:	97fffdb6 	bl	0x60f0
    6a1c:	97fffded 	bl	0x61d0
    6a20:	11000694 	add	w20, w20, #0x1
    6a24:	71000a9f 	cmp	w20, #0x2
    6a28:	54fffbe1 	b.ne	0x69a4  // b.any
    6a2c:	9103e2d6 	add	x22, x22, #0xf8
    6a30:	52820c01 	mov	w1, #0x1060                	// #4192
    6a34:	72a62001 	movk	w1, #0x3100, lsl #16
    6a38:	b94006c2 	ldr	w2, [x22, #4]
    6a3c:	52801800 	mov	w0, #0xc0                  	// #192
    6a40:	528001e3 	mov	w3, #0xf                   	// #15
    6a44:	1b000440 	madd	w0, w2, w0, w1
    6a48:	52800081 	mov	w1, #0x4                   	// #4
    6a4c:	2a0103e2 	mov	w2, w1
    6a50:	97ffe924 	bl	0xee0
    6a54:	a94153f3 	ldp	x19, x20, [sp, #16]
    6a58:	a9425bf5 	ldp	x21, x22, [sp, #32]
    6a5c:	f9401bf7 	ldr	x23, [sp, #48]
    6a60:	a8c57bfd 	ldp	x29, x30, [sp], #80
    6a64:	d65f03c0 	ret
    6a68:	b0000040 	adrp	x0, 0xf000
    6a6c:	a9be7bfd 	stp	x29, x30, [sp, #-32]!
    6a70:	91024000 	add	x0, x0, #0x90
    6a74:	910003fd 	mov	x29, sp
    6a78:	a90153f3 	stp	x19, x20, [sp, #16]
    6a7c:	f9401013 	ldr	x19, [x0, #32]
    6a80:	f9400c00 	ldr	x0, [x0, #24]
    6a84:	52820001 	mov	w1, #0x1000                	// #4096
    6a88:	0b000273 	add	w19, w19, w0
    6a8c:	52800000 	mov	w0, #0x0                   	// #0
    6a90:	94000636 	bl	0x8368
    6a94:	51000661 	sub	w1, w19, #0x1
    6a98:	2a0003f4 	mov	w20, w0
    6a9c:	51400660 	sub	w0, w19, #0x1, lsl #12
    6aa0:	94000632 	bl	0x8368
    6aa4:	6b1f029f 	cmp	w20, wzr
    6aa8:	1a9f07e1 	cset	w1, ne  // ne = any
    6aac:	6b1f001f 	cmp	w0, wzr
    6ab0:	52800040 	mov	w0, #0x2                   	// #2
    6ab4:	1a9f1000 	csel	w0, w0, wzr, ne  // ne = any
    6ab8:	2a010000 	orr	w0, w0, w1
    6abc:	a94153f3 	ldp	x19, x20, [sp, #16]
    6ac0:	a8c27bfd 	ldp	x29, x30, [sp], #32
    6ac4:	d65f03c0 	ret
    6ac8:	a9b97bfd 	stp	x29, x30, [sp, #-112]!
    6acc:	52800c81 	mov	w1, #0x64                  	// #100
    6ad0:	910003fd 	mov	x29, sp
    6ad4:	a90153f3 	stp	x19, x20, [sp, #16]
    6ad8:	b9005ba1 	str	w1, [x29, #88]
    6adc:	52800d01 	mov	w1, #0x68                  	// #104
    6ae0:	b9005fa1 	str	w1, [x29, #92]
    6ae4:	52800d81 	mov	w1, #0x6c                  	// #108
    6ae8:	b90063a1 	str	w1, [x29, #96]
    6aec:	52801181 	mov	w1, #0x8c                  	// #140
    6af0:	b0000054 	adrp	x20, 0xf000
    6af4:	b90067a1 	str	w1, [x29, #100]
    6af8:	52801581 	mov	w1, #0xac                  	// #172
    6afc:	9103e293 	add	x19, x20, #0xf8
    6b00:	b9006ba1 	str	w1, [x29, #104]
    6b04:	52801981 	mov	w1, #0xcc                  	// #204
    6b08:	b9006fa1 	str	w1, [x29, #108]
    6b0c:	aa1303e1 	mov	x1, x19
    6b10:	a9025bf5 	stp	x21, x22, [sp, #32]
    6b14:	a90363f7 	stp	x23, x24, [sp, #48]
    6b18:	f90023f9 	str	x25, [sp, #64]
    6b1c:	b8004420 	str	w0, [x1], #4
    6b20:	2a0003f5 	mov	w21, w0
    6b24:	97ffea72 	bl	0x14ec
    6b28:	97fff320 	bl	0x37a8
    6b2c:	2a1503e0 	mov	w0, w21
    6b30:	97fff378 	bl	0x3910
    6b34:	b9400660 	ldr	w0, [x19, #4]
    6b38:	97fff381 	bl	0x393c
    6b3c:	b9400660 	ldr	w0, [x19, #4]
    6b40:	97ffef84 	bl	0x2950
    6b44:	b9400660 	ldr	w0, [x19, #4]
    6b48:	97fff37d 	bl	0x393c
    6b4c:	52800022 	mov	w2, #0x1                   	// #1
    6b50:	52802a80 	mov	w0, #0x154                 	// #340
    6b54:	52800001 	mov	w1, #0x0                   	// #0
    6b58:	2a0203e3 	mov	w3, w2
    6b5c:	72a62000 	movk	w0, #0x3100, lsl #16
    6b60:	97ffe8e0 	bl	0xee0
    6b64:	97fff432 	bl	0x3c2c
    6b68:	97fff520 	bl	0x3fe8
    6b6c:	b0000040 	adrp	x0, 0xf000
    6b70:	aa0003f3 	mov	x19, x0
    6b74:	b9409001 	ldr	w1, [x0, #144]
    6b78:	7100c03f 	cmp	w1, #0x30
    6b7c:	54000061 	b.ne	0x6b88  // b.any
    6b80:	97fff608 	bl	0x43a0
    6b84:	14000003 	b	0x6b90
    6b88:	97fff797 	bl	0x49e4
    6b8c:	97fffefc 	bl	0x677c
    6b90:	97fff4bf 	bl	0x3e8c
    6b94:	b9409260 	ldr	w0, [x19, #144]
    6b98:	7100c01f 	cmp	w0, #0x30
    6b9c:	9103e280 	add	x0, x20, #0xf8
    6ba0:	b9400000 	ldr	w0, [x0]
    6ba4:	540000c1 	b.ne	0x6bbc  // b.any
    6ba8:	710c001f 	cmp	w0, #0x300
    6bac:	54001120 	b.eq	0x6dd0  // b.none
    6bb0:	7109b81f 	cmp	w0, #0x26e
    6bb4:	540010e0 	b.eq	0x6dd0  // b.none
    6bb8:	1400001f 	b	0x6c34
    6bbc:	7114d41f 	cmp	w0, #0x535
    6bc0:	54000060 	b.eq	0x6bcc  // b.none
    6bc4:	7118001f 	cmp	w0, #0x600
    6bc8:	54000361 	b.ne	0x6c34  // b.any
    6bcc:	9103e280 	add	x0, x20, #0xf8
    6bd0:	52801801 	mov	w1, #0xc0                  	// #192
    6bd4:	52820c83 	mov	w3, #0x1064                	// #4196
    6bd8:	b9400402 	ldr	w2, [x0, #4]
    6bdc:	72a62003 	movk	w3, #0x3100, lsl #16
    6be0:	11000442 	add	w2, w2, #0x1
    6be4:	1b017c42 	mul	w2, w2, w1
    6be8:	0b030043 	add	w3, w2, w3
    6bec:	51030044 	sub	w4, w2, #0xc0
    6bf0:	52820c82 	mov	w2, #0x1064                	// #4196
    6bf4:	72a62002 	movk	w2, #0x3100, lsl #16
    6bf8:	0b020082 	add	w2, w4, w2
    6bfc:	b9400042 	ldr	w2, [x2]
    6c00:	b9000062 	str	w2, [x3]
    6c04:	b9400400 	ldr	w0, [x0, #4]
    6c08:	11000400 	add	w0, w0, #0x1
    6c0c:	1b017c00 	mul	w0, w0, w1
    6c10:	52820d01 	mov	w1, #0x1068                	// #4200
    6c14:	72a62001 	movk	w1, #0x3100, lsl #16
    6c18:	0b010001 	add	w1, w0, w1
    6c1c:	51030002 	sub	w2, w0, #0xc0
    6c20:	52820d00 	mov	w0, #0x1068                	// #4200
    6c24:	72a62000 	movk	w0, #0x3100, lsl #16
    6c28:	0b000040 	add	w0, w2, w0
    6c2c:	b9400000 	ldr	w0, [x0]
    6c30:	b9000020 	str	w0, [x1]
    6c34:	52800022 	mov	w2, #0x1                   	// #1
    6c38:	52802080 	mov	w0, #0x104                 	// #260
    6c3c:	2a0203e3 	mov	w3, w2
    6c40:	528003e1 	mov	w1, #0x1f                  	// #31
    6c44:	72a62000 	movk	w0, #0x3100, lsl #16
    6c48:	52800013 	mov	w19, #0x0                   	// #0
    6c4c:	97ffe8a5 	bl	0xee0
    6c50:	52802180 	mov	w0, #0x10c                 	// #268
    6c54:	52800003 	mov	w3, #0x0                   	// #0
    6c58:	52800181 	mov	w1, #0xc                   	// #12
    6c5c:	52800022 	mov	w2, #0x1                   	// #1
    6c60:	72a62000 	movk	w0, #0x3100, lsl #16
    6c64:	9103e297 	add	x23, x20, #0xf8
    6c68:	97ffe89e 	bl	0xee0
    6c6c:	52800041 	mov	w1, #0x2                   	// #2
    6c70:	52800802 	mov	w2, #0x40                  	// #64
    6c74:	528001a0 	mov	w0, #0xd                   	// #13
    6c78:	52801818 	mov	w24, #0xc0                  	// #192
    6c7c:	97ffeca2 	bl	0x1f04
    6c80:	52800022 	mov	w2, #0x1                   	// #1
    6c84:	52802180 	mov	w0, #0x10c                 	// #268
    6c88:	2a0203e3 	mov	w3, w2
    6c8c:	52800181 	mov	w1, #0xc                   	// #12
    6c90:	72a62000 	movk	w0, #0x3100, lsl #16
    6c94:	97ffe893 	bl	0xee0
    6c98:	52800001 	mov	w1, #0x0                   	// #0
    6c9c:	52802a80 	mov	w0, #0x154                 	// #340
    6ca0:	52800022 	mov	w2, #0x1                   	// #1
    6ca4:	2a0103e3 	mov	w3, w1
    6ca8:	72a62000 	movk	w0, #0x3100, lsl #16
    6cac:	97ffe88d 	bl	0xee0
    6cb0:	b0000041 	adrp	x1, 0xf000
    6cb4:	9103c022 	add	x2, x1, #0xf0
    6cb8:	52800020 	mov	w0, #0x1                   	// #1
    6cbc:	aa0103f6 	mov	x22, x1
    6cc0:	b9000040 	str	w0, [x2]
    6cc4:	2a0003f9 	mov	w25, w0
    6cc8:	b94006e2 	ldr	w2, [x23, #4]
    6ccc:	52820b00 	mov	w0, #0x1058                	// #4184
    6cd0:	72a62000 	movk	w0, #0x3100, lsl #16
    6cd4:	52800001 	mov	w1, #0x0                   	// #0
    6cd8:	1b180040 	madd	w0, w2, w24, w0
    6cdc:	1ad32323 	lsl	w3, w25, w19
    6ce0:	52800202 	mov	w2, #0x10                  	// #16
    6ce4:	97ffe87f 	bl	0xee0
    6ce8:	97ffff60 	bl	0x6a68
    6cec:	340000a0 	cbz	w0, 0x6d00
    6cf0:	11000673 	add	w19, w19, #0x1
    6cf4:	7100427f 	cmp	w19, #0x10
    6cf8:	54fffe81 	b.ne	0x6cc8  // b.any
    6cfc:	52801ff3 	mov	w19, #0xff                  	// #255
    6d00:	9103c2d6 	add	x22, x22, #0xf0
    6d04:	7103fe7f 	cmp	w19, #0xff
    6d08:	b90002df 	str	wzr, [x22]
    6d0c:	54000041 	b.ne	0x6d14  // b.any
    6d10:	14000000 	b	0x6d10
    6d14:	9103e280 	add	x0, x20, #0xf8
    6d18:	52820b01 	mov	w1, #0x1058                	// #4184
    6d1c:	72a62001 	movk	w1, #0x3100, lsl #16
    6d20:	b9400402 	ldr	w2, [x0, #4]
    6d24:	710e96bf 	cmp	w21, #0x3a5
    6d28:	52801800 	mov	w0, #0xc0                  	// #192
    6d2c:	11000a63 	add	w3, w19, #0x2
    6d30:	1b000440 	madd	w0, w2, w0, w1
    6d34:	52800021 	mov	w1, #0x1                   	// #1
    6d38:	54000048 	b.hi	0x6d40  // b.pmore
    6d3c:	0b010263 	add	w3, w19, w1
    6d40:	1ac32023 	lsl	w3, w1, w3
    6d44:	52800202 	mov	w2, #0x10                  	// #16
    6d48:	52800001 	mov	w1, #0x0                   	// #0
    6d4c:	9103e294 	add	x20, x20, #0xf8
    6d50:	97ffe864 	bl	0xee0
    6d54:	b9400680 	ldr	w0, [x20, #4]
    6d58:	7100081f 	cmp	w0, #0x2
    6d5c:	54000681 	b.ne	0x6e2c  // b.any
    6d60:	710e96bf 	cmp	w21, #0x3a5
    6d64:	11000a63 	add	w3, w19, #0x2
    6d68:	52800020 	mov	w0, #0x1                   	// #1
    6d6c:	54000048 	b.hi	0x6d74  // b.pmore
    6d70:	0b000263 	add	w3, w19, w0
    6d74:	1ac32003 	lsl	w3, w0, w3
    6d78:	52820b00 	mov	w0, #0x1058                	// #4184
    6d7c:	72a62000 	movk	w0, #0x3100, lsl #16
    6d80:	52800001 	mov	w1, #0x0                   	// #0
    6d84:	52800202 	mov	w2, #0x10                  	// #16
    6d88:	97ffe856 	bl	0xee0
    6d8c:	710e96bf 	cmp	w21, #0x3a5
    6d90:	52800020 	mov	w0, #0x1                   	// #1
    6d94:	54000068 	b.hi	0x6da0  // b.pmore
    6d98:	0b000273 	add	w19, w19, w0
    6d9c:	14000002 	b	0x6da4
    6da0:	11000a73 	add	w19, w19, #0x2
    6da4:	1ad32003 	lsl	w3, w0, w19
    6da8:	a9425bf5 	ldp	x21, x22, [sp, #32]
    6dac:	a94153f3 	ldp	x19, x20, [sp, #16]
    6db0:	a94363f7 	ldp	x23, x24, [sp, #48]
    6db4:	f94023f9 	ldr	x25, [sp, #64]
    6db8:	52822300 	mov	w0, #0x1118                	// #4376
    6dbc:	a8c77bfd 	ldp	x29, x30, [sp], #112
    6dc0:	72a62000 	movk	w0, #0x3100, lsl #16
    6dc4:	52800001 	mov	w1, #0x0                   	// #0
    6dc8:	52800202 	mov	w2, #0x10                  	// #16
    6dcc:	17ffe845 	b	0xee0
    6dd0:	d2800000 	mov	x0, #0x0                   	// #0
    6dd4:	9103e285 	add	x5, x20, #0xf8
    6dd8:	52801804 	mov	w4, #0xc0                  	// #192
    6ddc:	b94004a2 	ldr	w2, [x5, #4]
    6de0:	910163a1 	add	x1, x29, #0x58
    6de4:	11000442 	add	w2, w2, #0x1
    6de8:	52820003 	mov	w3, #0x1000                	// #4096
    6dec:	1b047c42 	mul	w2, w2, w4
    6df0:	72a62003 	movk	w3, #0x3100, lsl #16
    6df4:	0b030043 	add	w3, w2, w3
    6df8:	51030046 	sub	w6, w2, #0xc0
    6dfc:	52820002 	mov	w2, #0x1000                	// #4096
    6e00:	b8616801 	ldr	w1, [x0, x1]
    6e04:	72a62002 	movk	w2, #0x3100, lsl #16
    6e08:	0b0200c2 	add	w2, w6, w2
    6e0c:	0b010063 	add	w3, w3, w1
    6e10:	0b010041 	add	w1, w2, w1
    6e14:	91001000 	add	x0, x0, #0x4
    6e18:	f100601f 	cmp	x0, #0x18
    6e1c:	b9400021 	ldr	w1, [x1]
    6e20:	b9000061 	str	w1, [x3]
    6e24:	54fffdc1 	b.ne	0x6ddc  // b.any
    6e28:	17ffff83 	b	0x6c34
    6e2c:	a94153f3 	ldp	x19, x20, [sp, #16]
    6e30:	a9425bf5 	ldp	x21, x22, [sp, #32]
    6e34:	a94363f7 	ldp	x23, x24, [sp, #48]
    6e38:	f94023f9 	ldr	x25, [sp, #64]
    6e3c:	a8c77bfd 	ldp	x29, x30, [sp], #112
    6e40:	d65f03c0 	ret
    6e44:	a9bd7bfd 	stp	x29, x30, [sp, #-48]!
    6e48:	910003fd 	mov	x29, sp
    6e4c:	f9000bf3 	str	x19, [sp, #16]
    6e50:	b90027bf 	str	wzr, [x29, #36]
    6e54:	2a0003f3 	mov	w19, w0
    6e58:	b9002bbf 	str	wzr, [x29, #40]
    6e5c:	b9002fbf 	str	wzr, [x29, #44]
    6e60:	97ffe9f9 	bl	0x1644
    6e64:	2a1303e1 	mov	w1, w19
    6e68:	910093a2 	add	x2, x29, #0x24
    6e6c:	528000a0 	mov	w0, #0x5                   	// #5
    6e70:	97ffecbc 	bl	0x2160
    6e74:	97ffe9f4 	bl	0x1644
    6e78:	2a1303e1 	mov	w1, w19
    6e7c:	9100a3a2 	add	x2, x29, #0x28
    6e80:	528000c0 	mov	w0, #0x6                   	// #6
    6e84:	97ffecb7 	bl	0x2160
    6e88:	97ffe9ef 	bl	0x1644
    6e8c:	2a1303e1 	mov	w1, w19
    6e90:	9100b3a2 	add	x2, x29, #0x2c
    6e94:	528000e0 	mov	w0, #0x7                   	// #7
    6e98:	97ffecb2 	bl	0x2160
    6e9c:	b94027a1 	ldr	w1, [x29, #36]
    6ea0:	b0000040 	adrp	x0, 0xf000
    6ea4:	b9402fa2 	ldr	w2, [x29, #44]
    6ea8:	b9402ba3 	ldr	w3, [x29, #40]
    6eac:	91024000 	add	x0, x0, #0x90
    6eb0:	12001c24 	and	w4, w1, #0xff
    6eb4:	35000153 	cbnz	w19, 0x6edc
    6eb8:	b9402805 	ldr	w5, [x0, #40]
    6ebc:	53101c46 	ubfiz	w6, w2, #16, #8
    6ec0:	12081ca5 	and	w5, w5, #0xff000000
    6ec4:	2a050084 	orr	w4, w4, w5
    6ec8:	2a060084 	orr	w4, w4, w6
    6ecc:	53181c66 	ubfiz	w6, w3, #8, #8
    6ed0:	2a060084 	orr	w4, w4, w6
    6ed4:	b9002804 	str	w4, [x0, #40]
    6ed8:	14000009 	b	0x6efc
    6edc:	b9402c05 	ldr	w5, [x0, #44]
    6ee0:	53101c46 	ubfiz	w6, w2, #16, #8
    6ee4:	12081ca5 	and	w5, w5, #0xff000000
    6ee8:	2a050084 	orr	w4, w4, w5
    6eec:	2a060084 	orr	w4, w4, w6
    6ef0:	53181c66 	ubfiz	w6, w3, #8, #8
    6ef4:	2a060084 	orr	w4, w4, w6
    6ef8:	b9002c04 	str	w4, [x0, #44]
    6efc:	6b03003f 	cmp	w1, w3
    6f00:	52800020 	mov	w0, #0x1                   	// #1
    6f04:	54000061 	b.ne	0x6f10  // b.any
    6f08:	6b02003f 	cmp	w1, w2
    6f0c:	1a9f07e0 	cset	w0, ne  // ne = any
    6f10:	f9400bf3 	ldr	x19, [sp, #16]
    6f14:	a8c37bfd 	ldp	x29, x30, [sp], #48
    6f18:	d65f03c0 	ret
    6f1c:	a9bd7bfd 	stp	x29, x30, [sp, #-48]!
    6f20:	910003fd 	mov	x29, sp
    6f24:	a90153f3 	stp	x19, x20, [sp, #16]
    6f28:	9100c3b3 	add	x19, x29, #0x30
    6f2c:	b81fce7f 	str	wzr, [x19, #-4]!
    6f30:	97ffe9c5 	bl	0x1644
    6f34:	52800000 	mov	w0, #0x0                   	// #0
    6f38:	2a0003e1 	mov	w1, w0
    6f3c:	aa1303e2 	mov	x2, x19
    6f40:	97ffec88 	bl	0x2160
    6f44:	b9402fa1 	ldr	w1, [x29, #44]
    6f48:	121f0034 	and	w20, w1, #0x2
    6f4c:	37080101 	tbnz	w1, #1, 0x6f6c
    6f50:	97ffe9bd 	bl	0x1644
    6f54:	2a1403e0 	mov	w0, w20
    6f58:	52800021 	mov	w1, #0x1                   	// #1
    6f5c:	aa1303e2 	mov	x2, x19
    6f60:	97ffec80 	bl	0x2160
    6f64:	b9402fa0 	ldr	w0, [x29, #44]
    6f68:	360803a0 	tbz	w0, #1, 0x6fdc
    6f6c:	52802180 	mov	w0, #0x10c                 	// #268
    6f70:	52800102 	mov	w2, #0x8                   	// #8
    6f74:	72a62000 	movk	w0, #0x3100, lsl #16
    6f78:	52800201 	mov	w1, #0x10                  	// #16
    6f7c:	52801fe3 	mov	w3, #0xff                  	// #255
    6f80:	97ffe7d8 	bl	0xee0
    6f84:	b0000040 	adrp	x0, 0xf000
    6f88:	b0000045 	adrp	x5, 0xf000
    6f8c:	52800c02 	mov	w2, #0x60                  	// #96
    6f90:	f9404406 	ldr	x6, [x0, #136]
    6f94:	52800060 	mov	w0, #0x3                   	// #3
    6f98:	910240a1 	add	x1, x5, #0x90
    6f9c:	b9401021 	ldr	w1, [x1, #16]
    6fa0:	6b01001f 	cmp	w0, w1
    6fa4:	540001c2 	b.cs	0x6fdc  // b.hs, b.nlast
    6fa8:	9ba27c03 	umull	x3, w0, w2
    6fac:	8b0300c3 	add	x3, x6, x3
    6fb0:	b9402861 	ldr	w1, [x3, #40]
    6fb4:	121b6821 	and	w1, w1, #0xffffffe0
    6fb8:	d3483024 	ubfx	x4, x1, #8, #5
    6fbc:	2a010081 	orr	w1, w4, w1
    6fc0:	b9002861 	str	w1, [x3, #40]
    6fc4:	52803303 	mov	w3, #0x198                 	// #408
    6fc8:	72a62003 	movk	w3, #0x3100, lsl #16
    6fcc:	1b020c03 	madd	w3, w0, w2, w3
    6fd0:	11000400 	add	w0, w0, #0x1
    6fd4:	b9000061 	str	w1, [x3]
    6fd8:	17fffff0 	b	0x6f98
    6fdc:	a94153f3 	ldp	x19, x20, [sp, #16]
    6fe0:	a8c37bfd 	ldp	x29, x30, [sp], #48
    6fe4:	d65f03c0 	ret
    6fe8:	a9bd7bfd 	stp	x29, x30, [sp, #-48]!
    6fec:	910003fd 	mov	x29, sp
    6ff0:	f9000bf3 	str	x19, [sp, #16]
    6ff4:	2a0003f3 	mov	w19, w0
    6ff8:	2a0103e0 	mov	w0, w1
    6ffc:	f90017a1 	str	x1, [x29, #40]
    7000:	97ffff91 	bl	0x6e44
    7004:	52800002 	mov	w2, #0x0                   	// #0
    7008:	f94017a1 	ldr	x1, [x29, #40]
    700c:	34000ca0 	cbz	w0, 0x71a0
    7010:	7103fe7f 	cmp	w19, #0xff
    7014:	54000c60 	b.eq	0x71a0  // b.none
    7018:	b0000044 	adrp	x4, 0x10000
    701c:	d3421660 	ubfx	x0, x19, #2, #4
    7020:	d3461e65 	ubfx	x5, x19, #6, #2
    7024:	b9409082 	ldr	w2, [x4, #144]
    7028:	7100c05f 	cmp	w2, #0x30
    702c:	54000201 	b.ne	0x706c  // b.any
    7030:	d2800003 	mov	x3, #0x0                   	// #0
    7034:	90000046 	adrp	x6, 0xf000
    7038:	2a0303e2 	mov	w2, w3
    703c:	9107c0c6 	add	x6, x6, #0x1f0
    7040:	b8666867 	ldr	w7, [x3, x6]
    7044:	6b07001f 	cmp	w0, w7
    7048:	54000061 	b.ne	0x7054  // b.any
    704c:	8b0300c2 	add	x2, x6, x3
    7050:	b9400442 	ldr	w2, [x2, #4]
    7054:	91002063 	add	x3, x3, #0x8
    7058:	f101007f 	cmp	x3, #0x40
    705c:	54ffff21 	b.ne	0x7040  // b.any
    7060:	531f7840 	lsl	w0, w2, #1
    7064:	710004bf 	cmp	w5, #0x1
    7068:	14000011 	b	0x70ac
    706c:	d2800003 	mov	x3, #0x0                   	// #0
    7070:	90000046 	adrp	x6, 0xf000
    7074:	110004a5 	add	w5, w5, #0x1
    7078:	2a0303e2 	mov	w2, w3
    707c:	910360c6 	add	x6, x6, #0xd8
    7080:	b8666867 	ldr	w7, [x3, x6]
    7084:	6b07001f 	cmp	w0, w7
    7088:	54000081 	b.ne	0x7098  // b.any
    708c:	8b0300c2 	add	x2, x6, x3
    7090:	b9400442 	ldr	w2, [x2, #4]
    7094:	531f7842 	lsl	w2, w2, #1
    7098:	91002063 	add	x3, x3, #0x8
    709c:	f100e07f 	cmp	x3, #0x38
    70a0:	54ffff01 	b.ne	0x7080  // b.any
    70a4:	531f7840 	lsl	w0, w2, #1
    70a8:	710008bf 	cmp	w5, #0x2
    70ac:	1a820002 	csel	w2, w0, w2, eq  // eq = none
    70b0:	7140205f 	cmp	w2, #0x8, lsl #12
    70b4:	540003c0 	b.eq	0x712c  // b.none
    70b8:	540001a8 	b.hi	0x70ec  // b.pmore
    70bc:	71400c5f 	cmp	w2, #0x3, lsl #12
    70c0:	54000320 	b.eq	0x7124  // b.none
    70c4:	54000088 	b.hi	0x70d4  // b.pmore
    70c8:	52800083 	mov	w3, #0x4                   	// #4
    70cc:	7140085f 	cmp	w2, #0x2, lsl #12
    70d0:	14000012 	b	0x7118
    70d4:	7140105f 	cmp	w2, #0x4, lsl #12
    70d8:	52800103 	mov	w3, #0x8                   	// #8
    70dc:	540002e0 	b.eq	0x7138  // b.none
    70e0:	52800183 	mov	w3, #0xc                   	// #12
    70e4:	7140185f 	cmp	w2, #0x6, lsl #12
    70e8:	1400000c 	b	0x7118
    70ec:	7140405f 	cmp	w2, #0x10, lsl #12
    70f0:	54000220 	b.eq	0x7134  // b.none
    70f4:	54000088 	b.hi	0x7104  // b.pmore
    70f8:	52800303 	mov	w3, #0x18                  	// #24
    70fc:	7140305f 	cmp	w2, #0xc, lsl #12
    7100:	14000006 	b	0x7118
    7104:	7140585f 	cmp	w2, #0x16, lsl #12
    7108:	52800603 	mov	w3, #0x30                  	// #48
    710c:	54000160 	b.eq	0x7138  // b.none
    7110:	52800803 	mov	w3, #0x40                  	// #64
    7114:	7140805f 	cmp	w2, #0x20, lsl #12
    7118:	54000100 	b.eq	0x7138  // b.none
    711c:	52800003 	mov	w3, #0x0                   	// #0
    7120:	14000006 	b	0x7138
    7124:	528000c3 	mov	w3, #0x6                   	// #6
    7128:	14000004 	b	0x7138
    712c:	52800203 	mov	w3, #0x10                  	// #16
    7130:	14000002 	b	0x7138
    7134:	52800403 	mov	w3, #0x20                  	// #32
    7138:	52800186 	mov	w6, #0xc                   	// #12
    713c:	91024084 	add	x4, x4, #0x90
    7140:	1b067c26 	mul	w6, w1, w6
    7144:	52801fe7 	mov	w7, #0xff                  	// #255
    7148:	110010c0 	add	w0, w6, #0x4
    714c:	1ac02063 	lsl	w3, w3, w0
    7150:	1ac020e0 	lsl	w0, w7, w0
    7154:	b9400487 	ldr	w7, [x4, #4]
    7158:	2a0203e2 	mov	w2, w2
    715c:	0a2000e7 	bic	w7, w7, w0
    7160:	2a070067 	orr	w7, w3, w7
    7164:	528001e3 	mov	w3, #0xf                   	// #15
    7168:	1ac62063 	lsl	w3, w3, w6
    716c:	0a2300e3 	bic	w3, w7, w3
    7170:	1ac620a6 	lsl	w6, w5, w6
    7174:	2a060065 	orr	w5, w3, w6
    7178:	b9000485 	str	w5, [x4, #4]
    717c:	d370bc42 	lsl	x2, x2, #16
    7180:	35000061 	cbnz	w1, 0x718c
    7184:	f9000c82 	str	x2, [x4, #24]
    7188:	14000005 	b	0x719c
    718c:	b9401480 	ldr	w0, [x4, #20]
    7190:	f9001082 	str	x2, [x4, #32]
    7194:	11000400 	add	w0, w0, #0x1
    7198:	b9001480 	str	w0, [x4, #20]
    719c:	52800022 	mov	w2, #0x1                   	// #1
    71a0:	2a0203e0 	mov	w0, w2
    71a4:	f9400bf3 	ldr	x19, [sp, #16]
    71a8:	a8c37bfd 	ldp	x29, x30, [sp], #48
    71ac:	d65f03c0 	ret
    71b0:	b0000041 	adrp	x1, 0x10000
    71b4:	a9bf7bfd 	stp	x29, x30, [sp, #-16]!
    71b8:	91024020 	add	x0, x1, #0x90
    71bc:	910003fd 	mov	x29, sp
    71c0:	52800822 	mov	w2, #0x41                  	// #65
    71c4:	b9009022 	str	w2, [x1, #144]
    71c8:	b9400401 	ldr	w1, [x0, #4]
    71cc:	12005c21 	and	w1, w1, #0xffffff
    71d0:	32020021 	orr	w1, w1, #0x40000000
    71d4:	b9000401 	str	w1, [x0, #4]
    71d8:	52800081 	mov	w1, #0x4                   	// #4
    71dc:	b9000801 	str	w1, [x0, #8]
    71e0:	52800101 	mov	w1, #0x8                   	// #8
    71e4:	b9001001 	str	w1, [x0, #16]
    71e8:	d0000020 	adrp	x0, 0xd000
    71ec:	52808981 	mov	w1, #0x44c                 	// #1100
    71f0:	9131f400 	add	x0, x0, #0xc7d
    71f4:	940009f9 	bl	0x99d8
    71f8:	52800021 	mov	w1, #0x1                   	// #1
    71fc:	52806900 	mov	w0, #0x348                 	// #840
    7200:	2a0103e2 	mov	w2, w1
    7204:	2a0103e3 	mov	w3, w1
    7208:	72a64fa0 	movk	w0, #0x327d, lsl #16
    720c:	97ffe735 	bl	0xee0
    7210:	b0000040 	adrp	x0, 0x10000
    7214:	f0000021 	adrp	x1, 0xe000
    7218:	a8c17bfd 	ldp	x29, x30, [sp], #16
    721c:	91152021 	add	x1, x1, #0x548
    7220:	f9006401 	str	x1, [x0, #200]
    7224:	52800640 	mov	w0, #0x32                  	// #50
    7228:	17ffe743 	b	0xf34
    722c:	d10083ff 	sub	sp, sp, #0x20
    7230:	b0000043 	adrp	x3, 0x10000
    7234:	91024060 	add	x0, x3, #0x90
    7238:	a90053f3 	stp	x19, x20, [sp]
    723c:	f000002d 	adrp	x13, 0xe000
    7240:	b9402807 	ldr	w7, [x0, #40]
    7244:	b9402c09 	ldr	w9, [x0, #44]
    7248:	b940140b 	ldr	w11, [x0, #20]
    724c:	d000002e 	adrp	x14, 0xd000
    7250:	d2800000 	mov	x0, #0x0                   	// #0
    7254:	f0000033 	adrp	x19, 0xe000
    7258:	b940906c 	ldr	w12, [x3, #144]
    725c:	f9000fff 	str	xzr, [sp, #24]
    7260:	d35a74e7 	ubfx	x7, x7, #26, #4
    7264:	d35a7529 	ubfx	x9, x9, #26, #4
    7268:	2a0003e1 	mov	w1, w0
    726c:	aa0003e2 	mov	x2, x0
    7270:	aa0303ea 	mov	x10, x3
    7274:	911821ad 	add	x13, x13, #0x608
    7278:	912fe1ce 	add	x14, x14, #0xbf8
    727c:	5280006f 	mov	w15, #0x3                   	// #3
    7280:	52800050 	mov	w16, #0x2                   	// #2
    7284:	52800031 	mov	w17, #0x1                   	// #1
    7288:	d2800312 	mov	x18, #0x18                  	// #24
    728c:	911a2273 	add	x19, x19, #0x688
    7290:	d2800024 	mov	x4, #0x1                   	// #1
    7294:	d280c305 	mov	x5, #0x618                 	// #1560
    7298:	6b0b003f 	cmp	w1, w11
    729c:	54000680 	b.eq	0x736c  // b.none
    72a0:	6b1f003f 	cmp	w1, wzr
    72a4:	1a871123 	csel	w3, w9, w7, ne  // ne = any
    72a8:	7100c19f 	cmp	w12, #0x30
    72ac:	540002e1 	b.ne	0x7308  // b.any
    72b0:	51001062 	sub	w2, w3, #0x4
    72b4:	7100285f 	cmp	w2, #0xa
    72b8:	54000168 	b.hi	0x72e4  // b.pmore
    72bc:	9ac22083 	lsl	x3, x4, x2
    72c0:	ea050062 	ands	x2, x3, x5
    72c4:	540000c1 	b.ne	0x72dc  // b.any
    72c8:	92400863 	and	x3, x3, #0x7
    72cc:	b40000c3 	cbz	x3, 0x72e4
    72d0:	910063e3 	add	x3, sp, #0x18
    72d4:	b8236802 	str	w2, [x0, x3]
    72d8:	14000003 	b	0x72e4
    72dc:	910063e2 	add	x2, sp, #0x18
    72e0:	b8226804 	str	w4, [x0, x2]
    72e4:	b9401be6 	ldr	w6, [sp, #24]
    72e8:	34000081 	cbz	w1, 0x72f8
    72ec:	b9401fe2 	ldr	w2, [sp, #28]
    72f0:	6b06005f 	cmp	w2, w6
    72f4:	54000048 	b.hi	0x72fc  // b.pmore
    72f8:	2a0603e2 	mov	w2, w6
    72fc:	2a0203e2 	mov	w2, w2
    7300:	9b124c42 	madd	x2, x2, x18, x19
    7304:	14000017 	b	0x7360
    7308:	7100187f 	cmp	w3, #0x6
    730c:	540001a8 	b.hi	0x7340  // b.pmore
    7310:	910063e2 	add	x2, sp, #0x18
    7314:	386349c6 	ldrb	w6, [x14, w3, uxtw]
    7318:	10000074 	adr	x20, 0x7324
    731c:	8b268a86 	add	x6, x20, w6, sxtb #2
    7320:	d61f00c0 	br	x6
    7324:	b820685f 	str	wzr, [x2, x0]
    7328:	14000006 	b	0x7340
    732c:	b8206851 	str	w17, [x2, x0]
    7330:	14000004 	b	0x7340
    7334:	b8206850 	str	w16, [x2, x0]
    7338:	14000002 	b	0x7340
    733c:	b820684f 	str	w15, [x2, x0]
    7340:	b9401be6 	ldr	w6, [sp, #24]
    7344:	34000081 	cbz	w1, 0x7354
    7348:	b9401fe2 	ldr	w2, [sp, #28]
    734c:	6b06005f 	cmp	w2, w6
    7350:	54000048 	b.hi	0x7358  // b.pmore
    7354:	2a0603e2 	mov	w2, w6
    7358:	d37b7c42 	ubfiz	x2, x2, #5, #32
    735c:	8b0d0042 	add	x2, x2, x13
    7360:	11000421 	add	w1, w1, #0x1
    7364:	91001000 	add	x0, x0, #0x4
    7368:	17ffffcc 	b	0x7298
    736c:	b0000040 	adrp	x0, 0x10000
    7370:	52800c04 	mov	w4, #0x60                  	// #96
    7374:	f9404403 	ldr	x3, [x0, #136]
    7378:	52800000 	mov	w0, #0x0                   	// #0
    737c:	91024141 	add	x1, x10, #0x90
    7380:	b9401021 	ldr	w1, [x1, #16]
    7384:	6b01001f 	cmp	w0, w1
    7388:	540001e2 	b.cs	0x73c4  // b.hs, b.nlast
    738c:	9ba47c01 	umull	x1, w0, w4
    7390:	8b010061 	add	x1, x3, x1
    7394:	b9401825 	ldr	w5, [x1, #24]
    7398:	121614a5 	and	w5, w5, #0xfc00
    739c:	b9001825 	str	w5, [x1, #24]
    73a0:	b8605846 	ldr	w6, [x2, w0, uxtw #2]
    73a4:	2a0600a5 	orr	w5, w5, w6
    73a8:	b9001825 	str	w5, [x1, #24]
    73ac:	52803101 	mov	w1, #0x188                 	// #392
    73b0:	72a62001 	movk	w1, #0x3100, lsl #16
    73b4:	1b040401 	madd	w1, w0, w4, w1
    73b8:	11000400 	add	w0, w0, #0x1
    73bc:	b9000025 	str	w5, [x1]
    73c0:	17ffffef 	b	0x737c
    73c4:	a94053f3 	ldp	x19, x20, [sp]
    73c8:	910083ff 	add	sp, sp, #0x20
    73cc:	d65f03c0 	ret
    73d0:	b0000041 	adrp	x1, 0x10000
    73d4:	a9bc7bfd 	stp	x29, x30, [sp, #-64]!
    73d8:	91024020 	add	x0, x1, #0x90
    73dc:	910003fd 	mov	x29, sp
    73e0:	b9409021 	ldr	w1, [x1, #144]
    73e4:	a90153f3 	stp	x19, x20, [sp, #16]
    73e8:	a9025bf5 	stp	x21, x22, [sp, #32]
    73ec:	f9001bf7 	str	x23, [sp, #48]
    73f0:	7100c03f 	cmp	w1, #0x30
    73f4:	b9400400 	ldr	w0, [x0, #4]
    73f8:	54001161 	b.ne	0x7624  // b.any
    73fc:	52820801 	mov	w1, #0x1040                	// #4160
    7400:	72a60101 	movk	w1, #0x3008, lsl #16
    7404:	6b01001f 	cmp	w0, w1
    7408:	54001260 	b.eq	0x7654  // b.none
    740c:	52820801 	mov	w1, #0x1040                	// #4160
    7410:	72a60101 	movk	w1, #0x3008, lsl #16
    7414:	6b01001f 	cmp	w0, w1
    7418:	54000668 	b.hi	0x74e4  // b.pmore
    741c:	52804001 	mov	w1, #0x200                 	// #512
    7420:	72a60001 	movk	w1, #0x3000, lsl #16
    7424:	6b01001f 	cmp	w0, w1
    7428:	54002720 	b.eq	0x790c  // b.none
    742c:	52804001 	mov	w1, #0x200                 	// #512
    7430:	72a60001 	movk	w1, #0x3000, lsl #16
    7434:	6b01001f 	cmp	w0, w1
    7438:	54000288 	b.hi	0x7488  // b.pmore
    743c:	52802021 	mov	w1, #0x101                 	// #257
    7440:	72a60001 	movk	w1, #0x3000, lsl #16
    7444:	6b01001f 	cmp	w0, w1
    7448:	54000168 	b.hi	0x7474  // b.pmore
    744c:	52802001 	mov	w1, #0x100                 	// #256
    7450:	72a60001 	movk	w1, #0x3000, lsl #16
    7454:	6b01001f 	cmp	w0, w1
    7458:	54000d02 	b.cs	0x75f8  // b.hs, b.nlast
    745c:	529fe801 	mov	w1, #0xff40                	// #65344
    7460:	72b9ffe1 	movk	w1, #0xcfff, lsl #16
    7464:	0b010000 	add	w0, w0, w1
    7468:	7100041f 	cmp	w0, #0x1
    746c:	54000c69 	b.ls	0x75f8  // b.plast
    7470:	14000080 	b	0x7670
    7474:	52803001 	mov	w1, #0x180                 	// #384
    7478:	72a60001 	movk	w1, #0x3000, lsl #16
    747c:	6b01001f 	cmp	w0, w1
    7480:	54002460 	b.eq	0x790c  // b.none
    7484:	1400007b 	b	0x7670
    7488:	52801001 	mov	w1, #0x80                  	// #128
    748c:	72a60101 	movk	w1, #0x3008, lsl #16
    7490:	6b01001f 	cmp	w0, w1
    7494:	54001f20 	b.eq	0x7878  // b.none
    7498:	52801001 	mov	w1, #0x80                  	// #128
    749c:	72a60101 	movk	w1, #0x3008, lsl #16
    74a0:	6b01001f 	cmp	w0, w1
    74a4:	54000148 	b.hi	0x74cc  // b.pmore
    74a8:	52800c01 	mov	w1, #0x60                  	// #96
    74ac:	72a600c1 	movk	w1, #0x3006, lsl #16
    74b0:	6b01001f 	cmp	w0, w1
    74b4:	54000c00 	b.eq	0x7634  // b.none
    74b8:	52800801 	mov	w1, #0x40                  	// #64
    74bc:	72a60101 	movk	w1, #0x3008, lsl #16
    74c0:	6b01001f 	cmp	w0, w1
    74c4:	54001da0 	b.eq	0x7878  // b.none
    74c8:	1400006a 	b	0x7670
    74cc:	529fe001 	mov	w1, #0xff00                	// #65280
    74d0:	72b9fee1 	movk	w1, #0xcff7, lsl #16
    74d4:	0b010000 	add	w0, w0, w1
    74d8:	7100041f 	cmp	w0, #0x1
    74dc:	54000709 	b.ls	0x75bc  // b.plast
    74e0:	14000064 	b	0x7670
    74e4:	52801001 	mov	w1, #0x80                  	// #128
    74e8:	72a60201 	movk	w1, #0x3010, lsl #16
    74ec:	6b01001f 	cmp	w0, w1
    74f0:	54000660 	b.eq	0x75bc  // b.none
    74f4:	52801001 	mov	w1, #0x80                  	// #128
    74f8:	72a60201 	movk	w1, #0x3010, lsl #16
    74fc:	6b01001f 	cmp	w0, w1
    7500:	54000308 	b.hi	0x7560  // b.pmore
    7504:	52801801 	mov	w1, #0xc0                  	// #192
    7508:	72a60181 	movk	w1, #0x300c, lsl #16
    750c:	6b01001f 	cmp	w0, w1
    7510:	54000620 	b.eq	0x75d4  // b.none
    7514:	52801801 	mov	w1, #0xc0                  	// #192
    7518:	72a60181 	movk	w1, #0x300c, lsl #16
    751c:	6b01001f 	cmp	w0, w1
    7520:	54000148 	b.hi	0x7548  // b.pmore
    7524:	52821021 	mov	w1, #0x1081                	// #4225
    7528:	72a60101 	movk	w1, #0x3008, lsl #16
    752c:	6b01001f 	cmp	w0, w1
    7530:	540006e0 	b.eq	0x760c  // b.none
    7534:	52822001 	mov	w1, #0x1100                	// #4352
    7538:	72a60101 	movk	w1, #0x3008, lsl #16
    753c:	6b01001f 	cmp	w0, w1
    7540:	540003e0 	b.eq	0x75bc  // b.none
    7544:	1400004b 	b	0x7670
    7548:	529de801 	mov	w1, #0xef40                	// #61248
    754c:	72b9fe61 	movk	w1, #0xcff3, lsl #16
    7550:	0b010000 	add	w0, w0, w1
    7554:	7100041f 	cmp	w0, #0x1
    7558:	540003e9 	b.ls	0x75d4  // b.plast
    755c:	14000045 	b	0x7670
    7560:	52821021 	mov	w1, #0x1081                	// #4225
    7564:	72a60201 	movk	w1, #0x3010, lsl #16
    7568:	6b01001f 	cmp	w0, w1
    756c:	54001c80 	b.eq	0x78fc  // b.none
    7570:	52821021 	mov	w1, #0x1081                	// #4225
    7574:	72a60201 	movk	w1, #0x3010, lsl #16
    7578:	6b01001f 	cmp	w0, w1
    757c:	54000148 	b.hi	0x75a4  // b.pmore
    7580:	52802001 	mov	w1, #0x100                 	// #256
    7584:	72a60201 	movk	w1, #0x3010, lsl #16
    7588:	6b01001f 	cmp	w0, w1
    758c:	54001b80 	b.eq	0x78fc  // b.none
    7590:	52821001 	mov	w1, #0x1080                	// #4224
    7594:	72a60201 	movk	w1, #0x3010, lsl #16
    7598:	6b01001f 	cmp	w0, w1
    759c:	54000100 	b.eq	0x75bc  // b.none
    75a0:	14000034 	b	0x7670
    75a4:	529de001 	mov	w1, #0xef00                	// #61184
    75a8:	72b9fde1 	movk	w1, #0xcfef, lsl #16
    75ac:	0b010000 	add	w0, w0, w1
    75b0:	7100041f 	cmp	w0, #0x1
    75b4:	54001a49 	b.ls	0x78fc  // b.plast
    75b8:	1400002e 	b	0x7670
    75bc:	52800013 	mov	w19, #0x0                   	// #0
    75c0:	2a1303f4 	mov	w20, w19
    75c4:	2a1303f6 	mov	w22, w19
    75c8:	2a1303e3 	mov	w3, w19
    75cc:	528000f5 	mov	w21, #0x7                   	// #7
    75d0:	14000026 	b	0x7668
    75d4:	529b9753 	mov	w19, #0xdcba                	// #56506
    75d8:	52864214 	mov	w20, #0x3210                	// #12816
    75dc:	72a64213 	movk	w19, #0x3210, lsl #16
    75e0:	72b30a94 	movk	w20, #0x9854, lsl #16
    75e4:	52800036 	mov	w22, #0x1                   	// #1
    75e8:	52800003 	mov	w3, #0x0                   	// #0
    75ec:	528000f5 	mov	w21, #0x7                   	// #7
    75f0:	52800077 	mov	w23, #0x3                   	// #3
    75f4:	140000d5 	b	0x7948
    75f8:	52800013 	mov	w19, #0x0                   	// #0
    75fc:	2a1303f4 	mov	w20, w19
    7600:	2a1303f6 	mov	w22, w19
    7604:	52800023 	mov	w3, #0x1                   	// #1
    7608:	14000005 	b	0x761c
    760c:	52800013 	mov	w19, #0x0                   	// #0
    7610:	2a1303f4 	mov	w20, w19
    7614:	2a1303f6 	mov	w22, w19
    7618:	2a1303e3 	mov	w3, w19
    761c:	528000d5 	mov	w21, #0x6                   	// #6
    7620:	17fffff4 	b	0x75f0
    7624:	52821821 	mov	w1, #0x10c1                	// #4289
    7628:	72a80181 	movk	w1, #0x400c, lsl #16
    762c:	6b01001f 	cmp	w0, w1
    7630:	54000221 	b.ne	0x7674  // b.any
    7634:	528ca853 	mov	w19, #0x6542                	// #25922
    7638:	52884214 	mov	w20, #0x4210                	// #16912
    763c:	72a84213 	movk	w19, #0x4210, lsl #16
    7640:	72a20cb4 	movk	w20, #0x1065, lsl #16
    7644:	52800036 	mov	w22, #0x1                   	// #1
    7648:	52800003 	mov	w3, #0x0                   	// #0
    764c:	528000d5 	mov	w21, #0x6                   	// #6
    7650:	140000bd 	b	0x7944
    7654:	52800013 	mov	w19, #0x0                   	// #0
    7658:	2a1303f4 	mov	w20, w19
    765c:	2a1303f6 	mov	w22, w19
    7660:	2a1303e3 	mov	w3, w19
    7664:	528000d5 	mov	w21, #0x6                   	// #6
    7668:	2a1503f7 	mov	w23, w21
    766c:	140000b7 	b	0x7948
    7670:	14000000 	b	0x7670
    7674:	52821821 	mov	w1, #0x10c1                	// #4289
    7678:	72a80181 	movk	w1, #0x400c, lsl #16
    767c:	6b01001f 	cmp	w0, w1
    7680:	54000728 	b.hi	0x7764  // b.pmore
    7684:	52803021 	mov	w1, #0x181                 	// #385
    7688:	72a80001 	movk	w1, #0x4000, lsl #16
    768c:	6b01001f 	cmp	w0, w1
    7690:	54000ea0 	b.eq	0x7864  // b.none
    7694:	52803021 	mov	w1, #0x181                 	// #385
    7698:	72a80001 	movk	w1, #0x4000, lsl #16
    769c:	6b01001f 	cmp	w0, w1
    76a0:	540002e8 	b.hi	0x76fc  // b.pmore
    76a4:	52801021 	mov	w1, #0x81                  	// #129
    76a8:	72a80001 	movk	w1, #0x4000, lsl #16
    76ac:	6b01001f 	cmp	w0, w1
    76b0:	54001020 	b.eq	0x78b4  // b.none
    76b4:	52801021 	mov	w1, #0x81                  	// #129
    76b8:	72a80001 	movk	w1, #0x4000, lsl #16
    76bc:	6b01001f 	cmp	w0, w1
    76c0:	540000c8 	b.hi	0x76d8  // b.pmore
    76c4:	52800821 	mov	w1, #0x41                  	// #65
    76c8:	72a80001 	movk	w1, #0x4000, lsl #16
    76cc:	6b01001f 	cmp	w0, w1
    76d0:	54001080 	b.eq	0x78e0  // b.none
    76d4:	14000089 	b	0x78f8
    76d8:	52801821 	mov	w1, #0xc1                  	// #193
    76dc:	72a80001 	movk	w1, #0x4000, lsl #16
    76e0:	6b01001f 	cmp	w0, w1
    76e4:	54000d20 	b.eq	0x7888  // b.none
    76e8:	52802021 	mov	w1, #0x101                 	// #257
    76ec:	72a80001 	movk	w1, #0x4000, lsl #16
    76f0:	6b01001f 	cmp	w0, w1
    76f4:	54000ca0 	b.eq	0x7888  // b.none
    76f8:	14000080 	b	0x78f8
    76fc:	52820821 	mov	w1, #0x1041                	// #4161
    7700:	72a80101 	movk	w1, #0x4008, lsl #16
    7704:	6b01001f 	cmp	w0, w1
    7708:	54000ca0 	b.eq	0x789c  // b.none
    770c:	52820821 	mov	w1, #0x1041                	// #4161
    7710:	72a80101 	movk	w1, #0x4008, lsl #16
    7714:	6b01001f 	cmp	w0, w1
    7718:	54000148 	b.hi	0x7740  // b.pmore
    771c:	52804021 	mov	w1, #0x201                 	// #513
    7720:	72a80001 	movk	w1, #0x4000, lsl #16
    7724:	6b01001f 	cmp	w0, w1
    7728:	540009e0 	b.eq	0x7864  // b.none
    772c:	52820821 	mov	w1, #0x1041                	// #4161
    7730:	72a80081 	movk	w1, #0x4004, lsl #16
    7734:	6b01001f 	cmp	w0, w1
    7738:	54000c80 	b.eq	0x78c8  // b.none
    773c:	1400006f 	b	0x78f8
    7740:	52821021 	mov	w1, #0x1081                	// #4225
    7744:	72a80101 	movk	w1, #0x4008, lsl #16
    7748:	6b01001f 	cmp	w0, w1
    774c:	54000a80 	b.eq	0x789c  // b.none
    7750:	52822021 	mov	w1, #0x1101                	// #4353
    7754:	72a80101 	movk	w1, #0x4008, lsl #16
    7758:	6b01001f 	cmp	w0, w1
    775c:	540008e0 	b.eq	0x7878  // b.none
    7760:	14000066 	b	0x78f8
    7764:	52844041 	mov	w1, #0x2202                	// #8706
    7768:	72a80201 	movk	w1, #0x4010, lsl #16
    776c:	6b01001f 	cmp	w0, w1
    7770:	54000680 	b.eq	0x7840  // b.none
    7774:	52844041 	mov	w1, #0x2202                	// #8706
    7778:	72a80201 	movk	w1, #0x4010, lsl #16
    777c:	6b01001f 	cmp	w0, w1
    7780:	54000368 	b.hi	0x77ec  // b.pmore
    7784:	52824041 	mov	w1, #0x1202                	// #4610
    7788:	72a80201 	movk	w1, #0x4010, lsl #16
    778c:	6b01001f 	cmp	w0, w1
    7790:	54000580 	b.eq	0x7840  // b.none
    7794:	52824041 	mov	w1, #0x1202                	// #4610
    7798:	72a80201 	movk	w1, #0x4010, lsl #16
    779c:	6b01001f 	cmp	w0, w1
    77a0:	54000148 	b.hi	0x77c8  // b.pmore
    77a4:	52821021 	mov	w1, #0x1081                	// #4225
    77a8:	72a80201 	movk	w1, #0x4010, lsl #16
    77ac:	6b01001f 	cmp	w0, w1
    77b0:	54000640 	b.eq	0x7878  // b.none
    77b4:	52822021 	mov	w1, #0x1101                	// #4353
    77b8:	72a80201 	movk	w1, #0x4010, lsl #16
    77bc:	6b01001f 	cmp	w0, w1
    77c0:	540005c0 	b.eq	0x7878  // b.none
    77c4:	1400004d 	b	0x78f8
    77c8:	52841021 	mov	w1, #0x2081                	// #8321
    77cc:	72a80201 	movk	w1, #0x4010, lsl #16
    77d0:	6b01001f 	cmp	w0, w1
    77d4:	54000520 	b.eq	0x7878  // b.none
    77d8:	52842021 	mov	w1, #0x2101                	// #8449
    77dc:	72a80201 	movk	w1, #0x4010, lsl #16
    77e0:	6b01001f 	cmp	w0, w1
    77e4:	540004a0 	b.eq	0x7878  // b.none
    77e8:	14000044 	b	0x78f8
    77ec:	52842041 	mov	w1, #0x2102                	// #8450
    77f0:	72a80401 	movk	w1, #0x4020, lsl #16
    77f4:	6b01001f 	cmp	w0, w1
    77f8:	540001c8 	b.hi	0x7830  // b.pmore
    77fc:	52842021 	mov	w1, #0x2101                	// #8449
    7800:	72a80401 	movk	w1, #0x4020, lsl #16
    7804:	6b01001f 	cmp	w0, w1
    7808:	54000902 	b.cs	0x7928  // b.hs, b.nlast
    780c:	52823021 	mov	w1, #0x1181                	// #4481
    7810:	72a80301 	movk	w1, #0x4018, lsl #16
    7814:	6b01001f 	cmp	w0, w1
    7818:	540001c0 	b.eq	0x7850  // b.none
    781c:	52843041 	mov	w1, #0x2182                	// #8578
    7820:	72a80301 	movk	w1, #0x4018, lsl #16
    7824:	6b01001f 	cmp	w0, w1
    7828:	54000140 	b.eq	0x7850  // b.none
    782c:	14000033 	b	0x78f8
    7830:	52844041 	mov	w1, #0x2202                	// #8706
    7834:	72a80401 	movk	w1, #0x4020, lsl #16
    7838:	6b01001f 	cmp	w0, w1
    783c:	540005e1 	b.ne	0x78f8  // b.any
    7840:	52800013 	mov	w19, #0x0                   	// #0
    7844:	2a1303f4 	mov	w20, w19
    7848:	2a1303f6 	mov	w22, w19
    784c:	1400003c 	b	0x793c
    7850:	529b9753 	mov	w19, #0xdcba                	// #56506
    7854:	52864214 	mov	w20, #0x3210                	// #12816
    7858:	72a64213 	movk	w19, #0x3210, lsl #16
    785c:	72b30a94 	movk	w20, #0x9854, lsl #16
    7860:	14000036 	b	0x7938
    7864:	52800013 	mov	w19, #0x0                   	// #0
    7868:	2a1303f4 	mov	w20, w19
    786c:	2a1303f6 	mov	w22, w19
    7870:	52800023 	mov	w3, #0x1                   	// #1
    7874:	17ffff76 	b	0x764c
    7878:	52800013 	mov	w19, #0x0                   	// #0
    787c:	2a1303f4 	mov	w20, w19
    7880:	2a1303f6 	mov	w22, w19
    7884:	17ffff71 	b	0x7648
    7888:	52800013 	mov	w19, #0x0                   	// #0
    788c:	2a1303f4 	mov	w20, w19
    7890:	2a1303f6 	mov	w22, w19
    7894:	52800023 	mov	w3, #0x1                   	// #1
    7898:	14000005 	b	0x78ac
    789c:	52800013 	mov	w19, #0x0                   	// #0
    78a0:	2a1303f4 	mov	w20, w19
    78a4:	2a1303f6 	mov	w22, w19
    78a8:	2a1303e3 	mov	w3, w19
    78ac:	528000b5 	mov	w21, #0x5                   	// #5
    78b0:	14000025 	b	0x7944
    78b4:	52800013 	mov	w19, #0x0                   	// #0
    78b8:	2a1303f4 	mov	w20, w19
    78bc:	2a1303f6 	mov	w22, w19
    78c0:	52800023 	mov	w3, #0x1                   	// #1
    78c4:	14000005 	b	0x78d8
    78c8:	52800013 	mov	w19, #0x0                   	// #0
    78cc:	2a1303f4 	mov	w20, w19
    78d0:	2a1303f6 	mov	w22, w19
    78d4:	2a1303e3 	mov	w3, w19
    78d8:	52800095 	mov	w21, #0x4                   	// #4
    78dc:	1400001a 	b	0x7944
    78e0:	52800013 	mov	w19, #0x0                   	// #0
    78e4:	2a1303f4 	mov	w20, w19
    78e8:	2a1303f6 	mov	w22, w19
    78ec:	52800023 	mov	w3, #0x1                   	// #1
    78f0:	52800075 	mov	w21, #0x3                   	// #3
    78f4:	14000014 	b	0x7944
    78f8:	14000000 	b	0x78f8
    78fc:	52800013 	mov	w19, #0x0                   	// #0
    7900:	2a1303f4 	mov	w20, w19
    7904:	2a1303f6 	mov	w22, w19
    7908:	17ffff38 	b	0x75e8
    790c:	52800013 	mov	w19, #0x0                   	// #0
    7910:	2a1303f4 	mov	w20, w19
    7914:	2a1303f6 	mov	w22, w19
    7918:	52800023 	mov	w3, #0x1                   	// #1
    791c:	528000f5 	mov	w21, #0x7                   	// #7
    7920:	52800097 	mov	w23, #0x4                   	// #4
    7924:	14000009 	b	0x7948
    7928:	529fdb93 	mov	w19, #0xfedc                	// #65244
    792c:	52864214 	mov	w20, #0x3210                	// #12816
    7930:	72a64213 	movk	w19, #0x3210, lsl #16
    7934:	72b75314 	movk	w20, #0xba98, lsl #16
    7938:	52800036 	mov	w22, #0x1                   	// #1
    793c:	52800003 	mov	w3, #0x0                   	// #0
    7940:	528000f5 	mov	w21, #0x7                   	// #7
    7944:	52800057 	mov	w23, #0x2                   	// #2
    7948:	528001c1 	mov	w1, #0xe                   	// #14
    794c:	52800042 	mov	w2, #0x2                   	// #2
    7950:	52a62000 	mov	w0, #0x31000000            	// #822083584
    7954:	97ffe563 	bl	0xee0
    7958:	2a1503e3 	mov	w3, w21
    795c:	52800001 	mov	w1, #0x0                   	// #0
    7960:	52800062 	mov	w2, #0x3                   	// #3
    7964:	52a62000 	mov	w0, #0x31000000            	// #822083584
    7968:	97ffe55e 	bl	0xee0
    796c:	52802000 	mov	w0, #0x100                 	// #256
    7970:	2a1703e3 	mov	w3, w23
    7974:	52800081 	mov	w1, #0x4                   	// #4
    7978:	52800062 	mov	w2, #0x3                   	// #3
    797c:	72a62000 	movk	w0, #0x3100, lsl #16
    7980:	97ffe558 	bl	0xee0
    7984:	52800280 	mov	w0, #0x14                  	// #20
    7988:	2a1603e3 	mov	w3, w22
    798c:	52800061 	mov	w1, #0x3                   	// #3
    7990:	52800022 	mov	w2, #0x1                   	// #1
    7994:	72a62000 	movk	w0, #0x3100, lsl #16
    7998:	97ffe552 	bl	0xee0
    799c:	d2800300 	mov	x0, #0x18                  	// #24
    79a0:	f2a62000 	movk	x0, #0x3100, lsl #16
    79a4:	a9425bf5 	ldp	x21, x22, [sp, #32]
    79a8:	f9401bf7 	ldr	x23, [sp, #48]
    79ac:	b9000014 	str	w20, [x0]
    79b0:	d2800380 	mov	x0, #0x1c                  	// #28
    79b4:	f2a62000 	movk	x0, #0x3100, lsl #16
    79b8:	b9000013 	str	w19, [x0]
    79bc:	a94153f3 	ldp	x19, x20, [sp, #16]
    79c0:	a8c47bfd 	ldp	x29, x30, [sp], #64
    79c4:	17fffe1a 	b	0x722c
    79c8:	a9bb7bfd 	stp	x29, x30, [sp, #-80]!
    79cc:	910003fd 	mov	x29, sp
    79d0:	a90153f3 	stp	x19, x20, [sp, #16]
    79d4:	f9001bf7 	str	x23, [sp, #48]
    79d8:	910143b4 	add	x20, x29, #0x50
    79dc:	90000057 	adrp	x23, 0xf000
    79e0:	910242f3 	add	x19, x23, #0x90
    79e4:	b81fce9f 	str	wzr, [x20, #-4]!
    79e8:	a9025bf5 	stp	x21, x22, [sp, #32]
    79ec:	f9000e7f 	str	xzr, [x19, #24]
    79f0:	52800035 	mov	w21, #0x1                   	// #1
    79f4:	f900127f 	str	xzr, [x19, #32]
    79f8:	b9001675 	str	w21, [x19, #20]
    79fc:	97ffe712 	bl	0x1644
    7a00:	52800100 	mov	w0, #0x8                   	// #8
    7a04:	52800001 	mov	w1, #0x0                   	// #0
    7a08:	aa1403e2 	mov	x2, x20
    7a0c:	97ffe9d5 	bl	0x2160
    7a10:	2a0003f6 	mov	w22, w0
    7a14:	34000040 	cbz	w0, 0x7a1c
    7a18:	14000000 	b	0x7a18
    7a1c:	b9402a61 	ldr	w1, [x19, #40]
    7a20:	b9404fa0 	ldr	w0, [x29, #76]
    7a24:	12005c21 	and	w1, w1, #0xffffff
    7a28:	2a006021 	orr	w1, w1, w0, lsl #24
    7a2c:	b9002a61 	str	w1, [x19, #40]
    7a30:	2a1603e1 	mov	w1, w22
    7a34:	97fffd6d 	bl	0x6fe8
    7a38:	35000040 	cbnz	w0, 0x7a40
    7a3c:	14000000 	b	0x7a3c
    7a40:	b9004fb6 	str	w22, [x29, #76]
    7a44:	97ffe700 	bl	0x1644
    7a48:	2a1503e1 	mov	w1, w21
    7a4c:	52800100 	mov	w0, #0x8                   	// #8
    7a50:	aa1403e2 	mov	x2, x20
    7a54:	97ffe9c3 	bl	0x2160
    7a58:	b9402e61 	ldr	w1, [x19, #44]
    7a5c:	b9404fa0 	ldr	w0, [x29, #76]
    7a60:	12005c21 	and	w1, w1, #0xffffff
    7a64:	2a006021 	orr	w1, w1, w0, lsl #24
    7a68:	b9002e61 	str	w1, [x19, #44]
    7a6c:	2a1503e1 	mov	w1, w21
    7a70:	97fffd5e 	bl	0x6fe8
    7a74:	35000080 	cbnz	w0, 0x7a84
    7a78:	b0000020 	adrp	x0, 0xc000
    7a7c:	91361000 	add	x0, x0, #0xd84
    7a80:	97ffe554 	bl	0xfd0
    7a84:	b94092e0 	ldr	w0, [x23, #144]
    7a88:	7101041f 	cmp	w0, #0x41
    7a8c:	54000041 	b.ne	0x7a94  // b.any
    7a90:	97fffd23 	bl	0x6f1c
    7a94:	52802080 	mov	w0, #0x104                 	// #260
    7a98:	52800381 	mov	w1, #0x1c                  	// #28
    7a9c:	52800022 	mov	w2, #0x1                   	// #1
    7aa0:	52800003 	mov	w3, #0x0                   	// #0
    7aa4:	72a62000 	movk	w0, #0x3100, lsl #16
    7aa8:	97ffe50e 	bl	0xee0
    7aac:	97fffe49 	bl	0x73d0
    7ab0:	910242e0 	add	x0, x23, #0x90
    7ab4:	d2c00023 	mov	x3, #0x100000000           	// #4294967296
    7ab8:	f9401002 	ldr	x2, [x0, #32]
    7abc:	f9400c01 	ldr	x1, [x0, #24]
    7ac0:	8b010041 	add	x1, x2, x1
    7ac4:	eb03003f 	cmp	x1, x3
    7ac8:	54000089 	b.ls	0x7ad8  // b.plast
    7acc:	52800021 	mov	w1, #0x1                   	// #1
    7ad0:	b9003001 	str	w1, [x0, #48]
    7ad4:	14000002 	b	0x7adc
    7ad8:	b900301f 	str	wzr, [x0, #48]
    7adc:	a94153f3 	ldp	x19, x20, [sp, #16]
    7ae0:	a9425bf5 	ldp	x21, x22, [sp, #32]
    7ae4:	f9401bf7 	ldr	x23, [sp, #48]
    7ae8:	a8c57bfd 	ldp	x29, x30, [sp], #80
    7aec:	d65f03c0 	ret
    7af0:	90000042 	adrp	x2, 0xf000
    7af4:	91024042 	add	x2, x2, #0x90
    7af8:	d2b04000 	mov	x0, #0x82000000            	// #2181038080
    7afc:	f9400c41 	ldr	x1, [x2, #24]
    7b00:	b9401443 	ldr	w3, [x2, #20]
    7b04:	f9001401 	str	x1, [x0, #40]
    7b08:	b9002003 	str	w3, [x0, #32]
    7b0c:	f9401042 	ldr	x2, [x2, #32]
    7b10:	f9001802 	str	x2, [x0, #48]
    7b14:	7100047f 	cmp	w3, #0x1
    7b18:	540000c1 	b.ne	0x7b30  // b.any
    7b1c:	f9000401 	str	x1, [x0, #8]
    7b20:	f900181f 	str	xzr, [x0, #48]
    7b24:	d1400421 	sub	x1, x1, #0x1, lsl #12
    7b28:	f9001401 	str	x1, [x0, #40]
    7b2c:	14000007 	b	0x7b48
    7b30:	7100087f 	cmp	w3, #0x2
    7b34:	540000a1 	b.ne	0x7b48  // b.any
    7b38:	8b010041 	add	x1, x2, x1
    7b3c:	d1400442 	sub	x2, x2, #0x1, lsl #12
    7b40:	f9000401 	str	x1, [x0, #8]
    7b44:	f9001802 	str	x2, [x0, #48]
    7b48:	d2b04000 	mov	x0, #0x82000000            	// #2181038080
    7b4c:	d2860001 	mov	x1, #0x3000                	// #12288
    7b50:	f9400400 	ldr	x0, [x0, #8]
    7b54:	b9000020 	str	w0, [x1]
    7b58:	d2860081 	mov	x1, #0x3004                	// #12292
    7b5c:	d360fc00 	lsr	x0, x0, #32
    7b60:	b9000020 	str	w0, [x1]
    7b64:	d65f03c0 	ret
    7b68:	d65f03c0 	ret
    7b6c:	90000041 	adrp	x1, 0xf000
    7b70:	b9409022 	ldr	w2, [x1, #144]
    7b74:	528000a1 	mov	w1, #0x5                   	// #5
    7b78:	51010042 	sub	w2, w2, #0x40
    7b7c:	7100045f 	cmp	w2, #0x1
    7b80:	54000168 	b.hi	0x7bac  // b.pmore
    7b84:	528000e1 	mov	w1, #0x7                   	// #7
    7b88:	11002022 	add	w2, w1, #0x8
    7b8c:	1ac22402 	lsr	w2, w0, w2
    7b90:	51000421 	sub	w1, w1, #0x1
    7b94:	360001a2 	tbz	w2, #0, 0x7bc8
    7b98:	3100043f 	cmn	w1, #0x1
    7b9c:	54ffff61 	b.ne	0x7b88  // b.any
    7ba0:	14000008 	b	0x7bc0
    7ba4:	3100043f 	cmn	w1, #0x1
    7ba8:	540000c0 	b.eq	0x7bc0  // b.none
    7bac:	11002022 	add	w2, w1, #0x8
    7bb0:	1ac22402 	lsr	w2, w0, w2
    7bb4:	51000421 	sub	w1, w1, #0x1
    7bb8:	3707ff62 	tbnz	w2, #0, 0x7ba4
    7bbc:	1400001a 	b	0x7c24
    7bc0:	52802000 	mov	w0, #0x100                 	// #256
    7bc4:	14000024 	b	0x7c54
    7bc8:	7100183f 	cmp	w1, #0x6
    7bcc:	52802000 	mov	w0, #0x100                 	// #256
    7bd0:	54000428 	b.hi	0x7c54  // b.pmore
    7bd4:	b0000020 	adrp	x0, 0xc000
    7bd8:	91300000 	add	x0, x0, #0xc00
    7bdc:	38614802 	ldrb	w2, [x0, w1, uxtw]
    7be0:	10000063 	adr	x3, 0x7bec
    7be4:	8b228862 	add	x2, x3, w2, sxtb #2
    7be8:	d61f0040 	br	x2
    7bec:	5280a6a0 	mov	w0, #0x535                 	// #1333
    7bf0:	14000019 	b	0x7c54
    7bf4:	52808000 	mov	w0, #0x400                 	// #1024
    7bf8:	14000017 	b	0x7c54
    7bfc:	52804000 	mov	w0, #0x200                 	// #512
    7c00:	14000015 	b	0x7c54
    7c04:	52803000 	mov	w0, #0x180                 	// #384
    7c08:	14000013 	b	0x7c54
    7c0c:	5280c000 	mov	w0, #0x600                 	// #1536
    7c10:	14000011 	b	0x7c54
    7c14:	52806000 	mov	w0, #0x300                 	// #768
    7c18:	1400000f 	b	0x7c54
    7c1c:	5280e940 	mov	w0, #0x74a                 	// #1866
    7c20:	1400000d 	b	0x7c54
    7c24:	7100103f 	cmp	w1, #0x4
    7c28:	52802000 	mov	w0, #0x100                 	// #256
    7c2c:	54000148 	b.hi	0x7c54  // b.pmore
    7c30:	b0000020 	adrp	x0, 0xc000
    7c34:	91302000 	add	x0, x0, #0xc08
    7c38:	38614802 	ldrb	w2, [x0, w1, uxtw]
    7c3c:	10000063 	adr	x3, 0x7c48
    7c40:	8b228862 	add	x2, x3, w2, sxtb #2
    7c44:	d61f0040 	br	x2
    7c48:	52804dc0 	mov	w0, #0x26e                 	// #622
    7c4c:	14000002 	b	0x7c54
    7c50:	528074a0 	mov	w0, #0x3a5                 	// #933
    7c54:	d65f03c0 	ret
    7c58:	90000040 	adrp	x0, 0xf000
    7c5c:	b9409800 	ldr	w0, [x0, #152]
    7c60:	71040c1f 	cmp	w0, #0x103
    7c64:	54000160 	b.eq	0x7c90  // b.none
    7c68:	7104101f 	cmp	w0, #0x104
    7c6c:	54000080 	b.eq	0x7c7c  // b.none
    7c70:	7100101f 	cmp	w0, #0x4
    7c74:	540000c1 	b.ne	0x7c8c  // b.any
    7c78:	14000009 	b	0x7c9c
    7c7c:	f0000021 	adrp	x1, 0xe000
    7c80:	91044021 	add	x1, x1, #0x110
    7c84:	91020021 	add	x1, x1, #0x80
    7c88:	14000008 	b	0x7ca8
    7c8c:	14000000 	b	0x7c8c
    7c90:	f0000021 	adrp	x1, 0xe000
    7c94:	91044021 	add	x1, x1, #0x110
    7c98:	14000004 	b	0x7ca8
    7c9c:	f0000021 	adrp	x1, 0xe000
    7ca0:	91044021 	add	x1, x1, #0x110
    7ca4:	91010021 	add	x1, x1, #0x40
    7ca8:	f0000024 	adrp	x4, 0xe000
    7cac:	d2800000 	mov	x0, #0x0                   	// #0
    7cb0:	91074084 	add	x4, x4, #0x1d0
    7cb4:	78646803 	ldrh	w3, [x0, x4]
    7cb8:	52820002 	mov	w2, #0x1000                	// #4096
    7cbc:	72a62002 	movk	w2, #0x3100, lsl #16
    7cc0:	0b020062 	add	w2, w3, w2
    7cc4:	d37ff803 	lsl	x3, x0, #1
    7cc8:	93407c42 	sxtw	x2, w2
    7ccc:	91000800 	add	x0, x0, #0x2
    7cd0:	b8636823 	ldr	w3, [x1, x3]
    7cd4:	b9000043 	str	w3, [x2]
    7cd8:	f100801f 	cmp	x0, #0x20
    7cdc:	54fffec1 	b.ne	0x7cb4  // b.any
    7ce0:	d65f03c0 	ret
    7ce4:	a9be7bfd 	stp	x29, x30, [sp, #-32]!
    7ce8:	52800001 	mov	w1, #0x0                   	// #0
    7cec:	910003fd 	mov	x29, sp
    7cf0:	f9000bf3 	str	x19, [sp, #16]
    7cf4:	2a0003f3 	mov	w19, w0
    7cf8:	52820080 	mov	w0, #0x1004                	// #4100
    7cfc:	2a1303e3 	mov	w3, w19
    7d00:	52800062 	mov	w2, #0x3                   	// #3
    7d04:	72a62000 	movk	w0, #0x3100, lsl #16
    7d08:	97ffe476 	bl	0xee0
    7d0c:	2a1303e3 	mov	w3, w19
    7d10:	52820080 	mov	w0, #0x1004                	// #4100
    7d14:	f9400bf3 	ldr	x19, [sp, #16]
    7d18:	a8c27bfd 	ldp	x29, x30, [sp], #32
    7d1c:	72a62000 	movk	w0, #0x3100, lsl #16
    7d20:	52800081 	mov	w1, #0x4                   	// #4
    7d24:	52800062 	mov	w2, #0x3                   	// #3
    7d28:	17ffe46e 	b	0xee0
    7d2c:	90000041 	adrp	x1, 0xf000
    7d30:	531c6c04 	lsl	w4, w0, #4
    7d34:	f9404022 	ldr	x2, [x1, #128]
    7d38:	d2821e81 	mov	x1, #0x10f4                	// #4340
    7d3c:	f2a62001 	movk	x1, #0x3100, lsl #16
    7d40:	b9408c43 	ldr	w3, [x2, #140]
    7d44:	91024042 	add	x2, x2, #0x90
    7d48:	121d7063 	and	w3, w3, #0xfffffff8
    7d4c:	2a000063 	orr	w3, w3, w0
    7d50:	12197063 	and	w3, w3, #0xffffff8f
    7d54:	2a040063 	orr	w3, w3, w4
    7d58:	b81fc043 	stur	w3, [x2, #-4]
    7d5c:	b80c0423 	str	w3, [x1], #192
    7d60:	d282de83 	mov	x3, #0x16f4                	// #5876
    7d64:	f2a62003 	movk	x3, #0x3100, lsl #16
    7d68:	eb03003f 	cmp	x1, x3
    7d6c:	54fffea1 	b.ne	0x7d40  // b.any
    7d70:	d65f03c0 	ret
    7d74:	53001c00 	uxtb	w0, w0
    7d78:	52800021 	mov	w1, #0x1                   	// #1
    7d7c:	34000100 	cbz	w0, 0x7d9c
    7d80:	6b01001f 	cmp	w0, w1
    7d84:	540000a0 	b.eq	0x7d98  // b.none
    7d88:	7100081f 	cmp	w0, #0x2
    7d8c:	52800401 	mov	w1, #0x20                  	// #32
    7d90:	1a9f0021 	csel	w1, w1, wzr, eq  // eq = none
    7d94:	14000002 	b	0x7d9c
    7d98:	52800081 	mov	w1, #0x4                   	// #4
    7d9c:	d2868000 	mov	x0, #0x3400                	// #13312
    7da0:	f2a620a0 	movk	x0, #0x3105, lsl #16
    7da4:	b9000001 	str	w1, [x0]
    7da8:	d65f03c0 	ret
    7dac:	a9be7bfd 	stp	x29, x30, [sp, #-32]!
    7db0:	53124400 	lsl	w0, w0, #14
    7db4:	910003fd 	mov	x29, sp
    7db8:	52800022 	mov	w2, #0x1                   	// #1
    7dbc:	b9001bbf 	str	wzr, [x29, #24]
    7dc0:	b9001fa0 	str	w0, [x29, #28]
    7dc4:	52a620e0 	mov	w0, #0x31070000            	// #822542336
    7dc8:	b9401fa1 	ldr	w1, [x29, #28]
    7dcc:	52800003 	mov	w3, #0x0                   	// #0
    7dd0:	0b000020 	add	w0, w1, w0
    7dd4:	52800041 	mov	w1, #0x2                   	// #2
    7dd8:	97ffe442 	bl	0xee0
    7ddc:	a8c27bfd 	ldp	x29, x30, [sp], #32
    7de0:	d65f03c0 	ret
    7de4:	a9bd7bfd 	stp	x29, x30, [sp, #-48]!
    7de8:	53124400 	lsl	w0, w0, #14
    7dec:	910003fd 	mov	x29, sp
    7df0:	f9000bf3 	str	x19, [sp, #16]
    7df4:	b9002bbf 	str	wzr, [x29, #40]
    7df8:	b9002fa0 	str	w0, [x29, #44]
    7dfc:	52a620f3 	mov	w19, #0x31070000            	// #822542336
    7e00:	b9402fa0 	ldr	w0, [x29, #44]
    7e04:	52800022 	mov	w2, #0x1                   	// #1
    7e08:	2a0203e3 	mov	w3, w2
    7e0c:	0b130000 	add	w0, w0, w19
    7e10:	52800041 	mov	w1, #0x2                   	// #2
    7e14:	97ffe433 	bl	0xee0
    7e18:	b9402fa0 	ldr	w0, [x29, #44]
    7e1c:	52800021 	mov	w1, #0x1                   	// #1
    7e20:	0b130000 	add	w0, w0, w19
    7e24:	2a0103e2 	mov	w2, w1
    7e28:	52800003 	mov	w3, #0x0                   	// #0
    7e2c:	97ffe42d 	bl	0xee0
    7e30:	f9400bf3 	ldr	x19, [sp, #16]
    7e34:	a8c37bfd 	ldp	x29, x30, [sp], #48
    7e38:	d65f03c0 	ret
    7e3c:	a9be7bfd 	stp	x29, x30, [sp, #-32]!
    7e40:	53124400 	lsl	w0, w0, #14
    7e44:	910003fd 	mov	x29, sp
    7e48:	b9001bbf 	str	wzr, [x29, #24]
    7e4c:	b9001fa0 	str	w0, [x29, #28]
    7e50:	52a620e0 	mov	w0, #0x31070000            	// #822542336
    7e54:	b9401fa1 	ldr	w1, [x29, #28]
    7e58:	0b000020 	add	w0, w1, w0
    7e5c:	52800021 	mov	w1, #0x1                   	// #1
    7e60:	2a0103e2 	mov	w2, w1
    7e64:	2a0103e3 	mov	w3, w1
    7e68:	97ffe41e 	bl	0xee0
    7e6c:	a8c27bfd 	ldp	x29, x30, [sp], #32
    7e70:	d65f03c0 	ret
    7e74:	d10043ff 	sub	sp, sp, #0x10
    7e78:	53124400 	lsl	w0, w0, #14
    7e7c:	b9000fe0 	str	w0, [sp, #12]
    7e80:	b9400fe1 	ldr	w1, [sp, #12]
    7e84:	52801600 	mov	w0, #0xb0                  	// #176
    7e88:	72a620e0 	movk	w0, #0x3107, lsl #16
    7e8c:	0b000020 	add	w0, w1, w0
    7e90:	b9400000 	ldr	w0, [x0]
    7e94:	360fff60 	tbz	w0, #1, 0x7e80
    7e98:	910043ff 	add	sp, sp, #0x10
    7e9c:	d65f03c0 	ret
    7ea0:	d10043ff 	sub	sp, sp, #0x10
    7ea4:	53124400 	lsl	w0, w0, #14
    7ea8:	b9000bff 	str	wzr, [sp, #8]
    7eac:	b9000fe0 	str	w0, [sp, #12]
    7eb0:	b9400fe1 	ldr	w1, [sp, #12]
    7eb4:	52801600 	mov	w0, #0xb0                  	// #176
    7eb8:	72a620e0 	movk	w0, #0x3107, lsl #16
    7ebc:	0b000020 	add	w0, w1, w0
    7ec0:	b9400000 	ldr	w0, [x0]
    7ec4:	360fff60 	tbz	w0, #1, 0x7eb0
    7ec8:	b9400fe1 	ldr	w1, [sp, #12]
    7ecc:	52801600 	mov	w0, #0xb0                  	// #176
    7ed0:	72a620e0 	movk	w0, #0x3107, lsl #16
    7ed4:	0b000020 	add	w0, w1, w0
    7ed8:	910043ff 	add	sp, sp, #0x10
    7edc:	b9400000 	ldr	w0, [x0]
    7ee0:	12000000 	and	w0, w0, #0x1
    7ee4:	d65f03c0 	ret
    7ee8:	a9bb7bfd 	stp	x29, x30, [sp, #-80]!
    7eec:	910003fd 	mov	x29, sp
    7ef0:	a9025bf5 	stp	x21, x22, [sp, #32]
    7ef4:	2a0103f6 	mov	w22, w1
    7ef8:	53124401 	lsl	w1, w0, #14
    7efc:	b9004bbf 	str	wzr, [x29, #72]
    7f00:	f9001fa4 	str	x4, [x29, #56]
    7f04:	f9001ba5 	str	x5, [x29, #48]
    7f08:	a90153f3 	stp	x19, x20, [sp, #16]
    7f0c:	2a0303f5 	mov	w21, w3
    7f10:	2a0203f4 	mov	w20, w2
    7f14:	b9004fa1 	str	w1, [x29, #76]
    7f18:	97ffffb3 	bl	0x7de4
    7f1c:	b9404fa0 	ldr	w0, [x29, #76]
    7f20:	52a620f3 	mov	w19, #0x31070000            	// #822542336
    7f24:	0b130000 	add	w0, w0, w19
    7f28:	52800022 	mov	w2, #0x1                   	// #1
    7f2c:	2a0203e3 	mov	w3, w2
    7f30:	b900001f 	str	wzr, [x0]
    7f34:	52800001 	mov	w1, #0x0                   	// #0
    7f38:	b9404fa0 	ldr	w0, [x29, #76]
    7f3c:	0b130000 	add	w0, w0, w19
    7f40:	97ffe3e8 	bl	0xee0
    7f44:	b9404fa0 	ldr	w0, [x29, #76]
    7f48:	52800061 	mov	w1, #0x3                   	// #3
    7f4c:	52800042 	mov	w2, #0x2                   	// #2
    7f50:	2a1603e3 	mov	w3, w22
    7f54:	0b130000 	add	w0, w0, w19
    7f58:	97ffe3e2 	bl	0xee0
    7f5c:	b9404fa0 	ldr	w0, [x29, #76]
    7f60:	528000a1 	mov	w1, #0x5                   	// #5
    7f64:	52800042 	mov	w2, #0x2                   	// #2
    7f68:	2a1403e3 	mov	w3, w20
    7f6c:	0b130000 	add	w0, w0, w19
    7f70:	97ffe3dc 	bl	0xee0
    7f74:	b9404fa0 	ldr	w0, [x29, #76]
    7f78:	528000e1 	mov	w1, #0x7                   	// #7
    7f7c:	52800082 	mov	w2, #0x4                   	// #4
    7f80:	528001e3 	mov	w3, #0xf                   	// #15
    7f84:	0b130000 	add	w0, w0, w19
    7f88:	97ffe3d6 	bl	0xee0
    7f8c:	b9404fa0 	ldr	w0, [x29, #76]
    7f90:	52800161 	mov	w1, #0xb                   	// #11
    7f94:	52800062 	mov	w2, #0x3                   	// #3
    7f98:	2a1503e3 	mov	w3, w21
    7f9c:	0b130000 	add	w0, w0, w19
    7fa0:	97ffe3d0 	bl	0xee0
    7fa4:	b9404fa0 	ldr	w0, [x29, #76]
    7fa8:	52800301 	mov	w1, #0x18                  	// #24
    7fac:	52800042 	mov	w2, #0x2                   	// #2
    7fb0:	52800063 	mov	w3, #0x3                   	// #3
    7fb4:	0b130000 	add	w0, w0, w19
    7fb8:	97ffe3ca 	bl	0xee0
    7fbc:	90000041 	adrp	x1, 0xf000
    7fc0:	b9404fa0 	ldr	w0, [x29, #76]
    7fc4:	52800022 	mov	w2, #0x1                   	// #1
    7fc8:	b9409021 	ldr	w1, [x1, #144]
    7fcc:	0b130000 	add	w0, w0, w19
    7fd0:	7100c03f 	cmp	w1, #0x30
    7fd4:	1a9f17e3 	cset	w3, eq  // eq = none
    7fd8:	52800381 	mov	w1, #0x1c                  	// #28
    7fdc:	97ffe3c1 	bl	0xee0
    7fe0:	b9404fa1 	ldr	w1, [x29, #76]
    7fe4:	52800080 	mov	w0, #0x4                   	// #4
    7fe8:	72a620e0 	movk	w0, #0x3107, lsl #16
    7fec:	0b000020 	add	w0, w1, w0
    7ff0:	f9401fa4 	ldr	x4, [x29, #56]
    7ff4:	f9401ba5 	ldr	x5, [x29, #48]
    7ff8:	b9000004 	str	w4, [x0]
    7ffc:	52800100 	mov	w0, #0x8                   	// #8
    8000:	b9404fa1 	ldr	w1, [x29, #76]
    8004:	72a620e0 	movk	w0, #0x3107, lsl #16
    8008:	0b000020 	add	w0, w1, w0
    800c:	7100069f 	cmp	w20, #0x1
    8010:	b9000005 	str	w5, [x0]
    8014:	54000380 	b.eq	0x8084  // b.none
    8018:	340000f4 	cbz	w20, 0x8034
    801c:	71000a9f 	cmp	w20, #0x2
    8020:	540007c1 	b.ne	0x8118  // b.any
    8024:	f0000022 	adrp	x2, 0xf000
    8028:	b9004bbf 	str	wzr, [x29, #72]
    802c:	91094042 	add	x2, x2, #0x250
    8030:	14000029 	b	0x80d4
    8034:	90000041 	adrp	x1, 0x10000
    8038:	b9004bb4 	str	w20, [x29, #72]
    803c:	91050021 	add	x1, x1, #0x140
    8040:	b9404ba0 	ldr	w0, [x29, #72]
    8044:	71007c1f 	cmp	w0, #0x1f
    8048:	54000688 	b.hi	0x8118  // b.pmore
    804c:	b9404ba3 	ldr	w3, [x29, #72]
    8050:	52980180 	mov	w0, #0xc00c                	// #49164
    8054:	72a18820 	movk	w0, #0xc41, lsl #16
    8058:	b9404fa2 	ldr	w2, [x29, #76]
    805c:	0b000060 	add	w0, w3, w0
    8060:	0b000840 	add	w0, w2, w0, lsl #2
    8064:	b9404ba2 	ldr	w2, [x29, #72]
    8068:	2a0003e0 	mov	w0, w0
    806c:	b8625822 	ldr	w2, [x1, w2, uxtw #2]
    8070:	b9000002 	str	w2, [x0]
    8074:	b9404ba0 	ldr	w0, [x29, #72]
    8078:	11000400 	add	w0, w0, #0x1
    807c:	b9004ba0 	str	w0, [x29, #72]
    8080:	17fffff0 	b	0x8040
    8084:	f0000022 	adrp	x2, 0xf000
    8088:	b9004bbf 	str	wzr, [x29, #72]
    808c:	9108c042 	add	x2, x2, #0x230
    8090:	b9404ba0 	ldr	w0, [x29, #72]
    8094:	7100141f 	cmp	w0, #0x5
    8098:	54000408 	b.hi	0x8118  // b.pmore
    809c:	b9404ba3 	ldr	w3, [x29, #72]
    80a0:	52980080 	mov	w0, #0xc004                	// #49156
    80a4:	72a18820 	movk	w0, #0xc41, lsl #16
    80a8:	b9404fa1 	ldr	w1, [x29, #76]
    80ac:	0b000060 	add	w0, w3, w0
    80b0:	0b000820 	add	w0, w1, w0, lsl #2
    80b4:	b9404ba1 	ldr	w1, [x29, #72]
    80b8:	2a0003e0 	mov	w0, w0
    80bc:	b8615841 	ldr	w1, [x2, w1, uxtw #2]
    80c0:	b9000001 	str	w1, [x0]
    80c4:	b9404ba0 	ldr	w0, [x29, #72]
    80c8:	11000400 	add	w0, w0, #0x1
    80cc:	b9004ba0 	str	w0, [x29, #72]
    80d0:	17fffff0 	b	0x8090
    80d4:	b9404ba0 	ldr	w0, [x29, #72]
    80d8:	71000c1f 	cmp	w0, #0x3
    80dc:	540001e8 	b.hi	0x8118  // b.pmore
    80e0:	b9404ba3 	ldr	w3, [x29, #72]
    80e4:	52980660 	mov	w0, #0xc033                	// #49203
    80e8:	72a18820 	movk	w0, #0xc41, lsl #16
    80ec:	b9404fa1 	ldr	w1, [x29, #76]
    80f0:	0b000060 	add	w0, w3, w0
    80f4:	0b000820 	add	w0, w1, w0, lsl #2
    80f8:	b9404ba1 	ldr	w1, [x29, #72]
    80fc:	2a0003e0 	mov	w0, w0
    8100:	b8615841 	ldr	w1, [x2, w1, uxtw #2]
    8104:	b9000001 	str	w1, [x0]
    8108:	b9404ba0 	ldr	w0, [x29, #72]
    810c:	11000400 	add	w0, w0, #0x1
    8110:	b9004ba0 	str	w0, [x29, #72]
    8114:	17fffff0 	b	0x80d4
    8118:	a94153f3 	ldp	x19, x20, [sp, #16]
    811c:	a9425bf5 	ldp	x21, x22, [sp, #32]
    8120:	a8c57bfd 	ldp	x29, x30, [sp], #80
    8124:	d65f03c0 	ret
    8128:	a9be7bfd 	stp	x29, x30, [sp, #-32]!
    812c:	910003fd 	mov	x29, sp
    8130:	f9000bf3 	str	x19, [sp, #16]
    8134:	2a0003f3 	mov	w19, w0
    8138:	97ffff0f 	bl	0x7d74
    813c:	2a1303e0 	mov	w0, w19
    8140:	97ffff1b 	bl	0x7dac
    8144:	2a1303e0 	mov	w0, w19
    8148:	f9400bf3 	ldr	x19, [sp, #16]
    814c:	a8c27bfd 	ldp	x29, x30, [sp], #32
    8150:	17ffff3b 	b	0x7e3c
    8154:	a9bf7bfd 	stp	x29, x30, [sp, #-16]!
    8158:	53001c00 	uxtb	w0, w0
    815c:	910003fd 	mov	x29, sp
    8160:	340000a0 	cbz	w0, 0x8174
    8164:	b0000020 	adrp	x0, 0xd000
    8168:	91377000 	add	x0, x0, #0xddc
    816c:	97ffe399 	bl	0xfd0
    8170:	14000000 	b	0x8170
    8174:	b0000020 	adrp	x0, 0xd000
    8178:	a8c17bfd 	ldp	x29, x30, [sp], #16
    817c:	9137cc00 	add	x0, x0, #0xdf3
    8180:	17ffe394 	b	0xfd0
    8184:	a9be7bfd 	stp	x29, x30, [sp, #-32]!
    8188:	910003fd 	mov	x29, sp
    818c:	b9400002 	ldr	w2, [x0]
    8190:	f9000bf3 	str	x19, [sp, #16]
    8194:	7100045f 	cmp	w2, #0x1
    8198:	aa0003f3 	mov	x19, x0
    819c:	54000200 	b.eq	0x81dc  // b.none
    81a0:	7100085f 	cmp	w2, #0x2
    81a4:	540003c1 	b.ne	0x821c  // b.any
    81a8:	b9400c05 	ldr	w5, [x0, #12]
    81ac:	b9401004 	ldr	w4, [x0, #16]
    81b0:	f0000023 	adrp	x3, 0xf000
    81b4:	4b050084 	sub	w4, w4, w5
    81b8:	52800020 	mov	w0, #0x1                   	// #1
    81bc:	53087c84 	lsr	w4, w4, #8
    81c0:	39498463 	ldrb	w3, [x3, #609]
    81c4:	2a0203e1 	mov	w1, w2
    81c8:	51000484 	sub	w4, w4, #0x1
    81cc:	2a0003e2 	mov	w2, w0
    81d0:	97ffff46 	bl	0x7ee8
    81d4:	52800020 	mov	w0, #0x1                   	// #1
    81d8:	1400000c 	b	0x8208
    81dc:	b9400405 	ldr	w5, [x0, #4]
    81e0:	b9400804 	ldr	w4, [x0, #8]
    81e4:	f0000023 	adrp	x3, 0xf000
    81e8:	4b050084 	sub	w4, w4, w5
    81ec:	53087c84 	lsr	w4, w4, #8
    81f0:	39498063 	ldrb	w3, [x3, #608]
    81f4:	52800000 	mov	w0, #0x0                   	// #0
    81f8:	52800041 	mov	w1, #0x2                   	// #2
    81fc:	51000484 	sub	w4, w4, #0x1
    8200:	97ffff3a 	bl	0x7ee8
    8204:	52800000 	mov	w0, #0x0                   	// #0
    8208:	97ffffc8 	bl	0x8128
    820c:	b9400260 	ldr	w0, [x19]
    8210:	7100041f 	cmp	w0, #0x1
    8214:	54000061 	b.ne	0x8220  // b.any
    8218:	1400000c 	b	0x8248
    821c:	14000000 	b	0x821c
    8220:	7100081f 	cmp	w0, #0x2
    8224:	52800013 	mov	w19, #0x0                   	// #0
    8228:	540001e1 	b.ne	0x8264  // b.any
    822c:	52800020 	mov	w0, #0x1                   	// #1
    8230:	97ffff11 	bl	0x7e74
    8234:	52800020 	mov	w0, #0x1                   	// #1
    8238:	97ffff1a 	bl	0x7ea0
    823c:	53001c13 	uxtb	w19, w0
    8240:	52800020 	mov	w0, #0x1                   	// #1
    8244:	14000007 	b	0x8260
    8248:	52800000 	mov	w0, #0x0                   	// #0
    824c:	97ffff0a 	bl	0x7e74
    8250:	52800000 	mov	w0, #0x0                   	// #0
    8254:	97ffff13 	bl	0x7ea0
    8258:	53001c13 	uxtb	w19, w0
    825c:	52800000 	mov	w0, #0x0                   	// #0
    8260:	97fffee1 	bl	0x7de4
    8264:	d2868000 	mov	x0, #0x3400                	// #13312
    8268:	f2a620a0 	movk	x0, #0x3105, lsl #16
    826c:	b900001f 	str	wzr, [x0]
    8270:	2a1303e0 	mov	w0, w19
    8274:	f9400bf3 	ldr	x19, [sp, #16]
    8278:	a8c27bfd 	ldp	x29, x30, [sp], #32
    827c:	d65f03c0 	ret
    8280:	a9bd7bfd 	stp	x29, x30, [sp, #-48]!
    8284:	52800043 	mov	w3, #0x2                   	// #2
    8288:	910003fd 	mov	x29, sp
    828c:	a90153f3 	stp	x19, x20, [sp, #16]
    8290:	90000053 	adrp	x19, 0x10000
    8294:	91052262 	add	x2, x19, #0x148
    8298:	b9000043 	str	w3, [x2]
    829c:	90000042 	adrp	x2, 0x10000
    82a0:	91024042 	add	x2, x2, #0x90
    82a4:	b9401443 	ldr	w3, [x2, #20]
    82a8:	7100087f 	cmp	w3, #0x2
    82ac:	540000a1 	b.ne	0x82c0  // b.any
    82b0:	f9401054 	ldr	x20, [x2, #32]
    82b4:	f9400c42 	ldr	x2, [x2, #24]
    82b8:	0b020294 	add	w20, w20, w2
    82bc:	14000005 	b	0x82d0
    82c0:	7100047f 	cmp	w3, #0x1
    82c4:	52800014 	mov	w20, #0x0                   	// #0
    82c8:	54000041 	b.ne	0x82d0  // b.any
    82cc:	b9401854 	ldr	w20, [x2, #24]
    82d0:	6b01001f 	cmp	w0, w1
    82d4:	540000c9 	b.ls	0x82ec  // b.plast
    82d8:	b0000020 	adrp	x0, 0xd000
    82dc:	91382800 	add	x0, x0, #0xe0a
    82e0:	97ffe33c 	bl	0xfd0
    82e4:	12800000 	mov	w0, #0xffffffff            	// #-1
    82e8:	1400001d 	b	0x835c
    82ec:	91052273 	add	x19, x19, #0x148
    82f0:	f90017a1 	str	x1, [x29, #40]
    82f4:	b9001260 	str	w0, [x19, #16]
    82f8:	aa1303e0 	mov	x0, x19
    82fc:	b9000e7f 	str	wzr, [x19, #12]
    8300:	97ffffa1 	bl	0x8184
    8304:	53001c00 	uxtb	w0, w0
    8308:	f94017a1 	ldr	x1, [x29, #40]
    830c:	340000a0 	cbz	w0, 0x8320
    8310:	b0000020 	adrp	x0, 0xd000
    8314:	91391000 	add	x0, x0, #0xe44
    8318:	97ffe32e 	bl	0xfd0
    831c:	14000000 	b	0x831c
    8320:	51000680 	sub	w0, w20, #0x1
    8324:	51000a94 	sub	w20, w20, #0x2
    8328:	b9000e61 	str	w1, [x19, #12]
    832c:	b9001260 	str	w0, [x19, #16]
    8330:	6b14003f 	cmp	w1, w20
    8334:	54000122 	b.cs	0x8358  // b.hs, b.nlast
    8338:	aa1303e0 	mov	x0, x19
    833c:	97ffff92 	bl	0x8184
    8340:	53001c00 	uxtb	w0, w0
    8344:	340000a0 	cbz	w0, 0x8358
    8348:	b0000020 	adrp	x0, 0xd000
    834c:	91391000 	add	x0, x0, #0xe44
    8350:	97ffe320 	bl	0xfd0
    8354:	14000000 	b	0x8354
    8358:	52800000 	mov	w0, #0x0                   	// #0
    835c:	a94153f3 	ldp	x19, x20, [sp, #16]
    8360:	a8c37bfd 	ldp	x29, x30, [sp], #48
    8364:	d65f03c0 	ret
    8368:	a9be7bfd 	stp	x29, x30, [sp, #-32]!
    836c:	2a0003e3 	mov	w3, w0
    8370:	90000040 	adrp	x0, 0x10000
    8374:	91052002 	add	x2, x0, #0x148
    8378:	910003fd 	mov	x29, sp
    837c:	f9000bf3 	str	x19, [sp, #16]
    8380:	52800024 	mov	w4, #0x1                   	// #1
    8384:	b9000044 	str	w4, [x2]
    8388:	90000042 	adrp	x2, 0x10000
    838c:	91024042 	add	x2, x2, #0x90
    8390:	b9401445 	ldr	w5, [x2, #20]
    8394:	710008bf 	cmp	w5, #0x2
    8398:	540000a1 	b.ne	0x83ac  // b.any
    839c:	f9401044 	ldr	x4, [x2, #32]
    83a0:	f9400c42 	ldr	x2, [x2, #24]
    83a4:	8b020084 	add	x4, x4, x2
    83a8:	14000005 	b	0x83bc
    83ac:	710004bf 	cmp	w5, #0x1
    83b0:	d2800004 	mov	x4, #0x0                   	// #0
    83b4:	54000041 	b.ne	0x83bc  // b.any
    83b8:	f9400c44 	ldr	x4, [x2, #24]
    83bc:	6b01007f 	cmp	w3, w1
    83c0:	540000c8 	b.hi	0x83d8  // b.pmore
    83c4:	d1000484 	sub	x4, x4, #0x1
    83c8:	eb23409f 	cmp	x4, w3, uxtw
    83cc:	54000063 	b.cc	0x83d8  // b.lo, b.ul, b.last
    83d0:	eb21409f 	cmp	x4, w1, uxtw
    83d4:	540000c2 	b.cs	0x83ec  // b.hs, b.nlast
    83d8:	b0000020 	adrp	x0, 0xd000
    83dc:	913a8400 	add	x0, x0, #0xea1
    83e0:	97ffe2fc 	bl	0xfd0
    83e4:	52800020 	mov	w0, #0x1                   	// #1
    83e8:	1400000f 	b	0x8424
    83ec:	91052000 	add	x0, x0, #0x148
    83f0:	b9000403 	str	w3, [x0, #4]
    83f4:	b9000801 	str	w1, [x0, #8]
    83f8:	97ffff63 	bl	0x8184
    83fc:	53001c13 	uxtb	w19, w0
    8400:	52800000 	mov	w0, #0x0                   	// #0
    8404:	34000113 	cbz	w19, 0x8424
    8408:	90000040 	adrp	x0, 0x10000
    840c:	b940f000 	ldr	w0, [x0, #240]
    8410:	35000080 	cbnz	w0, 0x8420
    8414:	b0000020 	adrp	x0, 0xd000
    8418:	91396000 	add	x0, x0, #0xe58
    841c:	97ffe2ed 	bl	0xfd0
    8420:	2a1303e0 	mov	w0, w19
    8424:	f9400bf3 	ldr	x19, [sp, #16]
    8428:	a8c27bfd 	ldp	x29, x30, [sp], #32
    842c:	d65f03c0 	ret
    8430:	a9bf7bfd 	stp	x29, x30, [sp, #-16]!
    8434:	52820001 	mov	w1, #0x1000                	// #4096
    8438:	910003fd 	mov	x29, sp
    843c:	52800000 	mov	w0, #0x0                   	// #0
    8440:	97ffffca 	bl	0x8368
    8444:	a8c17bfd 	ldp	x29, x30, [sp], #16
    8448:	17ffff43 	b	0x8154
    844c:	a9bf7bfd 	stp	x29, x30, [sp, #-16]!
    8450:	2a0003e3 	mov	w3, w0
    8454:	7100047f 	cmp	w3, #0x1
    8458:	910003fd 	mov	x29, sp
    845c:	2a0103e0 	mov	w0, w1
    8460:	2a0203e1 	mov	w1, w2
    8464:	54000160 	b.eq	0x8490  // b.none
    8468:	340000c3 	cbz	w3, 0x8480
    846c:	7100087f 	cmp	w3, #0x2
    8470:	54000181 	b.ne	0x84a0  // b.any
    8474:	97ffffef 	bl	0x8430
    8478:	52800000 	mov	w0, #0x0                   	// #0
    847c:	1400000a 	b	0x84a4
    8480:	97ffff80 	bl	0x8280
    8484:	7100041f 	cmp	w0, #0x1
    8488:	540000e1 	b.ne	0x84a4  // b.any
    848c:	14000000 	b	0x848c
    8490:	97ffffb6 	bl	0x8368
    8494:	7100041f 	cmp	w0, #0x1
    8498:	54000061 	b.ne	0x84a4  // b.any
    849c:	14000000 	b	0x849c
    84a0:	12800000 	mov	w0, #0xffffffff            	// #-1
    84a4:	a8c17bfd 	ldp	x29, x30, [sp], #16
    84a8:	d65f03c0 	ret
    84ac:	d2800501 	mov	x1, #0x28                  	// #40
    84b0:	f2a64201 	movk	x1, #0x3210, lsl #16
    84b4:	b9000020 	str	w0, [x1]
    84b8:	5281a801 	mov	w1, #0xd40                 	// #3392
    84bc:	72a00061 	movk	w1, #0x3, lsl #16
    84c0:	d2800582 	mov	x2, #0x2c                  	// #44
    84c4:	f2a64202 	movk	x2, #0x3210, lsl #16
    84c8:	b9400042 	ldr	w2, [x2]
    84cc:	36f800a2 	tbz	w2, #31, 0x84e0
    84d0:	71000421 	subs	w1, w1, #0x1
    84d4:	54ffff61 	b.ne	0x84c0  // b.any
    84d8:	12800000 	mov	w0, #0xffffffff            	// #-1
    84dc:	14000005 	b	0x84f0
    84e0:	d3424000 	ubfx	x0, x0, #2, #15
    84e4:	12003c41 	and	w1, w2, #0xffff
    84e8:	6b42401f 	cmp	w0, w2, lsr #16
    84ec:	5a9f0020 	csinv	w0, w1, wzr, eq  // eq = none
    84f0:	d65f03c0 	ret
    84f4:	a9bd7bfd 	stp	x29, x30, [sp, #-48]!
    84f8:	910003fd 	mov	x29, sp
    84fc:	a90153f3 	stp	x19, x20, [sp, #16]
    8500:	f90013f5 	str	x21, [sp, #32]
    8504:	2a0003f4 	mov	w20, w0
    8508:	53003c35 	uxth	w21, w1
    850c:	52807d13 	mov	w19, #0x3e8                 	// #1000
    8510:	d2800602 	mov	x2, #0x30                  	// #48
    8514:	f2a64202 	movk	x2, #0x3210, lsl #16
    8518:	b9400042 	ldr	w2, [x2]
    851c:	375000c2 	tbnz	w2, #10, 0x8534
    8520:	71000673 	subs	w19, w19, #0x1
    8524:	54000200 	b.eq	0x8564  // b.none
    8528:	52800040 	mov	w0, #0x2                   	// #2
    852c:	940005f9 	bl	0x9d10
    8530:	17fffff8 	b	0x8510
    8534:	5281a802 	mov	w2, #0xd40                 	// #3392
    8538:	72a00062 	movk	w2, #0x3, lsl #16
    853c:	d2800603 	mov	x3, #0x30                  	// #48
    8540:	f2a64203 	movk	x3, #0x3210, lsl #16
    8544:	b9400063 	ldr	w3, [x3]
    8548:	375800a3 	tbnz	w3, #11, 0x855c
    854c:	6b1f005f 	cmp	w2, wzr
    8550:	b9000295 	str	w21, [x20]
    8554:	5a9f13e0 	csetm	w0, eq  // eq = none
    8558:	14000004 	b	0x8568
    855c:	71000442 	subs	w2, w2, #0x1
    8560:	54fffee1 	b.ne	0x853c  // b.any
    8564:	12800000 	mov	w0, #0xffffffff            	// #-1
    8568:	a94153f3 	ldp	x19, x20, [sp, #16]
    856c:	f94013f5 	ldr	x21, [sp, #32]
    8570:	a8c37bfd 	ldp	x29, x30, [sp], #48
    8574:	d65f03c0 	ret
    8578:	52b9bdc1 	mov	w1, #0xcdee0000            	// #-840040448
    857c:	0b010001 	add	w1, w0, w1
    8580:	7140243f 	cmp	w1, #0x9, lsl #12
    8584:	54000048 	b.hi	0x858c  // b.pmore
    8588:	17ffffc9 	b	0x84ac
    858c:	12800000 	mov	w0, #0xffffffff            	// #-1
    8590:	d65f03c0 	ret
    8594:	52b9bdc2 	mov	w2, #0xcdee0000            	// #-840040448
    8598:	0b020002 	add	w2, w0, w2
    859c:	7140245f 	cmp	w2, #0x9, lsl #12
    85a0:	53003c21 	uxth	w1, w1
    85a4:	54000048 	b.hi	0x85ac  // b.pmore
    85a8:	17ffffd3 	b	0x84f4
    85ac:	12800000 	mov	w0, #0xffffffff            	// #-1
    85b0:	d65f03c0 	ret
    85b4:	a9bd7bfd 	stp	x29, x30, [sp, #-48]!
    85b8:	910003fd 	mov	x29, sp
    85bc:	a90153f3 	stp	x19, x20, [sp, #16]
    85c0:	53003c34 	uxth	w20, w1
    85c4:	52b9bdc1 	mov	w1, #0xcdee0000            	// #-840040448
    85c8:	0b010001 	add	w1, w0, w1
    85cc:	f90013f5 	str	x21, [sp, #32]
    85d0:	7140243f 	cmp	w1, #0x9, lsl #12
    85d4:	2a0003f3 	mov	w19, w0
    85d8:	53003c55 	uxth	w21, w2
    85dc:	54000069 	b.ls	0x85e8  // b.plast
    85e0:	12800000 	mov	w0, #0xffffffff            	// #-1
    85e4:	1400000a 	b	0x860c
    85e8:	97ffffb1 	bl	0x84ac
    85ec:	37f80100 	tbnz	w0, #31, 0x860c
    85f0:	0a350001 	bic	w1, w0, w21
    85f4:	2a140021 	orr	w1, w1, w20
    85f8:	2a1303e0 	mov	w0, w19
    85fc:	f94013f5 	ldr	x21, [sp, #32]
    8600:	a94153f3 	ldp	x19, x20, [sp, #16]
    8604:	a8c37bfd 	ldp	x29, x30, [sp], #48
    8608:	17ffffbb 	b	0x84f4
    860c:	a94153f3 	ldp	x19, x20, [sp, #16]
    8610:	f94013f5 	ldr	x21, [sp, #32]
    8614:	a8c37bfd 	ldp	x29, x30, [sp], #48
    8618:	d65f03c0 	ret
    861c:	d2800100 	mov	x0, #0x8                   	// #8
    8620:	f2a64fa0 	movk	x0, #0x327d, lsl #16
    8624:	a9bf7bfd 	stp	x29, x30, [sp, #-16]!
    8628:	910003fd 	mov	x29, sp
    862c:	b9400001 	ldr	w1, [x0]
    8630:	d2800100 	mov	x0, #0x8                   	// #8
    8634:	f2a64fa0 	movk	x0, #0x327d, lsl #16
    8638:	32170021 	orr	w1, w1, #0x200
    863c:	b9000001 	str	w1, [x0]
    8640:	d2800280 	mov	x0, #0x14                  	// #20
    8644:	f2a64fa0 	movk	x0, #0x327d, lsl #16
    8648:	b9400001 	ldr	w1, [x0]
    864c:	d2800280 	mov	x0, #0x14                  	// #20
    8650:	f2a64fa0 	movk	x0, #0x327d, lsl #16
    8654:	32170021 	orr	w1, w1, #0x200
    8658:	b9000001 	str	w1, [x0]
    865c:	52800040 	mov	w0, #0x2                   	// #2
    8660:	940005ac 	bl	0x9d10
    8664:	d2800280 	mov	x0, #0x14                  	// #20
    8668:	f2a64fa0 	movk	x0, #0x327d, lsl #16
    866c:	b9400001 	ldr	w1, [x0]
    8670:	d2800280 	mov	x0, #0x14                  	// #20
    8674:	f2a64fa0 	movk	x0, #0x327d, lsl #16
    8678:	12167821 	and	w1, w1, #0xfffffdff
    867c:	b9000001 	str	w1, [x0]
    8680:	d2800100 	mov	x0, #0x8                   	// #8
    8684:	f2a64200 	movk	x0, #0x3210, lsl #16
    8688:	b900001f 	str	wzr, [x0]
    868c:	d2800180 	mov	x0, #0xc                   	// #12
    8690:	f2a64200 	movk	x0, #0x3210, lsl #16
    8694:	b900001f 	str	wzr, [x0]
    8698:	d2800480 	mov	x0, #0x24                  	// #36
    869c:	f2a64200 	movk	x0, #0x3210, lsl #16
    86a0:	b9400001 	ldr	w1, [x0]
    86a4:	d2800480 	mov	x0, #0x24                  	// #36
    86a8:	f2a64200 	movk	x0, #0x3210, lsl #16
    86ac:	32010021 	orr	w1, w1, #0x80000000
    86b0:	b9000001 	str	w1, [x0]
    86b4:	d2800400 	mov	x0, #0x20                  	// #32
    86b8:	f2a64200 	movk	x0, #0x3210, lsl #16
    86bc:	b9400001 	ldr	w1, [x0]
    86c0:	52808400 	mov	w0, #0x420                 	// #1056
    86c4:	12155021 	and	w1, w1, #0xfffff800
    86c8:	2a000021 	orr	w1, w1, w0
    86cc:	d2800400 	mov	x0, #0x20                  	// #32
    86d0:	f2a64200 	movk	x0, #0x3210, lsl #16
    86d4:	b9000001 	str	w1, [x0]
    86d8:	d2800080 	mov	x0, #0x4                   	// #4
    86dc:	f2a64200 	movk	x0, #0x3210, lsl #16
    86e0:	b9400001 	ldr	w1, [x0]
    86e4:	d2800080 	mov	x0, #0x4                   	// #4
    86e8:	f2a64200 	movk	x0, #0x3210, lsl #16
    86ec:	121b7421 	and	w1, w1, #0xffffffe7
    86f0:	321c0021 	orr	w1, w1, #0x10
    86f4:	b9000001 	str	w1, [x0]
    86f8:	a8c17bfd 	ldp	x29, x30, [sp], #16
    86fc:	d65f03c0 	ret
    8700:	a9b97bfd 	stp	x29, x30, [sp, #-112]!
    8704:	d2810080 	mov	x0, #0x804                 	// #2052
    8708:	910003fd 	mov	x29, sp
    870c:	a9017fbf 	stp	xzr, xzr, [x29, #16]
    8710:	a9027fbf 	stp	xzr, xzr, [x29, #32]
    8714:	a9037fbf 	stp	xzr, xzr, [x29, #48]
    8718:	a9047fbf 	stp	xzr, xzr, [x29, #64]
    871c:	a9057fbf 	stp	xzr, xzr, [x29, #80]
    8720:	a9067fbf 	stp	xzr, xzr, [x29, #96]
    8724:	b800441f 	str	wzr, [x0], #4
    8728:	f121901f 	cmp	x0, #0x864
    872c:	54ffffc1 	b.ne	0x8724  // b.any
    8730:	52800be1 	mov	w1, #0x5f                  	// #95
    8734:	52800900 	mov	w0, #0x48                  	// #72
    8738:	910043a2 	add	x2, x29, #0x10
    873c:	52800003 	mov	w3, #0x0                   	// #0
    8740:	940008c8 	bl	0xaa60
    8744:	d2810081 	mov	x1, #0x804                 	// #2052
    8748:	35000100 	cbnz	w0, 0x8768
    874c:	910043a3 	add	x3, x29, #0x10
    8750:	8b010062 	add	x2, x3, x1
    8754:	d1201042 	sub	x2, x2, #0x804
    8758:	b9400042 	ldr	w2, [x2]
    875c:	b8004422 	str	w2, [x1], #4
    8760:	f121903f 	cmp	x1, #0x864
    8764:	54ffff41 	b.ne	0x874c  // b.any
    8768:	a8c77bfd 	ldp	x29, x30, [sp], #112
    876c:	d65f03c0 	ret
    8770:	a9bf7bfd 	stp	x29, x30, [sp, #-16]!
    8774:	910003fd 	mov	x29, sp
    8778:	97ffffe2 	bl	0x8700
    877c:	52800001 	mov	w1, #0x0                   	// #0
    8780:	34000060 	cbz	w0, 0x878c
    8784:	97ffffdf 	bl	0x8700
    8788:	2a0003e1 	mov	w1, w0
    878c:	d2810000 	mov	x0, #0x800                 	// #2048
    8790:	b900001f 	str	wzr, [x0]
    8794:	b9000001 	str	w1, [x0]
    8798:	2a0103e0 	mov	w0, w1
    879c:	a8c17bfd 	ldp	x29, x30, [sp], #16
    87a0:	d65f03c0 	ret
    87a4:	d10043ff 	sub	sp, sp, #0x10
    87a8:	b9000fff 	str	wzr, [sp, #12]
    87ac:	360000a1 	tbz	w1, #0, 0x87c0
    87b0:	b9400fe3 	ldr	w3, [sp, #12]
    87b4:	52a23fe2 	mov	w2, #0x11ff0000            	// #301924352
    87b8:	2a020062 	orr	w2, w3, w2
    87bc:	b9000fe2 	str	w2, [sp, #12]
    87c0:	36080081 	tbz	w1, #1, 0x87d0
    87c4:	b9400fe2 	ldr	w2, [sp, #12]
    87c8:	32180042 	orr	w2, w2, #0x100
    87cc:	b9000fe2 	str	w2, [sp, #12]
    87d0:	36100081 	tbz	w1, #2, 0x87e0
    87d4:	b9400fe2 	ldr	w2, [sp, #12]
    87d8:	321a0042 	orr	w2, w2, #0x40
    87dc:	b9000fe2 	str	w2, [sp, #12]
    87e0:	36180081 	tbz	w1, #3, 0x87f0
    87e4:	b9400fe2 	ldr	w2, [sp, #12]
    87e8:	32190042 	orr	w2, w2, #0x80
    87ec:	b9000fe2 	str	w2, [sp, #12]
    87f0:	36200081 	tbz	w1, #4, 0x8800
    87f4:	b9400fe2 	ldr	w2, [sp, #12]
    87f8:	321b0042 	orr	w2, w2, #0x20
    87fc:	b9000fe2 	str	w2, [sp, #12]
    8800:	36280081 	tbz	w1, #5, 0x8810
    8804:	b9400fe2 	ldr	w2, [sp, #12]
    8808:	321c0042 	orr	w2, w2, #0x10
    880c:	b9000fe2 	str	w2, [sp, #12]
    8810:	36300081 	tbz	w1, #6, 0x8820
    8814:	b9400fe2 	ldr	w2, [sp, #12]
    8818:	321d0042 	orr	w2, w2, #0x8
    881c:	b9000fe2 	str	w2, [sp, #12]
    8820:	36380081 	tbz	w1, #7, 0x8830
    8824:	b9400fe2 	ldr	w2, [sp, #12]
    8828:	321e0042 	orr	w2, w2, #0x4
    882c:	b9000fe2 	str	w2, [sp, #12]
    8830:	36400081 	tbz	w1, #8, 0x8840
    8834:	b9400fe2 	ldr	w2, [sp, #12]
    8838:	321f0042 	orr	w2, w2, #0x2
    883c:	b9000fe2 	str	w2, [sp, #12]
    8840:	36480081 	tbz	w1, #9, 0x8850
    8844:	b9400fe1 	ldr	w1, [sp, #12]
    8848:	32000021 	orr	w1, w1, #0x1
    884c:	b9000fe1 	str	w1, [sp, #12]
    8850:	f9400000 	ldr	x0, [x0]
    8854:	b9403801 	ldr	w1, [x0, #56]
    8858:	b9400fe2 	ldr	w2, [sp, #12]
    885c:	0a220021 	bic	w1, w1, w2
    8860:	b9003801 	str	w1, [x0, #56]
    8864:	b9403401 	ldr	w1, [x0, #52]
    8868:	b9400fe2 	ldr	w2, [sp, #12]
    886c:	0a220021 	bic	w1, w1, w2
    8870:	b9003401 	str	w1, [x0, #52]
    8874:	b9400fe1 	ldr	w1, [sp, #12]
    8878:	b9003001 	str	w1, [x0, #48]
    887c:	910043ff 	add	sp, sp, #0x10
    8880:	d65f03c0 	ret
    8884:	d10043ff 	sub	sp, sp, #0x10
    8888:	b9000fff 	str	wzr, [sp, #12]
    888c:	36000541 	tbz	w1, #0, 0x8934
    8890:	b9401402 	ldr	w2, [x0, #20]
    8894:	36000082 	tbz	w2, #0, 0x88a4
    8898:	b9400fe3 	ldr	w3, [sp, #12]
    889c:	32040063 	orr	w3, w3, #0x10000000
    88a0:	b9000fe3 	str	w3, [sp, #12]
    88a4:	36080082 	tbz	w2, #1, 0x88b4
    88a8:	b9400fe3 	ldr	w3, [sp, #12]
    88ac:	32080063 	orr	w3, w3, #0x1000000
    88b0:	b9000fe3 	str	w3, [sp, #12]
    88b4:	36100082 	tbz	w2, #2, 0x88c4
    88b8:	b9400fe3 	ldr	w3, [sp, #12]
    88bc:	32090063 	orr	w3, w3, #0x800000
    88c0:	b9000fe3 	str	w3, [sp, #12]
    88c4:	36180082 	tbz	w2, #3, 0x88d4
    88c8:	b9400fe3 	ldr	w3, [sp, #12]
    88cc:	320a0063 	orr	w3, w3, #0x400000
    88d0:	b9000fe3 	str	w3, [sp, #12]
    88d4:	36200082 	tbz	w2, #4, 0x88e4
    88d8:	b9400fe3 	ldr	w3, [sp, #12]
    88dc:	320b0063 	orr	w3, w3, #0x200000
    88e0:	b9000fe3 	str	w3, [sp, #12]
    88e4:	36280082 	tbz	w2, #5, 0x88f4
    88e8:	b9400fe3 	ldr	w3, [sp, #12]
    88ec:	320c0063 	orr	w3, w3, #0x100000
    88f0:	b9000fe3 	str	w3, [sp, #12]
    88f4:	36300082 	tbz	w2, #6, 0x8904
    88f8:	b9400fe3 	ldr	w3, [sp, #12]
    88fc:	320d0063 	orr	w3, w3, #0x80000
    8900:	b9000fe3 	str	w3, [sp, #12]
    8904:	36380082 	tbz	w2, #7, 0x8914
    8908:	b9400fe3 	ldr	w3, [sp, #12]
    890c:	320e0063 	orr	w3, w3, #0x40000
    8910:	b9000fe3 	str	w3, [sp, #12]
    8914:	36400082 	tbz	w2, #8, 0x8924
    8918:	b9400fe3 	ldr	w3, [sp, #12]
    891c:	320f0063 	orr	w3, w3, #0x20000
    8920:	b9000fe3 	str	w3, [sp, #12]
    8924:	36480082 	tbz	w2, #9, 0x8934
    8928:	b9400fe2 	ldr	w2, [sp, #12]
    892c:	32100042 	orr	w2, w2, #0x10000
    8930:	b9000fe2 	str	w2, [sp, #12]
    8934:	36080081 	tbz	w1, #1, 0x8944
    8938:	b9400fe2 	ldr	w2, [sp, #12]
    893c:	32180042 	orr	w2, w2, #0x100
    8940:	b9000fe2 	str	w2, [sp, #12]
    8944:	36100081 	tbz	w1, #2, 0x8954
    8948:	b9400fe2 	ldr	w2, [sp, #12]
    894c:	321a0042 	orr	w2, w2, #0x40
    8950:	b9000fe2 	str	w2, [sp, #12]
    8954:	36180081 	tbz	w1, #3, 0x8964
    8958:	b9400fe2 	ldr	w2, [sp, #12]
    895c:	32190042 	orr	w2, w2, #0x80
    8960:	b9000fe2 	str	w2, [sp, #12]
    8964:	36200081 	tbz	w1, #4, 0x8974
    8968:	b9400fe2 	ldr	w2, [sp, #12]
    896c:	321b0042 	orr	w2, w2, #0x20
    8970:	b9000fe2 	str	w2, [sp, #12]
    8974:	36280081 	tbz	w1, #5, 0x8984
    8978:	b9400fe2 	ldr	w2, [sp, #12]
    897c:	321c0042 	orr	w2, w2, #0x10
    8980:	b9000fe2 	str	w2, [sp, #12]
    8984:	36300081 	tbz	w1, #6, 0x8994
    8988:	b9400fe2 	ldr	w2, [sp, #12]
    898c:	321d0042 	orr	w2, w2, #0x8
    8990:	b9000fe2 	str	w2, [sp, #12]
    8994:	36380081 	tbz	w1, #7, 0x89a4
    8998:	b9400fe2 	ldr	w2, [sp, #12]
    899c:	321e0042 	orr	w2, w2, #0x4
    89a0:	b9000fe2 	str	w2, [sp, #12]
    89a4:	36400081 	tbz	w1, #8, 0x89b4
    89a8:	b9400fe2 	ldr	w2, [sp, #12]
    89ac:	321f0042 	orr	w2, w2, #0x2
    89b0:	b9000fe2 	str	w2, [sp, #12]
    89b4:	36480081 	tbz	w1, #9, 0x89c4
    89b8:	b9400fe1 	ldr	w1, [sp, #12]
    89bc:	32000021 	orr	w1, w1, #0x1
    89c0:	b9000fe1 	str	w1, [sp, #12]
    89c4:	f9400000 	ldr	x0, [x0]
    89c8:	b9403401 	ldr	w1, [x0, #52]
    89cc:	b9400fe2 	ldr	w2, [sp, #12]
    89d0:	2a010041 	orr	w1, w2, w1
    89d4:	b9003401 	str	w1, [x0, #52]
    89d8:	b9403801 	ldr	w1, [x0, #56]
    89dc:	b9400fe2 	ldr	w2, [sp, #12]
    89e0:	910043ff 	add	sp, sp, #0x10
    89e4:	2a010041 	orr	w1, w2, w1
    89e8:	b9003801 	str	w1, [x0, #56]
    89ec:	d65f03c0 	ret
    89f0:	a9bd7bfd 	stp	x29, x30, [sp, #-48]!
    89f4:	910003fd 	mov	x29, sp
    89f8:	f9000bf3 	str	x19, [sp, #16]
    89fc:	2a0003f3 	mov	w19, w0
    8a00:	360800d3 	tbz	w19, #1, 0x8a18
    8a04:	f0000020 	adrp	x0, 0xf000
    8a08:	9105a000 	add	x0, x0, #0x168
    8a0c:	b9402002 	ldr	w2, [x0, #32]
    8a10:	321f0042 	orr	w2, w2, #0x2
    8a14:	b9002002 	str	w2, [x0, #32]
    8a18:	361000d3 	tbz	w19, #2, 0x8a30
    8a1c:	f0000020 	adrp	x0, 0xf000
    8a20:	9105a000 	add	x0, x0, #0x168
    8a24:	b9402001 	ldr	w1, [x0, #32]
    8a28:	321e0021 	orr	w1, w1, #0x4
    8a2c:	14000006 	b	0x8a44
    8a30:	361800f3 	tbz	w19, #3, 0x8a4c
    8a34:	f0000020 	adrp	x0, 0xf000
    8a38:	9105a000 	add	x0, x0, #0x168
    8a3c:	b9402001 	ldr	w1, [x0, #32]
    8a40:	321d0021 	orr	w1, w1, #0x8
    8a44:	b9002001 	str	w1, [x0, #32]
    8a48:	1400000a 	b	0x8a70
    8a4c:	36000133 	tbz	w19, #0, 0x8a70
    8a50:	f0000020 	adrp	x0, 0xf000
    8a54:	9105a000 	add	x0, x0, #0x168
    8a58:	b9402402 	ldr	w2, [x0, #36]
    8a5c:	2a020021 	orr	w1, w1, w2
    8a60:	b9002401 	str	w1, [x0, #36]
    8a64:	b9402001 	ldr	w1, [x0, #32]
    8a68:	32002421 	orr	w1, w1, #0x3ff
    8a6c:	1400001b 	b	0x8ad8
    8a70:	364000f3 	tbz	w19, #8, 0x8a8c
    8a74:	f0000020 	adrp	x0, 0xf000
    8a78:	9105a000 	add	x0, x0, #0x168
    8a7c:	b9402001 	ldr	w1, [x0, #32]
    8a80:	32180021 	orr	w1, w1, #0x100
    8a84:	b9002001 	str	w1, [x0, #32]
    8a88:	1400000f 	b	0x8ac4
    8a8c:	363001d3 	tbz	w19, #6, 0x8ac4
    8a90:	f0000020 	adrp	x0, 0xf000
    8a94:	9105a000 	add	x0, x0, #0x168
    8a98:	f9400001 	ldr	x1, [x0]
    8a9c:	b9405822 	ldr	w2, [x1, #88]
    8aa0:	b9002ba2 	str	w2, [x29, #40]
    8aa4:	b9405c22 	ldr	w2, [x1, #92]
    8aa8:	b9002fa2 	str	w2, [x29, #44]
    8aac:	b9402ba2 	ldr	w2, [x29, #40]
    8ab0:	b9005822 	str	w2, [x1, #88]
    8ab4:	b9402fa2 	ldr	w2, [x29, #44]
    8ab8:	b9005c22 	str	w2, [x1, #92]
    8abc:	52800801 	mov	w1, #0x40                  	// #64
    8ac0:	97ffff71 	bl	0x8884
    8ac4:	364800d3 	tbz	w19, #9, 0x8adc
    8ac8:	f0000020 	adrp	x0, 0xf000
    8acc:	9105a000 	add	x0, x0, #0x168
    8ad0:	b9402001 	ldr	w1, [x0, #32]
    8ad4:	32170021 	orr	w1, w1, #0x200
    8ad8:	b9002001 	str	w1, [x0, #32]
    8adc:	f9400bf3 	ldr	x19, [sp, #16]
    8ae0:	a8c37bfd 	ldp	x29, x30, [sp], #48
    8ae4:	d65f03c0 	ret
    8ae8:	b9400c03 	ldr	w3, [x0, #12]
    8aec:	531f7821 	lsl	w1, w1, #1
    8af0:	6b01007f 	cmp	w3, w1
    8af4:	d10043ff 	sub	sp, sp, #0x10
    8af8:	52800002 	mov	w2, #0x0                   	// #0
    8afc:	540000a3 	b.cc	0x8b10  // b.lo, b.ul, b.last
    8b00:	1ac10862 	udiv	w2, w3, w1
    8b04:	1ac20864 	udiv	w4, w3, w2
    8b08:	6b01009f 	cmp	w4, w1
    8b0c:	1a829442 	cinc	w2, w2, hi  // hi = pmore
    8b10:	53017c41 	lsr	w1, w2, #1
    8b14:	36000062 	tbz	w2, #0, 0x8b20
    8b18:	11000442 	add	w2, w2, #0x1
    8b1c:	53017c41 	lsr	w1, w2, #1
    8b20:	f9400004 	ldr	x4, [x0]
    8b24:	b9402c82 	ldr	w2, [x4, #44]
    8b28:	b9000fe2 	str	w2, [sp, #12]
    8b2c:	b9400fe2 	ldr	w2, [sp, #12]
    8b30:	12105442 	and	w2, w2, #0xffff003f
    8b34:	b9000fe2 	str	w2, [sp, #12]
    8b38:	53087c22 	lsr	w2, w1, #8
    8b3c:	b9400fe5 	ldr	w5, [sp, #12]
    8b40:	531a0442 	ubfiz	w2, w2, #6, #2
    8b44:	2a050042 	orr	w2, w2, w5
    8b48:	b9000fe2 	str	w2, [sp, #12]
    8b4c:	53181c25 	ubfiz	w5, w1, #8, #8
    8b50:	b9400fe2 	ldr	w2, [sp, #12]
    8b54:	2a0200a2 	orr	w2, w5, w2
    8b58:	b9000fe2 	str	w2, [sp, #12]
    8b5c:	34000081 	cbz	w1, 0x8b6c
    8b60:	531f7821 	lsl	w1, w1, #1
    8b64:	1ac10863 	udiv	w3, w3, w1
    8b68:	14000002 	b	0x8b70
    8b6c:	53017c63 	lsr	w3, w3, #1
    8b70:	b9001003 	str	w3, [x0, #16]
    8b74:	b9400fe1 	ldr	w1, [sp, #12]
    8b78:	b9401000 	ldr	w0, [x0, #16]
    8b7c:	b9002c81 	str	w1, [x4, #44]
    8b80:	910043ff 	add	sp, sp, #0x10
    8b84:	d65f03c0 	ret
    8b88:	f9400000 	ldr	x0, [x0]
    8b8c:	b9402c01 	ldr	w1, [x0, #44]
    8b90:	32000021 	orr	w1, w1, #0x1
    8b94:	b9002c01 	str	w1, [x0, #44]
    8b98:	b9402c01 	ldr	w1, [x0, #44]
    8b9c:	360fffe1 	tbz	w1, #1, 0x8b98
    8ba0:	d65f03c0 	ret
    8ba4:	f9400000 	ldr	x0, [x0]
    8ba8:	b9402c01 	ldr	w1, [x0, #44]
    8bac:	321e0021 	orr	w1, w1, #0x4
    8bb0:	b9002c01 	str	w1, [x0, #44]
    8bb4:	d65f03c0 	ret
    8bb8:	f0000020 	adrp	x0, 0xf000
    8bbc:	9106a000 	add	x0, x0, #0x1a8
    8bc0:	d65f03c0 	ret
    8bc4:	a9be7bfd 	stp	x29, x30, [sp, #-32]!
    8bc8:	910003fd 	mov	x29, sp
    8bcc:	a90153f3 	stp	x19, x20, [sp, #16]
    8bd0:	2a0003f4 	mov	w20, w0
    8bd4:	94000477 	bl	0x9db0
    8bd8:	2a0003f3 	mov	w19, w0
    8bdc:	4b130000 	sub	w0, w0, w19
    8be0:	6b14001f 	cmp	w0, w20
    8be4:	54000062 	b.cs	0x8bf0  // b.hs, b.nlast
    8be8:	94000472 	bl	0x9db0
    8bec:	17fffffc 	b	0x8bdc
    8bf0:	a94153f3 	ldp	x19, x20, [sp, #16]
    8bf4:	a8c27bfd 	ldp	x29, x30, [sp], #32
    8bf8:	d65f03c0 	ret
    8bfc:	7100043f 	cmp	w1, #0x1
    8c00:	54000041 	b.ne	0x8c08  // b.any
    8c04:	17ffffe8 	b	0x8ba4
    8c08:	f9400000 	ldr	x0, [x0]
    8c0c:	b9402c01 	ldr	w1, [x0, #44]
    8c10:	361000c1 	tbz	w1, #2, 0x8c28
    8c14:	b9402c01 	ldr	w1, [x0, #44]
    8c18:	121d7821 	and	w1, w1, #0xfffffffb
    8c1c:	b9002c01 	str	w1, [x0, #44]
    8c20:	52800020 	mov	w0, #0x1                   	// #1
    8c24:	17ffffe8 	b	0x8bc4
    8c28:	d65f03c0 	ret
    8c2c:	a9be7bfd 	stp	x29, x30, [sp, #-32]!
    8c30:	52800001 	mov	w1, #0x0                   	// #0
    8c34:	910003fd 	mov	x29, sp
    8c38:	f9000bf3 	str	x19, [sp, #16]
    8c3c:	aa0003f3 	mov	x19, x0
    8c40:	97ffffef 	bl	0x8bfc
    8c44:	f9400260 	ldr	x0, [x19]
    8c48:	b9402c01 	ldr	w1, [x0, #44]
    8c4c:	32080021 	orr	w1, w1, #0x1000000
    8c50:	b9002c01 	str	w1, [x0, #44]
    8c54:	b9402c01 	ldr	w1, [x0, #44]
    8c58:	37c7ffe1 	tbnz	w1, #24, 0x8c54
    8c5c:	f9400bf3 	ldr	x19, [sp, #16]
    8c60:	a8c27bfd 	ldp	x29, x30, [sp], #32
    8c64:	d65f03c0 	ret
    8c68:	a9b77bfd 	stp	x29, x30, [sp, #-144]!
    8c6c:	910003fd 	mov	x29, sp
    8c70:	a90153f3 	stp	x19, x20, [sp, #16]
    8c74:	f9002fa2 	str	x2, [x29, #88]
    8c78:	aa0303f3 	mov	x19, x3
    8c7c:	a9025bf5 	stp	x21, x22, [sp, #32]
    8c80:	a90363f7 	stp	x23, x24, [sp, #48]
    8c84:	aa0003f6 	mov	x22, x0
    8c88:	aa0403f5 	mov	x21, x4
    8c8c:	2a0103f4 	mov	w20, w1
    8c90:	a9046bf9 	stp	x25, x26, [sp, #64]
    8c94:	97ffffc4 	bl	0x8ba4
    8c98:	aa1603e0 	mov	x0, x22
    8c9c:	52807fe1 	mov	w1, #0x3ff                 	// #1023
    8ca0:	97fffec1 	bl	0x87a4
    8ca4:	f94002c0 	ldr	x0, [x22]
    8ca8:	90000023 	adrp	x3, 0xc000
    8cac:	aa0303f8 	mov	x24, x3
    8cb0:	b9403401 	ldr	w1, [x0, #52]
    8cb4:	b90073a1 	str	w1, [x29, #112]
    8cb8:	b9403401 	ldr	w1, [x0, #52]
    8cbc:	120b7821 	and	w1, w1, #0xffefffff
    8cc0:	b9003401 	str	w1, [x0, #52]
    8cc4:	b9402c01 	ldr	w1, [x0, #44]
    8cc8:	b9006fa1 	str	w1, [x29, #108]
    8ccc:	b9406fa1 	ldr	w1, [x29, #108]
    8cd0:	120c6c21 	and	w1, w1, #0xfff0ffff
    8cd4:	b9006fa1 	str	w1, [x29, #108]
    8cd8:	b9406fa1 	ldr	w1, [x29, #108]
    8cdc:	32100c21 	orr	w1, w1, #0xf0000
    8ce0:	b9006fa1 	str	w1, [x29, #108]
    8ce4:	b9406fa1 	ldr	w1, [x29, #108]
    8ce8:	b9002c01 	str	w1, [x0, #44]
    8cec:	b94073a1 	ldr	w1, [x29, #112]
    8cf0:	b9003401 	str	w1, [x0, #52]
    8cf4:	91272060 	add	x0, x3, #0x9c8
    8cf8:	d2800301 	mov	x1, #0x18                  	// #24
    8cfc:	9b010281 	madd	x1, x20, x1, x0
    8d00:	b9401020 	ldr	w0, [x1, #16]
    8d04:	b9400837 	ldr	w23, [x1, #8]
    8d08:	6b1f001f 	cmp	w0, wzr
    8d0c:	320002e3 	orr	w3, w23, #0x1
    8d10:	1a971063 	csel	w3, w3, w23, ne  // ne = any
    8d14:	321a0061 	orr	w1, w3, #0x40
    8d18:	eb1f027f 	cmp	x19, xzr
    8d1c:	b90016c0 	str	w0, [x22, #20]
    8d20:	1a831021 	csel	w1, w1, w3, ne  // ne = any
    8d24:	aa1603e0 	mov	x0, x22
    8d28:	97fffed7 	bl	0x8884
    8d2c:	b90026df 	str	wzr, [x22, #36]
    8d30:	b90022df 	str	wzr, [x22, #32]
    8d34:	f94002c4 	ldr	x4, [x22]
    8d38:	f9402fa2 	ldr	x2, [x29, #88]
    8d3c:	b4000133 	cbz	x19, 0x8d60
    8d40:	f9400260 	ldr	x0, [x19]
    8d44:	b9005880 	str	w0, [x4, #88]
    8d48:	d360fc05 	lsr	x5, x0, #32
    8d4c:	b9400a61 	ldr	w1, [x19, #8]
    8d50:	b9005c85 	str	w5, [x4, #92]
    8d54:	b9400e60 	ldr	w0, [x19, #12]
    8d58:	b9000481 	str	w1, [x4, #4]
    8d5c:	b9000080 	str	w0, [x4]
    8d60:	91272318 	add	x24, x24, #0x9c8
    8d64:	d2800301 	mov	x1, #0x18                  	// #24
    8d68:	b9000882 	str	w2, [x4, #8]
    8d6c:	d503201f 	nop
    8d70:	9b016281 	madd	x1, x20, x1, x24
    8d74:	b9400422 	ldr	w2, [x1, #4]
    8d78:	b9401420 	ldr	w0, [x1, #20]
    8d7c:	b9400c38 	ldr	w24, [x1, #12]
    8d80:	b9400c81 	ldr	w1, [x4, #12]
    8d84:	b90077a1 	str	w1, [x29, #116]
    8d88:	529ff001 	mov	w1, #0xff80                	// #65408
    8d8c:	b94077a3 	ldr	w3, [x29, #116]
    8d90:	72b80081 	movk	w1, #0xc004, lsl #16
    8d94:	0a010061 	and	w1, w3, w1
    8d98:	b90077a1 	str	w1, [x29, #116]
    8d9c:	36000080 	tbz	w0, #0, 0x8dac
    8da0:	b94077a1 	ldr	w1, [x29, #116]
    8da4:	321a0021 	orr	w1, w1, #0x40
    8da8:	b90077a1 	str	w1, [x29, #116]
    8dac:	36080080 	tbz	w0, #1, 0x8dbc
    8db0:	b94077a1 	ldr	w1, [x29, #116]
    8db4:	321b0021 	orr	w1, w1, #0x20
    8db8:	b90077a1 	str	w1, [x29, #116]
    8dbc:	36100080 	tbz	w0, #2, 0x8dcc
    8dc0:	b94077a1 	ldr	w1, [x29, #116]
    8dc4:	321c0021 	orr	w1, w1, #0x10
    8dc8:	b90077a1 	str	w1, [x29, #116]
    8dcc:	36180080 	tbz	w0, #3, 0x8ddc
    8dd0:	b94077a1 	ldr	w1, [x29, #116]
    8dd4:	321e0021 	orr	w1, w1, #0x4
    8dd8:	b90077a1 	str	w1, [x29, #116]
    8ddc:	36200080 	tbz	w0, #4, 0x8dec
    8de0:	b94077a1 	ldr	w1, [x29, #116]
    8de4:	321f0021 	orr	w1, w1, #0x2
    8de8:	b90077a1 	str	w1, [x29, #116]
    8dec:	36280080 	tbz	w0, #5, 0x8dfc
    8df0:	b94077a1 	ldr	w1, [x29, #116]
    8df4:	32000021 	orr	w1, w1, #0x1
    8df8:	b90077a1 	str	w1, [x29, #116]
    8dfc:	36300080 	tbz	w0, #6, 0x8e0c
    8e00:	b94077a0 	ldr	w0, [x29, #116]
    8e04:	320b0000 	orr	w0, w0, #0x200000
    8e08:	b90077a0 	str	w0, [x29, #116]
    8e0c:	b94077a0 	ldr	w0, [x29, #116]
    8e10:	b90077a0 	str	w0, [x29, #116]
    8e14:	7100271f 	cmp	w24, #0x9
    8e18:	540002c8 	b.hi	0x8e70  // b.pmore
    8e1c:	90000020 	adrp	x0, 0xc000
    8e20:	912f6000 	add	x0, x0, #0xbd8
    8e24:	38784803 	ldrb	w3, [x0, w24, uxtw]
    8e28:	10000061 	adr	x1, 0x8e34
    8e2c:	8b238823 	add	x3, x1, w3, sxtb #2
    8e30:	d61f0060 	br	x3
    8e34:	b94077a0 	ldr	w0, [x29, #116]
    8e38:	1400000d 	b	0x8e6c
    8e3c:	b94077a1 	ldr	w1, [x29, #116]
    8e40:	52a00120 	mov	w0, #0x90000               	// #589824
    8e44:	14000009 	b	0x8e68
    8e48:	b94077a0 	ldr	w0, [x29, #116]
    8e4c:	320f0000 	orr	w0, w0, #0x20000
    8e50:	14000007 	b	0x8e6c
    8e54:	b94077a1 	ldr	w1, [x29, #116]
    8e58:	52a00340 	mov	w0, #0x1a0000              	// #1703936
    8e5c:	14000003 	b	0x8e68
    8e60:	b94077a1 	ldr	w1, [x29, #116]
    8e64:	52a00360 	mov	w0, #0x1b0000              	// #1769472
    8e68:	2a000020 	orr	w0, w1, w0
    8e6c:	b90077a0 	str	w0, [x29, #116]
    8e70:	b94077a0 	ldr	w0, [x29, #116]
    8e74:	f000003a 	adrp	x26, 0xf000
    8e78:	2a026000 	orr	w0, w0, w2, lsl #24
    8e7c:	b90077a0 	str	w0, [x29, #116]
    8e80:	9105a35a 	add	x26, x26, #0x168
    8e84:	b94077a0 	ldr	w0, [x29, #116]
    8e88:	b9000c80 	str	w0, [x4, #12]
    8e8c:	aa1a03f9 	mov	x25, x26
    8e90:	b94022c0 	ldr	w0, [x22, #32]
    8e94:	0a170000 	and	w0, w0, w23
    8e98:	6b0002ff 	cmp	w23, w0
    8e9c:	54000ac1 	b.ne	0x8ff4  // b.any
    8ea0:	f94002c1 	ldr	x1, [x22]
    8ea4:	b9402c20 	ldr	w0, [x1, #44]
    8ea8:	32070400 	orr	w0, w0, #0x6000000
    8eac:	b9002c20 	str	w0, [x1, #44]
    8eb0:	b9402c20 	ldr	w0, [x1, #44]
    8eb4:	7207041f 	tst	w0, #0x6000000
    8eb8:	54ffffc1 	b.ne	0x8eb0  // b.any
    8ebc:	b94022c2 	ldr	w2, [x22, #32]
    8ec0:	52801fe0 	mov	w0, #0xff                  	// #255
    8ec4:	370016a2 	tbnz	w2, #0, 0x9198
    8ec8:	b9401020 	ldr	w0, [x1, #16]
    8ecc:	b90083a0 	str	w0, [x29, #128]
    8ed0:	b9401420 	ldr	w0, [x1, #20]
    8ed4:	b90087a0 	str	w0, [x29, #132]
    8ed8:	b9401820 	ldr	w0, [x1, #24]
    8edc:	b9008ba0 	str	w0, [x29, #136]
    8ee0:	b9401c20 	ldr	w0, [x1, #28]
    8ee4:	b9008fa0 	str	w0, [x29, #140]
    8ee8:	d2800000 	mov	x0, #0x0                   	// #0
    8eec:	531e7402 	lsl	w2, w0, #2
    8ef0:	910203a1 	add	x1, x29, #0x80
    8ef4:	2a0203e4 	mov	w4, w2
    8ef8:	b8607821 	ldr	w1, [x1, x0, lsl #2]
    8efc:	91000400 	add	x0, x0, #0x1
    8f00:	53187c23 	lsr	w3, w1, #24
    8f04:	38246aa3 	strb	w3, [x21, x4]
    8f08:	11000444 	add	w4, w2, #0x1
    8f0c:	53107c23 	lsr	w3, w1, #16
    8f10:	f100101f 	cmp	x0, #0x4
    8f14:	38246aa3 	strb	w3, [x21, x4]
    8f18:	11000844 	add	w4, w2, #0x2
    8f1c:	11000c42 	add	w2, w2, #0x3
    8f20:	53087c23 	lsr	w3, w1, #8
    8f24:	38246aa3 	strb	w3, [x21, x4]
    8f28:	38226aa1 	strb	w1, [x21, x2]
    8f2c:	54fffe01 	b.ne	0x8eec  // b.any
    8f30:	51000718 	sub	w24, w24, #0x1
    8f34:	7100231f 	cmp	w24, #0x8
    8f38:	540005a8 	b.hi	0x8fec  // b.pmore
    8f3c:	90000021 	adrp	x1, 0xc000
    8f40:	912f9021 	add	x1, x1, #0xbe4
    8f44:	b94083a0 	ldr	w0, [x29, #128]
    8f48:	38784822 	ldrb	w2, [x1, w24, uxtw]
    8f4c:	10000063 	adr	x3, 0x8f58
    8f50:	8b228862 	add	x2, x3, w2, sxtb #2
    8f54:	d61f0040 	br	x2
    8f58:	53187c01 	lsr	w1, w0, #24
    8f5c:	390002a1 	strb	w1, [x21]
    8f60:	53107c01 	lsr	w1, w0, #16
    8f64:	39000ea0 	strb	w0, [x21, #3]
    8f68:	390006a1 	strb	w1, [x21, #1]
    8f6c:	53087c01 	lsr	w1, w0, #8
    8f70:	39000aa1 	strb	w1, [x21, #2]
    8f74:	1400001e 	b	0x8fec
    8f78:	b9408fa1 	ldr	w1, [x29, #140]
    8f7c:	39000aa1 	strb	w1, [x21, #2]
    8f80:	53107c22 	lsr	w2, w1, #16
    8f84:	390002a2 	strb	w2, [x21]
    8f88:	53087c22 	lsr	w2, w1, #8
    8f8c:	b9408ba1 	ldr	w1, [x29, #136]
    8f90:	390006a2 	strb	w2, [x21, #1]
    8f94:	53187c22 	lsr	w2, w1, #24
    8f98:	39000ea2 	strb	w2, [x21, #3]
    8f9c:	53107c22 	lsr	w2, w1, #16
    8fa0:	39001aa1 	strb	w1, [x21, #6]
    8fa4:	390012a2 	strb	w2, [x21, #4]
    8fa8:	53087c22 	lsr	w2, w1, #8
    8fac:	b94087a1 	ldr	w1, [x29, #132]
    8fb0:	390016a2 	strb	w2, [x21, #5]
    8fb4:	53187c22 	lsr	w2, w1, #24
    8fb8:	39001ea2 	strb	w2, [x21, #7]
    8fbc:	53107c22 	lsr	w2, w1, #16
    8fc0:	39002aa1 	strb	w1, [x21, #10]
    8fc4:	390022a2 	strb	w2, [x21, #8]
    8fc8:	53087c22 	lsr	w2, w1, #8
    8fcc:	53187c01 	lsr	w1, w0, #24
    8fd0:	39002ea1 	strb	w1, [x21, #11]
    8fd4:	53107c01 	lsr	w1, w0, #16
    8fd8:	390026a2 	strb	w2, [x21, #9]
    8fdc:	390032a1 	strb	w1, [x21, #12]
    8fe0:	39003aa0 	strb	w0, [x21, #14]
    8fe4:	53087c01 	lsr	w1, w0, #8
    8fe8:	390036a1 	strb	w1, [x21, #13]
    8fec:	52800000 	mov	w0, #0x0                   	// #0
    8ff0:	1400006a 	b	0x9198
    8ff4:	f9400341 	ldr	x1, [x26]
    8ff8:	b9403020 	ldr	w0, [x1, #48]
    8ffc:	b9007ba0 	str	w0, [x29, #120]
    9000:	b9407bb4 	ldr	w20, [x29, #120]
    9004:	b9407ba2 	ldr	w2, [x29, #120]
    9008:	d34f3e94 	ubfx	x20, x20, #15, #1
    900c:	12180042 	and	w2, w2, #0x100
    9010:	6b1f005f 	cmp	w2, wzr
    9014:	b9407ba2 	ldr	w2, [x29, #120]
    9018:	321f0280 	orr	w0, w20, #0x2
    901c:	121a0042 	and	w2, w2, #0x40
    9020:	1a941014 	csel	w20, w0, w20, ne  // ne = any
    9024:	6b1f005f 	cmp	w2, wzr
    9028:	b9407ba2 	ldr	w2, [x29, #120]
    902c:	321e0280 	orr	w0, w20, #0x4
    9030:	12190042 	and	w2, w2, #0x80
    9034:	1a941014 	csel	w20, w0, w20, ne  // ne = any
    9038:	6b1f005f 	cmp	w2, wzr
    903c:	b9407ba2 	ldr	w2, [x29, #120]
    9040:	321d0280 	orr	w0, w20, #0x8
    9044:	121b0042 	and	w2, w2, #0x20
    9048:	1a941014 	csel	w20, w0, w20, ne  // ne = any
    904c:	6b1f005f 	cmp	w2, wzr
    9050:	b9407ba2 	ldr	w2, [x29, #120]
    9054:	321c0280 	orr	w0, w20, #0x10
    9058:	121c0042 	and	w2, w2, #0x10
    905c:	1a941014 	csel	w20, w0, w20, ne  // ne = any
    9060:	6b1f005f 	cmp	w2, wzr
    9064:	b9407ba2 	ldr	w2, [x29, #120]
    9068:	321b0280 	orr	w0, w20, #0x20
    906c:	121d0042 	and	w2, w2, #0x8
    9070:	1a941014 	csel	w20, w0, w20, ne  // ne = any
    9074:	6b1f005f 	cmp	w2, wzr
    9078:	b9407ba2 	ldr	w2, [x29, #120]
    907c:	321a0280 	orr	w0, w20, #0x40
    9080:	121e0042 	and	w2, w2, #0x4
    9084:	1a941014 	csel	w20, w0, w20, ne  // ne = any
    9088:	6b1f005f 	cmp	w2, wzr
    908c:	b9407ba2 	ldr	w2, [x29, #120]
    9090:	32190280 	orr	w0, w20, #0x80
    9094:	1a941014 	csel	w20, w0, w20, ne  // ne = any
    9098:	121f0042 	and	w2, w2, #0x2
    909c:	6b1f005f 	cmp	w2, wzr
    90a0:	32180280 	orr	w0, w20, #0x100
    90a4:	1a941014 	csel	w20, w0, w20, ne  // ne = any
    90a8:	b9407ba0 	ldr	w0, [x29, #120]
    90ac:	12000000 	and	w0, w0, #0x1
    90b0:	2a002694 	orr	w20, w20, w0, lsl #9
    90b4:	b9403020 	ldr	w0, [x1, #48]
    90b8:	b9007fa0 	str	w0, [x29, #124]
    90bc:	b9407fb3 	ldr	w19, [x29, #124]
    90c0:	b9407fa1 	ldr	w1, [x29, #124]
    90c4:	d35c7273 	ubfx	x19, x19, #28, #1
    90c8:	12080021 	and	w1, w1, #0x1000000
    90cc:	6b1f003f 	cmp	w1, wzr
    90d0:	b9407fa1 	ldr	w1, [x29, #124]
    90d4:	321f0260 	orr	w0, w19, #0x2
    90d8:	12090021 	and	w1, w1, #0x800000
    90dc:	1a931013 	csel	w19, w0, w19, ne  // ne = any
    90e0:	6b1f003f 	cmp	w1, wzr
    90e4:	b9407fa1 	ldr	w1, [x29, #124]
    90e8:	321e0260 	orr	w0, w19, #0x4
    90ec:	120a0021 	and	w1, w1, #0x400000
    90f0:	1a931013 	csel	w19, w0, w19, ne  // ne = any
    90f4:	6b1f003f 	cmp	w1, wzr
    90f8:	b9407fa1 	ldr	w1, [x29, #124]
    90fc:	321d0260 	orr	w0, w19, #0x8
    9100:	120b0021 	and	w1, w1, #0x200000
    9104:	1a931013 	csel	w19, w0, w19, ne  // ne = any
    9108:	6b1f003f 	cmp	w1, wzr
    910c:	b9407fa1 	ldr	w1, [x29, #124]
    9110:	321c0260 	orr	w0, w19, #0x10
    9114:	120c0021 	and	w1, w1, #0x100000
    9118:	1a931013 	csel	w19, w0, w19, ne  // ne = any
    911c:	6b1f003f 	cmp	w1, wzr
    9120:	b9407fa1 	ldr	w1, [x29, #124]
    9124:	321b0260 	orr	w0, w19, #0x20
    9128:	120d0021 	and	w1, w1, #0x80000
    912c:	1a931013 	csel	w19, w0, w19, ne  // ne = any
    9130:	6b1f003f 	cmp	w1, wzr
    9134:	b9407fa1 	ldr	w1, [x29, #124]
    9138:	321a0260 	orr	w0, w19, #0x40
    913c:	120e0021 	and	w1, w1, #0x40000
    9140:	1a931013 	csel	w19, w0, w19, ne  // ne = any
    9144:	6b1f003f 	cmp	w1, wzr
    9148:	b9407fa1 	ldr	w1, [x29, #124]
    914c:	32190260 	orr	w0, w19, #0x80
    9150:	120f0021 	and	w1, w1, #0x20000
    9154:	1a931013 	csel	w19, w0, w19, ne  // ne = any
    9158:	6b1f003f 	cmp	w1, wzr
    915c:	b9407fa1 	ldr	w1, [x29, #124]
    9160:	32180260 	orr	w0, w19, #0x100
    9164:	1a931013 	csel	w19, w0, w19, ne  // ne = any
    9168:	12100021 	and	w1, w1, #0x10000
    916c:	6b1f003f 	cmp	w1, wzr
    9170:	32170260 	orr	w0, w19, #0x200
    9174:	1a931013 	csel	w19, w0, w19, ne  // ne = any
    9178:	2a1403e1 	mov	w1, w20
    917c:	aa1903e0 	mov	x0, x25
    9180:	97fffd89 	bl	0x87a4
    9184:	f9400f22 	ldr	x2, [x25, #24]
    9188:	2a1403e0 	mov	w0, w20
    918c:	2a1303e1 	mov	w1, w19
    9190:	d63f0040 	blr	x2
    9194:	17ffff3f 	b	0x8e90
    9198:	a94153f3 	ldp	x19, x20, [sp, #16]
    919c:	a9425bf5 	ldp	x21, x22, [sp, #32]
    91a0:	a94363f7 	ldp	x23, x24, [sp, #48]
    91a4:	a9446bf9 	ldp	x25, x26, [sp, #64]
    91a8:	a8c97bfd 	ldp	x29, x30, [sp], #144
    91ac:	d65f03c0 	ret
    91b0:	d10843ff 	sub	sp, sp, #0x210
    91b4:	aa0103e4 	mov	x4, x1
    91b8:	52804001 	mov	w1, #0x200                 	// #512
    91bc:	a9be7bfd 	stp	x29, x30, [sp, #-32]!
    91c0:	52800002 	mov	w2, #0x0                   	// #0
    91c4:	910003fd 	mov	x29, sp
    91c8:	910083a3 	add	x3, x29, #0x20
    91cc:	b9002ba1 	str	w1, [x29, #40]
    91d0:	528001c1 	mov	w1, #0xe                   	// #14
    91d4:	a90153f3 	stp	x19, x20, [sp, #16]
    91d8:	9100c3b3 	add	x19, x29, #0x30
    91dc:	52800034 	mov	w20, #0x1                   	// #1
    91e0:	f90013b3 	str	x19, [x29, #32]
    91e4:	b9002fb4 	str	w20, [x29, #44]
    91e8:	97fffea0 	bl	0x8c68
    91ec:	52800001 	mov	w1, #0x0                   	// #0
    91f0:	350001a0 	cbnz	w0, 0x9224
    91f4:	39435660 	ldrb	w0, [x19, #213]
    91f8:	39435a61 	ldrb	w1, [x19, #214]
    91fc:	53103c21 	lsl	w1, w1, #16
    9200:	2a002021 	orr	w1, w1, w0, lsl #8
    9204:	39435260 	ldrb	w0, [x19, #212]
    9208:	2a000021 	orr	w1, w1, w0
    920c:	39435e60 	ldrb	w0, [x19, #215]
    9210:	2a006021 	orr	w1, w1, w0, lsl #24
    9214:	f0000020 	adrp	x0, 0x10000
    9218:	91068000 	add	x0, x0, #0x1a0
    921c:	b9000001 	str	w1, [x0]
    9220:	2a1403e1 	mov	w1, w20
    9224:	a94153f3 	ldp	x19, x20, [sp, #16]
    9228:	a8c27bfd 	ldp	x29, x30, [sp], #32
    922c:	2a0103e0 	mov	w0, w1
    9230:	910843ff 	add	sp, sp, #0x210
    9234:	d65f03c0 	ret
    9238:	a9bd7bfd 	stp	x29, x30, [sp, #-48]!
    923c:	910003fd 	mov	x29, sp
    9240:	a90153f3 	stp	x19, x20, [sp, #16]
    9244:	aa0003f4 	mov	x20, x0
    9248:	940002da 	bl	0x9db0
    924c:	2a0003f3 	mov	w19, w0
    9250:	aa1403e0 	mov	x0, x20
    9254:	52800101 	mov	w1, #0x8                   	// #8
    9258:	52a00022 	mov	w2, #0x10000               	// #65536
    925c:	d2800003 	mov	x3, #0x0                   	// #0
    9260:	910083a4 	add	x4, x29, #0x20
    9264:	97fffe81 	bl	0x8c68
    9268:	35000060 	cbnz	w0, 0x9274
    926c:	39408ba0 	ldrb	w0, [x29, #34]
    9270:	370000e0 	tbnz	w0, #0, 0x928c
    9274:	940002cf 	bl	0x9db0
    9278:	4b130000 	sub	w0, w0, w19
    927c:	712ee01f 	cmp	w0, #0xbb8
    9280:	54fffe89 	b.ls	0x9250  // b.plast
    9284:	52800000 	mov	w0, #0x0                   	// #0
    9288:	14000002 	b	0x9290
    928c:	52800020 	mov	w0, #0x1                   	// #1
    9290:	a94153f3 	ldp	x19, x20, [sp, #16]
    9294:	a8c37bfd 	ldp	x29, x30, [sp], #48
    9298:	d65f03c0 	ret
    929c:	a9bd7bfd 	stp	x29, x30, [sp, #-48]!
    92a0:	52800023 	mov	w3, #0x1                   	// #1
    92a4:	53181c42 	ubfiz	w2, w2, #8, #8
    92a8:	72a06003 	movk	w3, #0x300, lsl #16
    92ac:	910003fd 	mov	x29, sp
    92b0:	2a030043 	orr	w3, w2, w3
    92b4:	53101c22 	ubfiz	w2, w1, #16, #8
    92b8:	2a020062 	orr	w2, w3, w2
    92bc:	52800161 	mov	w1, #0xb                   	// #11
    92c0:	d2800003 	mov	x3, #0x0                   	// #0
    92c4:	910083a4 	add	x4, x29, #0x20
    92c8:	f9000bf3 	str	x19, [sp, #16]
    92cc:	aa0003f3 	mov	x19, x0
    92d0:	97fffe66 	bl	0x8c68
    92d4:	52800001 	mov	w1, #0x0                   	// #0
    92d8:	350000a0 	cbnz	w0, 0x92ec
    92dc:	aa1303e0 	mov	x0, x19
    92e0:	97ffffd6 	bl	0x9238
    92e4:	6b1f001f 	cmp	w0, wzr
    92e8:	1a9f07e1 	cset	w1, ne  // ne = any
    92ec:	2a0103e0 	mov	w0, w1
    92f0:	f9400bf3 	ldr	x19, [sp, #16]
    92f4:	a8c37bfd 	ldp	x29, x30, [sp], #48
    92f8:	d65f03c0 	ret
    92fc:	a9bd7bfd 	stp	x29, x30, [sp, #-48]!
    9300:	52800121 	mov	w1, #0x9                   	// #9
    9304:	910003fd 	mov	x29, sp
    9308:	52804002 	mov	w2, #0x200                 	// #512
    930c:	d2800003 	mov	x3, #0x0                   	// #0
    9310:	910083a4 	add	x4, x29, #0x20
    9314:	f9000bf3 	str	x19, [sp, #16]
    9318:	aa0003f3 	mov	x19, x0
    931c:	97fffe53 	bl	0x8c68
    9320:	52800001 	mov	w1, #0x0                   	// #0
    9324:	35000080 	cbnz	w0, 0x9334
    9328:	52804000 	mov	w0, #0x200                 	// #512
    932c:	52800021 	mov	w1, #0x1                   	// #1
    9330:	b9003260 	str	w0, [x19, #48]
    9334:	2a0103e0 	mov	w0, w1
    9338:	f9400bf3 	ldr	x19, [sp, #16]
    933c:	a8c37bfd 	ldp	x29, x30, [sp], #48
    9340:	d65f03c0 	ret
    9344:	a9b97bfd 	stp	x29, x30, [sp, #-112]!
    9348:	f0000024 	adrp	x4, 0x10000
    934c:	910003fd 	mov	x29, sp
    9350:	a90153f3 	stp	x19, x20, [sp, #16]
    9354:	91058094 	add	x20, x4, #0x160
    9358:	2a0003f3 	mov	w19, w0
    935c:	a9025bf5 	stp	x21, x22, [sp, #32]
    9360:	f9400280 	ldr	x0, [x20]
    9364:	2a0103f5 	mov	w21, w1
    9368:	a90363f7 	stp	x23, x24, [sp, #48]
    936c:	b9403401 	ldr	w1, [x0, #52]
    9370:	2a0203f6 	mov	w22, w2
    9374:	6b13003f 	cmp	w1, w19
    9378:	aa0303f7 	mov	x23, x3
    937c:	aa0403f8 	mov	x24, x4
    9380:	540003a0 	b.eq	0x93f4  // b.none
    9384:	910103a4 	add	x4, x29, #0x40
    9388:	52800101 	mov	w1, #0x8                   	// #8
    938c:	52a00022 	mov	w2, #0x10000               	// #65536
    9390:	d2800003 	mov	x3, #0x0                   	// #0
    9394:	97fffe35 	bl	0x8c68
    9398:	52800004 	mov	w4, #0x0                   	// #0
    939c:	350007e0 	cbnz	w0, 0x9498
    93a0:	f9400294 	ldr	x20, [x20]
    93a4:	b9403680 	ldr	w0, [x20, #52]
    93a8:	71001c1f 	cmp	w0, #0x7
    93ac:	54000068 	b.hi	0x93b8  // b.pmore
    93b0:	6b13001f 	cmp	w0, w19
    93b4:	54000200 	b.eq	0x93f4  // b.none
    93b8:	7100067f 	cmp	w19, #0x1
    93bc:	54000100 	b.eq	0x93dc  // b.none
    93c0:	340000b3 	cbz	w19, 0x93d4
    93c4:	71000a7f 	cmp	w19, #0x2
    93c8:	54000661 	b.ne	0x9494  // b.any
    93cc:	52800142 	mov	w2, #0xa                   	// #10
    93d0:	14000004 	b	0x93e0
    93d4:	52800102 	mov	w2, #0x8                   	// #8
    93d8:	14000002 	b	0x93e0
    93dc:	52800122 	mov	w2, #0x9                   	// #9
    93e0:	aa1403e0 	mov	x0, x20
    93e4:	12800981 	mov	w1, #0xffffffb3            	// #-77
    93e8:	97ffffad 	bl	0x929c
    93ec:	34000540 	cbz	w0, 0x9494
    93f0:	b9003693 	str	w19, [x20, #52]
    93f4:	528000b4 	mov	w20, #0x5                   	// #5
    93f8:	91058318 	add	x24, x24, #0x160
    93fc:	f9400313 	ldr	x19, [x24]
    9400:	b9006fb6 	str	w22, [x29, #108]
    9404:	f90033b7 	str	x23, [x29, #96]
    9408:	b9403260 	ldr	w0, [x19, #48]
    940c:	b9006ba0 	str	w0, [x29, #104]
    9410:	aa1303e0 	mov	x0, x19
    9414:	97ffff89 	bl	0x9238
    9418:	34000240 	cbz	w0, 0x9460
    941c:	aa1303e0 	mov	x0, x19
    9420:	97ffffb7 	bl	0x92fc
    9424:	340001e0 	cbz	w0, 0x9460
    9428:	52800141 	mov	w1, #0xa                   	// #10
    942c:	2a1503e2 	mov	w2, w21
    9430:	aa1303e0 	mov	x0, x19
    9434:	910183a3 	add	x3, x29, #0x60
    9438:	910143a4 	add	x4, x29, #0x50
    943c:	97fffe0b 	bl	0x8c68
    9440:	2a0003e2 	mov	w2, w0
    9444:	528000e1 	mov	w1, #0x7                   	// #7
    9448:	aa1303e0 	mov	x0, x19
    944c:	340000e2 	cbz	w2, 0x9468
    9450:	52800002 	mov	w2, #0x0                   	// #0
    9454:	d2800003 	mov	x3, #0x0                   	// #0
    9458:	910143a4 	add	x4, x29, #0x50
    945c:	97fffe03 	bl	0x8c68
    9460:	52800004 	mov	w4, #0x0                   	// #0
    9464:	14000007 	b	0x9480
    9468:	910143a4 	add	x4, x29, #0x50
    946c:	d2800003 	mov	x3, #0x0                   	// #0
    9470:	97fffdfe 	bl	0x8c68
    9474:	6b1f001f 	cmp	w0, wzr
    9478:	1a9f17e4 	cset	w4, eq  // eq = none
    947c:	35000084 	cbnz	w4, 0x948c
    9480:	71000694 	subs	w20, w20, #0x1
    9484:	54fffbc1 	b.ne	0x93fc  // b.any
    9488:	14000004 	b	0x9498
    948c:	52800024 	mov	w4, #0x1                   	// #1
    9490:	14000002 	b	0x9498
    9494:	52800004 	mov	w4, #0x0                   	// #0
    9498:	2a0403e0 	mov	w0, w4
    949c:	a94153f3 	ldp	x19, x20, [sp, #16]
    94a0:	a9425bf5 	ldp	x21, x22, [sp, #32]
    94a4:	a94363f7 	ldp	x23, x24, [sp, #48]
    94a8:	a8c77bfd 	ldp	x29, x30, [sp], #112
    94ac:	d65f03c0 	ret
    94b0:	a9bc7bfd 	stp	x29, x30, [sp, #-64]!
    94b4:	d2ae2800 	mov	x0, #0x71400000            	// #1900019712
    94b8:	910003fd 	mov	x29, sp
    94bc:	a90153f3 	stp	x19, x20, [sp, #16]
    94c0:	f0000033 	adrp	x19, 0x10000
    94c4:	9105a273 	add	x19, x19, #0x168
    94c8:	f90013f5 	str	x21, [sp, #32]
    94cc:	f0000035 	adrp	x21, 0x10000
    94d0:	f9000260 	str	x0, [x19]
    94d4:	d2ae2000 	mov	x0, #0x71000000            	// #1895825408
    94d8:	910582b5 	add	x21, x21, #0x160
    94dc:	52800034 	mov	w20, #0x1                   	// #1
    94e0:	b9400001 	ldr	w1, [x0]
    94e4:	32070021 	orr	w1, w1, #0x2000000
    94e8:	b9000001 	str	w1, [x0]
    94ec:	aa1303e0 	mov	x0, x19
    94f0:	52800001 	mov	w1, #0x0                   	// #0
    94f4:	97fffdc2 	bl	0x8bfc
    94f8:	d2800080 	mov	x0, #0x4                   	// #4
    94fc:	f2ae2000 	movk	x0, #0x7100, lsl #16
    9500:	b9400001 	ldr	w1, [x0]
    9504:	d2800080 	mov	x0, #0x4                   	// #4
    9508:	f2ae2000 	movk	x0, #0x7100, lsl #16
    950c:	320d0021 	orr	w1, w1, #0x80000
    9510:	b9000001 	str	w1, [x0]
    9514:	52800020 	mov	w0, #0x1                   	// #1
    9518:	97fffdab 	bl	0x8bc4
    951c:	d2800080 	mov	x0, #0x4                   	// #4
    9520:	f2ae2000 	movk	x0, #0x7100, lsl #16
    9524:	b9400001 	ldr	w1, [x0]
    9528:	d2800080 	mov	x0, #0x4                   	// #4
    952c:	f2ae2000 	movk	x0, #0x7100, lsl #16
    9530:	120c7821 	and	w1, w1, #0xfff7ffff
    9534:	b9000001 	str	w1, [x0]
    9538:	528c0000 	mov	w0, #0x6000                	// #24576
    953c:	72a2dc60 	movk	w0, #0x16e3, lsl #16
    9540:	b9000e60 	str	w0, [x19, #12]
    9544:	90000000 	adrp	x0, 0x9000
    9548:	9103c000 	add	x0, x0, #0xf0
    954c:	f9000e60 	str	x0, [x19, #24]
    9550:	aa1303e0 	mov	x0, x19
    9554:	b9000a74 	str	w20, [x19, #8]
    9558:	b900167f 	str	wzr, [x19, #20]
    955c:	f90002b3 	str	x19, [x21]
    9560:	97fffdb3 	bl	0x8c2c
    9564:	52835001 	mov	w1, #0x1a80                	// #6784
    9568:	aa1303e0 	mov	x0, x19
    956c:	72a000c1 	movk	w1, #0x6, lsl #16
    9570:	97fffd5e 	bl	0x8ae8
    9574:	d2801200 	mov	x0, #0x90                  	// #144
    9578:	f2a40400 	movk	x0, #0x2020, lsl #16
    957c:	52800061 	mov	w1, #0x3                   	// #3
    9580:	b9000001 	str	w1, [x0]
    9584:	52835001 	mov	w1, #0x1a80                	// #6784
    9588:	72a000c1 	movk	w1, #0x6, lsl #16
    958c:	aa1303e0 	mov	x0, x19
    9590:	97fffd56 	bl	0x8ae8
    9594:	aa1303e0 	mov	x0, x19
    9598:	97fffd7c 	bl	0x8b88
    959c:	aa1303e0 	mov	x0, x19
    95a0:	97fffd81 	bl	0x8ba4
    95a4:	f94002b3 	ldr	x19, [x21]
    95a8:	52800100 	mov	w0, #0x8                   	// #8
    95ac:	d2800003 	mov	x3, #0x0                   	// #0
    95b0:	b9003660 	str	w0, [x19, #52]
    95b4:	f9400260 	ldr	x0, [x19]
    95b8:	b900327f 	str	wzr, [x19, #48]
    95bc:	79005274 	strh	w20, [x19, #40]
    95c0:	b9403c01 	ldr	w1, [x0, #60]
    95c4:	b9002e7f 	str	wzr, [x19, #44]
    95c8:	32030021 	orr	w1, w1, #0x20000000
    95cc:	b9003c01 	str	w1, [x0, #60]
    95d0:	9100c3a4 	add	x4, x29, #0x30
    95d4:	b9402801 	ldr	w1, [x0, #40]
    95d8:	121b7421 	and	w1, w1, #0xffffffe7
    95dc:	b9002801 	str	w1, [x0, #40]
    95e0:	52800001 	mov	w1, #0x0                   	// #0
    95e4:	aa1303e0 	mov	x0, x19
    95e8:	2a0103e2 	mov	w2, w1
    95ec:	97fffd9f 	bl	0x8c68
    95f0:	34000060 	cbz	w0, 0x95fc
    95f4:	52800000 	mov	w0, #0x0                   	// #0
    95f8:	1400004c 	b	0x9728
    95fc:	940001ed 	bl	0x9db0
    9600:	5284e214 	mov	w20, #0x2710                	// #10000
    9604:	2a0003f5 	mov	w21, w0
    9608:	52900002 	mov	w2, #0x8000                	// #32768
    960c:	72a81fe2 	movk	w2, #0x40ff, lsl #16
    9610:	aa1303e0 	mov	x0, x19
    9614:	52800021 	mov	w1, #0x1                   	// #1
    9618:	d2800003 	mov	x3, #0x0                   	// #0
    961c:	9100c3a4 	add	x4, x29, #0x30
    9620:	97fffd92 	bl	0x8c68
    9624:	2a0003e2 	mov	w2, w0
    9628:	35ffff00 	cbnz	w0, 0x9608
    962c:	39c0c3a0 	ldrsb	w0, [x29, #48]
    9630:	37f800c0 	tbnz	w0, #31, 0x9648
    9634:	940001df 	bl	0x9db0
    9638:	4b150000 	sub	w0, w0, w21
    963c:	6b14001f 	cmp	w0, w20
    9640:	54fffe49 	b.ls	0x9608  // b.plast
    9644:	17ffffec 	b	0x95f4
    9648:	aa1303e0 	mov	x0, x19
    964c:	52800041 	mov	w1, #0x2                   	// #2
    9650:	d2800003 	mov	x3, #0x0                   	// #0
    9654:	9100c3a4 	add	x4, x29, #0x30
    9658:	97fffd84 	bl	0x8c68
    965c:	35fffcc0 	cbnz	w0, 0x95f4
    9660:	aa1303e0 	mov	x0, x19
    9664:	52800061 	mov	w1, #0x3                   	// #3
    9668:	52a00022 	mov	w2, #0x10000               	// #65536
    966c:	d2800003 	mov	x3, #0x0                   	// #0
    9670:	9100c3a4 	add	x4, x29, #0x30
    9674:	97fffd7d 	bl	0x8c68
    9678:	35fffbe0 	cbnz	w0, 0x95f4
    967c:	aa1303e0 	mov	x0, x19
    9680:	528000a1 	mov	w1, #0x5                   	// #5
    9684:	52a00022 	mov	w2, #0x10000               	// #65536
    9688:	d2800003 	mov	x3, #0x0                   	// #0
    968c:	9100c3a4 	add	x4, x29, #0x30
    9690:	97fffd76 	bl	0x8c68
    9694:	2a0003f4 	mov	w20, w0
    9698:	35fffae0 	cbnz	w0, 0x95f4
    969c:	aa1303e0 	mov	x0, x19
    96a0:	9100c3a1 	add	x1, x29, #0x30
    96a4:	97fffec3 	bl	0x91b0
    96a8:	34fffa60 	cbz	w0, 0x95f4
    96ac:	aa1303e0 	mov	x0, x19
    96b0:	128008c1 	mov	w1, #0xffffffb9            	// #-71
    96b4:	52800022 	mov	w2, #0x1                   	// #1
    96b8:	97fffef9 	bl	0x929c
    96bc:	34fff9c0 	cbz	w0, 0x95f4
    96c0:	aa1303e0 	mov	x0, x19
    96c4:	2a1403e1 	mov	w1, w20
    96c8:	97fffd4d 	bl	0x8bfc
    96cc:	528d8001 	mov	w1, #0x6c00                	// #27648
    96d0:	72a05b81 	movk	w1, #0x2dc, lsl #16
    96d4:	aa1303e0 	mov	x0, x19
    96d8:	97fffd04 	bl	0x8ae8
    96dc:	aa1303e0 	mov	x0, x19
    96e0:	97fffd31 	bl	0x8ba4
    96e4:	aa1303e0 	mov	x0, x19
    96e8:	12800901 	mov	w1, #0xffffffb7            	// #-73
    96ec:	52800042 	mov	w2, #0x2                   	// #2
    96f0:	97fffeeb 	bl	0x929c
    96f4:	34fff800 	cbz	w0, 0x95f4
    96f8:	f9400260 	ldr	x0, [x19]
    96fc:	12800441 	mov	w1, #0xffffffdd            	// #-35
    9700:	b9402802 	ldr	w2, [x0, #40]
    9704:	0a010041 	and	w1, w2, w1
    9708:	321b0021 	orr	w1, w1, #0x20
    970c:	b9002801 	str	w1, [x0, #40]
    9710:	52800040 	mov	w0, #0x2                   	// #2
    9714:	b9002e60 	str	w0, [x19, #44]
    9718:	aa1303e0 	mov	x0, x19
    971c:	97fffef8 	bl	0x92fc
    9720:	6b1f001f 	cmp	w0, wzr
    9724:	1a9f07e0 	cset	w0, ne  // ne = any
    9728:	f0000021 	adrp	x1, 0x10000
    972c:	9106a021 	add	x1, x1, #0x1a8
    9730:	528000a2 	mov	w2, #0x5                   	// #5
    9734:	39002022 	strb	w2, [x1, #8]
    9738:	d2804002 	mov	x2, #0x200                 	// #512
    973c:	f9000c22 	str	x2, [x1, #24]
    9740:	90000002 	adrp	x2, 0x9000
    9744:	91291042 	add	x2, x2, #0xa44
    9748:	f9003822 	str	x2, [x1, #112]
    974c:	f0000022 	adrp	x2, 0x10000
    9750:	91068042 	add	x2, x2, #0x1a0
    9754:	b900043f 	str	wzr, [x1, #4]
    9758:	a94153f3 	ldp	x19, x20, [sp, #16]
    975c:	b9400042 	ldr	w2, [x2]
    9760:	f9000822 	str	x2, [x1, #16]
    9764:	f94013f5 	ldr	x21, [sp, #32]
    9768:	a8c47bfd 	ldp	x29, x30, [sp], #64
    976c:	d65f03c0 	ret
    9770:	f0000020 	adrp	x0, 0x10000
    9774:	91058000 	add	x0, x0, #0x160
    9778:	52800001 	mov	w1, #0x0                   	// #0
    977c:	f9400000 	ldr	x0, [x0]
    9780:	17fffd1f 	b	0x8bfc
    9784:	a9bc7bfd 	stp	x29, x30, [sp, #-64]!
    9788:	910003fd 	mov	x29, sp
    978c:	a9025bf5 	stp	x21, x22, [sp, #32]
    9790:	d0000036 	adrp	x22, 0xf000
    9794:	a90153f3 	stp	x19, x20, [sp, #16]
    9798:	f9001bf7 	str	x23, [sp, #48]
    979c:	aa0003f5 	mov	x21, x0
    97a0:	d2800013 	mov	x19, #0x0                   	// #0
    97a4:	9109a2d6 	add	x22, x22, #0x268
    97a8:	d2800517 	mov	x23, #0x28                  	// #40
    97ac:	9b177e60 	mul	x0, x19, x23
    97b0:	aa1503e1 	mov	x1, x21
    97b4:	93407e74 	sxtw	x20, w19
    97b8:	f8766800 	ldr	x0, [x0, x22]
    97bc:	97ffddbf 	bl	0xeb8
    97c0:	340000a0 	cbz	w0, 0x97d4
    97c4:	91000673 	add	x19, x19, #0x1
    97c8:	f1002e7f 	cmp	x19, #0xb
    97cc:	54ffff01 	b.ne	0x97ac  // b.any
    97d0:	93407e74 	sxtw	x20, w19
    97d4:	53001e80 	uxtb	w0, w20
    97d8:	71002c1f 	cmp	w0, #0xb
    97dc:	540000c0 	b.eq	0x97f4  // b.none
    97e0:	d0000021 	adrp	x1, 0xf000
    97e4:	d2800502 	mov	x2, #0x28                  	// #40
    97e8:	9109a021 	add	x1, x1, #0x268
    97ec:	9b020680 	madd	x0, x20, x2, x1
    97f0:	14000002 	b	0x97f8
    97f4:	d2800000 	mov	x0, #0x0                   	// #0
    97f8:	a94153f3 	ldp	x19, x20, [sp, #16]
    97fc:	a9425bf5 	ldp	x21, x22, [sp, #32]
    9800:	f9401bf7 	ldr	x23, [sp, #48]
    9804:	a8c47bfd 	ldp	x29, x30, [sp], #64
    9808:	d65f03c0 	ret
    980c:	a9bc7bfd 	stp	x29, x30, [sp, #-64]!
    9810:	910003fd 	mov	x29, sp
    9814:	a90153f3 	stp	x19, x20, [sp, #16]
    9818:	f90013f5 	str	x21, [sp, #32]
    981c:	f9001fa1 	str	x1, [x29, #56]
    9820:	97ffffd9 	bl	0x9784
    9824:	f9401fa1 	ldr	x1, [x29, #56]
    9828:	aa0003f3 	mov	x19, x0
    982c:	b9402000 	ldr	w0, [x0, #32]
    9830:	52800015 	mov	w21, #0x0                   	// #0
    9834:	36000240 	tbz	w0, #0, 0x987c
    9838:	79402a74 	ldrh	w20, [x19, #20]
    983c:	79403260 	ldrh	w0, [x19, #24]
    9840:	4b140034 	sub	w20, w1, w20
    9844:	52807d02 	mov	w2, #0x3e8                 	// #1000
    9848:	90000021 	adrp	x1, 0xd000
    984c:	1b020294 	madd	w20, w20, w2, w0
    9850:	913acc21 	add	x1, x1, #0xeb3
    9854:	51000694 	sub	w20, w20, #0x1
    9858:	1ac00e94 	sdiv	w20, w20, w0
    985c:	f9400260 	ldr	x0, [x19]
    9860:	97ffdd96 	bl	0xeb8
    9864:	6b1f001f 	cmp	w0, wzr
    9868:	b9401e60 	ldr	w0, [x19, #28]
    986c:	1102c681 	add	w1, w20, #0xb1
    9870:	1a940034 	csel	w20, w1, w20, eq  // eq = none
    9874:	350000e0 	cbnz	w0, 0x9890
    9878:	14000017 	b	0x98d4
    987c:	110006b5 	add	w21, w21, #0x1
    9880:	710082bf 	cmp	w21, #0x20
    9884:	13017c00 	asr	w0, w0, #1
    9888:	54fffd61 	b.ne	0x9834  // b.any
    988c:	17ffffeb 	b	0x9838
    9890:	37f80234 	tbnz	w20, #31, 0x98d4
    9894:	b9402261 	ldr	w1, [x19, #32]
    9898:	1ad52421 	lsr	w1, w1, w21
    989c:	6b01029f 	cmp	w20, w1
    98a0:	1a819294 	csel	w20, w20, w1, ls  // ls = plast
    98a4:	97fffb35 	bl	0x8578
    98a8:	79404262 	ldrh	w2, [x19, #32]
    98ac:	1ad52294 	lsl	w20, w20, w21
    98b0:	2a2203e1 	mvn	w1, w2
    98b4:	0a140042 	and	w2, w2, w20
    98b8:	53003c21 	uxth	w1, w1
    98bc:	0a010001 	and	w1, w0, w1
    98c0:	b9401e60 	ldr	w0, [x19, #28]
    98c4:	2a010041 	orr	w1, w2, w1
    98c8:	97fffb33 	bl	0x8594
    98cc:	52800000 	mov	w0, #0x0                   	// #0
    98d0:	14000002 	b	0x98d8
    98d4:	12800000 	mov	w0, #0xffffffff            	// #-1
    98d8:	a94153f3 	ldp	x19, x20, [sp, #16]
    98dc:	f94013f5 	ldr	x21, [sp, #32]
    98e0:	a8c47bfd 	ldp	x29, x30, [sp], #64
    98e4:	d65f03c0 	ret
    98e8:	a9bf7bfd 	stp	x29, x30, [sp, #-16]!
    98ec:	52836b00 	mov	w0, #0x1b58                	// #7000
    98f0:	910003fd 	mov	x29, sp
    98f4:	52800221 	mov	w1, #0x11                  	// #17
    98f8:	72a64240 	movk	w0, #0x3212, lsl #16
    98fc:	97fffb26 	bl	0x8594
    9900:	52836b80 	mov	w0, #0x1b5c                	// #7004
    9904:	528003e1 	mov	w1, #0x1f                  	// #31
    9908:	72a64240 	movk	w0, #0x3212, lsl #16
    990c:	97fffb22 	bl	0x8594
    9910:	52837a00 	mov	w0, #0x1bd0                	// #7120
    9914:	528dcfe1 	mov	w1, #0x6e7f                	// #28287
    9918:	72a64240 	movk	w0, #0x3212, lsl #16
    991c:	97fffb1e 	bl	0x8594
    9920:	52837a80 	mov	w0, #0x1bd4                	// #7124
    9924:	528402e1 	mov	w1, #0x2017                	// #8215
    9928:	72a64240 	movk	w0, #0x3212, lsl #16
    992c:	97fffb1a 	bl	0x8594
    9930:	52833580 	mov	w0, #0x19ac                	// #6572
    9934:	52800021 	mov	w1, #0x1                   	// #1
    9938:	52800002 	mov	w2, #0x0                   	// #0
    993c:	72a64240 	movk	w0, #0x3212, lsl #16
    9940:	97fffb1d 	bl	0x85b4
    9944:	52833700 	mov	w0, #0x19b8                	// #6584
    9948:	52800021 	mov	w1, #0x1                   	// #1
    994c:	52800002 	mov	w2, #0x0                   	// #0
    9950:	72a64240 	movk	w0, #0x3212, lsl #16
    9954:	97fffb18 	bl	0x85b4
    9958:	52800000 	mov	w0, #0x0                   	// #0
    995c:	a8c17bfd 	ldp	x29, x30, [sp], #16
    9960:	d65f03c0 	ret
    9964:	a9be7bfd 	stp	x29, x30, [sp, #-32]!
    9968:	910003fd 	mov	x29, sp
    996c:	f9000bf3 	str	x19, [sp, #16]
    9970:	97ffff85 	bl	0x9784
    9974:	aa0003f3 	mov	x19, x0
    9978:	b9401c00 	ldr	w0, [x0, #28]
    997c:	34000260 	cbz	w0, 0x99c8
    9980:	97fffafe 	bl	0x8578
    9984:	b9402262 	ldr	w2, [x19, #32]
    9988:	52800001 	mov	w1, #0x0                   	// #0
    998c:	0a020000 	and	w0, w0, w2
    9990:	36000122 	tbz	w2, #0, 0x99b4
    9994:	b9401a62 	ldr	w2, [x19, #24]
    9998:	1ac12400 	lsr	w0, w0, w1
    999c:	52807d03 	mov	w3, #0x3e8                 	// #1000
    99a0:	1b027c00 	mul	w0, w0, w2
    99a4:	1ac30800 	udiv	w0, w0, w3
    99a8:	b9401663 	ldr	w3, [x19, #20]
    99ac:	0b030000 	add	w0, w0, w3
    99b0:	14000007 	b	0x99cc
    99b4:	11000421 	add	w1, w1, #0x1
    99b8:	7100803f 	cmp	w1, #0x20
    99bc:	13017c42 	asr	w2, w2, #1
    99c0:	54fffe81 	b.ne	0x9990  // b.any
    99c4:	17fffff4 	b	0x9994
    99c8:	12800000 	mov	w0, #0xffffffff            	// #-1
    99cc:	f9400bf3 	ldr	x19, [sp, #16]
    99d0:	a8c27bfd 	ldp	x29, x30, [sp], #32
    99d4:	d65f03c0 	ret
    99d8:	a9bd7bfd 	stp	x29, x30, [sp, #-48]!
    99dc:	910003fd 	mov	x29, sp
    99e0:	a90153f3 	stp	x19, x20, [sp, #16]
    99e4:	f90013f5 	str	x21, [sp, #32]
    99e8:	2a0103f4 	mov	w20, w1
    99ec:	aa0003f5 	mov	x21, x0
    99f0:	97ffff65 	bl	0x9784
    99f4:	79401000 	ldrh	w0, [x0, #8]
    99f8:	12000c00 	and	w0, w0, #0xf
    99fc:	7100081f 	cmp	w0, #0x2
    9a00:	54000301 	b.ne	0x9a60  // b.any
    9a04:	aa1503e0 	mov	x0, x21
    9a08:	97ffffd7 	bl	0x9964
    9a0c:	6b14001f 	cmp	w0, w20
    9a10:	2a0003f3 	mov	w19, w0
    9a14:	5400014a 	b.ge	0x9a3c  // b.tcont
    9a18:	11006673 	add	w19, w19, #0x19
    9a1c:	6b13029f 	cmp	w20, w19
    9a20:	1a93d293 	csel	w19, w20, w19, le
    9a24:	aa1503e0 	mov	x0, x21
    9a28:	2a1303e1 	mov	w1, w19
    9a2c:	97ffff78 	bl	0x980c
    9a30:	6b14027f 	cmp	w19, w20
    9a34:	54ffff2b 	b.lt	0x9a18  // b.tstop
    9a38:	14000011 	b	0x9a7c
    9a3c:	51006673 	sub	w19, w19, #0x19
    9a40:	6b13029f 	cmp	w20, w19
    9a44:	1a93a293 	csel	w19, w20, w19, ge  // ge = tcont
    9a48:	aa1503e0 	mov	x0, x21
    9a4c:	2a1303e1 	mov	w1, w19
    9a50:	97ffff6f 	bl	0x980c
    9a54:	6b14027f 	cmp	w19, w20
    9a58:	54ffff2c 	b.gt	0x9a3c
    9a5c:	14000008 	b	0x9a7c
    9a60:	350000e0 	cbnz	w0, 0x9a7c
    9a64:	aa1503e0 	mov	x0, x21
    9a68:	2a1403e1 	mov	w1, w20
    9a6c:	f94013f5 	ldr	x21, [sp, #32]
    9a70:	a94153f3 	ldp	x19, x20, [sp, #16]
    9a74:	a8c37bfd 	ldp	x29, x30, [sp], #48
    9a78:	17ffff65 	b	0x980c
    9a7c:	52800000 	mov	w0, #0x0                   	// #0
    9a80:	a94153f3 	ldp	x19, x20, [sp, #16]
    9a84:	f94013f5 	ldr	x21, [sp, #32]
    9a88:	a8c37bfd 	ldp	x29, x30, [sp], #48
    9a8c:	d65f03c0 	ret
    9a90:	a9bd7bfd 	stp	x29, x30, [sp, #-48]!
    9a94:	910003fd 	mov	x29, sp
    9a98:	a90153f3 	stp	x19, x20, [sp, #16]
    9a9c:	b9002fbf 	str	wzr, [x29, #44]
    9aa0:	340000e0 	cbz	w0, 0x9abc
    9aa4:	b0000033 	adrp	x19, 0xe000
    9aa8:	f0000014 	adrp	x20, 0xc000
    9aac:	52800240 	mov	w0, #0x12                  	// #18
    9ab0:	91108273 	add	x19, x19, #0x420
    9ab4:	91182294 	add	x20, x20, #0x608
    9ab8:	14000006 	b	0x9ad0
    9abc:	b0000033 	adrp	x19, 0xe000
    9ac0:	f0000014 	adrp	x20, 0xc000
    9ac4:	52800260 	mov	w0, #0x13                  	// #19
    9ac8:	9110c273 	add	x19, x19, #0x430
    9acc:	912d2294 	add	x20, x20, #0xb48
    9ad0:	9100b3a1 	add	x1, x29, #0x2c
    9ad4:	94000054 	bl	0x9c24
    9ad8:	35000220 	cbnz	w0, 0x9b1c
    9adc:	d0000023 	adrp	x3, 0xf000
    9ae0:	9108e063 	add	x3, x3, #0x238
    9ae4:	b9402fa1 	ldr	w1, [x29, #44]
    9ae8:	12003c22 	and	w2, w1, #0xffff
    9aec:	b9000062 	str	w2, [x3]
    9af0:	b9400683 	ldr	w3, [x20, #4]
    9af4:	0b210061 	add	w1, w3, w1, uxtb
    9af8:	32195be3 	mov	w3, #0x3fffff80            	// #1073741696
    9afc:	0b030021 	add	w1, w1, w3
    9b00:	531e7421 	lsl	w1, w1, #2
    9b04:	b9000661 	str	w1, [x19, #4]
    9b08:	b9400e81 	ldr	w1, [x20, #12]
    9b0c:	0b030023 	add	w3, w1, w3
    9b10:	0b422062 	add	w2, w3, w2, lsr #8
    9b14:	531e7442 	lsl	w2, w2, #2
    9b18:	b9000e62 	str	w2, [x19, #12]
    9b1c:	a94153f3 	ldp	x19, x20, [sp, #16]
    9b20:	a8c37bfd 	ldp	x29, x30, [sp], #48
    9b24:	d65f03c0 	ret
    9b28:	a9bf7bfd 	stp	x29, x30, [sp, #-16]!
    9b2c:	52830100 	mov	w0, #0x1808                	// #6152
    9b30:	910003fd 	mov	x29, sp
    9b34:	52800401 	mov	w1, #0x20                  	// #32
    9b38:	52800002 	mov	w2, #0x0                   	// #0
    9b3c:	72a64240 	movk	w0, #0x3212, lsl #16
    9b40:	97fffa9d 	bl	0x85b4
    9b44:	52830180 	mov	w0, #0x180c                	// #6156
    9b48:	52800c01 	mov	w1, #0x60                  	// #96
    9b4c:	52800002 	mov	w2, #0x0                   	// #0
    9b50:	72a64240 	movk	w0, #0x3212, lsl #16
    9b54:	97fffa98 	bl	0x85b4
    9b58:	52836f00 	mov	w0, #0x1b78                	// #7032
    9b5c:	52802001 	mov	w1, #0x100                 	// #256
    9b60:	52800002 	mov	w2, #0x0                   	// #0
    9b64:	72a64240 	movk	w0, #0x3212, lsl #16
    9b68:	97fffa93 	bl	0x85b4
    9b6c:	5280a080 	mov	w0, #0x504                 	// #1284
    9b70:	52800021 	mov	w1, #0x1                   	// #1
    9b74:	52800002 	mov	w2, #0x0                   	// #0
    9b78:	72a64240 	movk	w0, #0x3212, lsl #16
    9b7c:	97fffa8e 	bl	0x85b4
    9b80:	5280a080 	mov	w0, #0x504                 	// #1284
    9b84:	52820001 	mov	w1, #0x1000                	// #4096
    9b88:	52800002 	mov	w2, #0x0                   	// #0
    9b8c:	72a64240 	movk	w0, #0x3212, lsl #16
    9b90:	97fffa89 	bl	0x85b4
    9b94:	5280a080 	mov	w0, #0x504                 	// #1284
    9b98:	72a64240 	movk	w0, #0x3212, lsl #16
    9b9c:	5280a001 	mov	w1, #0x500                 	// #1280
    9ba0:	5280e002 	mov	w2, #0x700                 	// #1792
    9ba4:	97fffa84 	bl	0x85b4
    9ba8:	52800020 	mov	w0, #0x1                   	// #1
    9bac:	97ffffb9 	bl	0x9a90
    9bb0:	35000060 	cbnz	w0, 0x9bbc
    9bb4:	a8c17bfd 	ldp	x29, x30, [sp], #16
    9bb8:	17ffffb6 	b	0x9a90
    9bbc:	a8c17bfd 	ldp	x29, x30, [sp], #16
    9bc0:	d65f03c0 	ret
    9bc4:	a9bd7bfd 	stp	x29, x30, [sp, #-48]!
    9bc8:	910003fd 	mov	x29, sp
    9bcc:	a90153f3 	stp	x19, x20, [sp, #16]
    9bd0:	2a0003f4 	mov	w20, w0
    9bd4:	5280fa00 	mov	w0, #0x7d0                 	// #2000
    9bd8:	f90013f5 	str	x21, [sp, #32]
    9bdc:	9400004d 	bl	0x9d10
    9be0:	94000074 	bl	0x9db0
    9be4:	112ee015 	add	w21, w0, #0xbb8
    9be8:	52806280 	mov	w0, #0x314                 	// #788
    9bec:	72a64240 	movk	w0, #0x3212, lsl #16
    9bf0:	97fffa62 	bl	0x8578
    9bf4:	0a200293 	bic	w19, w20, w0
    9bf8:	9400006e 	bl	0x9db0
    9bfc:	4b0002a0 	sub	w0, w21, w0
    9c00:	37f80080 	tbnz	w0, #31, 0x9c10
    9c04:	35ffff33 	cbnz	w19, 0x9be8
    9c08:	2a1303e0 	mov	w0, w19
    9c0c:	14000002 	b	0x9c14
    9c10:	12800000 	mov	w0, #0xffffffff            	// #-1
    9c14:	a94153f3 	ldp	x19, x20, [sp, #16]
    9c18:	f94013f5 	ldr	x21, [sp, #32]
    9c1c:	a8c37bfd 	ldp	x29, x30, [sp], #48
    9c20:	d65f03c0 	ret
    9c24:	a9bd7bfd 	stp	x29, x30, [sp, #-48]!
    9c28:	52800002 	mov	w2, #0x0                   	// #0
    9c2c:	910003fd 	mov	x29, sp
    9c30:	f90013f5 	str	x21, [sp, #32]
    9c34:	2a0003f5 	mov	w21, w0
    9c38:	52830100 	mov	w0, #0x1808                	// #6152
    9c3c:	a90153f3 	stp	x19, x20, [sp, #16]
    9c40:	72a64240 	movk	w0, #0x3212, lsl #16
    9c44:	aa0103f4 	mov	x20, x1
    9c48:	52800801 	mov	w1, #0x40                  	// #64
    9c4c:	97fffa5a 	bl	0x85b4
    9c50:	52806200 	mov	w0, #0x310                 	// #784
    9c54:	52800081 	mov	w1, #0x4                   	// #4
    9c58:	52800002 	mov	w2, #0x0                   	// #0
    9c5c:	72a64240 	movk	w0, #0x3212, lsl #16
    9c60:	97fffa55 	bl	0x85b4
    9c64:	52800080 	mov	w0, #0x4                   	// #4
    9c68:	97ffffd7 	bl	0x9bc4
    9c6c:	2a0003f3 	mov	w19, w0
    9c70:	350002e0 	cbnz	w0, 0x9ccc
    9c74:	52806180 	mov	w0, #0x30c                 	// #780
    9c78:	120012a1 	and	w1, w21, #0x1f
    9c7c:	72a64240 	movk	w0, #0x3212, lsl #16
    9c80:	97fffa45 	bl	0x8594
    9c84:	52806200 	mov	w0, #0x310                 	// #784
    9c88:	2a1303e2 	mov	w2, w19
    9c8c:	52800041 	mov	w1, #0x2                   	// #2
    9c90:	72a64240 	movk	w0, #0x3212, lsl #16
    9c94:	97fffa48 	bl	0x85b4
    9c98:	52800200 	mov	w0, #0x10                  	// #16
    9c9c:	97ffffca 	bl	0x9bc4
    9ca0:	2a0003f3 	mov	w19, w0
    9ca4:	35000140 	cbnz	w0, 0x9ccc
    9ca8:	52806080 	mov	w0, #0x304                 	// #772
    9cac:	72a64240 	movk	w0, #0x3212, lsl #16
    9cb0:	97fffa32 	bl	0x8578
    9cb4:	b9000280 	str	w0, [x20]
    9cb8:	52806200 	mov	w0, #0x310                 	// #784
    9cbc:	72a64240 	movk	w0, #0x3212, lsl #16
    9cc0:	52800081 	mov	w1, #0x4                   	// #4
    9cc4:	2a1303e2 	mov	w2, w19
    9cc8:	97fffa3b 	bl	0x85b4
    9ccc:	52830100 	mov	w0, #0x1808                	// #6152
    9cd0:	52800001 	mov	w1, #0x0                   	// #0
    9cd4:	52800802 	mov	w2, #0x40                  	// #64
    9cd8:	72a64240 	movk	w0, #0x3212, lsl #16
    9cdc:	97fffa36 	bl	0x85b4
    9ce0:	2a1303e0 	mov	w0, w19
    9ce4:	f94013f5 	ldr	x21, [sp, #32]
    9ce8:	a94153f3 	ldp	x19, x20, [sp, #16]
    9cec:	a8c37bfd 	ldp	x29, x30, [sp], #48
    9cf0:	d65f03c0 	ret
    9cf4:	aa0003e1 	mov	x1, x0
    9cf8:	39400022 	ldrb	w2, [x1]
    9cfc:	34000062 	cbz	w2, 0x9d08
    9d00:	91000421 	add	x1, x1, #0x1
    9d04:	17fffffd 	b	0x9cf8
    9d08:	4b000020 	sub	w0, w1, w0
    9d0c:	d65f03c0 	ret
    9d10:	52800341 	mov	w1, #0x1a                  	// #26
    9d14:	1b017c00 	mul	w0, w0, w1
    9d18:	d2800801 	mov	x1, #0x40                  	// #64
    9d1c:	f2a640a1 	movk	x1, #0x3205, lsl #16
    9d20:	b9000020 	str	w0, [x1]
    9d24:	d2800a00 	mov	x0, #0x50                  	// #80
    9d28:	f2a640a0 	movk	x0, #0x3205, lsl #16
    9d2c:	52800041 	mov	w1, #0x2                   	// #2
    9d30:	b9000001 	str	w1, [x0]
    9d34:	d2800b00 	mov	x0, #0x58                  	// #88
    9d38:	f2a640a0 	movk	x0, #0x3205, lsl #16
    9d3c:	b9400000 	ldr	w0, [x0]
    9d40:	35ffffa0 	cbnz	w0, 0x9d34
    9d44:	d2800a00 	mov	x0, #0x50                  	// #80
    9d48:	f2a640a0 	movk	x0, #0x3205, lsl #16
    9d4c:	b9400001 	ldr	w1, [x0]
    9d50:	d2800a00 	mov	x0, #0x50                  	// #80
    9d54:	f2a640a0 	movk	x0, #0x3205, lsl #16
    9d58:	121e7821 	and	w1, w1, #0xfffffffd
    9d5c:	b9000001 	str	w1, [x0]
    9d60:	d65f03c0 	ret
    9d64:	d2a640a1 	mov	x1, #0x32050000            	// #839188480
    9d68:	531b6800 	lsl	w0, w0, #5
    9d6c:	b9000020 	str	w0, [x1]
    9d70:	d2800200 	mov	x0, #0x10                  	// #16
    9d74:	f2a640a0 	movk	x0, #0x3205, lsl #16
    9d78:	52800041 	mov	w1, #0x2                   	// #2
    9d7c:	b9000001 	str	w1, [x0]
    9d80:	d2800300 	mov	x0, #0x18                  	// #24
    9d84:	f2a640a0 	movk	x0, #0x3205, lsl #16
    9d88:	b9400000 	ldr	w0, [x0]
    9d8c:	35ffffa0 	cbnz	w0, 0x9d80
    9d90:	d2800200 	mov	x0, #0x10                  	// #16
    9d94:	f2a640a0 	movk	x0, #0x3205, lsl #16
    9d98:	b9400001 	ldr	w1, [x0]
    9d9c:	d2800200 	mov	x0, #0x10                  	// #16
    9da0:	f2a640a0 	movk	x0, #0x3205, lsl #16
    9da4:	121e7821 	and	w1, w1, #0xfffffffd
    9da8:	b9000001 	str	w1, [x0]
    9dac:	d65f03c0 	ret
    9db0:	d2800180 	mov	x0, #0xc                   	// #12
    9db4:	d2800181 	mov	x1, #0xc                   	// #12
    9db8:	f2a645c0 	movk	x0, #0x322e, lsl #16
    9dbc:	f2a645c1 	movk	x1, #0x322e, lsl #16
    9dc0:	b9400000 	ldr	w0, [x0]
    9dc4:	b9400021 	ldr	w1, [x1]
    9dc8:	6b01001f 	cmp	w0, w1
    9dcc:	540000e0 	b.eq	0x9de8  // b.none
    9dd0:	d2800180 	mov	x0, #0xc                   	// #12
    9dd4:	f2a645c0 	movk	x0, #0x322e, lsl #16
    9dd8:	b9400002 	ldr	w2, [x0]
    9ddc:	2a0103e0 	mov	w0, w1
    9de0:	2a0203e1 	mov	w1, w2
    9de4:	17fffff9 	b	0x9dc8
    9de8:	d65f03c0 	ret
    9dec:	d2800080 	mov	x0, #0x4                   	// #4
    9df0:	f2a64fa0 	movk	x0, #0x327d, lsl #16
    9df4:	b9400001 	ldr	w1, [x0]
    9df8:	d2800080 	mov	x0, #0x4                   	// #4
    9dfc:	f2a64fa0 	movk	x0, #0x327d, lsl #16
    9e00:	321c0821 	orr	w1, w1, #0x70
    9e04:	b9000001 	str	w1, [x0]
    9e08:	d2800300 	mov	x0, #0x18                  	// #24
    9e0c:	f2a64fa0 	movk	x0, #0x327d, lsl #16
    9e10:	b9400001 	ldr	w1, [x0]
    9e14:	d2800300 	mov	x0, #0x18                  	// #24
    9e18:	f2a64fa0 	movk	x0, #0x327d, lsl #16
    9e1c:	321e0821 	orr	w1, w1, #0x1c
    9e20:	b9000001 	str	w1, [x0]
    9e24:	d2802700 	mov	x0, #0x138                 	// #312
    9e28:	f2a64fa0 	movk	x0, #0x327d, lsl #16
    9e2c:	b9400001 	ldr	w1, [x0]
    9e30:	d2802700 	mov	x0, #0x138                 	// #312
    9e34:	f2a64fa0 	movk	x0, #0x327d, lsl #16
    9e38:	32120021 	orr	w1, w1, #0x4000
    9e3c:	b9000001 	str	w1, [x0]
    9e40:	d65f03c0 	ret
    9e44:	a9bd7bfd 	stp	x29, x30, [sp, #-48]!
    9e48:	128355c1 	mov	w1, #0xffffe551            	// #-6831
    9e4c:	910003fd 	mov	x29, sp
    9e50:	a90153f3 	stp	x19, x20, [sp, #16]
    9e54:	aa0003f3 	mov	x19, x0
    9e58:	52800c00 	mov	w0, #0x60                  	// #96
    9e5c:	72a64240 	movk	w0, #0x3212, lsl #16
    9e60:	f90013f5 	str	x21, [sp, #32]
    9e64:	97fff9cc 	bl	0x8594
    9e68:	b9400661 	ldr	w1, [x19, #4]
    9e6c:	340000e1 	cbz	w1, 0x9e88
    9e70:	7100043f 	cmp	w1, #0x1
    9e74:	54000121 	b.ne	0x9e98  // b.any
    9e78:	52800900 	mov	w0, #0x48                  	// #72
    9e7c:	72a64240 	movk	w0, #0x3212, lsl #16
    9e80:	52800002 	mov	w2, #0x0                   	// #0
    9e84:	14000004 	b	0x9e94
    9e88:	52800900 	mov	w0, #0x48                  	// #72
    9e8c:	72a64240 	movk	w0, #0x3212, lsl #16
    9e90:	52800022 	mov	w2, #0x1                   	// #1
    9e94:	97fff9c8 	bl	0x85b4
    9e98:	b9400260 	ldr	w0, [x19]
    9e9c:	34000220 	cbz	w0, 0x9ee0
    9ea0:	b9400a75 	ldr	w21, [x19, #8]
    9ea4:	52a00214 	mov	w20, #0x100000              	// #1048576
    9ea8:	52800a00 	mov	w0, #0x50                  	// #80
    9eac:	72a64240 	movk	w0, #0x3212, lsl #16
    9eb0:	97fff9b2 	bl	0x8578
    9eb4:	36200060 	tbz	w0, #4, 0x9ec0
    9eb8:	71000694 	subs	w20, w20, #0x1
    9ebc:	54ffff61 	b.ne	0x9ea8  // b.any
    9ec0:	52800880 	mov	w0, #0x44                  	// #68
    9ec4:	53107ea1 	lsr	w1, w21, #16
    9ec8:	72a64240 	movk	w0, #0x3212, lsl #16
    9ecc:	97fff9b2 	bl	0x8594
    9ed0:	52800800 	mov	w0, #0x40                  	// #64
    9ed4:	72a64240 	movk	w0, #0x3212, lsl #16
    9ed8:	2a1503e1 	mov	w1, w21
    9edc:	97fff9ae 	bl	0x8594
    9ee0:	b9400261 	ldr	w1, [x19]
    9ee4:	34000101 	cbz	w1, 0x9f04
    9ee8:	7100043f 	cmp	w1, #0x1
    9eec:	54000141 	b.ne	0x9f14  // b.any
    9ef0:	52800900 	mov	w0, #0x48                  	// #72
    9ef4:	72a64240 	movk	w0, #0x3212, lsl #16
    9ef8:	52800141 	mov	w1, #0xa                   	// #10
    9efc:	52800002 	mov	w2, #0x0                   	// #0
    9f00:	14000004 	b	0x9f10
    9f04:	52800900 	mov	w0, #0x48                  	// #72
    9f08:	72a64240 	movk	w0, #0x3212, lsl #16
    9f0c:	52800042 	mov	w2, #0x2                   	// #2
    9f10:	97fff9a9 	bl	0x85b4
    9f14:	52800c00 	mov	w0, #0x60                  	// #96
    9f18:	528355c1 	mov	w1, #0x1aae                	// #6830
    9f1c:	72a64240 	movk	w0, #0x3212, lsl #16
    9f20:	97fff99d 	bl	0x8594
    9f24:	52800000 	mov	w0, #0x0                   	// #0
    9f28:	a94153f3 	ldp	x19, x20, [sp, #16]
    9f2c:	f94013f5 	ldr	x21, [sp, #32]
    9f30:	a8c37bfd 	ldp	x29, x30, [sp], #48
    9f34:	d65f03c0 	ret
    9f38:	a9bd7bfd 	stp	x29, x30, [sp, #-48]!
    9f3c:	52800081 	mov	w1, #0x4                   	// #4
    9f40:	910003fd 	mov	x29, sp
    9f44:	f9000bf3 	str	x19, [sp, #16]
    9f48:	2a0003f3 	mov	w19, w0
    9f4c:	52830100 	mov	w0, #0x1808                	// #6152
    9f50:	52800002 	mov	w2, #0x0                   	// #0
    9f54:	72a64240 	movk	w0, #0x3212, lsl #16
    9f58:	97fff997 	bl	0x85b4
    9f5c:	52830200 	mov	w0, #0x1810                	// #6160
    9f60:	72a64240 	movk	w0, #0x3212, lsl #16
    9f64:	52800081 	mov	w1, #0x4                   	// #4
    9f68:	52800002 	mov	w2, #0x0                   	// #0
    9f6c:	97fff992 	bl	0x85b4
    9f70:	52800020 	mov	w0, #0x1                   	// #1
    9f74:	b90023a0 	str	w0, [x29, #32]
    9f78:	52800a00 	mov	w0, #0x50                  	// #80
    9f7c:	b90027bf 	str	wzr, [x29, #36]
    9f80:	6b00027f 	cmp	w19, w0
    9f84:	540000e9 	b.ls	0x9fa0  // b.plast
    9f88:	52807d00 	mov	w0, #0x3e8                 	// #1000
    9f8c:	1ac00a61 	udiv	w1, w19, w0
    9f90:	1b00cc33 	msub	w19, w1, w0, w19
    9f94:	53114273 	lsl	w19, w19, #15
    9f98:	1ac00a60 	udiv	w0, w19, w0
    9f9c:	0b013c00 	add	w0, w0, w1, lsl #15
    9fa0:	b9002ba0 	str	w0, [x29, #40]
    9fa4:	910083a0 	add	x0, x29, #0x20
    9fa8:	97ffffa7 	bl	0x9e44
    9fac:	f9400bf3 	ldr	x19, [sp, #16]
    9fb0:	a8c37bfd 	ldp	x29, x30, [sp], #48
    9fb4:	d65f03c0 	ret
    9fb8:	a9bf7bfd 	stp	x29, x30, [sp, #-16]!
    9fbc:	528000a0 	mov	w0, #0x5                   	// #5
    9fc0:	910003fd 	mov	x29, sp
    9fc4:	97ffffdd 	bl	0x9f38
    9fc8:	14000000 	b	0x9fc8
    9fcc:	d508711f 	ic	ialluis
    9fd0:	d5033fdf 	isb
    9fd4:	d65f03c0 	ret
    9fd8:	d5384249 	mrs	x9, currentel
    9fdc:	f100313f 	cmp	x9, #0xc
    9fe0:	540000a0 	b.eq	0x9ff4  // b.none
    9fe4:	f100213f 	cmp	x9, #0x8
    9fe8:	540000e0 	b.eq	0xa004  // b.none
    9fec:	f100113f 	cmp	x9, #0x4
    9ff0:	54000120 	b.eq	0xa014  // b.none
    9ff4:	d50e871f 	tlbi	alle3
    9ff8:	d5033f9f 	dsb	sy
    9ffc:	d5033fdf 	isb
    a000:	14000008 	b	0xa020
    a004:	d50c871f 	tlbi	alle2
    a008:	d5033f9f 	dsb	sy
    a00c:	d5033fdf 	isb
    a010:	14000004 	b	0xa020
    a014:	d508871f 	tlbi	vmalle1
    a018:	d5033f9f 	dsb	sy
    a01c:	d5033fdf 	isb
    a020:	d65f03c0 	ret
    a024:	d10983ff 	sub	sp, sp, #0x260
    a028:	2a0303e3 	mov	w3, w3
    a02c:	a9bc7bfd 	stp	x29, x30, [sp, #-64]!
    a030:	910003fd 	mov	x29, sp
    a034:	a90363f7 	stp	x23, x24, [sp, #48]
    a038:	2a0203f8 	mov	w24, w2
    a03c:	f9400c02 	ldr	x2, [x0, #24]
    a040:	a90153f3 	stp	x19, x20, [sp, #16]
    a044:	a9025bf5 	stp	x21, x22, [sp, #32]
    a048:	9ac20874 	udiv	x20, x3, x2
    a04c:	aa0003f3 	mov	x19, x0
    a050:	aa0403f6 	mov	x22, x4
    a054:	9b028e97 	msub	x23, x20, x2, x3
    a058:	b5000064 	cbnz	x4, 0xa064
    a05c:	12800015 	mov	w21, #0xffffffff            	// #-1
    a060:	14000020 	b	0xa0e0
    a064:	910103a2 	add	x2, x29, #0x40
    a068:	97ffda7e 	bl	0xa60
    a06c:	2a0003f5 	mov	w21, w0
    a070:	35ffff60 	cbnz	w0, 0xa05c
    a074:	b5000074 	cbnz	x20, 0xa080
    a078:	34000357 	cbz	w23, 0xa0e0
    a07c:	1400000a 	b	0xa0a4
    a080:	f9403a64 	ldr	x4, [x19, #112]
    a084:	b9400660 	ldr	w0, [x19, #4]
    a088:	aa1403e2 	mov	x2, x20
    a08c:	aa1603e3 	mov	x3, x22
    a090:	f94023a1 	ldr	x1, [x29, #64]
    a094:	8b384021 	add	x1, x1, w24, uxtw
    a098:	d63f0080 	blr	x4
    a09c:	b5fffee0 	cbnz	x0, 0xa078
    a0a0:	17ffffef 	b	0xa05c
    a0a4:	f94023a0 	ldr	x0, [x29, #64]
    a0a8:	f9403a64 	ldr	x4, [x19, #112]
    a0ac:	8b384001 	add	x1, x0, w24, uxtw
    a0b0:	b9400660 	ldr	w0, [x19, #4]
    a0b4:	8b140021 	add	x1, x1, x20
    a0b8:	d2800022 	mov	x2, #0x1                   	// #1
    a0bc:	910283a3 	add	x3, x29, #0xa0
    a0c0:	d63f0080 	blr	x4
    a0c4:	f100041f 	cmp	x0, #0x1
    a0c8:	54fffca1 	b.ne	0xa05c  // b.any
    a0cc:	f9400e60 	ldr	x0, [x19, #24]
    a0d0:	910283a1 	add	x1, x29, #0xa0
    a0d4:	2a1703e2 	mov	w2, w23
    a0d8:	9b005a80 	madd	x0, x20, x0, x22
    a0dc:	97ffdb60 	bl	0xe5c
    a0e0:	2a1503e0 	mov	w0, w21
    a0e4:	a94153f3 	ldp	x19, x20, [sp, #16]
    a0e8:	a9425bf5 	ldp	x21, x22, [sp, #32]
    a0ec:	a94363f7 	ldp	x23, x24, [sp, #48]
    a0f0:	a8c47bfd 	ldp	x29, x30, [sp], #64
    a0f4:	910983ff 	add	sp, sp, #0x260
    a0f8:	d65f03c0 	ret
    a0fc:	a9bc7bfd 	stp	x29, x30, [sp, #-64]!
    a100:	910003fd 	mov	x29, sp
    a104:	a90153f3 	stp	x19, x20, [sp, #16]
    a108:	a9025bf5 	stp	x21, x22, [sp, #32]
    a10c:	f9001bf7 	str	x23, [sp, #48]
    a110:	aa0003f5 	mov	x21, x0
    a114:	2a0103f6 	mov	w22, w1
    a118:	aa0203f7 	mov	x23, x2
    a11c:	528000b3 	mov	w19, #0x5                   	// #5
    a120:	97ffda4f 	bl	0xa5c
    a124:	aa0003f4 	mov	x20, x0
    a128:	b50000a0 	cbnz	x0, 0xa13c
    a12c:	12800000 	mov	w0, #0xffffffff            	// #-1
    a130:	1400000a 	b	0xa158
    a134:	71000673 	subs	w19, w19, #0x1
    a138:	54ffffa0 	b.eq	0xa12c  // b.none
    a13c:	aa1403e0 	mov	x0, x20
    a140:	aa1503e1 	mov	x1, x21
    a144:	52800002 	mov	w2, #0x0                   	// #0
    a148:	2a1603e3 	mov	w3, w22
    a14c:	aa1703e4 	mov	x4, x23
    a150:	97ffffb5 	bl	0xa024
    a154:	35ffff00 	cbnz	w0, 0xa134
    a158:	a94153f3 	ldp	x19, x20, [sp, #16]
    a15c:	a9425bf5 	ldp	x21, x22, [sp, #32]
    a160:	f9401bf7 	ldr	x23, [sp, #48]
    a164:	a8c47bfd 	ldp	x29, x30, [sp], #64
    a168:	d65f03c0 	ret
    a16c:	a9bc7bfd 	stp	x29, x30, [sp, #-64]!
    a170:	910003fd 	mov	x29, sp
    a174:	a90153f3 	stp	x19, x20, [sp, #16]
    a178:	a9025bf5 	stp	x21, x22, [sp, #32]
    a17c:	a90363f7 	stp	x23, x24, [sp, #48]
    a180:	aa0003f5 	mov	x21, x0
    a184:	2a0103f8 	mov	w24, w1
    a188:	aa0203f7 	mov	x23, x2
    a18c:	aa0303f6 	mov	x22, x3
    a190:	528000b4 	mov	w20, #0x5                   	// #5
    a194:	97ffda32 	bl	0xa5c
    a198:	aa0003f3 	mov	x19, x0
    a19c:	b50000a0 	cbnz	x0, 0xa1b0
    a1a0:	12800000 	mov	w0, #0xffffffff            	// #-1
    a1a4:	1400001d 	b	0xa218
    a1a8:	71000694 	subs	w20, w20, #0x1
    a1ac:	54ffffa0 	b.eq	0xa1a0  // b.none
    a1b0:	aa1303e0 	mov	x0, x19
    a1b4:	aa1503e1 	mov	x1, x21
    a1b8:	52800002 	mov	w2, #0x0                   	// #0
    a1bc:	52804003 	mov	w3, #0x200                 	// #512
    a1c0:	aa1603e4 	mov	x4, x22
    a1c4:	97ffff98 	bl	0xa024
    a1c8:	35ffff00 	cbnz	w0, 0xa1a8
    a1cc:	b94032d6 	ldr	w22, [x22, #48]
    a1d0:	1113a2d6 	add	w22, w22, #0x4e8
    a1d4:	6b1802df 	cmp	w22, w24
    a1d8:	54000069 	b.ls	0xa1e4  // b.plast
    a1dc:	12800020 	mov	w0, #0xfffffffe            	// #-2
    a1e0:	1400000e 	b	0xa218
    a1e4:	528000b4 	mov	w20, #0x5                   	// #5
    a1e8:	d2804018 	mov	x24, #0x200                 	// #512
    a1ec:	f9400e62 	ldr	x2, [x19, #24]
    a1f0:	aa1303e0 	mov	x0, x19
    a1f4:	aa1503e1 	mov	x1, x21
    a1f8:	9ac20b02 	udiv	x2, x24, x2
    a1fc:	2a1603e3 	mov	w3, w22
    a200:	aa1703e4 	mov	x4, x23
    a204:	97ffff88 	bl	0xa024
    a208:	34000080 	cbz	w0, 0xa218
    a20c:	71000694 	subs	w20, w20, #0x1
    a210:	54fffee1 	b.ne	0xa1ec  // b.any
    a214:	12800040 	mov	w0, #0xfffffffd            	// #-3
    a218:	a94153f3 	ldp	x19, x20, [sp, #16]
    a21c:	a9425bf5 	ldp	x21, x22, [sp, #32]
    a220:	a94363f7 	ldp	x23, x24, [sp, #48]
    a224:	a8c47bfd 	ldp	x29, x30, [sp], #64
    a228:	d65f03c0 	ret
    a22c:	a9be7bfd 	stp	x29, x30, [sp, #-32]!
    a230:	52830100 	mov	w0, #0x1808                	// #6152
    a234:	910003fd 	mov	x29, sp
    a238:	52800081 	mov	w1, #0x4                   	// #4
    a23c:	52800002 	mov	w2, #0x0                   	// #0
    a240:	72a64240 	movk	w0, #0x3212, lsl #16
    a244:	f9000bf3 	str	x19, [sp, #16]
    a248:	97fff8db 	bl	0x85b4
    a24c:	52830200 	mov	w0, #0x1810                	// #6160
    a250:	52800081 	mov	w1, #0x4                   	// #4
    a254:	52800002 	mov	w2, #0x0                   	// #0
    a258:	72a64240 	movk	w0, #0x3212, lsl #16
    a25c:	97fff8d6 	bl	0x85b4
    a260:	52800a00 	mov	w0, #0x50                  	// #80
    a264:	72a64240 	movk	w0, #0x3212, lsl #16
    a268:	97fff8c4 	bl	0x8578
    a26c:	2a0003f3 	mov	w19, w0
    a270:	52837580 	mov	w0, #0x1bac                	// #7084
    a274:	72a64240 	movk	w0, #0x3212, lsl #16
    a278:	97fff8c0 	bl	0x8578
    a27c:	52800001 	mov	w1, #0x0                   	// #0
    a280:	36180093 	tbz	w19, #3, 0xa290
    a284:	12001c00 	and	w0, w0, #0xff
    a288:	7100081f 	cmp	w0, #0x2
    a28c:	1a9f17e1 	cset	w1, eq  // eq = none
    a290:	2a0103e0 	mov	w0, w1
    a294:	f9400bf3 	ldr	x19, [sp, #16]
    a298:	a8c27bfd 	ldp	x29, x30, [sp], #32
    a29c:	d65f03c0 	ret
    a2a0:	a9b97bfd 	stp	x29, x30, [sp, #-112]!
    a2a4:	d2b28000 	mov	x0, #0x94000000            	// #2483027968
    a2a8:	910003fd 	mov	x29, sp
    a2ac:	a90153f3 	stp	x19, x20, [sp, #16]
    a2b0:	f9001fa0 	str	x0, [x29, #56]
    a2b4:	d2b280c0 	mov	x0, #0x94060000            	// #2483421184
    a2b8:	f90023a0 	str	x0, [x29, #64]
    a2bc:	d2b28080 	mov	x0, #0x94040000            	// #2483290112
    a2c0:	f9002ba0 	str	x0, [x29, #80]
    a2c4:	52a00040 	mov	w0, #0x20000               	// #131072
    a2c8:	f90013f5 	str	x21, [sp, #32]
    a2cc:	3900dfbf 	strb	wzr, [x29, #55]
    a2d0:	b90067a0 	str	w0, [x29, #100]
    a2d4:	97ffffd6 	bl	0xa22c
    a2d8:	13001c13 	sxtb	w19, w0
    a2dc:	35000053 	cbnz	w19, 0xa2e4
    a2e0:	940009c1 	bl	0xc9e4
    a2e4:	97fffc73 	bl	0x94b0
    a2e8:	7100041f 	cmp	w0, #0x1
    a2ec:	2a0003f5 	mov	w21, w0
    a2f0:	54000b61 	b.ne	0xa45c  // b.any
    a2f4:	9100dfa0 	add	x0, x29, #0x37
    a2f8:	97ffda6c 	bl	0xca8
    a2fc:	93407c14 	sxtw	x20, w0
    a300:	36f80054 	tbz	w20, #31, 0xa308
    a304:	14000000 	b	0xa304
    a308:	97ffdad2 	bl	0xe50
    a30c:	7100041f 	cmp	w0, #0x1
    a310:	540002c1 	b.ne	0xa368  // b.any
    a314:	d2b04001 	mov	x1, #0x82000000            	// #2181038080
    a318:	528ab540 	mov	w0, #0x55aa                	// #21930
    a31c:	33103c00 	bfi	w0, w0, #16, #16
    a320:	b9003820 	str	w0, [x1, #56]
    a324:	f0000000 	adrp	x0, 0xd000
    a328:	913d1800 	add	x0, x0, #0xf46
    a32c:	97ffdb29 	bl	0xfd0
    a330:	f0000000 	adrp	x0, 0xd000
    a334:	912ee000 	add	x0, x0, #0xbb8
    a338:	d29fc003 	mov	x3, #0xfe00                	// #65024
    a33c:	52a00201 	mov	w1, #0x100000              	// #1048576
    a340:	d2b3e002 	mov	x2, #0x9f000000            	// #2667577344
    a344:	f2b3dfe3 	movk	x3, #0x9eff, lsl #16
    a348:	8b141000 	add	x0, x0, x20, lsl #4
    a34c:	97ffff88 	bl	0xa16c
    a350:	52802080 	mov	w0, #0x104                 	// #260
    a354:	97ffd8e6 	bl	0x6ec
    a358:	d2800000 	mov	x0, #0x0                   	// #0
    a35c:	aa0003e1 	mov	x1, x0
    a360:	d2b3e002 	mov	x2, #0x9f000000            	// #2667577344
    a364:	d63f0040 	blr	x2
    a368:	350006b3 	cbnz	w19, 0xa43c
    a36c:	f0000000 	adrp	x0, 0xd000
    a370:	912de000 	add	x0, x0, #0xb78
    a374:	d29fc003 	mov	x3, #0xfe00                	// #65024
    a378:	52a00201 	mov	w1, #0x100000              	// #1048576
    a37c:	d2b28082 	mov	x2, #0x94040000            	// #2483290112
    a380:	f2b28063 	movk	x3, #0x9403, lsl #16
    a384:	8b141000 	add	x0, x0, x20, lsl #4
    a388:	97ffff79 	bl	0xa16c
    a38c:	d29fc001 	mov	x1, #0xfe00                	// #65024
    a390:	d28aa000 	mov	x0, #0x5500                	// #21760
    a394:	f2b28061 	movk	x1, #0x9403, lsl #16
    a398:	d2800002 	mov	x2, #0x0                   	// #0
    a39c:	2a1303e3 	mov	w3, w19
    a3a0:	2a1503e4 	mov	w4, w21
    a3a4:	94000076 	bl	0xa57c
    a3a8:	34000060 	cbz	w0, 0xa3b4
    a3ac:	528000a0 	mov	w0, #0x5                   	// #5
    a3b0:	97ffff02 	bl	0x9fb8
    a3b4:	f0000000 	adrp	x0, 0xd000
    a3b8:	9100e3a1 	add	x1, x29, #0x38
    a3bc:	913da800 	add	x0, x0, #0xf6a
    a3c0:	9400094e 	bl	0xc8f8
    a3c4:	36f800a0 	tbz	w0, #31, 0xa3d8
    a3c8:	f0000000 	adrp	x0, 0xd000
    a3cc:	913ddc00 	add	x0, x0, #0xf77
    a3d0:	97ffdb00 	bl	0xfd0
    a3d4:	14000019 	b	0xa438
    a3d8:	f0000000 	adrp	x0, 0xd000
    a3dc:	913e4000 	add	x0, x0, #0xf90
    a3e0:	910103a1 	add	x1, x29, #0x40
    a3e4:	94000945 	bl	0xc8f8
    a3e8:	37ffff00 	tbnz	w0, #31, 0xa3c8
    a3ec:	f94023a0 	ldr	x0, [x29, #64]
    a3f0:	f9401fa2 	ldr	x2, [x29, #56]
    a3f4:	f9002fa0 	str	x0, [x29, #88]
    a3f8:	f0000000 	adrp	x0, 0xd000
    a3fc:	d37cee95 	lsl	x21, x20, #4
    a400:	912d6000 	add	x0, x0, #0xb58
    a404:	d1080043 	sub	x3, x2, #0x200
    a408:	8b150000 	add	x0, x0, x21
    a40c:	52a00201 	mov	w1, #0x100000              	// #1048576
    a410:	f90027a2 	str	x2, [x29, #72]
    a414:	97ffff56 	bl	0xa16c
    a418:	f94023a2 	ldr	x2, [x29, #64]
    a41c:	f0000000 	adrp	x0, 0xd000
    a420:	912e6000 	add	x0, x0, #0xb98
    a424:	8b150000 	add	x0, x0, x21
    a428:	52a00c01 	mov	w1, #0x600000              	// #6291456
    a42c:	d1080043 	sub	x3, x2, #0x200
    a430:	97ffff4f 	bl	0xa16c
    a434:	14000002 	b	0xa43c
    a438:	14000000 	b	0xa438
    a43c:	f0000000 	adrp	x0, 0xd000
    a440:	912ee000 	add	x0, x0, #0xbb8
    a444:	d29fc003 	mov	x3, #0xfe00                	// #65024
    a448:	8b141000 	add	x0, x0, x20, lsl #4
    a44c:	52a00201 	mov	w1, #0x100000              	// #1048576
    a450:	d2b3e002 	mov	x2, #0x9f000000            	// #2667577344
    a454:	f2b3dfe3 	movk	x3, #0x9eff, lsl #16
    a458:	97ffff45 	bl	0xa16c
    a45c:	350004f3 	cbnz	w19, 0xa4f8
    a460:	f0000000 	adrp	x0, 0xd000
    a464:	910183a1 	add	x1, x29, #0x60
    a468:	913e7400 	add	x0, x0, #0xf9d
    a46c:	94000923 	bl	0xc8f8
    a470:	36f800a0 	tbz	w0, #31, 0xa484
    a474:	f0000000 	adrp	x0, 0xd000
    a478:	913ea800 	add	x0, x0, #0xfaa
    a47c:	97ffdad5 	bl	0xfd0
    a480:	14000007 	b	0xa49c
    a484:	f0000000 	adrp	x0, 0xd000
    a488:	9101a3a1 	add	x1, x29, #0x68
    a48c:	913f0c00 	add	x0, x0, #0xfc3
    a490:	9400091a 	bl	0xc8f8
    a494:	36f80060 	tbz	w0, #31, 0xa4a0
    a498:	17fffff7 	b	0xa474
    a49c:	14000000 	b	0xa49c
    a4a0:	910123a0 	add	x0, x29, #0x48
    a4a4:	940009f5 	bl	0xcc78
    a4a8:	f9401fa1 	ldr	x1, [x29, #56]
    a4ac:	d28aa000 	mov	x0, #0x5500                	// #21760
    a4b0:	d1080021 	sub	x1, x1, #0x200
    a4b4:	d2800002 	mov	x2, #0x0                   	// #0
    a4b8:	2a1303e3 	mov	w3, w19
    a4bc:	52800024 	mov	w4, #0x1                   	// #1
    a4c0:	9400002f 	bl	0xa57c
    a4c4:	34000060 	cbz	w0, 0xa4d0
    a4c8:	528000a0 	mov	w0, #0x5                   	// #5
    a4cc:	97fffebb 	bl	0x9fb8
    a4d0:	f94023a1 	ldr	x1, [x29, #64]
    a4d4:	d2800002 	mov	x2, #0x0                   	// #0
    a4d8:	d28aa000 	mov	x0, #0x5500                	// #21760
    a4dc:	d1080021 	sub	x1, x1, #0x200
    a4e0:	2a0203e3 	mov	w3, w2
    a4e4:	52800024 	mov	w4, #0x1                   	// #1
    a4e8:	94000025 	bl	0xa57c
    a4ec:	34000060 	cbz	w0, 0xa4f8
    a4f0:	528000a0 	mov	w0, #0x5                   	// #5
    a4f4:	97fffeb1 	bl	0x9fb8
    a4f8:	d29fc001 	mov	x1, #0xfe00                	// #65024
    a4fc:	d2800002 	mov	x2, #0x0                   	// #0
    a500:	d28aa000 	mov	x0, #0x5500                	// #21760
    a504:	f2b3dfe1 	movk	x1, #0x9eff, lsl #16
    a508:	2a0203e3 	mov	w3, w2
    a50c:	52800024 	mov	w4, #0x1                   	// #1
    a510:	9400001b 	bl	0xa57c
    a514:	34000060 	cbz	w0, 0xa520
    a518:	528000a0 	mov	w0, #0x5                   	// #5
    a51c:	97fffea7 	bl	0x9fb8
    a520:	3940dfa0 	ldrb	w0, [x29, #55]
    a524:	34000040 	cbz	w0, 0xa52c
    a528:	94000016 	bl	0xa580
    a52c:	f9401fa0 	ldr	x0, [x29, #56]
    a530:	6b1f027f 	cmp	w19, wzr
    a534:	d2b3e014 	mov	x20, #0x9f000000            	// #2667577344
    a538:	9a940014 	csel	x20, x0, x20, eq  // eq = none
    a53c:	940008e9 	bl	0xc8e0
    a540:	940008ed 	bl	0xc8f4
    a544:	97fffc8b 	bl	0x9770
    a548:	35000053 	cbnz	w19, 0xa550
    a54c:	940009e0 	bl	0xcccc
    a550:	52802080 	mov	w0, #0x104                 	// #260
    a554:	97ffd866 	bl	0x6ec
    a558:	f9401fa0 	ldr	x0, [x29, #56]
    a55c:	eb00029f 	cmp	x20, x0
    a560:	54000081 	b.ne	0xa570  // b.any
    a564:	f94023a0 	ldr	x0, [x29, #64]
    a568:	d2b28081 	mov	x1, #0x94040000            	// #2483290112
    a56c:	14000003 	b	0xa578
    a570:	d2800000 	mov	x0, #0x0                   	// #0
    a574:	aa0003e1 	mov	x1, x0
    a578:	d63f0280 	blr	x20
    a57c:	14000417 	b	0xb5d8
    a580:	140002fc 	b	0xb170
    a584:	d3457c22 	ubfx	x2, x1, #5, #27
    a588:	52800023 	mov	w3, #0x1                   	// #1
    a58c:	12001021 	and	w1, w1, #0x1f
    a590:	b8627800 	ldr	w0, [x0, x2, lsl #2]
    a594:	1ac12061 	lsl	w1, w3, w1
    a598:	6a00003f 	tst	w1, w0
    a59c:	1a9f07e0 	cset	w0, ne  // ne = any
    a5a0:	d65f03c0 	ret
    a5a4:	aa0003e2 	mov	x2, x0
    a5a8:	52800000 	mov	w0, #0x0                   	// #0
    a5ac:	52800061 	mov	w1, #0x3                   	// #3
    a5b0:	2a0003e3 	mov	w3, w0
    a5b4:	1400012b 	b	0xaa60
    a5b8:	35000060 	cbnz	w0, 0xa5c4
    a5bc:	528001e0 	mov	w0, #0xf                   	// #15
    a5c0:	14000008 	b	0xa5e0
    a5c4:	7100401f 	cmp	w0, #0x10
    a5c8:	54000061 	b.ne	0xa5d4  // b.any
    a5cc:	5281e000 	mov	w0, #0xf00                 	// #3840
    a5d0:	14000004 	b	0xa5e0
    a5d4:	7100641f 	cmp	w0, #0x19
    a5d8:	54000081 	b.ne	0xa5e8  // b.any
    a5dc:	52a001e0 	mov	w0, #0xf0000               	// #983040
    a5e0:	b9000060 	str	w0, [x3]
    a5e4:	b9000040 	str	w0, [x2]
    a5e8:	52800000 	mov	w0, #0x0                   	// #0
    a5ec:	d65f03c0 	ret
    a5f0:	a9bb7bfd 	stp	x29, x30, [sp, #-80]!
    a5f4:	2a0003e2 	mov	w2, w0
    a5f8:	910003fd 	mov	x29, sp
    a5fc:	51002000 	sub	w0, w0, #0x8
    a600:	a90153f3 	stp	x19, x20, [sp, #16]
    a604:	a9025bf5 	stp	x21, x22, [sp, #32]
    a608:	a90363f7 	stp	x23, x24, [sp, #48]
    a60c:	71001c1f 	cmp	w0, #0x7
    a610:	aa0103f4 	mov	x20, x1
    a614:	540009e9 	b.ls	0xa750  // b.plast
    a618:	7103f85f 	cmp	w2, #0xfe
    a61c:	52800060 	mov	w0, #0x3                   	// #3
    a620:	54000b28 	b.hi	0xa784  // b.pmore
    a624:	51008840 	sub	w0, w2, #0x22
    a628:	7100041f 	cmp	w0, #0x1
    a62c:	54000968 	b.hi	0xa758  // b.pmore
    a630:	910143b3 	add	x19, x29, #0x50
    a634:	a9bf7e7f 	stp	xzr, xzr, [x19, #-16]!
    a638:	aa1303e0 	mov	x0, x19
    a63c:	97ffffda 	bl	0xa5a4
    a640:	b94047a1 	ldr	w1, [x29, #68]
    a644:	b94043a0 	ldr	w0, [x29, #64]
    a648:	2a000020 	orr	w0, w1, w0
    a64c:	b9404ba1 	ldr	w1, [x29, #72]
    a650:	2a010000 	orr	w0, w0, w1
    a654:	b9404fa1 	ldr	w1, [x29, #76]
    a658:	2a010000 	orr	w0, w0, w1
    a65c:	35000040 	cbnz	w0, 0xa664
    a660:	b9000280 	str	w0, [x20]
    a664:	aa1303e0 	mov	x0, x19
    a668:	a9047fbf 	stp	xzr, xzr, [x29, #64]
    a66c:	b0000037 	adrp	x23, 0xf000
    a670:	97ffffcd 	bl	0xa5a4
    a674:	911102e0 	add	x0, x23, #0x440
    a678:	d2800015 	mov	x21, #0x0                   	// #0
    a67c:	52800036 	mov	w22, #0x1                   	// #1
    a680:	f9400018 	ldr	x24, [x0]
    a684:	b8756b01 	ldr	w1, [x24, x21]
    a688:	aa1303e0 	mov	x0, x19
    a68c:	531f7821 	lsl	w1, w1, #1
    a690:	910012b5 	add	x21, x21, #0x4
    a694:	97ffffbc 	bl	0xa584
    a698:	f10082bf 	cmp	x21, #0x20
    a69c:	0a160016 	and	w22, w0, w22
    a6a0:	54ffff21 	b.ne	0xa684  // b.any
    a6a4:	34000076 	cbz	w22, 0xa6b0
    a6a8:	528001e0 	mov	w0, #0xf                   	// #15
    a6ac:	b9000280 	str	w0, [x20]
    a6b0:	aa1303e0 	mov	x0, x19
    a6b4:	a9047fbf 	stp	xzr, xzr, [x29, #64]
    a6b8:	97ffffbb 	bl	0xa5a4
    a6bc:	911102e0 	add	x0, x23, #0x440
    a6c0:	d2800015 	mov	x21, #0x0                   	// #0
    a6c4:	52800036 	mov	w22, #0x1                   	// #1
    a6c8:	f9400018 	ldr	x24, [x0]
    a6cc:	8b150300 	add	x0, x24, x21
    a6d0:	910012b5 	add	x21, x21, #0x4
    a6d4:	b9404001 	ldr	w1, [x0, #64]
    a6d8:	aa1303e0 	mov	x0, x19
    a6dc:	531f7821 	lsl	w1, w1, #1
    a6e0:	97ffffa9 	bl	0xa584
    a6e4:	f10082bf 	cmp	x21, #0x20
    a6e8:	0a160016 	and	w22, w0, w22
    a6ec:	54ffff01 	b.ne	0xa6cc  // b.any
    a6f0:	34000096 	cbz	w22, 0xa700
    a6f4:	b9400280 	ldr	w0, [x20]
    a6f8:	32180c00 	orr	w0, w0, #0xf00
    a6fc:	b9000280 	str	w0, [x20]
    a700:	911102f7 	add	x23, x23, #0x440
    a704:	aa1303e0 	mov	x0, x19
    a708:	a9047fbf 	stp	xzr, xzr, [x29, #64]
    a70c:	97ffffa6 	bl	0xa5a4
    a710:	f94002f7 	ldr	x23, [x23]
    a714:	d2800015 	mov	x21, #0x0                   	// #0
    a718:	52800036 	mov	w22, #0x1                   	// #1
    a71c:	8b1502e0 	add	x0, x23, x21
    a720:	910012b5 	add	x21, x21, #0x4
    a724:	b9406401 	ldr	w1, [x0, #100]
    a728:	aa1303e0 	mov	x0, x19
    a72c:	531f7821 	lsl	w1, w1, #1
    a730:	97ffff95 	bl	0xa584
    a734:	f10082bf 	cmp	x21, #0x20
    a738:	0a160016 	and	w22, w0, w22
    a73c:	54ffff01 	b.ne	0xa71c  // b.any
    a740:	34000096 	cbz	w22, 0xa750
    a744:	b9400280 	ldr	w0, [x20]
    a748:	32100c00 	orr	w0, w0, #0xf0000
    a74c:	b9000280 	str	w0, [x20]
    a750:	52800000 	mov	w0, #0x0                   	// #0
    a754:	1400000c 	b	0xa784
    a758:	51009040 	sub	w0, w2, #0x24
    a75c:	7100181f 	cmp	w0, #0x6
    a760:	54ffff89 	b.ls	0xa750  // b.plast
    a764:	b0000020 	adrp	x0, 0xf000
    a768:	91110000 	add	x0, x0, #0x440
    a76c:	52800023 	mov	w3, #0x1                   	// #1
    a770:	f9400000 	ldr	x0, [x0]
    a774:	b8625800 	ldr	w0, [x0, w2, uxtw #2]
    a778:	aa1403e2 	mov	x2, x20
    a77c:	2a0003e1 	mov	w1, w0
    a780:	940000b8 	bl	0xaa60
    a784:	a94153f3 	ldp	x19, x20, [sp, #16]
    a788:	a9425bf5 	ldp	x21, x22, [sp, #32]
    a78c:	a94363f7 	ldp	x23, x24, [sp, #48]
    a790:	a8c57bfd 	ldp	x29, x30, [sp], #80
    a794:	d65f03c0 	ret
    a798:	a9be7bfd 	stp	x29, x30, [sp, #-32]!
    a79c:	2a0003e2 	mov	w2, w0
    a7a0:	910003fd 	mov	x29, sp
    a7a4:	51008800 	sub	w0, w0, #0x22
    a7a8:	b9001fa1 	str	w1, [x29, #28]
    a7ac:	7100041f 	cmp	w0, #0x1
    a7b0:	54000329 	b.ls	0xa814  // b.plast
    a7b4:	7103f85f 	cmp	w2, #0xfe
    a7b8:	52800060 	mov	w0, #0x3                   	// #3
    a7bc:	540002e8 	b.hi	0xa818  // b.pmore
    a7c0:	51009041 	sub	w1, w2, #0x24
    a7c4:	7100183f 	cmp	w1, #0x6
    a7c8:	52800000 	mov	w0, #0x0                   	// #0
    a7cc:	54000269 	b.ls	0xa818  // b.plast
    a7d0:	b0000021 	adrp	x1, 0xf000
    a7d4:	91110021 	add	x1, x1, #0x440
    a7d8:	2a0203e0 	mov	w0, w2
    a7dc:	7100605f 	cmp	w2, #0x18
    a7e0:	f9400021 	ldr	x1, [x1]
    a7e4:	b8607820 	ldr	w0, [x1, x0, lsl #2]
    a7e8:	54000060 	b.eq	0xa7f4  // b.none
    a7ec:	7100845f 	cmp	w2, #0x21
    a7f0:	54000081 	b.ne	0xa800  // b.any
    a7f4:	b9401fa1 	ldr	w1, [x29, #28]
    a7f8:	940000e2 	bl	0xab80
    a7fc:	14000007 	b	0xa818
    a800:	2a0003e1 	mov	w1, w0
    a804:	910073a2 	add	x2, x29, #0x1c
    a808:	52800023 	mov	w3, #0x1                   	// #1
    a80c:	94000015 	bl	0xa860
    a810:	14000002 	b	0xa818
    a814:	52800000 	mov	w0, #0x0                   	// #0
    a818:	a8c27bfd 	ldp	x29, x30, [sp], #32
    a81c:	d65f03c0 	ret
    a820:	d2800380 	mov	x0, #0x1c                  	// #28
    a824:	f2a65100 	movk	x0, #0x3288, lsl #16
    a828:	b9400001 	ldr	w1, [x0]
    a82c:	d2800380 	mov	x0, #0x1c                  	// #28
    a830:	f2a65100 	movk	x0, #0x3288, lsl #16
    a834:	32000021 	orr	w1, w1, #0x1
    a838:	b9000001 	str	w1, [x0]
    a83c:	d65f03c0 	ret
    a840:	d2800380 	mov	x0, #0x1c                  	// #28
    a844:	f2a65100 	movk	x0, #0x3288, lsl #16
    a848:	b9400001 	ldr	w1, [x0]
    a84c:	d2800380 	mov	x0, #0x1c                  	// #28
    a850:	f2a65100 	movk	x0, #0x3288, lsl #16
    a854:	121f7821 	and	w1, w1, #0xfffffffe
    a858:	b9000001 	str	w1, [x0]
    a85c:	d65f03c0 	ret
    a860:	a9bc7bfd 	stp	x29, x30, [sp, #-64]!
    a864:	910003fd 	mov	x29, sp
    a868:	f9000bf3 	str	x19, [sp, #16]
    a86c:	f9001fa1 	str	x1, [x29, #56]
    a870:	f9001ba2 	str	x2, [x29, #48]
    a874:	f90017a3 	str	x3, [x29, #40]
    a878:	2a0003f3 	mov	w19, w0
    a87c:	97ffffe9 	bl	0xa820
    a880:	d2800980 	mov	x0, #0x4c                  	// #76
    a884:	f2a64480 	movk	x0, #0x3224, lsl #16
    a888:	52910204 	mov	w4, #0x8810                	// #34832
    a88c:	b9000004 	str	w4, [x0]
    a890:	d2800900 	mov	x0, #0x48                  	// #72
    a894:	f2a64480 	movk	x0, #0x3224, lsl #16
    a898:	529fffe4 	mov	w4, #0xffff                	// #65535
    a89c:	b9000004 	str	w4, [x0]
    a8a0:	d2800800 	mov	x0, #0x40                  	// #64
    a8a4:	f2a64480 	movk	x0, #0x3224, lsl #16
    a8a8:	b9400004 	ldr	w4, [x0]
    a8ac:	d2800800 	mov	x0, #0x40                  	// #64
    a8b0:	f2a64480 	movk	x0, #0x3224, lsl #16
    a8b4:	321c0084 	orr	w4, w4, #0x10
    a8b8:	b9000004 	str	w4, [x0]
    a8bc:	d2800a80 	mov	x0, #0x54                  	// #84
    a8c0:	f2a64480 	movk	x0, #0x3224, lsl #16
    a8c4:	b9400004 	ldr	w4, [x0]
    a8c8:	d2800a80 	mov	x0, #0x54                  	// #84
    a8cc:	f2a64480 	movk	x0, #0x3224, lsl #16
    a8d0:	321e0084 	orr	w4, w4, #0x4
    a8d4:	b9000004 	str	w4, [x0]
    a8d8:	d2800a80 	mov	x0, #0x54                  	// #84
    a8dc:	f2a64480 	movk	x0, #0x3224, lsl #16
    a8e0:	b9400004 	ldr	w4, [x0]
    a8e4:	d2800a80 	mov	x0, #0x54                  	// #84
    a8e8:	f2a64480 	movk	x0, #0x3224, lsl #16
    a8ec:	121e7884 	and	w4, w4, #0xfffffffd
    a8f0:	b9000004 	str	w4, [x0]
    a8f4:	52800020 	mov	w0, #0x1                   	// #1
    a8f8:	97fffd1b 	bl	0x9d64
    a8fc:	d2800a80 	mov	x0, #0x54                  	// #84
    a900:	f2a64480 	movk	x0, #0x3224, lsl #16
    a904:	b9400004 	ldr	w4, [x0]
    a908:	d2800a80 	mov	x0, #0x54                  	// #84
    a90c:	f2a64480 	movk	x0, #0x3224, lsl #16
    a910:	32000084 	orr	w4, w4, #0x1
    a914:	b9000004 	str	w4, [x0]
    a918:	52800020 	mov	w0, #0x1                   	// #1
    a91c:	97fffd12 	bl	0x9d64
    a920:	d2800800 	mov	x0, #0x40                  	// #64
    a924:	f2a64480 	movk	x0, #0x3224, lsl #16
    a928:	f94017a3 	ldr	x3, [x29, #40]
    a92c:	f9401fa1 	ldr	x1, [x29, #56]
    a930:	b9400004 	ldr	w4, [x0]
    a934:	d2800800 	mov	x0, #0x40                  	// #64
    a938:	f2a64480 	movk	x0, #0x3224, lsl #16
    a93c:	321f0084 	orr	w4, w4, #0x2
    a940:	f9401ba2 	ldr	x2, [x29, #48]
    a944:	b9000004 	str	w4, [x0]
    a948:	d2800800 	mov	x0, #0x40                  	// #64
    a94c:	f2a64480 	movk	x0, #0x3224, lsl #16
    a950:	34000103 	cbz	w3, 0xa970
    a954:	b9400003 	ldr	w3, [x0]
    a958:	321e0063 	orr	w3, w3, #0x4
    a95c:	d2800800 	mov	x0, #0x40                  	// #64
    a960:	f2a64480 	movk	x0, #0x3224, lsl #16
    a964:	b9000003 	str	w3, [x0]
    a968:	2a1303e3 	mov	w3, w19
    a96c:	14000004 	b	0xa97c
    a970:	b9400003 	ldr	w3, [x0]
    a974:	121d7863 	and	w3, w3, #0xfffffffb
    a978:	17fffff9 	b	0xa95c
    a97c:	6b01007f 	cmp	w3, w1
    a980:	4b130060 	sub	w0, w3, w19
    a984:	54000128 	b.hi	0xa9a8  // b.pmore
    a988:	b8605844 	ldr	w4, [x2, w0, uxtw #2]
    a98c:	52820000 	mov	w0, #0x1000                	// #4096
    a990:	72a64480 	movk	w0, #0x3224, lsl #16
    a994:	0b030800 	add	w0, w0, w3, lsl #2
    a998:	11000463 	add	w3, w3, #0x1
    a99c:	2a0003e0 	mov	w0, w0
    a9a0:	b9000004 	str	w4, [x0]
    a9a4:	17fffff6 	b	0xa97c
    a9a8:	d2800880 	mov	x0, #0x44                  	// #68
    a9ac:	f2a64480 	movk	x0, #0x3224, lsl #16
    a9b0:	d2800a81 	mov	x1, #0x54                  	// #84
    a9b4:	f2a64481 	movk	x1, #0x3224, lsl #16
    a9b8:	b9400000 	ldr	w0, [x0]
    a9bc:	52800053 	mov	w19, #0x2                   	// #2
    a9c0:	6b1f001f 	cmp	w0, wzr
    a9c4:	b9400020 	ldr	w0, [x1]
    a9c8:	d2800a81 	mov	x1, #0x54                  	// #84
    a9cc:	f2a64481 	movk	x1, #0x3224, lsl #16
    a9d0:	121f7800 	and	w0, w0, #0xfffffffe
    a9d4:	1a9f1273 	csel	w19, w19, wzr, ne  // ne = any
    a9d8:	b9000020 	str	w0, [x1]
    a9dc:	52800020 	mov	w0, #0x1                   	// #1
    a9e0:	97fffce1 	bl	0x9d64
    a9e4:	d2800a81 	mov	x1, #0x54                  	// #84
    a9e8:	f2a64481 	movk	x1, #0x3224, lsl #16
    a9ec:	b9400020 	ldr	w0, [x1]
    a9f0:	d2800a81 	mov	x1, #0x54                  	// #84
    a9f4:	f2a64481 	movk	x1, #0x3224, lsl #16
    a9f8:	321f0000 	orr	w0, w0, #0x2
    a9fc:	b9000020 	str	w0, [x1]
    aa00:	52800020 	mov	w0, #0x1                   	// #1
    aa04:	97fffcd8 	bl	0x9d64
    aa08:	d2800a81 	mov	x1, #0x54                  	// #84
    aa0c:	f2a64481 	movk	x1, #0x3224, lsl #16
    aa10:	b9400020 	ldr	w0, [x1]
    aa14:	d2800a81 	mov	x1, #0x54                  	// #84
    aa18:	f2a64481 	movk	x1, #0x3224, lsl #16
    aa1c:	121d7800 	and	w0, w0, #0xfffffffb
    aa20:	b9000020 	str	w0, [x1]
    aa24:	d2800801 	mov	x1, #0x40                  	// #64
    aa28:	f2a64481 	movk	x1, #0x3224, lsl #16
    aa2c:	b9400020 	ldr	w0, [x1]
    aa30:	d2800801 	mov	x1, #0x40                  	// #64
    aa34:	f2a64481 	movk	x1, #0x3224, lsl #16
    aa38:	121b7800 	and	w0, w0, #0xffffffef
    aa3c:	b9000020 	str	w0, [x1]
    aa40:	d2800981 	mov	x1, #0x4c                  	// #76
    aa44:	f2a64481 	movk	x1, #0x3224, lsl #16
    aa48:	b900003f 	str	wzr, [x1]
    aa4c:	97ffff7d 	bl	0xa840
    aa50:	2a1303e0 	mov	w0, w19
    aa54:	f9400bf3 	ldr	x19, [sp, #16]
    aa58:	a8c47bfd 	ldp	x29, x30, [sp], #64
    aa5c:	d65f03c0 	ret
    aa60:	a9bc7bfd 	stp	x29, x30, [sp, #-64]!
    aa64:	910003fd 	mov	x29, sp
    aa68:	f9000bf3 	str	x19, [sp, #16]
    aa6c:	f9001fa0 	str	x0, [x29, #56]
    aa70:	f9001ba1 	str	x1, [x29, #48]
    aa74:	f90017a2 	str	x2, [x29, #40]
    aa78:	f90013a3 	str	x3, [x29, #32]
    aa7c:	97ffff69 	bl	0xa820
    aa80:	d2800984 	mov	x4, #0x4c                  	// #76
    aa84:	f2a64484 	movk	x4, #0x3224, lsl #16
    aa88:	52910205 	mov	w5, #0x8810                	// #34832
    aa8c:	f94013a3 	ldr	x3, [x29, #32]
    aa90:	b9000085 	str	w5, [x4]
    aa94:	d2800904 	mov	x4, #0x48                  	// #72
    aa98:	f2a64484 	movk	x4, #0x3224, lsl #16
    aa9c:	529fffe5 	mov	w5, #0xffff                	// #65535
    aaa0:	f9401fa0 	ldr	x0, [x29, #56]
    aaa4:	b9000085 	str	w5, [x4]
    aaa8:	d2800804 	mov	x4, #0x40                  	// #64
    aaac:	f2a64484 	movk	x4, #0x3224, lsl #16
    aab0:	f9401ba1 	ldr	x1, [x29, #48]
    aab4:	f94017a2 	ldr	x2, [x29, #40]
    aab8:	b9400085 	ldr	w5, [x4]
    aabc:	d2800804 	mov	x4, #0x40                  	// #64
    aac0:	f2a64484 	movk	x4, #0x3224, lsl #16
    aac4:	320000a5 	orr	w5, w5, #0x1
    aac8:	b9000085 	str	w5, [x4]
    aacc:	34000143 	cbz	w3, 0xaaf4
    aad0:	d2800803 	mov	x3, #0x40                  	// #64
    aad4:	f2a64483 	movk	x3, #0x3224, lsl #16
    aad8:	b9400064 	ldr	w4, [x3]
    aadc:	321e0084 	orr	w4, w4, #0x4
    aae0:	d2800803 	mov	x3, #0x40                  	// #64
    aae4:	f2a64483 	movk	x3, #0x3224, lsl #16
    aae8:	b9000064 	str	w4, [x3]
    aaec:	2a0003e3 	mov	w3, w0
    aaf0:	14000006 	b	0xab08
    aaf4:	d2800803 	mov	x3, #0x40                  	// #64
    aaf8:	f2a64483 	movk	x3, #0x3224, lsl #16
    aafc:	b9400064 	ldr	w4, [x3]
    ab00:	121d7884 	and	w4, w4, #0xfffffffb
    ab04:	17fffff7 	b	0xaae0
    ab08:	6b01007f 	cmp	w3, w1
    ab0c:	4b000065 	sub	w5, w3, w0
    ab10:	54000128 	b.hi	0xab34  // b.pmore
    ab14:	52820004 	mov	w4, #0x1000                	// #4096
    ab18:	72a64484 	movk	w4, #0x3224, lsl #16
    ab1c:	0b030884 	add	w4, w4, w3, lsl #2
    ab20:	11000463 	add	w3, w3, #0x1
    ab24:	2a0403e4 	mov	w4, w4
    ab28:	b9400084 	ldr	w4, [x4]
    ab2c:	b8255844 	str	w4, [x2, w5, uxtw #2]
    ab30:	17fffff6 	b	0xab08
    ab34:	d2800880 	mov	x0, #0x44                  	// #68
    ab38:	f2a64480 	movk	x0, #0x3224, lsl #16
    ab3c:	b9400013 	ldr	w19, [x0]
    ab40:	d2800800 	mov	x0, #0x40                  	// #64
    ab44:	f2a64480 	movk	x0, #0x3224, lsl #16
    ab48:	b9400001 	ldr	w1, [x0]
    ab4c:	d2800800 	mov	x0, #0x40                  	// #64
    ab50:	f2a64480 	movk	x0, #0x3224, lsl #16
    ab54:	121f7821 	and	w1, w1, #0xfffffffe
    ab58:	b9000001 	str	w1, [x0]
    ab5c:	d2800980 	mov	x0, #0x4c                  	// #76
    ab60:	f2a64480 	movk	x0, #0x3224, lsl #16
    ab64:	b900001f 	str	wzr, [x0]
    ab68:	97ffff36 	bl	0xa840
    ab6c:	6b1f027f 	cmp	w19, wzr
    ab70:	1a9f07e0 	cset	w0, ne  // ne = any
    ab74:	f9400bf3 	ldr	x19, [sp, #16]
    ab78:	a8c47bfd 	ldp	x29, x30, [sp], #64
    ab7c:	d65f03c0 	ret
    ab80:	a9bd7bfd 	stp	x29, x30, [sp, #-48]!
    ab84:	910003fd 	mov	x29, sp
    ab88:	a90153f3 	stp	x19, x20, [sp, #16]
    ab8c:	f90017a1 	str	x1, [x29, #40]
    ab90:	2a0003f3 	mov	w19, w0
    ab94:	97ffff23 	bl	0xa820
    ab98:	d2800983 	mov	x3, #0x4c                  	// #76
    ab9c:	f2a64483 	movk	x3, #0x3224, lsl #16
    aba0:	52910200 	mov	w0, #0x8810                	// #34832
    aba4:	52800054 	mov	w20, #0x2                   	// #2
    aba8:	b9000060 	str	w0, [x3]
    abac:	d2800903 	mov	x3, #0x48                  	// #72
    abb0:	f2a64483 	movk	x3, #0x3224, lsl #16
    abb4:	529fffe0 	mov	w0, #0xffff                	// #65535
    abb8:	b9000060 	str	w0, [x3]
    abbc:	d2800a83 	mov	x3, #0x54                  	// #84
    abc0:	f2a64483 	movk	x3, #0x3224, lsl #16
    abc4:	b9400060 	ldr	w0, [x3]
    abc8:	d2800a83 	mov	x3, #0x54                  	// #84
    abcc:	f2a64483 	movk	x3, #0x3224, lsl #16
    abd0:	321e0000 	orr	w0, w0, #0x4
    abd4:	b9000060 	str	w0, [x3]
    abd8:	d2800a83 	mov	x3, #0x54                  	// #84
    abdc:	f2a64483 	movk	x3, #0x3224, lsl #16
    abe0:	b9400060 	ldr	w0, [x3]
    abe4:	d2800a83 	mov	x3, #0x54                  	// #84
    abe8:	f2a64483 	movk	x3, #0x3224, lsl #16
    abec:	121e7800 	and	w0, w0, #0xfffffffd
    abf0:	b9000060 	str	w0, [x3]
    abf4:	52800020 	mov	w0, #0x1                   	// #1
    abf8:	97fffc5b 	bl	0x9d64
    abfc:	d2800a83 	mov	x3, #0x54                  	// #84
    ac00:	f2a64483 	movk	x3, #0x3224, lsl #16
    ac04:	b9400060 	ldr	w0, [x3]
    ac08:	d2800a83 	mov	x3, #0x54                  	// #84
    ac0c:	f2a64483 	movk	x3, #0x3224, lsl #16
    ac10:	32000000 	orr	w0, w0, #0x1
    ac14:	b9000060 	str	w0, [x3]
    ac18:	52800020 	mov	w0, #0x1                   	// #1
    ac1c:	97fffc52 	bl	0x9d64
    ac20:	d2800803 	mov	x3, #0x40                  	// #64
    ac24:	f2a64483 	movk	x3, #0x3224, lsl #16
    ac28:	52820002 	mov	w2, #0x1000                	// #4096
    ac2c:	72a64482 	movk	w2, #0x3224, lsl #16
    ac30:	b9400060 	ldr	w0, [x3]
    ac34:	d2800803 	mov	x3, #0x40                  	// #64
    ac38:	f2a64483 	movk	x3, #0x3224, lsl #16
    ac3c:	121e7800 	and	w0, w0, #0xfffffffd
    ac40:	0b130842 	add	w2, w2, w19, lsl #2
    ac44:	b9000060 	str	w0, [x3]
    ac48:	d2800803 	mov	x3, #0x40                  	// #64
    ac4c:	f2a64483 	movk	x3, #0x3224, lsl #16
    ac50:	2a0203e2 	mov	w2, w2
    ac54:	f94017a1 	ldr	x1, [x29, #40]
    ac58:	b9400060 	ldr	w0, [x3]
    ac5c:	d2800803 	mov	x3, #0x40                  	// #64
    ac60:	f2a64483 	movk	x3, #0x3224, lsl #16
    ac64:	321e0000 	orr	w0, w0, #0x4
    ac68:	52800013 	mov	w19, #0x0                   	// #0
    ac6c:	b9000060 	str	w0, [x3]
    ac70:	d2800880 	mov	x0, #0x44                  	// #68
    ac74:	f2a64480 	movk	x0, #0x3224, lsl #16
    ac78:	b9000041 	str	w1, [x2]
    ac7c:	d2800a81 	mov	x1, #0x54                  	// #84
    ac80:	f2a64481 	movk	x1, #0x3224, lsl #16
    ac84:	b9400000 	ldr	w0, [x0]
    ac88:	6b13001f 	cmp	w0, w19
    ac8c:	b9400020 	ldr	w0, [x1]
    ac90:	d2800a81 	mov	x1, #0x54                  	// #84
    ac94:	f2a64481 	movk	x1, #0x3224, lsl #16
    ac98:	121f7800 	and	w0, w0, #0xfffffffe
    ac9c:	1a931294 	csel	w20, w20, w19, ne  // ne = any
    aca0:	b9000020 	str	w0, [x1]
    aca4:	52800020 	mov	w0, #0x1                   	// #1
    aca8:	97fffc2f 	bl	0x9d64
    acac:	d2800a81 	mov	x1, #0x54                  	// #84
    acb0:	f2a64481 	movk	x1, #0x3224, lsl #16
    acb4:	b9400020 	ldr	w0, [x1]
    acb8:	d2800a81 	mov	x1, #0x54                  	// #84
    acbc:	f2a64481 	movk	x1, #0x3224, lsl #16
    acc0:	321f0000 	orr	w0, w0, #0x2
    acc4:	b9000020 	str	w0, [x1]
    acc8:	52800020 	mov	w0, #0x1                   	// #1
    accc:	97fffc26 	bl	0x9d64
    acd0:	d2800a81 	mov	x1, #0x54                  	// #84
    acd4:	f2a64481 	movk	x1, #0x3224, lsl #16
    acd8:	b9400020 	ldr	w0, [x1]
    acdc:	d2800a81 	mov	x1, #0x54                  	// #84
    ace0:	f2a64481 	movk	x1, #0x3224, lsl #16
    ace4:	121d7800 	and	w0, w0, #0xfffffffb
    ace8:	b9000020 	str	w0, [x1]
    acec:	d2800981 	mov	x1, #0x4c                  	// #76
    acf0:	f2a64481 	movk	x1, #0x3224, lsl #16
    acf4:	b9000033 	str	w19, [x1]
    acf8:	97fffed2 	bl	0xa840
    acfc:	2a1403e0 	mov	w0, w20
    ad00:	a94153f3 	ldp	x19, x20, [sp, #16]
    ad04:	a8c37bfd 	ldp	x29, x30, [sp], #48
    ad08:	d65f03c0 	ret
    ad0c:	a9bd7bfd 	stp	x29, x30, [sp, #-48]!
    ad10:	910003fd 	mov	x29, sp
    ad14:	a90153f3 	stp	x19, x20, [sp, #16]
    ad18:	2a0103f3 	mov	w19, w1
    ad1c:	9100c3a1 	add	x1, x29, #0x30
    ad20:	2a0003f4 	mov	w20, w0
    ad24:	b81fcc3f 	str	wzr, [x1, #-4]!
    ad28:	97fffe32 	bl	0xa5f0
    ad2c:	35000120 	cbnz	w0, 0xad50
    ad30:	b9402fa3 	ldr	w3, [x29, #44]
    ad34:	6a230261 	bics	w1, w19, w3
    ad38:	540000c0 	b.eq	0xad50  // b.none
    ad3c:	2a1403e0 	mov	w0, w20
    ad40:	97fffe96 	bl	0xa798
    ad44:	129fffa2 	mov	w2, #0xffff0002            	// #-65534
    ad48:	6b1f001f 	cmp	w0, wzr
    ad4c:	1a8203e0 	csel	w0, wzr, w2, eq  // eq = none
    ad50:	a94153f3 	ldp	x19, x20, [sp, #16]
    ad54:	a8c37bfd 	ldp	x29, x30, [sp], #48
    ad58:	d65f03c0 	ret
    ad5c:	a9bd7bfd 	stp	x29, x30, [sp, #-48]!
    ad60:	910003fd 	mov	x29, sp
    ad64:	a90153f3 	stp	x19, x20, [sp, #16]
    ad68:	2a0103f3 	mov	w19, w1
    ad6c:	9100c3a1 	add	x1, x29, #0x30
    ad70:	2a0003f4 	mov	w20, w0
    ad74:	b9002bbf 	str	wzr, [x29, #40]
    ad78:	b81fcc3f 	str	wzr, [x1, #-4]!
    ad7c:	97fffe1d 	bl	0xa5f0
    ad80:	34000060 	cbz	w0, 0xad8c
    ad84:	129fff82 	mov	w2, #0xffff0003            	// #-65533
    ad88:	14000011 	b	0xadcc
    ad8c:	2a1403e0 	mov	w0, w20
    ad90:	2a1303e1 	mov	w1, w19
    ad94:	97ffffde 	bl	0xad0c
    ad98:	129fffa2 	mov	w2, #0xffff0002            	// #-65534
    ad9c:	35000180 	cbnz	w0, 0xadcc
    ada0:	2a1403e0 	mov	w0, w20
    ada4:	9100a3a1 	add	x1, x29, #0x28
    ada8:	97fffe12 	bl	0xa5f0
    adac:	2a0003e2 	mov	w2, w0
    adb0:	35fffea0 	cbnz	w0, 0xad84
    adb4:	b9402fa0 	ldr	w0, [x29, #44]
    adb8:	2a000273 	orr	w19, w19, w0
    adbc:	b9402ba0 	ldr	w0, [x29, #40]
    adc0:	6b00027f 	cmp	w19, w0
    adc4:	129fff60 	mov	w0, #0xffff0004            	// #-65532
    adc8:	1a800042 	csel	w2, w2, w0, eq  // eq = none
    adcc:	2a0203e0 	mov	w0, w2
    add0:	a94153f3 	ldp	x19, x20, [sp, #16]
    add4:	a8c37bfd 	ldp	x29, x30, [sp], #48
    add8:	d65f03c0 	ret
    addc:	a9bc7bfd 	stp	x29, x30, [sp, #-64]!
    ade0:	910003fd 	mov	x29, sp
    ade4:	a9025bf5 	stp	x21, x22, [sp, #32]
    ade8:	a90153f3 	stp	x19, x20, [sp, #16]
    adec:	aa0103f6 	mov	x22, x1
    adf0:	b40003a1 	cbz	x1, 0xae64
    adf4:	34000100 	cbz	w0, 0xae14
    adf8:	7100041f 	cmp	w0, #0x1
    adfc:	54000341 	b.ne	0xae64  // b.any
    ae00:	910103b5 	add	x21, x29, #0x40
    ae04:	52800493 	mov	w19, #0x24                  	// #36
    ae08:	52800014 	mov	w20, #0x0                   	// #0
    ae0c:	b81fcebf 	str	wzr, [x21, #-4]!
    ae10:	14000004 	b	0xae20
    ae14:	52800300 	mov	w0, #0x18                  	// #24
    ae18:	97fffdf6 	bl	0xa5f0
    ae1c:	14000013 	b	0xae68
    ae20:	2a1303e0 	mov	w0, w19
    ae24:	aa1503e1 	mov	x1, x21
    ae28:	97fffdf2 	bl	0xa5f0
    ae2c:	350001e0 	cbnz	w0, 0xae68
    ae30:	b9403fa2 	ldr	w2, [x29, #60]
    ae34:	340000a2 	cbz	w2, 0xae48
    ae38:	51000441 	sub	w1, w2, #0x1
    ae3c:	0a010042 	and	w2, w2, w1
    ae40:	11000400 	add	w0, w0, #0x1
    ae44:	17fffffc 	b	0xae34
    ae48:	11000673 	add	w19, w19, #0x1
    ae4c:	7100ae7f 	cmp	w19, #0x2b
    ae50:	0b000294 	add	w20, w20, w0
    ae54:	54fffe61 	b.ne	0xae20  // b.any
    ae58:	b90002d4 	str	w20, [x22]
    ae5c:	2a0203e0 	mov	w0, w2
    ae60:	14000002 	b	0xae68
    ae64:	129fffc0 	mov	w0, #0xffff0001            	// #-65535
    ae68:	a94153f3 	ldp	x19, x20, [sp, #16]
    ae6c:	a9425bf5 	ldp	x21, x22, [sp, #32]
    ae70:	a8c47bfd 	ldp	x29, x30, [sp], #64
    ae74:	d65f03c0 	ret
    ae78:	a9bb7bfd 	stp	x29, x30, [sp, #-80]!
    ae7c:	910003fd 	mov	x29, sp
    ae80:	f9000bf3 	str	x19, [sp, #16]
    ae84:	b9002fbf 	str	wzr, [x29, #44]
    ae88:	aa0003f3 	mov	x19, x0
    ae8c:	b90033bf 	str	wzr, [x29, #48]
    ae90:	b90037bf 	str	wzr, [x29, #52]
    ae94:	b9003bbf 	str	wzr, [x29, #56]
    ae98:	b9003fbf 	str	wzr, [x29, #60]
    ae9c:	b90043bf 	str	wzr, [x29, #64]
    aea0:	b90047bf 	str	wzr, [x29, #68]
    aea4:	b9004bbf 	str	wzr, [x29, #72]
    aea8:	129fffc0 	mov	w0, #0xffff0001            	// #-65535
    aeac:	b40009f3 	cbz	x19, 0xafe8
    aeb0:	52800440 	mov	w0, #0x22                  	// #34
    aeb4:	9100b3a1 	add	x1, x29, #0x2c
    aeb8:	97fffdce 	bl	0xa5f0
    aebc:	35000960 	cbnz	w0, 0xafe8
    aec0:	b9402fa0 	ldr	w0, [x29, #44]
    aec4:	35000040 	cbnz	w0, 0xaecc
    aec8:	b9000260 	str	w0, [x19]
    aecc:	528000e1 	mov	w1, #0x7                   	// #7
    aed0:	9100d3a2 	add	x2, x29, #0x34
    aed4:	9100e3a3 	add	x3, x29, #0x38
    aed8:	52800000 	mov	w0, #0x0                   	// #0
    aedc:	97fffdb7 	bl	0xa5b8
    aee0:	528002e1 	mov	w1, #0x17                  	// #23
    aee4:	9100f3a2 	add	x2, x29, #0x3c
    aee8:	910103a3 	add	x3, x29, #0x40
    aeec:	52800200 	mov	w0, #0x10                  	// #16
    aef0:	97fffdb2 	bl	0xa5b8
    aef4:	52800401 	mov	w1, #0x20                  	// #32
    aef8:	52800320 	mov	w0, #0x19                  	// #25
    aefc:	910113a2 	add	x2, x29, #0x44
    af00:	910123a3 	add	x3, x29, #0x48
    af04:	97fffdad 	bl	0xa5b8
    af08:	b94037a0 	ldr	w0, [x29, #52]
    af0c:	b9402fa1 	ldr	w1, [x29, #44]
    af10:	0a010001 	and	w1, w0, w1
    af14:	6b00003f 	cmp	w1, w0
    af18:	54000061 	b.ne	0xaf24  // b.any
    af1c:	52800020 	mov	w0, #0x1                   	// #1
    af20:	b9000260 	str	w0, [x19]
    af24:	b9403ba0 	ldr	w0, [x29, #56]
    af28:	350001a0 	cbnz	w0, 0xaf5c
    af2c:	b94043a0 	ldr	w0, [x29, #64]
    af30:	35000160 	cbnz	w0, 0xaf5c
    af34:	b9404ba0 	ldr	w0, [x29, #72]
    af38:	35000120 	cbnz	w0, 0xaf5c
    af3c:	b94037a0 	ldr	w0, [x29, #52]
    af40:	b9403fa2 	ldr	w2, [x29, #60]
    af44:	b9402fa1 	ldr	w1, [x29, #44]
    af48:	2a020002 	orr	w2, w0, w2
    af4c:	0a010043 	and	w3, w2, w1
    af50:	6b02007f 	cmp	w3, w2
    af54:	540001c1 	b.ne	0xaf8c  // b.any
    af58:	14000006 	b	0xaf70
    af5c:	52800460 	mov	w0, #0x23                  	// #35
    af60:	9100c3a1 	add	x1, x29, #0x30
    af64:	97fffda3 	bl	0xa5f0
    af68:	34fffea0 	cbz	w0, 0xaf3c
    af6c:	1400001f 	b	0xafe8
    af70:	b94043a3 	ldr	w3, [x29, #64]
    af74:	b9403ba2 	ldr	w2, [x29, #56]
    af78:	2a020062 	orr	w2, w3, w2
    af7c:	b94033a3 	ldr	w3, [x29, #48]
    af80:	0a030043 	and	w3, w2, w3
    af84:	6b02007f 	cmp	w3, w2
    af88:	540001a0 	b.eq	0xafbc  // b.none
    af8c:	b94047a2 	ldr	w2, [x29, #68]
    af90:	2a020000 	orr	w0, w0, w2
    af94:	0a010001 	and	w1, w0, w1
    af98:	6b00003f 	cmp	w1, w0
    af9c:	54000141 	b.ne	0xafc4  // b.any
    afa0:	b9404ba1 	ldr	w1, [x29, #72]
    afa4:	b9403ba0 	ldr	w0, [x29, #56]
    afa8:	2a000020 	orr	w0, w1, w0
    afac:	b94033a1 	ldr	w1, [x29, #48]
    afb0:	0a010001 	and	w1, w0, w1
    afb4:	6b00003f 	cmp	w1, w0
    afb8:	54000061 	b.ne	0xafc4  // b.any
    afbc:	528000a0 	mov	w0, #0x5                   	// #5
    afc0:	b9000260 	str	w0, [x19]
    afc4:	910143a1 	add	x1, x29, #0x50
    afc8:	52800420 	mov	w0, #0x21                  	// #33
    afcc:	b81fcc3f 	str	wzr, [x1, #-4]!
    afd0:	97fffd88 	bl	0xa5f0
    afd4:	350000a0 	cbnz	w0, 0xafe8
    afd8:	b9404fa1 	ldr	w1, [x29, #76]
    afdc:	36000061 	tbz	w1, #0, 0xafe8
    afe0:	528000e1 	mov	w1, #0x7                   	// #7
    afe4:	b9000261 	str	w1, [x19]
    afe8:	f9400bf3 	ldr	x19, [sp, #16]
    afec:	a8c57bfd 	ldp	x29, x30, [sp], #80
    aff0:	d65f03c0 	ret
    aff4:	a9bc7bfd 	stp	x29, x30, [sp, #-64]!
    aff8:	910003fd 	mov	x29, sp
    affc:	a90153f3 	stp	x19, x20, [sp, #16]
    b000:	a9025bf5 	stp	x21, x22, [sp, #32]
    b004:	b9003fbf 	str	wzr, [x29, #60]
    b008:	2a0003f4 	mov	w20, w0
    b00c:	2a0103f3 	mov	w19, w1
    b010:	34000441 	cbz	w1, 0xb098
    b014:	9100f3a0 	add	x0, x29, #0x3c
    b018:	97ffff98 	bl	0xae78
    b01c:	b9403fa0 	ldr	w0, [x29, #60]
    b020:	7100141f 	cmp	w0, #0x5
    b024:	54000060 	b.eq	0xb030  // b.none
    b028:	52800000 	mov	w0, #0x0                   	// #0
    b02c:	1400001c 	b	0xb09c
    b030:	34000094 	cbz	w20, 0xb040
    b034:	7100069f 	cmp	w20, #0x1
    b038:	540000c0 	b.eq	0xb050  // b.none
    b03c:	14000017 	b	0xb098
    b040:	2a1303e1 	mov	w1, w19
    b044:	52800300 	mov	w0, #0x18                  	// #24
    b048:	97ffff45 	bl	0xad5c
    b04c:	14000014 	b	0xb09c
    b050:	71037e7f 	cmp	w19, #0xdf
    b054:	54000228 	b.hi	0xb098  // b.pmore
    b058:	52800494 	mov	w20, #0x24                  	// #36
    b05c:	52800415 	mov	w21, #0x20                  	// #32
    b060:	b2407ff6 	mov	x22, #0xffffffff            	// #4294967295
    b064:	7100827f 	cmp	w19, #0x20
    b068:	1a959261 	csel	w1, w19, w21, ls  // ls = plast
    b06c:	4b010273 	sub	w19, w19, w1
    b070:	4b0102a1 	sub	w1, w21, w1
    b074:	2a1403e0 	mov	w0, w20
    b078:	9ac126c1 	lsr	x1, x22, x1
    b07c:	97ffff38 	bl	0xad5c
    b080:	350000e0 	cbnz	w0, 0xb09c
    b084:	7100aa9f 	cmp	w20, #0x2a
    b088:	54fffd00 	b.eq	0xb028  // b.none
    b08c:	11000694 	add	w20, w20, #0x1
    b090:	35fffeb3 	cbnz	w19, 0xb064
    b094:	17ffffe5 	b	0xb028
    b098:	129fffc0 	mov	w0, #0xffff0001            	// #-65535
    b09c:	a94153f3 	ldp	x19, x20, [sp, #16]
    b0a0:	a9425bf5 	ldp	x21, x22, [sp, #32]
    b0a4:	a8c47bfd 	ldp	x29, x30, [sp], #64
    b0a8:	d65f03c0 	ret
    b0ac:	d2800003 	mov	x3, #0x0                   	// #0
    b0b0:	6b03005f 	cmp	w2, w3
    b0b4:	54000080 	b.eq	0xb0c4  // b.none
    b0b8:	38236801 	strb	w1, [x0, x3]
    b0bc:	91000463 	add	x3, x3, #0x1
    b0c0:	17fffffc 	b	0xb0b0
    b0c4:	d65f03c0 	ret
    b0c8:	d2800003 	mov	x3, #0x0                   	// #0
    b0cc:	6b03005f 	cmp	w2, w3
    b0d0:	540000a0 	b.eq	0xb0e4  // b.none
    b0d4:	38636824 	ldrb	w4, [x1, x3]
    b0d8:	38236804 	strb	w4, [x0, x3]
    b0dc:	91000463 	add	x3, x3, #0x1
    b0e0:	17fffffb 	b	0xb0cc
    b0e4:	d65f03c0 	ret
    b0e8:	aa0003e6 	mov	x6, x0
    b0ec:	d2800003 	mov	x3, #0x0                   	// #0
    b0f0:	6b03005f 	cmp	w2, w3
    b0f4:	540000e0 	b.eq	0xb110  // b.none
    b0f8:	386368c5 	ldrb	w5, [x6, x3]
    b0fc:	38636824 	ldrb	w4, [x1, x3]
    b100:	91000463 	add	x3, x3, #0x1
    b104:	6b0400a0 	subs	w0, w5, w4
    b108:	54ffff40 	b.eq	0xb0f0  // b.none
    b10c:	14000002 	b	0xb114
    b110:	52800000 	mov	w0, #0x0                   	// #0
    b114:	d65f03c0 	ret
    b118:	b4000080 	cbz	x0, 0xb128
    b11c:	b4000062 	cbz	x2, 0xb128
    b120:	52800003 	mov	w3, #0x0                   	// #0
    b124:	14000446 	b	0xc23c
    b128:	d65f03c0 	ret
    b12c:	b9403003 	ldr	w3, [x0, #48]
    b130:	91080063 	add	x3, x3, #0x200
    b134:	8b030003 	add	x3, x0, x3
    b138:	f9401462 	ldr	x2, [x3, #40]
    b13c:	f9401063 	ldr	x3, [x3, #32]
    b140:	8b020002 	add	x2, x0, x2
    b144:	f111607f 	cmp	x3, #0x458
    b148:	54000061 	b.ne	0xb154  // b.any
    b14c:	f9412840 	ldr	x0, [x2, #592]
    b150:	14000005 	b	0xb164
    b154:	f109507f 	cmp	x3, #0x254
    b158:	52800000 	mov	w0, #0x0                   	// #0
    b15c:	54000081 	b.ne	0xb16c  // b.any
    b160:	b9415040 	ldr	w0, [x2, #336]
    b164:	b9000020 	str	w0, [x1]
    b168:	52800020 	mov	w0, #0x1                   	// #1
    b16c:	d65f03c0 	ret
    b170:	a9bd7bfd 	stp	x29, x30, [sp, #-48]!
    b174:	d28aa000 	mov	x0, #0x5500                	// #21760
    b178:	910003fd 	mov	x29, sp
    b17c:	9100c3a1 	add	x1, x29, #0x30
    b180:	a90153f3 	stp	x19, x20, [sp, #16]
    b184:	b81fcc3f 	str	wzr, [x1, #-4]!
    b188:	97ffffe9 	bl	0xb12c
    b18c:	34000400 	cbz	w0, 0xb20c
    b190:	b0000020 	adrp	x0, 0x10000
    b194:	910a4001 	add	x1, x0, #0x290
    b198:	aa0003f4 	mov	x20, x0
    b19c:	b9400022 	ldr	w2, [x1]
    b1a0:	34000362 	cbz	w2, 0xb20c
    b1a4:	b0000023 	adrp	x3, 0x10000
    b1a8:	9109a063 	add	x3, x3, #0x268
    b1ac:	b9402fa4 	ldr	w4, [x29, #44]
    b1b0:	52800020 	mov	w0, #0x1                   	// #1
    b1b4:	b9400061 	ldr	w1, [x3]
    b1b8:	6b04003f 	cmp	w1, w4
    b1bc:	54000281 	b.ne	0xb20c  // b.any
    b1c0:	6b02001f 	cmp	w0, w2
    b1c4:	540000c0 	b.eq	0xb1dc  // b.none
    b1c8:	b8404c64 	ldr	w4, [x3, #4]!
    b1cc:	6b04003f 	cmp	w1, w4
    b1d0:	540001e1 	b.ne	0xb20c  // b.any
    b1d4:	11000400 	add	w0, w0, #0x1
    b1d8:	17fffffa 	b	0xb1c0
    b1dc:	90000020 	adrp	x0, 0xf000
    b1e0:	91113002 	add	x2, x0, #0x44c
    b1e4:	aa0003f3 	mov	x19, x0
    b1e8:	b9400042 	ldr	w2, [x2]
    b1ec:	6b02003f 	cmp	w1, w2
    b1f0:	54000069 	b.ls	0xb1fc  // b.plast
    b1f4:	52800000 	mov	w0, #0x0                   	// #0
    b1f8:	97ffff7f 	bl	0xaff4
    b1fc:	910a4294 	add	x20, x20, #0x290
    b200:	91113273 	add	x19, x19, #0x44c
    b204:	b900029f 	str	wzr, [x20]
    b208:	b900027f 	str	wzr, [x19]
    b20c:	a94153f3 	ldp	x19, x20, [sp, #16]
    b210:	a8c37bfd 	ldp	x29, x30, [sp], #48
    b214:	d65f03c0 	ret
    b218:	a9be7bfd 	stp	x29, x30, [sp, #-32]!
    b21c:	7100041f 	cmp	w0, #0x1
    b220:	910003fd 	mov	x29, sp
    b224:	a90153f3 	stp	x19, x20, [sp, #16]
    b228:	2a0103f3 	mov	w19, w1
    b22c:	540002c1 	b.ne	0xb284  // b.any
    b230:	90000020 	adrp	x0, 0xf000
    b234:	91113001 	add	x1, x0, #0x44c
    b238:	52824683 	mov	w3, #0x1234                	// #4660
    b23c:	aa0003f4 	mov	x20, x0
    b240:	b9400022 	ldr	w2, [x1]
    b244:	6b03005f 	cmp	w2, w3
    b248:	54000061 	b.ne	0xb254  // b.any
    b24c:	52800000 	mov	w0, #0x0                   	// #0
    b250:	97fffee3 	bl	0xaddc
    b254:	91113294 	add	x20, x20, #0x44c
    b258:	b9400280 	ldr	w0, [x20]
    b25c:	6b00027f 	cmp	w19, w0
    b260:	54000062 	b.cs	0xb26c  // b.hs, b.nlast
    b264:	52800000 	mov	w0, #0x0                   	// #0
    b268:	14000020 	b	0xb2e8
    b26c:	b0000021 	adrp	x1, 0x10000
    b270:	910a4021 	add	x1, x1, #0x290
    b274:	b0000022 	adrp	x2, 0x10000
    b278:	9109a042 	add	x2, x2, #0x268
    b27c:	b9400020 	ldr	w0, [x1]
    b280:	14000016 	b	0xb2d8
    b284:	35ffff00 	cbnz	w0, 0xb264
    b288:	90000020 	adrp	x0, 0xf000
    b28c:	91112001 	add	x1, x0, #0x448
    b290:	529fffe3 	mov	w3, #0xffff                	// #65535
    b294:	aa0003f4 	mov	x20, x0
    b298:	b9400022 	ldr	w2, [x1]
    b29c:	6b03005f 	cmp	w2, w3
    b2a0:	54000061 	b.ne	0xb2ac  // b.any
    b2a4:	52800020 	mov	w0, #0x1                   	// #1
    b2a8:	97fffecd 	bl	0xaddc
    b2ac:	91112294 	add	x20, x20, #0x448
    b2b0:	b9400280 	ldr	w0, [x20]
    b2b4:	6b00027f 	cmp	w19, w0
    b2b8:	54fffd63 	b.cc	0xb264  // b.lo, b.ul, b.last
    b2bc:	71037e7f 	cmp	w19, #0xdf
    b2c0:	54fffd28 	b.hi	0xb264  // b.pmore
    b2c4:	b0000021 	adrp	x1, 0x10000
    b2c8:	9108f021 	add	x1, x1, #0x23c
    b2cc:	b0000022 	adrp	x2, 0x10000
    b2d0:	91090042 	add	x2, x2, #0x240
    b2d4:	b9400020 	ldr	w0, [x1]
    b2d8:	b8205853 	str	w19, [x2, w0, uxtw #2]
    b2dc:	11000400 	add	w0, w0, #0x1
    b2e0:	b9000020 	str	w0, [x1]
    b2e4:	52800020 	mov	w0, #0x1                   	// #1
    b2e8:	a94153f3 	ldp	x19, x20, [sp, #16]
    b2ec:	a8c27bfd 	ldp	x29, x30, [sp], #32
    b2f0:	d65f03c0 	ret
    b2f4:	a9a27bfd 	stp	x29, x30, [sp, #-480]!
    b2f8:	910003fd 	mov	x29, sp
    b2fc:	a90153f3 	stp	x19, x20, [sp, #16]
    b300:	a90363f7 	stp	x23, x24, [sp, #48]
    b304:	a9025bf5 	stp	x21, x22, [sp, #32]
    b308:	aa0003f7 	mov	x23, x0
    b30c:	910383b5 	add	x21, x29, #0xe0
    b310:	52800020 	mov	w0, #0x1                   	// #1
    b314:	39400056 	ldrb	w22, [x2]
    b318:	b90067a0 	str	w0, [x29, #100]
    b31c:	aa0103f8 	mov	x24, x1
    b320:	aa0203f3 	mov	x19, x2
    b324:	aa1503e0 	mov	x0, x21
    b328:	52800001 	mov	w1, #0x0                   	// #0
    b32c:	52802002 	mov	w2, #0x100                 	// #256
    b330:	a90c7fbf 	stp	xzr, xzr, [x29, #192]
    b334:	a90d7fbf 	stp	xzr, xzr, [x29, #208]
    b338:	97ffff5d 	bl	0xb0ac
    b33c:	528002a0 	mov	w0, #0x15                  	// #21
    b340:	b900a3a0 	str	w0, [x29, #160]
    b344:	52800080 	mov	w0, #0x4                   	// #4
    b348:	72a04000 	movk	w0, #0x200, lsl #16
    b34c:	b900aba0 	str	w0, [x29, #168]
    b350:	52800080 	mov	w0, #0x4                   	// #4
    b354:	72a04000 	movk	w0, #0x200, lsl #16
    b358:	52800414 	mov	w20, #0x20                  	// #32
    b35c:	b900afa0 	str	w0, [x29, #172]
    b360:	b900b3b4 	str	w20, [x29, #176]
    b364:	710006df 	cmp	w22, #0x1
    b368:	54000069 	b.ls	0xb374  // b.plast
    b36c:	52800000 	mov	w0, #0x0                   	// #0
    b370:	14000060 	b	0xb4f0
    b374:	91001260 	add	x0, x19, #0x4
    b378:	91043276 	add	x22, x19, #0x10c
    b37c:	52802101 	mov	w1, #0x108                 	// #264
    b380:	910203a2 	add	x2, x29, #0x80
    b384:	540005c1 	b.ne	0xb43c  // b.any
    b388:	97ffff64 	bl	0xb118
    b38c:	aa1803e0 	mov	x0, x24
    b390:	aa1603e1 	mov	x1, x22
    b394:	2a1403e2 	mov	w2, w20
    b398:	97ffff54 	bl	0xb0e8
    b39c:	35fffe80 	cbnz	w0, 0xb36c
    b3a0:	aa1703e0 	mov	x0, x23
    b3a4:	910203a1 	add	x1, x29, #0x80
    b3a8:	2a1403e2 	mov	w2, w20
    b3ac:	97ffff4f 	bl	0xb0e8
    b3b0:	35fffde0 	cbnz	w0, 0xb36c
    b3b4:	91002261 	add	x1, x19, #0x8
    b3b8:	52800082 	mov	w2, #0x4                   	// #4
    b3bc:	9103f2a0 	add	x0, x21, #0xfc
    b3c0:	97ffff42 	bl	0xb0c8
    b3c4:	91003260 	add	x0, x19, #0xc
    b3c8:	f90037a0 	str	x0, [x29, #104]
    b3cc:	b9400660 	ldr	w0, [x19, #4]
    b3d0:	52800901 	mov	w1, #0x48                  	// #72
    b3d4:	53037c00 	lsr	w0, w0, #3
    b3d8:	b9007ba0 	str	w0, [x29, #120]
    b3dc:	52802000 	mov	w0, #0x100                 	// #256
    b3e0:	910303a2 	add	x2, x29, #0xc0
    b3e4:	b9007fa0 	str	w0, [x29, #124]
    b3e8:	aa1603e0 	mov	x0, x22
    b3ec:	f9003bb5 	str	x21, [x29, #112]
    b3f0:	97ffff4a 	bl	0xb118
    b3f4:	a94a07a0 	ldp	x0, x1, [x29, #160]
    b3f8:	a90407a0 	stp	x0, x1, [x29, #64]
    b3fc:	a94b07a0 	ldp	x0, x1, [x29, #176]
    b400:	a90507a0 	stp	x0, x1, [x29, #80]
    b404:	9101a3a0 	add	x0, x29, #0x68
    b408:	b9401004 	ldr	w4, [x0, #16]
    b40c:	910303a1 	add	x1, x29, #0xc0
    b410:	2a1403e2 	mov	w2, w20
    b414:	91055263 	add	x3, x19, #0x154
    b418:	910103a5 	add	x5, x29, #0x40
    b41c:	910193a6 	add	x6, x29, #0x64
    b420:	94000317 	bl	0xc07c
    b424:	35fffa40 	cbnz	w0, 0xb36c
    b428:	b94067a0 	ldr	w0, [x29, #100]
    b42c:	35fffa00 	cbnz	w0, 0xb36c
    b430:	b9414e60 	ldr	w0, [x19, #332]
    b434:	b9415261 	ldr	w1, [x19, #336]
    b438:	1400002d 	b	0xb4ec
    b43c:	97ffff37 	bl	0xb118
    b440:	aa1803e0 	mov	x0, x24
    b444:	aa1603e1 	mov	x1, x22
    b448:	2a1403e2 	mov	w2, w20
    b44c:	97ffff27 	bl	0xb0e8
    b450:	35fff8e0 	cbnz	w0, 0xb36c
    b454:	aa1703e0 	mov	x0, x23
    b458:	910203a1 	add	x1, x29, #0x80
    b45c:	2a1403e2 	mov	w2, w20
    b460:	97ffff22 	bl	0xb0e8
    b464:	35fff840 	cbnz	w0, 0xb36c
    b468:	91002261 	add	x1, x19, #0x8
    b46c:	52800082 	mov	w2, #0x4                   	// #4
    b470:	9103f2a0 	add	x0, x21, #0xfc
    b474:	97ffff15 	bl	0xb0c8
    b478:	91003260 	add	x0, x19, #0xc
    b47c:	f90037a0 	str	x0, [x29, #104]
    b480:	b9400660 	ldr	w0, [x19, #4]
    b484:	52800501 	mov	w1, #0x28                  	// #40
    b488:	53037c00 	lsr	w0, w0, #3
    b48c:	b9007ba0 	str	w0, [x29, #120]
    b490:	52802000 	mov	w0, #0x100                 	// #256
    b494:	910303a2 	add	x2, x29, #0xc0
    b498:	b9007fa0 	str	w0, [x29, #124]
    b49c:	aa1603e0 	mov	x0, x22
    b4a0:	f9003bb5 	str	x21, [x29, #112]
    b4a4:	97ffff1d 	bl	0xb118
    b4a8:	a94a07a0 	ldp	x0, x1, [x29, #160]
    b4ac:	a90407a0 	stp	x0, x1, [x29, #64]
    b4b0:	a94b07a0 	ldp	x0, x1, [x29, #176]
    b4b4:	a90507a0 	stp	x0, x1, [x29, #80]
    b4b8:	9101a3a0 	add	x0, x29, #0x68
    b4bc:	b9401004 	ldr	w4, [x0, #16]
    b4c0:	910303a1 	add	x1, x29, #0xc0
    b4c4:	2a1403e2 	mov	w2, w20
    b4c8:	9104d263 	add	x3, x19, #0x134
    b4cc:	910103a5 	add	x5, x29, #0x40
    b4d0:	910193a6 	add	x6, x29, #0x64
    b4d4:	940002ea 	bl	0xc07c
    b4d8:	35fff4a0 	cbnz	w0, 0xb36c
    b4dc:	b94067a0 	ldr	w0, [x29, #100]
    b4e0:	35fff460 	cbnz	w0, 0xb36c
    b4e4:	b9412e60 	ldr	w0, [x19, #300]
    b4e8:	b9413261 	ldr	w1, [x19, #304]
    b4ec:	97ffff4b 	bl	0xb218
    b4f0:	a94153f3 	ldp	x19, x20, [sp, #16]
    b4f4:	a9425bf5 	ldp	x21, x22, [sp, #32]
    b4f8:	a94363f7 	ldp	x23, x24, [sp, #48]
    b4fc:	a8de7bfd 	ldp	x29, x30, [sp], #480
    b500:	d65f03c0 	ret
    b504:	b9403001 	ldr	w1, [x0, #48]
    b508:	8b010001 	add	x1, x0, x1
    b50c:	f9410c21 	ldr	x1, [x1, #536]
    b510:	8b010000 	add	x0, x0, x1
    b514:	d65f03c0 	ret
    b518:	b9403001 	ldr	w1, [x0, #48]
    b51c:	8b010001 	add	x1, x0, x1
    b520:	f9411421 	ldr	x1, [x1, #552]
    b524:	8b010000 	add	x0, x0, x1
    b528:	d65f03c0 	ret
    b52c:	a9bb7bfd 	stp	x29, x30, [sp, #-80]!
    b530:	910003fd 	mov	x29, sp
    b534:	f90013f5 	str	x21, [sp, #32]
    b538:	b9403035 	ldr	w21, [x1, #48]
    b53c:	a90153f3 	stp	x19, x20, [sp, #16]
    b540:	910802b5 	add	x21, x21, #0x200
    b544:	aa0003f4 	mov	x20, x0
    b548:	8b150035 	add	x21, x1, x21
    b54c:	aa0103e0 	mov	x0, x1
    b550:	aa0103f3 	mov	x19, x1
    b554:	97ffffec 	bl	0xb504
    b558:	b94012a1 	ldr	w1, [x21, #16]
    b55c:	9100c3a2 	add	x2, x29, #0x30
    b560:	97fffeee 	bl	0xb118
    b564:	aa1303e0 	mov	x0, x19
    b568:	97ffffec 	bl	0xb518
    b56c:	9100c3a1 	add	x1, x29, #0x30
    b570:	aa0003e2 	mov	x2, x0
    b574:	aa1403e0 	mov	x0, x20
    b578:	97ffff5f 	bl	0xb2f4
    b57c:	a94153f3 	ldp	x19, x20, [sp, #16]
    b580:	f94013f5 	ldr	x21, [sp, #32]
    b584:	a8c57bfd 	ldp	x29, x30, [sp], #80
    b588:	d65f03c0 	ret
    b58c:	a9be7bfd 	stp	x29, x30, [sp, #-32]!
    b590:	910003fd 	mov	x29, sp
    b594:	f9000bf3 	str	x19, [sp, #16]
    b598:	aa0103f3 	mov	x19, x1
    b59c:	b9403001 	ldr	w1, [x0, #48]
    b5a0:	8b000021 	add	x1, x1, x0
    b5a4:	f9411021 	ldr	x1, [x1, #544]
    b5a8:	f109503f 	cmp	x1, #0x254
    b5ac:	54000080 	b.eq	0xb5bc  // b.none
    b5b0:	97ffffda 	bl	0xb518
    b5b4:	9108b001 	add	x1, x0, #0x22c
    b5b8:	14000003 	b	0xb5c4
    b5bc:	97ffffd7 	bl	0xb518
    b5c0:	9104b001 	add	x1, x0, #0x12c
    b5c4:	aa1303e0 	mov	x0, x19
    b5c8:	f9400bf3 	ldr	x19, [sp, #16]
    b5cc:	a8c27bfd 	ldp	x29, x30, [sp], #32
    b5d0:	52800402 	mov	w2, #0x20                  	// #32
    b5d4:	17fffebd 	b	0xb0c8
    b5d8:	a9bb7bfd 	stp	x29, x30, [sp, #-80]!
    b5dc:	52800402 	mov	w2, #0x20                  	// #32
    b5e0:	910003fd 	mov	x29, sp
    b5e4:	a90153f3 	stp	x19, x20, [sp, #16]
    b5e8:	aa0003f4 	mov	x20, x0
    b5ec:	aa0103f3 	mov	x19, x1
    b5f0:	9100c3a0 	add	x0, x29, #0x30
    b5f4:	52800001 	mov	w1, #0x0                   	// #0
    b5f8:	97fffead 	bl	0xb0ac
    b5fc:	aa1403e0 	mov	x0, x20
    b600:	9100c3a1 	add	x1, x29, #0x30
    b604:	97ffffe2 	bl	0xb58c
    b608:	52800202 	mov	w2, #0x10                  	// #16
    b60c:	910083a0 	add	x0, x29, #0x20
    b610:	52800001 	mov	w1, #0x0                   	// #0
    b614:	97fffea6 	bl	0xb0ac
    b618:	aa1303e1 	mov	x1, x19
    b61c:	9100c3a0 	add	x0, x29, #0x30
    b620:	97ffffc3 	bl	0xb52c
    b624:	6b1f001f 	cmp	w0, wzr
    b628:	1a9f17e0 	cset	w0, eq  // eq = none
    b62c:	a94153f3 	ldp	x19, x20, [sp, #16]
    b630:	a8c57bfd 	ldp	x29, x30, [sp], #80
    b634:	d65f03c0 	ret
    b638:	528000e2 	mov	w2, #0x7                   	// #7
    b63c:	531c0c41 	ubfiz	w1, w2, #4, #4
    b640:	33000c41 	bfxil	w1, w2, #0, #4
    b644:	39000c01 	strb	w1, [x0, #3]
    b648:	52800601 	mov	w1, #0x30                  	// #48
    b64c:	39000801 	strb	w1, [x0, #2]
    b650:	52800201 	mov	w1, #0x10                  	// #16
    b654:	39000401 	strb	w1, [x0, #1]
    b658:	52800101 	mov	w1, #0x8                   	// #8
    b65c:	39000001 	strb	w1, [x0]
    b660:	d65f03c0 	ret
    b664:	53003c00 	uxth	w0, w0
    b668:	53101023 	ubfiz	w3, w1, #16, #5
    b66c:	32040000 	orr	w0, w0, #0x10000000
    b670:	2a030000 	orr	w0, w0, w3
    b674:	b0000023 	adrp	x3, 0x10000
    b678:	910a8063 	add	x3, x3, #0x2a0
    b67c:	f9400063 	ldr	x3, [x3]
    b680:	b9050060 	str	w0, [x3, #1280]
    b684:	d2800000 	mov	x0, #0x0                   	// #0
    b688:	6b00003f 	cmp	w1, w0
    b68c:	540000a9 	b.ls	0xb6a0  // b.plast
    b690:	b8607844 	ldr	w4, [x2, x0, lsl #2]
    b694:	b9050064 	str	w4, [x3, #1280]
    b698:	91000400 	add	x0, x0, #0x1
    b69c:	17fffffb 	b	0xb688
    b6a0:	d65f03c0 	ret
    b6a4:	b9400001 	ldr	w1, [x0]
    b6a8:	12080822 	and	w2, w1, #0x7000000
    b6ac:	b9401401 	ldr	w1, [x0, #20]
    b6b0:	53047c42 	lsr	w2, w2, #4
    b6b4:	53181c21 	ubfiz	w1, w1, #8, #8
    b6b8:	32030042 	orr	w2, w2, #0x20000000
    b6bc:	2a010042 	orr	w2, w2, w1
    b6c0:	b0000021 	adrp	x1, 0x10000
    b6c4:	910a8021 	add	x1, x1, #0x2a0
    b6c8:	f9400021 	ldr	x1, [x1]
    b6cc:	b9050022 	str	w2, [x1, #1280]
    b6d0:	b9400402 	ldr	w2, [x0, #4]
    b6d4:	b9050022 	str	w2, [x1, #1280]
    b6d8:	b9400802 	ldr	w2, [x0, #8]
    b6dc:	b9050022 	str	w2, [x1, #1280]
    b6e0:	b9400c02 	ldr	w2, [x0, #12]
    b6e4:	b9050022 	str	w2, [x1, #1280]
    b6e8:	b9401000 	ldr	w0, [x0, #16]
    b6ec:	b9050020 	str	w0, [x1, #1280]
    b6f0:	d65f03c0 	ret
    b6f4:	53003c00 	uxth	w0, w0
    b6f8:	53101023 	ubfiz	w3, w1, #16, #5
    b6fc:	32040000 	orr	w0, w0, #0x10000000
    b700:	2a030000 	orr	w0, w0, w3
    b704:	b0000023 	adrp	x3, 0x10000
    b708:	910a8063 	add	x3, x3, #0x2a0
    b70c:	f9400063 	ldr	x3, [x3]
    b710:	b9060060 	str	w0, [x3, #1536]
    b714:	d2800000 	mov	x0, #0x0                   	// #0
    b718:	6b00003f 	cmp	w1, w0
    b71c:	540000a9 	b.ls	0xb730  // b.plast
    b720:	b8607844 	ldr	w4, [x2, x0, lsl #2]
    b724:	b9060064 	str	w4, [x3, #1536]
    b728:	91000400 	add	x0, x0, #0x1
    b72c:	17fffffb 	b	0xb718
    b730:	d65f03c0 	ret
    b734:	b9400002 	ldr	w2, [x0]
    b738:	12080843 	and	w3, w2, #0x7000000
    b73c:	b0000022 	adrp	x2, 0x10000
    b740:	910a8042 	add	x2, x2, #0x2a0
    b744:	53047c63 	lsr	w3, w3, #4
    b748:	32030063 	orr	w3, w3, #0x20000000
    b74c:	f9400042 	ldr	x2, [x2]
    b750:	b9060043 	str	w3, [x2, #1536]
    b754:	b9400400 	ldr	w0, [x0, #4]
    b758:	b9060040 	str	w0, [x2, #1536]
    b75c:	b9060041 	str	w1, [x2, #1536]
    b760:	d65f03c0 	ret
    b764:	a9bb7bfd 	stp	x29, x30, [sp, #-80]!
    b768:	52800001 	mov	w1, #0x0                   	// #0
    b76c:	910003fd 	mov	x29, sp
    b770:	f9000bf3 	str	x19, [sp, #16]
    b774:	52800202 	mov	w2, #0x10                  	// #16
    b778:	aa0003f3 	mov	x19, x0
    b77c:	9100a3a0 	add	x0, x29, #0x28
    b780:	97fffe4b 	bl	0xb0ac
    b784:	f9405660 	ldr	x0, [x19, #168]
    b788:	3940afa1 	ldrb	w1, [x29, #43]
    b78c:	d3608c02 	ubfx	x2, x0, #32, #4
    b790:	33000c41 	bfxil	w1, w2, #0, #4
    b794:	3900afa1 	strb	w1, [x29, #43]
    b798:	b90033a0 	str	w0, [x29, #48]
    b79c:	b940b261 	ldr	w1, [x19, #176]
    b7a0:	b9402ba0 	ldr	w0, [x29, #40]
    b7a4:	33005c20 	bfxil	w0, w1, #0, #24
    b7a8:	b9002ba0 	str	w0, [x29, #40]
    b7ac:	3940bfa1 	ldrb	w1, [x29, #47]
    b7b0:	f9405e60 	ldr	x0, [x19, #184]
    b7b4:	b90037a0 	str	w0, [x29, #52]
    b7b8:	d3608c02 	ubfx	x2, x0, #32, #4
    b7bc:	33000c41 	bfxil	w1, w2, #0, #4
    b7c0:	3900bfa1 	strb	w1, [x29, #47]
    b7c4:	b940c261 	ldr	w1, [x19, #192]
    b7c8:	b9402fa0 	ldr	w0, [x29, #44]
    b7cc:	9100a3a2 	add	x2, x29, #0x28
    b7d0:	33005c20 	bfxil	w0, w1, #0, #24
    b7d4:	52800081 	mov	w1, #0x4                   	// #4
    b7d8:	b9002fa0 	str	w0, [x29, #44]
    b7dc:	52800900 	mov	w0, #0x48                  	// #72
    b7e0:	97ffffa1 	bl	0xb664
    b7e4:	52800302 	mov	w2, #0x18                  	// #24
    b7e8:	52800001 	mov	w1, #0x0                   	// #0
    b7ec:	9100e3a0 	add	x0, x29, #0x38
    b7f0:	97fffe2f 	bl	0xb0ac
    b7f4:	b9400260 	ldr	w0, [x19]
    b7f8:	b9003ba0 	str	w0, [x29, #56]
    b7fc:	910103a0 	add	x0, x29, #0x40
    b800:	97ffff8e 	bl	0xb638
    b804:	b9400a61 	ldr	w1, [x19, #8]
    b808:	394103a0 	ldrb	w0, [x29, #64]
    b80c:	331c0020 	bfi	w0, w1, #4, #1
    b810:	321f0400 	orr	w0, w0, #0x6
    b814:	b9400261 	ldr	w1, [x19]
    b818:	390103a0 	strb	w0, [x29, #64]
    b81c:	79407ba0 	ldrh	w0, [x29, #60]
    b820:	331c1020 	bfi	w0, w1, #4, #5
    b824:	79007ba0 	strh	w0, [x29, #60]
    b828:	32000000 	orr	w0, w0, #0x1
    b82c:	3900f3a0 	strb	w0, [x29, #60]
    b830:	52800000 	mov	w0, #0x0                   	// #0
    b834:	390133a0 	strb	w0, [x29, #76]
    b838:	b90047a0 	str	w0, [x29, #68]
    b83c:	b9004ba0 	str	w0, [x29, #72]
    b840:	9100e3a0 	add	x0, x29, #0x38
    b844:	97ffff98 	bl	0xb6a4
    b848:	f9400bf3 	ldr	x19, [sp, #16]
    b84c:	a8c57bfd 	ldp	x29, x30, [sp], #80
    b850:	d65f03c0 	ret
    b854:	a9b87bfd 	stp	x29, x30, [sp, #-128]!
    b858:	910003fd 	mov	x29, sp
    b85c:	a90153f3 	stp	x19, x20, [sp, #16]
    b860:	aa0003f3 	mov	x19, x0
    b864:	f9400c02 	ldr	x2, [x0, #24]
    b868:	b9402001 	ldr	w1, [x0, #32]
    b86c:	910183b4 	add	x20, x29, #0x60
    b870:	52800000 	mov	w0, #0x0                   	// #0
    b874:	6b01001f 	cmp	w0, w1
    b878:	540001e2 	b.cs	0xb8b4  // b.hs, b.nlast
    b87c:	11000c04 	add	w4, w0, #0x3
    b880:	38604845 	ldrb	w5, [x2, w0, uxtw]
    b884:	927e7403 	and	x3, x0, #0xfffffffc
    b888:	38646844 	ldrb	w4, [x2, x4]
    b88c:	2a056084 	orr	w4, w4, w5, lsl #24
    b890:	11000405 	add	w5, w0, #0x1
    b894:	38656845 	ldrb	w5, [x2, x5]
    b898:	2a054084 	orr	w4, w4, w5, lsl #16
    b89c:	11000805 	add	w5, w0, #0x2
    b8a0:	11001000 	add	w0, w0, #0x4
    b8a4:	38656845 	ldrb	w5, [x2, x5]
    b8a8:	2a052084 	orr	w4, w4, w5, lsl #8
    b8ac:	b8236a84 	str	w4, [x20, x3]
    b8b0:	17fffff1 	b	0xb874
    b8b4:	52801000 	mov	w0, #0x80                  	// #128
    b8b8:	53027c21 	lsr	w1, w1, #2
    b8bc:	aa1403e2 	mov	x2, x20
    b8c0:	97ffff69 	bl	0xb664
    b8c4:	f9401663 	ldr	x3, [x19, #40]
    b8c8:	b4000303 	cbz	x3, 0xb928
    b8cc:	b9403261 	ldr	w1, [x19, #48]
    b8d0:	52800000 	mov	w0, #0x0                   	// #0
    b8d4:	340002a1 	cbz	w1, 0xb928
    b8d8:	6b01001f 	cmp	w0, w1
    b8dc:	540001e2 	b.cs	0xb918  // b.hs, b.nlast
    b8e0:	11000c04 	add	w4, w0, #0x3
    b8e4:	38604865 	ldrb	w5, [x3, w0, uxtw]
    b8e8:	927e7402 	and	x2, x0, #0xfffffffc
    b8ec:	38646864 	ldrb	w4, [x3, x4]
    b8f0:	2a056084 	orr	w4, w4, w5, lsl #24
    b8f4:	11000405 	add	w5, w0, #0x1
    b8f8:	38656865 	ldrb	w5, [x3, x5]
    b8fc:	2a054084 	orr	w4, w4, w5, lsl #16
    b900:	11000805 	add	w5, w0, #0x2
    b904:	11001000 	add	w0, w0, #0x4
    b908:	38656865 	ldrb	w5, [x3, x5]
    b90c:	2a052084 	orr	w4, w4, w5, lsl #8
    b910:	b8226a84 	str	w4, [x20, x2]
    b914:	17fffff1 	b	0xb8d8
    b918:	52801400 	mov	w0, #0xa0                  	// #160
    b91c:	53027c21 	lsr	w1, w1, #2
    b920:	aa1403e2 	mov	x2, x20
    b924:	97ffff50 	bl	0xb664
    b928:	b9400661 	ldr	w1, [x19, #4]
    b92c:	350006c1 	cbnz	w1, 0xba04
    b930:	9100a3a0 	add	x0, x29, #0x28
    b934:	52800202 	mov	w2, #0x10                  	// #16
    b938:	97fffddd 	bl	0xb0ac
    b93c:	b9400260 	ldr	w0, [x19]
    b940:	51000400 	sub	w0, w0, #0x1
    b944:	7100101f 	cmp	w0, #0x4
    b948:	54000568 	b.hi	0xb9f4  // b.pmore
    b94c:	d2800021 	mov	x1, #0x1                   	// #1
    b950:	9ac02020 	lsl	x0, x1, x0
    b954:	d28002e1 	mov	x1, #0x17                  	// #23
    b958:	ea01001f 	tst	x0, x1
    b95c:	540004c0 	b.eq	0xb9f4  // b.none
    b960:	f9401e61 	ldr	x1, [x19, #56]
    b964:	39400022 	ldrb	w2, [x1]
    b968:	39400420 	ldrb	w0, [x1, #1]
    b96c:	53103c00 	lsl	w0, w0, #16
    b970:	2a026000 	orr	w0, w0, w2, lsl #24
    b974:	39400c22 	ldrb	w2, [x1, #3]
    b978:	2a020000 	orr	w0, w0, w2
    b97c:	39400822 	ldrb	w2, [x1, #2]
    b980:	2a022000 	orr	w0, w0, w2, lsl #8
    b984:	39401022 	ldrb	w2, [x1, #4]
    b988:	b9002ba0 	str	w0, [x29, #40]
    b98c:	39401420 	ldrb	w0, [x1, #5]
    b990:	53103c00 	lsl	w0, w0, #16
    b994:	2a026000 	orr	w0, w0, w2, lsl #24
    b998:	39401c22 	ldrb	w2, [x1, #7]
    b99c:	2a020000 	orr	w0, w0, w2
    b9a0:	39401822 	ldrb	w2, [x1, #6]
    b9a4:	2a022000 	orr	w0, w0, w2, lsl #8
    b9a8:	39402022 	ldrb	w2, [x1, #8]
    b9ac:	b9002fa0 	str	w0, [x29, #44]
    b9b0:	39402420 	ldrb	w0, [x1, #9]
    b9b4:	53103c00 	lsl	w0, w0, #16
    b9b8:	2a026000 	orr	w0, w0, w2, lsl #24
    b9bc:	39402c22 	ldrb	w2, [x1, #11]
    b9c0:	2a020000 	orr	w0, w0, w2
    b9c4:	39402822 	ldrb	w2, [x1, #10]
    b9c8:	2a022000 	orr	w0, w0, w2, lsl #8
    b9cc:	39403022 	ldrb	w2, [x1, #12]
    b9d0:	b90033a0 	str	w0, [x29, #48]
    b9d4:	39403420 	ldrb	w0, [x1, #13]
    b9d8:	53103c00 	lsl	w0, w0, #16
    b9dc:	2a026000 	orr	w0, w0, w2, lsl #24
    b9e0:	39403c22 	ldrb	w2, [x1, #15]
    b9e4:	39403821 	ldrb	w1, [x1, #14]
    b9e8:	2a020000 	orr	w0, w0, w2
    b9ec:	2a012000 	orr	w0, w0, w1, lsl #8
    b9f0:	b90037a0 	str	w0, [x29, #52]
    b9f4:	52800e00 	mov	w0, #0x70                  	// #112
    b9f8:	52800081 	mov	w1, #0x4                   	// #4
    b9fc:	9100a3a2 	add	x2, x29, #0x28
    ba00:	97ffff19 	bl	0xb664
    ba04:	52800001 	mov	w1, #0x0                   	// #0
    ba08:	52800202 	mov	w2, #0x10                  	// #16
    ba0c:	9100e3a0 	add	x0, x29, #0x38
    ba10:	97fffda7 	bl	0xb0ac
    ba14:	f9405660 	ldr	x0, [x19, #168]
    ba18:	3940efa1 	ldrb	w1, [x29, #59]
    ba1c:	d3608c02 	ubfx	x2, x0, #32, #4
    ba20:	33000c41 	bfxil	w1, w2, #0, #4
    ba24:	3900efa1 	strb	w1, [x29, #59]
    ba28:	b90043a0 	str	w0, [x29, #64]
    ba2c:	b940b261 	ldr	w1, [x19, #176]
    ba30:	b9403ba0 	ldr	w0, [x29, #56]
    ba34:	33005c20 	bfxil	w0, w1, #0, #24
    ba38:	b9003ba0 	str	w0, [x29, #56]
    ba3c:	3940ffa1 	ldrb	w1, [x29, #63]
    ba40:	f9405e60 	ldr	x0, [x19, #184]
    ba44:	b90047a0 	str	w0, [x29, #68]
    ba48:	d3608c02 	ubfx	x2, x0, #32, #4
    ba4c:	33000c41 	bfxil	w1, w2, #0, #4
    ba50:	3900ffa1 	strb	w1, [x29, #63]
    ba54:	b940c261 	ldr	w1, [x19, #192]
    ba58:	b9403fa0 	ldr	w0, [x29, #60]
    ba5c:	9100e3a2 	add	x2, x29, #0x38
    ba60:	33005c20 	bfxil	w0, w1, #0, #24
    ba64:	52800081 	mov	w1, #0x4                   	// #4
    ba68:	b9003fa0 	str	w0, [x29, #60]
    ba6c:	52800900 	mov	w0, #0x48                  	// #72
    ba70:	97fffefd 	bl	0xb664
    ba74:	52800001 	mov	w1, #0x0                   	// #0
    ba78:	52800302 	mov	w2, #0x18                  	// #24
    ba7c:	910123a0 	add	x0, x29, #0x48
    ba80:	97fffd8b 	bl	0xb0ac
    ba84:	b9400260 	ldr	w0, [x19]
    ba88:	b9004ba0 	str	w0, [x29, #72]
    ba8c:	910143a0 	add	x0, x29, #0x50
    ba90:	97fffeea 	bl	0xb638
    ba94:	394147a0 	ldrb	w0, [x29, #81]
    ba98:	394137a2 	ldrb	w2, [x29, #77]
    ba9c:	121f7800 	and	w0, w0, #0xfffffffe
    baa0:	390147a0 	strb	w0, [x29, #81]
    baa4:	394143a0 	ldrb	w0, [x29, #80]
    baa8:	b9400a61 	ldr	w1, [x19, #8]
    baac:	331c0020 	bfi	w0, w1, #4, #1
    bab0:	321f0400 	orr	w0, w0, #0x6
    bab4:	390143a0 	strb	w0, [x29, #80]
    bab8:	12197840 	and	w0, w2, #0xffffffbf
    babc:	390137a0 	strb	w0, [x29, #77]
    bac0:	b9402261 	ldr	w1, [x19, #32]
    bac4:	7100603f 	cmp	w1, #0x18
    bac8:	54000100 	b.eq	0xbae8  // b.none
    bacc:	7100803f 	cmp	w1, #0x20
    bad0:	54000100 	b.eq	0xbaf0  // b.none
    bad4:	7100403f 	cmp	w1, #0x10
    bad8:	540000c1 	b.ne	0xbaf0  // b.any
    badc:	12197042 	and	w2, w2, #0xffffff8f
    bae0:	390137a2 	strb	w2, [x29, #77]
    bae4:	14000006 	b	0xbafc
    bae8:	52800021 	mov	w1, #0x1                   	// #1
    baec:	14000002 	b	0xbaf4
    baf0:	52800041 	mov	w1, #0x2                   	// #2
    baf4:	331c0420 	bfi	w0, w1, #4, #2
    baf8:	390137a0 	strb	w0, [x29, #77]
    bafc:	b9400261 	ldr	w1, [x19]
    bb00:	394137a0 	ldrb	w0, [x29, #77]
    bb04:	390173bf 	strb	wzr, [x29, #92]
    bb08:	33000820 	bfxil	w0, w1, #0, #3
    bb0c:	390137a0 	strb	w0, [x29, #77]
    bb10:	394133a0 	ldrb	w0, [x29, #76]
    bb14:	b9401261 	ldr	w1, [x19, #16]
    bb18:	b90057bf 	str	wzr, [x29, #84]
    bb1c:	331c0020 	bfi	w0, w1, #4, #1
    bb20:	32000000 	orr	w0, w0, #0x1
    bb24:	390133a0 	strb	w0, [x29, #76]
    bb28:	910123a0 	add	x0, x29, #0x48
    bb2c:	b9005bbf 	str	wzr, [x29, #88]
    bb30:	97fffedd 	bl	0xb6a4
    bb34:	a94153f3 	ldp	x19, x20, [sp, #16]
    bb38:	a8c87bfd 	ldp	x29, x30, [sp], #128
    bb3c:	d65f03c0 	ret
    bb40:	90000020 	adrp	x0, 0xf000
    bb44:	910a8000 	add	x0, x0, #0x2a0
    bb48:	f9400000 	ldr	x0, [x0]
    bb4c:	b9402001 	ldr	w1, [x0, #32]
    bb50:	3607ffe1 	tbz	w1, #0, 0xbb4c
    bb54:	b9402001 	ldr	w1, [x0, #32]
    bb58:	b9002401 	str	w1, [x0, #36]
    bb5c:	52800000 	mov	w0, #0x0                   	// #0
    bb60:	d65f03c0 	ret
    bb64:	90000020 	adrp	x0, 0xf000
    bb68:	910a8000 	add	x0, x0, #0x2a0
    bb6c:	f9400000 	ldr	x0, [x0]
    bb70:	b9402001 	ldr	w1, [x0, #32]
    bb74:	366fffe1 	tbz	w1, #13, 0xbb70
    bb78:	b9402001 	ldr	w1, [x0, #32]
    bb7c:	b9002401 	str	w1, [x0, #36]
    bb80:	52800000 	mov	w0, #0x0                   	// #0
    bb84:	d65f03c0 	ret
    bb88:	a9b97bfd 	stp	x29, x30, [sp, #-112]!
    bb8c:	52800021 	mov	w1, #0x1                   	// #1
    bb90:	910003fd 	mov	x29, sp
    bb94:	a90153f3 	stp	x19, x20, [sp, #16]
    bb98:	f90013f5 	str	x21, [sp, #32]
    bb9c:	9101c3a2 	add	x2, x29, #0x70
    bba0:	aa0003f3 	mov	x19, x0
    bba4:	b9402000 	ldr	w0, [x0, #32]
    bba8:	b81ccc40 	str	w0, [x2, #-52]!
    bbac:	52801a00 	mov	w0, #0xd0                  	// #208
    bbb0:	aa1303f4 	mov	x20, x19
    bbb4:	97fffed0 	bl	0xb6f4
    bbb8:	910103a0 	add	x0, x29, #0x40
    bbbc:	52800001 	mov	w1, #0x0                   	// #0
    bbc0:	52800282 	mov	w2, #0x14                  	// #20
    bbc4:	910143b5 	add	x21, x29, #0x50
    bbc8:	97fffd39 	bl	0xb0ac
    bbcc:	f9405e60 	ldr	x0, [x19, #184]
    bbd0:	910133a2 	add	x2, x29, #0x4c
    bbd4:	d3518c00 	ubfx	x0, x0, #17, #19
    bbd8:	52800021 	mov	w1, #0x1                   	// #1
    bbdc:	b9004fa0 	str	w0, [x29, #76]
    bbe0:	5280c180 	mov	w0, #0x60c                 	// #1548
    bbe4:	97fffec4 	bl	0xb6f4
    bbe8:	910163a0 	add	x0, x29, #0x58
    bbec:	52800001 	mov	w1, #0x0                   	// #0
    bbf0:	52800302 	mov	w2, #0x18                  	// #24
    bbf4:	97fffd2e 	bl	0xb0ac
    bbf8:	b8424680 	ldr	w0, [x20], #36
    bbfc:	b9005ba0 	str	w0, [x29, #88]
    bc00:	12800000 	mov	w0, #0xffffffff            	// #-1
    bc04:	39017ba0 	strb	w0, [x29, #94]
    bc08:	394173a0 	ldrb	w0, [x29, #92]
    bc0c:	d3608e81 	ubfx	x1, x20, #32, #4
    bc10:	32000400 	orr	w0, w0, #0x3
    bc14:	390173a0 	strb	w0, [x29, #92]
    bc18:	39417fa0 	ldrb	w0, [x29, #95]
    bc1c:	aa1503e2 	mov	x2, x21
    bc20:	121c7400 	and	w0, w0, #0xfffffff3
    bc24:	32000400 	orr	w0, w0, #0x3
    bc28:	331c0c20 	bfi	w0, w1, #4, #4
    bc2c:	39017fa0 	strb	w0, [x29, #95]
    bc30:	52800021 	mov	w1, #0x1                   	// #1
    bc34:	f9400a60 	ldr	x0, [x19, #16]
    bc38:	d3518c00 	ubfx	x0, x0, #17, #19
    bc3c:	b90053a0 	str	w0, [x29, #80]
    bc40:	5280c200 	mov	w0, #0x610                 	// #1552
    bc44:	97fffeac 	bl	0xb6f4
    bc48:	f9400a63 	ldr	x3, [x19, #16]
    bc4c:	52800000 	mov	w0, #0x0                   	// #0
    bc50:	12004063 	and	w3, w3, #0x1ffff
    bc54:	52800022 	mov	w2, #0x1                   	// #1
    bc58:	2a0003e1 	mov	w1, w0
    bc5c:	94000190 	bl	0xc29c
    bc60:	b9002660 	str	w0, [x19, #36]
    bc64:	9400018c 	bl	0xc294
    bc68:	2a1403e1 	mov	w1, w20
    bc6c:	b9002a60 	str	w0, [x19, #40]
    bc70:	910163a0 	add	x0, x29, #0x58
    bc74:	97fffeb0 	bl	0xb734
    bc78:	97ffffbb 	bl	0xbb64
    bc7c:	f9400e60 	ldr	x0, [x19, #24]
    bc80:	aa1503e2 	mov	x2, x21
    bc84:	d3518c00 	ubfx	x0, x0, #17, #19
    bc88:	52800021 	mov	w1, #0x1                   	// #1
    bc8c:	b90053a0 	str	w0, [x29, #80]
    bc90:	5280c200 	mov	w0, #0x610                 	// #1552
    bc94:	97fffe98 	bl	0xb6f4
    bc98:	f9400e63 	ldr	x3, [x19, #24]
    bc9c:	52800022 	mov	w2, #0x1                   	// #1
    bca0:	12004063 	and	w3, w3, #0x1ffff
    bca4:	52800041 	mov	w1, #0x2                   	// #2
    bca8:	52800000 	mov	w0, #0x0                   	// #0
    bcac:	9400017c 	bl	0xc29c
    bcb0:	b9002660 	str	w0, [x19, #36]
    bcb4:	94000178 	bl	0xc294
    bcb8:	2a1403e1 	mov	w1, w20
    bcbc:	b9002a60 	str	w0, [x19, #40]
    bcc0:	910163a0 	add	x0, x29, #0x58
    bcc4:	97fffe9c 	bl	0xb734
    bcc8:	97ffffa7 	bl	0xbb64
    bccc:	f9405660 	ldr	x0, [x19, #168]
    bcd0:	aa1503e2 	mov	x2, x21
    bcd4:	d3518c00 	ubfx	x0, x0, #17, #19
    bcd8:	52800021 	mov	w1, #0x1                   	// #1
    bcdc:	b90053a0 	str	w0, [x29, #80]
    bce0:	5280c200 	mov	w0, #0x610                 	// #1552
    bce4:	97fffe84 	bl	0xb6f4
    bce8:	f9405663 	ldr	x3, [x19, #168]
    bcec:	52800021 	mov	w1, #0x1                   	// #1
    bcf0:	2a0103e2 	mov	w2, w1
    bcf4:	12004063 	and	w3, w3, #0x1ffff
    bcf8:	52800000 	mov	w0, #0x0                   	// #0
    bcfc:	94000168 	bl	0xc29c
    bd00:	52800061 	mov	w1, #0x3                   	// #3
    bd04:	b9002660 	str	w0, [x19, #36]
    bd08:	52800022 	mov	w2, #0x1                   	// #1
    bd0c:	52800043 	mov	w3, #0x2                   	// #2
    bd10:	52800000 	mov	w0, #0x0                   	// #0
    bd14:	94000176 	bl	0xc2ec
    bd18:	f9405e63 	ldr	x3, [x19, #184]
    bd1c:	52800022 	mov	w2, #0x1                   	// #1
    bd20:	12004063 	and	w3, w3, #0x1ffff
    bd24:	b9002a60 	str	w0, [x19, #40]
    bd28:	52800061 	mov	w1, #0x3                   	// #3
    bd2c:	52800000 	mov	w0, #0x0                   	// #0
    bd30:	94000165 	bl	0xc2c4
    bd34:	b9002e60 	str	w0, [x19, #44]
    bd38:	94000157 	bl	0xc294
    bd3c:	2a1403e1 	mov	w1, w20
    bd40:	b9003260 	str	w0, [x19, #48]
    bd44:	910163a0 	add	x0, x29, #0x58
    bd48:	97fffe7b 	bl	0xb734
    bd4c:	a94153f3 	ldp	x19, x20, [sp, #16]
    bd50:	f94013f5 	ldr	x21, [sp, #32]
    bd54:	a8c77bfd 	ldp	x29, x30, [sp], #112
    bd58:	d65f03c0 	ret
    bd5c:	b9400001 	ldr	w1, [x0]
    bd60:	52a04002 	mov	w2, #0x2000000             	// #33554432
    bd64:	12103c21 	and	w1, w1, #0xffff0000
    bd68:	6b02003f 	cmp	w1, w2
    bd6c:	540000c0 	b.eq	0xbd84  // b.none
    bd70:	52a0a022 	mov	w2, #0x5010000             	// #83951616
    bd74:	6b02003f 	cmp	w1, w2
    bd78:	54000080 	b.eq	0xbd88  // b.none
    bd7c:	35000081 	cbnz	w1, 0xbd8c
    bd80:	17fffeb5 	b	0xb854
    bd84:	17fffe78 	b	0xb764
    bd88:	17ffff80 	b	0xbb88
    bd8c:	d65f03c0 	ret
    bd90:	90000020 	adrp	x0, 0xf000
    bd94:	910a6000 	add	x0, x0, #0x298
    bd98:	52a80001 	mov	w1, #0x40000000            	// #1073741824
    bd9c:	f9400000 	ldr	x0, [x0]
    bda0:	b9200001 	str	w1, [x0, #8192]
    bda4:	d65f03c0 	ret
    bda8:	90000020 	adrp	x0, 0xf000
    bdac:	910a6000 	add	x0, x0, #0x298
    bdb0:	52a00201 	mov	w1, #0x100000              	// #1048576
    bdb4:	f9400000 	ldr	x0, [x0]
    bdb8:	b9100401 	str	w1, [x0, #4100]
    bdbc:	b9200401 	str	w1, [x0, #8196]
    bdc0:	90000020 	adrp	x0, 0xf000
    bdc4:	910a8000 	add	x0, x0, #0x2a0
    bdc8:	52800021 	mov	w1, #0x1                   	// #1
    bdcc:	f9400000 	ldr	x0, [x0]
    bdd0:	b9002c01 	str	w1, [x0, #44]
    bdd4:	d65f03c0 	ret
    bdd8:	d2800d00 	mov	x0, #0x68                  	// #104
    bddc:	f2a40400 	movk	x0, #0x2020, lsl #16
    bde0:	a9bf7bfd 	stp	x29, x30, [sp, #-16]!
    bde4:	910003fd 	mov	x29, sp
    bde8:	b9400000 	ldr	w0, [x0]
    bdec:	12000401 	and	w1, w0, #0x3
    bdf0:	71000c3f 	cmp	w1, #0x3
    bdf4:	540000a0 	b.eq	0xbe08  // b.none
    bdf8:	32000401 	orr	w1, w0, #0x3
    bdfc:	d2800d00 	mov	x0, #0x68                  	// #104
    be00:	f2a40400 	movk	x0, #0x2020, lsl #16
    be04:	b9000001 	str	w1, [x0]
    be08:	90000020 	adrp	x0, 0xf000
    be0c:	910a6000 	add	x0, x0, #0x298
    be10:	52a80001 	mov	w1, #0x40000000            	// #1073741824
    be14:	f9400000 	ldr	x0, [x0]
    be18:	b9100001 	str	w1, [x0, #4096]
    be1c:	97ffffe3 	bl	0xbda8
    be20:	90000020 	adrp	x0, 0xf000
    be24:	910a8000 	add	x0, x0, #0x2a0
    be28:	f9400000 	ldr	x0, [x0]
    be2c:	b9451401 	ldr	w1, [x0, #1300]
    be30:	528ff221 	mov	w1, #0x7f91                	// #32657
    be34:	b9002401 	str	w1, [x0, #36]
    be38:	a8c17bfd 	ldp	x29, x30, [sp], #16
    be3c:	d65f03c0 	ret
    be40:	90000020 	adrp	x0, 0xf000
    be44:	910a6000 	add	x0, x0, #0x298
    be48:	52a00401 	mov	w1, #0x200000              	// #2097152
    be4c:	f9400000 	ldr	x0, [x0]
    be50:	b9100401 	str	w1, [x0, #4100]
    be54:	b9200401 	str	w1, [x0, #8196]
    be58:	d65f03c0 	ret
    be5c:	a9bf7bfd 	stp	x29, x30, [sp, #-16]!
    be60:	90000020 	adrp	x0, 0xf000
    be64:	910a6000 	add	x0, x0, #0x298
    be68:	910003fd 	mov	x29, sp
    be6c:	d2ae2001 	mov	x1, #0x71000000            	// #1895825408
    be70:	f9000001 	str	x1, [x0]
    be74:	97fffff3 	bl	0xbe40
    be78:	90000020 	adrp	x0, 0xf000
    be7c:	910a8000 	add	x0, x0, #0x2a0
    be80:	d2ae2c01 	mov	x1, #0x71600000            	// #1902116864
    be84:	f9000001 	str	x1, [x0]
    be88:	a8c17bfd 	ldp	x29, x30, [sp], #16
    be8c:	d65f03c0 	ret
    be90:	d65f03c0 	ret
    be94:	a9ab7bfd 	stp	x29, x30, [sp, #-336]!
    be98:	910003fd 	mov	x29, sp
    be9c:	a90153f3 	stp	x19, x20, [sp, #16]
    bea0:	a90363f7 	stp	x23, x24, [sp, #48]
    bea4:	a9025bf5 	stp	x21, x22, [sp, #32]
    bea8:	a9046bf9 	stp	x25, x26, [sp, #64]
    beac:	f9002bfb 	str	x27, [sp, #80]
    beb0:	2a0003f3 	mov	w19, w0
    beb4:	aa0103f9 	mov	x25, x1
    beb8:	2a0203f4 	mov	w20, w2
    bebc:	aa0403f8 	mov	x24, x4
    bec0:	f940afb7 	ldr	x23, [x29, #344]
    bec4:	b94163b6 	ldr	w22, [x29, #352]
    bec8:	b4000c61 	cbz	x1, 0xc054
    becc:	34000c42 	cbz	w2, 0xc054
    bed0:	b4000c23 	cbz	x3, 0xc054
    bed4:	52800080 	mov	w0, #0x4                   	// #4
    bed8:	72a04000 	movk	w0, #0x200, lsl #16
    bedc:	6b00027f 	cmp	w19, w0
    bee0:	540002a0 	b.eq	0xbf34  // b.none
    bee4:	52800040 	mov	w0, #0x2                   	// #2
    bee8:	72a0a020 	movk	w0, #0x501, lsl #16
    beec:	6b00027f 	cmp	w19, w0
    bef0:	54000140 	b.eq	0xbf18  // b.none
    bef4:	7100067f 	cmp	w19, #0x1
    bef8:	129fffc0 	mov	w0, #0xffff0001            	// #-65535
    befc:	54000b21 	b.ne	0xc060  // b.any
    bf00:	b4000aa5 	cbz	x5, 0xc054
    bf04:	710080df 	cmp	w6, #0x20
    bf08:	54000a61 	b.ne	0xc054  // b.any
    bf0c:	b4000a57 	cbz	x23, 0xc054
    bf10:	710042df 	cmp	w22, #0x10
    bf14:	14000007 	b	0xbf30
    bf18:	b40009e5 	cbz	x5, 0xc054
    bf1c:	710400df 	cmp	w6, #0x100
    bf20:	540009a1 	b.ne	0xc054  // b.any
    bf24:	b4000987 	cbz	x7, 0xc054
    bf28:	b94153a0 	ldr	w0, [x29, #336]
    bf2c:	7104001f 	cmp	w0, #0x100
    bf30:	54000921 	b.ne	0xc054  // b.any
    bf34:	90000020 	adrp	x0, 0xf000
    bf38:	910aa01a 	add	x26, x0, #0x2a8
    bf3c:	aa0003fb 	mov	x27, x0
    bf40:	b9400341 	ldr	w1, [x26]
    bf44:	7100043f 	cmp	w1, #0x1
    bf48:	540008a0 	b.eq	0xc05c  // b.none
    bf4c:	f9003fa3 	str	x3, [x29, #120]
    bf50:	f9003ba5 	str	x5, [x29, #112]
    bf54:	f90037a6 	str	x6, [x29, #104]
    bf58:	f90033a7 	str	x7, [x29, #96]
    bf5c:	97ffffc0 	bl	0xbe5c
    bf60:	97ffff9e 	bl	0xbdd8
    bf64:	910223a0 	add	x0, x29, #0x88
    bf68:	52800001 	mov	w1, #0x0                   	// #0
    bf6c:	52801902 	mov	w2, #0xc8                  	// #200
    bf70:	52800035 	mov	w21, #0x1                   	// #1
    bf74:	b9000355 	str	w21, [x26]
    bf78:	97fffc4d 	bl	0xb0ac
    bf7c:	f9403fa3 	ldr	x3, [x29, #120]
    bf80:	b9008bb3 	str	w19, [x29, #136]
    bf84:	52a04000 	mov	w0, #0x2000000             	// #33554432
    bf88:	12103e73 	and	w19, w19, #0xffff0000
    bf8c:	b9008fbf 	str	wzr, [x29, #140]
    bf90:	b90093b5 	str	w21, [x29, #144]
    bf94:	f9009bb9 	str	x25, [x29, #304]
    bf98:	b9013bb4 	str	w20, [x29, #312]
    bf9c:	f900a3a3 	str	x3, [x29, #320]
    bfa0:	6b00027f 	cmp	w19, w0
    bfa4:	f9403ba5 	ldr	x5, [x29, #112]
    bfa8:	f94037a6 	ldr	x6, [x29, #104]
    bfac:	f94033a7 	ldr	x7, [x29, #96]
    bfb0:	540001a0 	b.eq	0xbfe4  // b.none
    bfb4:	52a0a020 	mov	w0, #0x5010000             	// #83951616
    bfb8:	6b00027f 	cmp	w19, w0
    bfbc:	540001a0 	b.eq	0xbff0  // b.none
    bfc0:	35000213 	cbnz	w19, 0xc000
    bfc4:	b9009bb5 	str	w21, [x29, #152]
    bfc8:	f90053a5 	str	x5, [x29, #160]
    bfcc:	b900aba6 	str	w6, [x29, #168]
    bfd0:	f9005bbf 	str	xzr, [x29, #176]
    bfd4:	b900bbb3 	str	w19, [x29, #184]
    bfd8:	f90063b7 	str	x23, [x29, #192]
    bfdc:	b900cbb6 	str	w22, [x29, #200]
    bfe0:	14000007 	b	0xbffc
    bfe4:	52800400 	mov	w0, #0x20                  	// #32
    bfe8:	b9014ba0 	str	w0, [x29, #328]
    bfec:	14000005 	b	0xc000
    bff0:	f9004fa5 	str	x5, [x29, #152]
    bff4:	f90053a7 	str	x7, [x29, #160]
    bff8:	b900aba6 	str	w6, [x29, #168]
    bffc:	b9014bb4 	str	w20, [x29, #328]
    c000:	910223a0 	add	x0, x29, #0x88
    c004:	97ffff56 	bl	0xbd5c
    c008:	52a0a020 	mov	w0, #0x5010000             	// #83951616
    c00c:	6b00027f 	cmp	w19, w0
    c010:	540000c1 	b.ne	0xc028  // b.any
    c014:	97fffed4 	bl	0xbb64
    c018:	52800013 	mov	w19, #0x0                   	// #0
    c01c:	340000a0 	cbz	w0, 0xc030
    c020:	52bffff3 	mov	w19, #0xffff0000            	// #-65536
    c024:	14000003 	b	0xc030
    c028:	97fffec6 	bl	0xbb40
    c02c:	17fffffb 	b	0xc018
    c030:	b4000078 	cbz	x24, 0xc03c
    c034:	b9414ba0 	ldr	w0, [x29, #328]
    c038:	b9000300 	str	w0, [x24]
    c03c:	910aa37b 	add	x27, x27, #0x2a8
    c040:	b900037f 	str	wzr, [x27]
    c044:	97ffff53 	bl	0xbd90
    c048:	97ffff92 	bl	0xbe90
    c04c:	2a1303e0 	mov	w0, w19
    c050:	14000004 	b	0xc060
    c054:	129fff00 	mov	w0, #0xffff0007            	// #-65529
    c058:	14000002 	b	0xc060
    c05c:	52bfffe0 	mov	w0, #0xffff0000            	// #-65536
    c060:	a94153f3 	ldp	x19, x20, [sp, #16]
    c064:	a9425bf5 	ldp	x21, x22, [sp, #32]
    c068:	a94363f7 	ldp	x23, x24, [sp, #48]
    c06c:	a9446bf9 	ldp	x25, x26, [sp, #64]
    c070:	f9402bfb 	ldr	x27, [sp, #80]
    c074:	a8d57bfd 	ldp	x29, x30, [sp], #336
    c078:	d65f03c0 	ret
    c07c:	d10843ff 	sub	sp, sp, #0x210
    c080:	a9bc7bfd 	stp	x29, x30, [sp, #-64]!
    c084:	910003fd 	mov	x29, sp
    c088:	a90153f3 	stp	x19, x20, [sp, #16]
    c08c:	a9025bf5 	stp	x21, x22, [sp, #32]
    c090:	a90363f7 	stp	x23, x24, [sp, #48]
    c094:	aa0103f6 	mov	x22, x1
    c098:	2a0203f5 	mov	w21, w2
    c09c:	d10083ff 	sub	sp, sp, #0x20
    c0a0:	aa0003f4 	mov	x20, x0
    c0a4:	aa0303e1 	mov	x1, x3
    c0a8:	2a0403e2 	mov	w2, w4
    c0ac:	aa0503f7 	mov	x23, x5
    c0b0:	aa0603f3 	mov	x19, x6
    c0b4:	b4000ac0 	cbz	x0, 0xc20c
    c0b8:	b4000af6 	cbz	x22, 0xc214
    c0bc:	b4000ac3 	cbz	x3, 0xc214
    c0c0:	6b1f009f 	cmp	w4, wzr
    c0c4:	1a9f17e0 	cset	w0, eq  // eq = none
    c0c8:	35000a60 	cbnz	w0, 0xc214
    c0cc:	b4000a46 	cbz	x6, 0xc214
    c0d0:	52800038 	mov	w24, #0x1                   	// #1
    c0d4:	b90000d8 	str	w24, [x6]
    c0d8:	f9400285 	ldr	x5, [x20]
    c0dc:	b9401683 	ldr	w3, [x20, #20]
    c0e0:	b90003e3 	str	w3, [sp]
    c0e4:	b90013e0 	str	w0, [sp, #16]
    c0e8:	f90007ff 	str	xzr, [sp, #8]
    c0ec:	52800040 	mov	w0, #0x2                   	// #2
    c0f0:	b9401286 	ldr	w6, [x20, #16]
    c0f4:	f9400687 	ldr	x7, [x20, #8]
    c0f8:	72a0a020 	movk	w0, #0x501, lsl #16
    c0fc:	910143a3 	add	x3, x29, #0x50
    c100:	910113a4 	add	x4, x29, #0x44
    c104:	97ffff64 	bl	0xbe94
    c108:	350008c0 	cbnz	w0, 0xc220
    c10c:	b94002e0 	ldr	w0, [x23]
    c110:	7100501f 	cmp	w0, #0x14
    c114:	54000280 	b.eq	0xc164  // b.none
    c118:	7100541f 	cmp	w0, #0x15
    c11c:	54000600 	b.eq	0xc1dc  // b.none
    c120:	350007e0 	cbnz	w0, 0xc21c
    c124:	350000f5 	cbnz	w21, 0xc140
    c128:	b94047a2 	ldr	w2, [x29, #68]
    c12c:	aa1603e0 	mov	x0, x22
    c130:	910143a1 	add	x1, x29, #0x50
    c134:	97fffbe5 	bl	0xb0c8
    c138:	b94047a0 	ldr	w0, [x29, #68]
    c13c:	14000020 	b	0xc1bc
    c140:	910143a0 	add	x0, x29, #0x50
    c144:	aa1603e1 	mov	x1, x22
    c148:	2a1503e2 	mov	w2, w21
    c14c:	97fffbe7 	bl	0xb0e8
    c150:	34000060 	cbz	w0, 0xc15c
    c154:	52800020 	mov	w0, #0x1                   	// #1
    c158:	14000019 	b	0xc1bc
    c15c:	b900027f 	str	wzr, [x19]
    c160:	14000018 	b	0xc1c0
    c164:	52802000 	mov	w0, #0x100                 	// #256
    c168:	b94047a1 	ldr	w1, [x29, #68]
    c16c:	b9401283 	ldr	w3, [x20, #16]
    c170:	b9004ba0 	str	w0, [x29, #72]
    c174:	2a1803e2 	mov	w2, w24
    c178:	910143a0 	add	x0, x29, #0x50
    c17c:	910543a4 	add	x4, x29, #0x150
    c180:	910123a5 	add	x5, x29, #0x48
    c184:	910133a6 	add	x6, x29, #0x4c
    c188:	94000189 	bl	0xc7ac
    c18c:	35000060 	cbnz	w0, 0xc198
    c190:	b9404fa1 	ldr	w1, [x29, #76]
    c194:	35000081 	cbnz	w1, 0xc1a4
    c198:	52800021 	mov	w1, #0x1                   	// #1
    c19c:	b9000261 	str	w1, [x19]
    c1a0:	14000020 	b	0xc220
    c1a4:	35000135 	cbnz	w21, 0xc1c8
    c1a8:	b9404ba2 	ldr	w2, [x29, #72]
    c1ac:	aa1603e0 	mov	x0, x22
    c1b0:	910543a1 	add	x1, x29, #0x150
    c1b4:	97fffbc5 	bl	0xb0c8
    c1b8:	b9404ba0 	ldr	w0, [x29, #72]
    c1bc:	b9000260 	str	w0, [x19]
    c1c0:	52800000 	mov	w0, #0x0                   	// #0
    c1c4:	14000017 	b	0xc220
    c1c8:	b9404ba0 	ldr	w0, [x29, #72]
    c1cc:	6b15001f 	cmp	w0, w21
    c1d0:	54fffc21 	b.ne	0xc154  // b.any
    c1d4:	910543a0 	add	x0, x29, #0x150
    c1d8:	17ffffdb 	b	0xc144
    c1dc:	b9401287 	ldr	w7, [x20, #16]
    c1e0:	f90003f3 	str	x19, [sp]
    c1e4:	b94047a3 	ldr	w3, [x29, #68]
    c1e8:	b94012e4 	ldr	w4, [x23, #16]
    c1ec:	b9400ae5 	ldr	w5, [x23, #8]
    c1f0:	b9400ee6 	ldr	w6, [x23, #12]
    c1f4:	aa1603e0 	mov	x0, x22
    c1f8:	2a1503e1 	mov	w1, w21
    c1fc:	910143a2 	add	x2, x29, #0x50
    c200:	531d70e7 	lsl	w7, w7, #3
    c204:	940000a8 	bl	0xc4a4
    c208:	14000006 	b	0xc220
    c20c:	129fffa0 	mov	w0, #0xffff0002            	// #-65534
    c210:	14000004 	b	0xc220
    c214:	129fff00 	mov	w0, #0xffff0007            	// #-65529
    c218:	14000002 	b	0xc220
    c21c:	129fff40 	mov	w0, #0xffff0005            	// #-65531
    c220:	910003bf 	mov	sp, x29
    c224:	a94153f3 	ldp	x19, x20, [sp, #16]
    c228:	a9425bf5 	ldp	x21, x22, [sp, #32]
    c22c:	a94363f7 	ldp	x23, x24, [sp, #48]
    c230:	a8c47bfd 	ldp	x29, x30, [sp], #64
    c234:	910843ff 	add	sp, sp, #0x210
    c238:	d65f03c0 	ret
    c23c:	d100c3ff 	sub	sp, sp, #0x30
    c240:	2a0103e4 	mov	w4, w1
    c244:	aa0003e5 	mov	x5, x0
    c248:	a9027bfd 	stp	x29, x30, [sp, #32]
    c24c:	aa0203e3 	mov	x3, x2
    c250:	910083fd 	add	x29, sp, #0x20
    c254:	2a0403e2 	mov	w2, w4
    c258:	d2800004 	mov	x4, #0x0                   	// #0
    c25c:	52800080 	mov	w0, #0x4                   	// #4
    c260:	aa0503e1 	mov	x1, x5
    c264:	b90003ff 	str	wzr, [sp]
    c268:	f90007ff 	str	xzr, [sp, #8]
    c26c:	b90013ff 	str	wzr, [sp, #16]
    c270:	aa0403e5 	mov	x5, x4
    c274:	2a0403e6 	mov	w6, w4
    c278:	aa0403e7 	mov	x7, x4
    c27c:	72a04000 	movk	w0, #0x200, lsl #16
    c280:	97ffff05 	bl	0xbe94
    c284:	d10083bf 	sub	sp, x29, #0x20
    c288:	a9427bfd 	ldp	x29, x30, [sp, #32]
    c28c:	9100c3ff 	add	sp, sp, #0x30
    c290:	d65f03c0 	ret
    c294:	12800000 	mov	w0, #0xffffffff            	// #-1
    c298:	d65f03c0 	ret
    c29c:	52b60004 	mov	w4, #0xb0000000            	// #-1342177280
    c2a0:	12004063 	and	w3, w3, #0x1ffff
    c2a4:	2a040063 	orr	w3, w3, w4
    c2a8:	530e1021 	ubfiz	w1, w1, #18, #5
    c2ac:	2a010063 	orr	w3, w3, w1
    c2b0:	53090c00 	ubfiz	w0, w0, #23, #4
    c2b4:	2a000063 	orr	w3, w3, w0
    c2b8:	530f0040 	ubfiz	w0, w2, #17, #1
    c2bc:	2a000060 	orr	w0, w3, w0
    c2c0:	d65f03c0 	ret
    c2c4:	52b70004 	mov	w4, #0xb8000000            	// #-1207959552
    c2c8:	12004063 	and	w3, w3, #0x1ffff
    c2cc:	2a040063 	orr	w3, w3, w4
    c2d0:	530e1021 	ubfiz	w1, w1, #18, #5
    c2d4:	2a010063 	orr	w3, w3, w1
    c2d8:	53090c00 	ubfiz	w0, w0, #23, #4
    c2dc:	2a000063 	orr	w3, w3, w0
    c2e0:	530f0040 	ubfiz	w0, w2, #17, #1
    c2e4:	2a000060 	orr	w0, w3, w0
    c2e8:	d65f03c0 	ret
    c2ec:	52ab0004 	mov	w4, #0x58000000            	// #1476395008
    c2f0:	531a1063 	ubfiz	w3, w3, #6, #5
    c2f4:	2a040063 	orr	w3, w3, w4
    c2f8:	53141042 	ubfiz	w2, w2, #12, #5
    c2fc:	2a020063 	orr	w3, w3, w2
    c300:	530e1021 	ubfiz	w1, w1, #18, #5
    c304:	2a010063 	orr	w3, w3, w1
    c308:	53090c00 	ubfiz	w0, w0, #23, #4
    c30c:	2a000060 	orr	w0, w3, w0
    c310:	d65f03c0 	ret
    c314:	d10203ff 	sub	sp, sp, #0x80
    c318:	a9027bfd 	stp	x29, x30, [sp, #32]
    c31c:	910083fd 	add	x29, sp, #0x20
    c320:	a90353f3 	stp	x19, x20, [sp, #48]
    c324:	a9045bf5 	stp	x21, x22, [sp, #64]
    c328:	a90563f7 	stp	x23, x24, [sp, #80]
    c32c:	a9066bf9 	stp	x25, x26, [sp, #96]
    c330:	f9003bfb 	str	x27, [sp, #112]
    c334:	2a0003f6 	mov	w22, w0
    c338:	aa0103f3 	mov	x19, x1
    c33c:	aa0203f5 	mov	x21, x2
    c340:	aa0303f7 	mov	x23, x3
    c344:	aa0403f4 	mov	x20, x4
    c348:	b4000041 	cbz	x1, 0xc350
    c34c:	b5000063 	cbnz	x3, 0xc358
    c350:	129fff00 	mov	w0, #0xffff0007            	// #-65529
    c354:	1400004b 	b	0xc480
    c358:	529fffc0 	mov	w0, #0xfffe                	// #65534
    c35c:	72bfbfe0 	movk	w0, #0xfdff, lsl #16
    c360:	0b0002c0 	add	w0, w22, w0
    c364:	7100081f 	cmp	w0, #0x2
    c368:	54ffff48 	b.hi	0xc350  // b.pmore
    c36c:	52800040 	mov	w0, #0x2                   	// #2
    c370:	72a04000 	movk	w0, #0x200, lsl #16
    c374:	6b0002df 	cmp	w22, w0
    c378:	54000100 	b.eq	0xc398  // b.none
    c37c:	52800060 	mov	w0, #0x3                   	// #3
    c380:	72a04000 	movk	w0, #0x200, lsl #16
    c384:	6b0002df 	cmp	w22, w0
    c388:	d2800399 	mov	x25, #0x1c                  	// #28
    c38c:	d2800400 	mov	x0, #0x20                  	// #32
    c390:	9a800339 	csel	x25, x25, x0, eq  // eq = none
    c394:	14000002 	b	0xc39c
    c398:	d2800299 	mov	x25, #0x14                  	// #20
    c39c:	9000003a 	adrp	x26, 0x10000
    c3a0:	910be35a 	add	x26, x26, #0x2f8
    c3a4:	52800001 	mov	w1, #0x0                   	// #0
    c3a8:	52800802 	mov	w2, #0x40                  	// #64
    c3ac:	aa1a03e0 	mov	x0, x26
    c3b0:	90000038 	adrp	x24, 0x10000
    c3b4:	97fffb3e 	bl	0xb0ac
    c3b8:	910ac318 	add	x24, x24, #0x2b0
    c3bc:	aa1803e0 	mov	x0, x24
    c3c0:	52800001 	mov	w1, #0x0                   	// #0
    c3c4:	52800882 	mov	w2, #0x44                  	// #68
    c3c8:	97fffb39 	bl	0xb0ac
    c3cc:	f10102bf 	cmp	x21, #0x40
    c3d0:	54fffc08 	b.hi	0xc350  // b.pmore
    c3d4:	aa1303e1 	mov	x1, x19
    c3d8:	aa1803e0 	mov	x0, x24
    c3dc:	2a1503e2 	mov	w2, w21
    c3e0:	52800013 	mov	w19, #0x0                   	// #0
    c3e4:	110012bb 	add	w27, w21, #0x4
    c3e8:	97fffb38 	bl	0xb0c8
    c3ec:	b4000494 	cbz	x20, 0xc47c
    c3f0:	8b150301 	add	x1, x24, x21
    c3f4:	53187e60 	lsr	w0, w19, #24
    c3f8:	38356b00 	strb	w0, [x24, x21]
    c3fc:	53107e60 	lsr	w0, w19, #16
    c400:	39000c33 	strb	w19, [x1, #3]
    c404:	39000420 	strb	w0, [x1, #1]
    c408:	d2800004 	mov	x4, #0x0                   	// #0
    c40c:	53087e60 	lsr	w0, w19, #8
    c410:	39000820 	strb	w0, [x1, #2]
    c414:	b90003ff 	str	wzr, [sp]
    c418:	f90007ff 	str	xzr, [sp, #8]
    c41c:	b90013ff 	str	wzr, [sp, #16]
    c420:	2a1603e0 	mov	w0, w22
    c424:	aa1803e1 	mov	x1, x24
    c428:	2a1b03e2 	mov	w2, w27
    c42c:	aa1a03e3 	mov	x3, x26
    c430:	aa0403e5 	mov	x5, x4
    c434:	2a0403e6 	mov	w6, w4
    c438:	aa0403e7 	mov	x7, x4
    c43c:	11000673 	add	w19, w19, #0x1
    c440:	97fffe95 	bl	0xbe94
    c444:	350001e0 	cbnz	w0, 0xc480
    c448:	d2800005 	mov	x5, #0x0                   	// #0
    c44c:	eb050281 	subs	x1, x20, x5
    c450:	8b0502e0 	add	x0, x23, x5
    c454:	540000e0 	b.eq	0xc470  // b.none
    c458:	eb1900bf 	cmp	x5, x25
    c45c:	540000a2 	b.cs	0xc470  // b.hs, b.nlast
    c460:	387a68a0 	ldrb	w0, [x5, x26]
    c464:	38256ae0 	strb	w0, [x23, x5]
    c468:	910004a5 	add	x5, x5, #0x1
    c46c:	17fffff8 	b	0xc44c
    c470:	aa0103f4 	mov	x20, x1
    c474:	aa0003f7 	mov	x23, x0
    c478:	17ffffdd 	b	0xc3ec
    c47c:	2a1403e0 	mov	w0, w20
    c480:	d10083bf 	sub	sp, x29, #0x20
    c484:	a94353f3 	ldp	x19, x20, [sp, #48]
    c488:	a9445bf5 	ldp	x21, x22, [sp, #64]
    c48c:	a94563f7 	ldp	x23, x24, [sp, #80]
    c490:	a9466bf9 	ldp	x25, x26, [sp, #96]
    c494:	f9403bfb 	ldr	x27, [sp, #112]
    c498:	a9427bfd 	ldp	x29, x30, [sp, #32]
    c49c:	910203ff 	add	sp, sp, #0x80
    c4a0:	d65f03c0 	ret
    c4a4:	d102c3ff 	sub	sp, sp, #0xb0
    c4a8:	a9027bfd 	stp	x29, x30, [sp, #32]
    c4ac:	910083fd 	add	x29, sp, #0x20
    c4b0:	a90353f3 	stp	x19, x20, [sp, #48]
    c4b4:	a9045bf5 	stp	x21, x22, [sp, #64]
    c4b8:	a90563f7 	stp	x23, x24, [sp, #80]
    c4bc:	a90773fb 	stp	x27, x28, [sp, #112]
    c4c0:	a9066bf9 	stp	x25, x26, [sp, #96]
    c4c4:	f90043a0 	str	x0, [x29, #128]
    c4c8:	2a0103fb 	mov	w27, w1
    c4cc:	aa0203f4 	mov	x20, x2
    c4d0:	2a0403f6 	mov	w22, w4
    c4d4:	2a0503f8 	mov	w24, w5
    c4d8:	b4000060 	cbz	x0, 0xc4e4
    c4dc:	f9404ba0 	ldr	x0, [x29, #144]
    c4e0:	b5000060 	cbnz	x0, 0xc4ec
    c4e4:	129fff14 	mov	w20, #0xffff0007            	// #-65529
    c4e8:	140000a7 	b	0xc784
    c4ec:	f9404ba1 	ldr	x1, [x29, #144]
    c4f0:	52800020 	mov	w0, #0x1                   	// #1
    c4f4:	b9000020 	str	w0, [x1]
    c4f8:	529fffc0 	mov	w0, #0xfffe                	// #65534
    c4fc:	72bfbfe0 	movk	w0, #0xfdff, lsl #16
    c500:	0b0000a0 	add	w0, w5, w0
    c504:	7100081f 	cmp	w0, #0x2
    c508:	54fffee8 	b.hi	0xc4e4  // b.pmore
    c50c:	52800040 	mov	w0, #0x2                   	// #2
    c510:	72a04000 	movk	w0, #0x200, lsl #16
    c514:	6b0000bf 	cmp	w5, w0
    c518:	54000100 	b.eq	0xc538  // b.none
    c51c:	52800060 	mov	w0, #0x3                   	// #3
    c520:	72a04000 	movk	w0, #0x200, lsl #16
    c524:	6b0000bf 	cmp	w5, w0
    c528:	52800393 	mov	w19, #0x1c                  	// #28
    c52c:	52800400 	mov	w0, #0x20                  	// #32
    c530:	1a800273 	csel	w19, w19, w0, eq  // eq = none
    c534:	14000002 	b	0xc53c
    c538:	52800293 	mov	w19, #0x14                  	// #20
    c53c:	510004e7 	sub	w7, w7, #0x1
    c540:	120008e0 	and	w0, w7, #0x7
    c544:	6b1f001f 	cmp	w0, wzr
    c548:	53037cf7 	lsr	w23, w7, #3
    c54c:	1a9706f7 	cinc	w23, w23, ne  // ne = any
    c550:	6b1702df 	cmp	w22, w23
    c554:	54fffc88 	b.hi	0xc4e4  // b.pmore
    c558:	11000ac0 	add	w0, w22, #0x2
    c55c:	0b130000 	add	w0, w0, w19
    c560:	6b0002ff 	cmp	w23, w0
    c564:	54fffc03 	b.cc	0xc4e4  // b.lo, b.ul, b.last
    c568:	9000003a 	adrp	x26, 0x10000
    c56c:	910ce359 	add	x25, x26, #0x338
    c570:	52800001 	mov	w1, #0x0                   	// #0
    c574:	52802002 	mov	w2, #0x100                 	// #256
    c578:	aa1903e0 	mov	x0, x25
    c57c:	f9003fa3 	str	x3, [x29, #120]
    c580:	f90037a6 	str	x6, [x29, #104]
    c584:	f90033a7 	str	x7, [x29, #96]
    c588:	97fffac9 	bl	0xb0ac
    c58c:	90000024 	adrp	x4, 0x10000
    c590:	9110e095 	add	x21, x4, #0x438
    c594:	52800001 	mov	w1, #0x0                   	// #0
    c598:	52804002 	mov	w2, #0x200                 	// #512
    c59c:	aa1503e0 	mov	x0, x21
    c5a0:	f9003ba4 	str	x4, [x29, #112]
    c5a4:	9000003c 	adrp	x28, 0x10000
    c5a8:	97fffac1 	bl	0xb0ac
    c5ac:	9118e382 	add	x2, x28, #0x638
    c5b0:	aa0203e0 	mov	x0, x2
    c5b4:	f90047a2 	str	x2, [x29, #136]
    c5b8:	52800001 	mov	w1, #0x0                   	// #0
    c5bc:	52800802 	mov	w2, #0x40                  	// #64
    c5c0:	97fffabb 	bl	0xb0ac
    c5c4:	f9403fa3 	ldr	x3, [x29, #120]
    c5c8:	f94037a6 	ldr	x6, [x29, #104]
    c5cc:	51000463 	sub	w3, w3, #0x1
    c5d0:	f94033a7 	ldr	x7, [x29, #96]
    c5d4:	38636a80 	ldrb	w0, [x20, x3]
    c5d8:	7102f01f 	cmp	w0, #0xbc
    c5dc:	54000060 	b.eq	0xc5e8  // b.none
    c5e0:	129ffef4 	mov	w20, #0xffff0008            	// #-65528
    c5e4:	14000068 	b	0xc784
    c5e8:	510006fc 	sub	w28, w23, #0x1
    c5ec:	4b13039c 	sub	w28, w28, w19
    c5f0:	aa1403e1 	mov	x1, x20
    c5f4:	2a1c03e2 	mov	w2, w28
    c5f8:	aa1903e0 	mov	x0, x25
    c5fc:	f90037a6 	str	x6, [x29, #104]
    c600:	f90033a7 	str	x7, [x29, #96]
    c604:	97fffab1 	bl	0xb0c8
    c608:	2a1c03e4 	mov	w4, w28
    c60c:	f94047a0 	ldr	x0, [x29, #136]
    c610:	8b040281 	add	x1, x20, x4
    c614:	2a1303e2 	mov	w2, w19
    c618:	f9003ba4 	str	x4, [x29, #112]
    c61c:	97fffaab 	bl	0xb0c8
    c620:	f94033a7 	ldr	x7, [x29, #96]
    c624:	531d72e0 	lsl	w0, w23, #3
    c628:	4b070007 	sub	w7, w0, w7
    c62c:	52801fe0 	mov	w0, #0xff                  	// #255
    c630:	1ac72807 	asr	w7, w0, w7
    c634:	39400280 	ldrb	w0, [x20]
    c638:	f9403ba4 	ldr	x4, [x29, #112]
    c63c:	0a270000 	bic	w0, w0, w7
    c640:	f94037a6 	ldr	x6, [x29, #104]
    c644:	35fffce0 	cbnz	w0, 0xc5e0
    c648:	f94047a1 	ldr	x1, [x29, #136]
    c64c:	2a0603e0 	mov	w0, w6
    c650:	927e0e62 	and	x2, x19, #0x3c
    c654:	aa1503e3 	mov	x3, x21
    c658:	f90033a7 	str	x7, [x29, #96]
    c65c:	97ffff2e 	bl	0xc314
    c660:	f94033a7 	ldr	x7, [x29, #96]
    c664:	2a0003f4 	mov	w20, w0
    c668:	350008e0 	cbnz	w0, 0xc784
    c66c:	d2800006 	mov	x6, #0x0                   	// #0
    c670:	aa1903e0 	mov	x0, x25
    c674:	6b06039f 	cmp	w28, w6
    c678:	540000e9 	b.ls	0xc694  // b.plast
    c67c:	386068c1 	ldrb	w1, [x6, x0]
    c680:	387568c2 	ldrb	w2, [x6, x21]
    c684:	4a010041 	eor	w1, w2, w1
    c688:	382068c1 	strb	w1, [x6, x0]
    c68c:	910004c6 	add	x6, x6, #0x1
    c690:	17fffff9 	b	0xc674
    c694:	394ce340 	ldrb	w0, [x26, #824]
    c698:	4b1602f7 	sub	w23, w23, w22
    c69c:	51000af7 	sub	w23, w23, #0x2
    c6a0:	0a0000e7 	and	w7, w7, w0
    c6a4:	d2800003 	mov	x3, #0x0                   	// #0
    c6a8:	390ce347 	strb	w7, [x26, #824]
    c6ac:	4b1302f7 	sub	w23, w23, w19
    c6b0:	910ce340 	add	x0, x26, #0x338
    c6b4:	6b17007f 	cmp	w3, w23
    c6b8:	2a0303f4 	mov	w20, w3
    c6bc:	540000c2 	b.cs	0xc6d4  // b.hs, b.nlast
    c6c0:	91000463 	add	x3, x3, #0x1
    c6c4:	8b030001 	add	x1, x0, x3
    c6c8:	385ff021 	ldurb	w1, [x1, #-1]
    c6cc:	34ffff41 	cbz	w1, 0xc6b4
    c6d0:	17ffffc4 	b	0xc5e0
    c6d4:	910ce35a 	add	x26, x26, #0x338
    c6d8:	38634b40 	ldrb	w0, [x26, w3, uxtw]
    c6dc:	7100041f 	cmp	w0, #0x1
    c6e0:	54fff801 	b.ne	0xc5e0  // b.any
    c6e4:	90000020 	adrp	x0, 0x10000
    c6e8:	9110e015 	add	x21, x0, #0x438
    c6ec:	52800001 	mov	w1, #0x0                   	// #0
    c6f0:	52800102 	mov	w2, #0x8                   	// #8
    c6f4:	aa1503e0 	mov	x0, x21
    c6f8:	97fffa6d 	bl	0xb0ac
    c6fc:	f94043a1 	ldr	x1, [x29, #128]
    c700:	2a1b03e2 	mov	w2, w27
    c704:	910022a0 	add	x0, x21, #0x8
    c708:	97fffa70 	bl	0xb0c8
    c70c:	2a1b03e0 	mov	w0, w27
    c710:	11000681 	add	w1, w20, #0x1
    c714:	91002000 	add	x0, x0, #0x8
    c718:	8b010341 	add	x1, x26, x1
    c71c:	2a1603e2 	mov	w2, w22
    c720:	8b0002a0 	add	x0, x21, x0
    c724:	97fffa69 	bl	0xb0c8
    c728:	d2800004 	mov	x4, #0x0                   	// #0
    c72c:	11002362 	add	w2, w27, #0x8
    c730:	b90003ff 	str	wzr, [sp]
    c734:	f90007ff 	str	xzr, [sp, #8]
    c738:	b90013ff 	str	wzr, [sp, #16]
    c73c:	2a1803e0 	mov	w0, w24
    c740:	aa1503e1 	mov	x1, x21
    c744:	0b160042 	add	w2, w2, w22
    c748:	aa1503e3 	mov	x3, x21
    c74c:	aa0403e5 	mov	x5, x4
    c750:	2a0403e6 	mov	w6, w4
    c754:	aa0403e7 	mov	x7, x4
    c758:	97fffdcf 	bl	0xbe94
    c75c:	2a0003f4 	mov	w20, w0
    c760:	35000120 	cbnz	w0, 0xc784
    c764:	90000022 	adrp	x2, 0x10000
    c768:	9118e041 	add	x1, x2, #0x638
    c76c:	aa1503e0 	mov	x0, x21
    c770:	2a1303e2 	mov	w2, w19
    c774:	97fffa5d 	bl	0xb0e8
    c778:	35000060 	cbnz	w0, 0xc784
    c77c:	f9404ba0 	ldr	x0, [x29, #144]
    c780:	b9000014 	str	w20, [x0]
    c784:	d10083bf 	sub	sp, x29, #0x20
    c788:	2a1403e0 	mov	w0, w20
    c78c:	a94353f3 	ldp	x19, x20, [sp, #48]
    c790:	a9445bf5 	ldp	x21, x22, [sp, #64]
    c794:	a94563f7 	ldp	x23, x24, [sp, #80]
    c798:	a9466bf9 	ldp	x25, x26, [sp, #96]
    c79c:	a94773fb 	ldp	x27, x28, [sp, #112]
    c7a0:	a9427bfd 	ldp	x29, x30, [sp, #32]
    c7a4:	9102c3ff 	add	sp, sp, #0xb0
    c7a8:	d65f03c0 	ret
    c7ac:	a9bd7bfd 	stp	x29, x30, [sp, #-48]!
    c7b0:	aa0003e7 	mov	x7, x0
    c7b4:	910003fd 	mov	x29, sp
    c7b8:	f9000bf3 	str	x19, [sp, #16]
    c7bc:	b4000080 	cbz	x0, 0xc7cc
    c7c0:	6b1f003f 	cmp	w1, wzr
    c7c4:	1a9f17e0 	cset	w0, eq  // eq = none
    c7c8:	34000060 	cbz	w0, 0xc7d4
    c7cc:	129fff00 	mov	w0, #0xffff0007            	// #-65529
    c7d0:	14000041 	b	0xc8d4
    c7d4:	b4ffffc6 	cbz	x6, 0xc7cc
    c7d8:	b90000c0 	str	w0, [x6]
    c7dc:	6b03003f 	cmp	w1, w3
    c7e0:	54000788 	b.hi	0xc8d0  // b.pmore
    c7e4:	7100287f 	cmp	w3, #0xa
    c7e8:	54000749 	b.ls	0xc8d0  // b.plast
    c7ec:	394000e9 	ldrb	w9, [x7]
    c7f0:	129ffee0 	mov	w0, #0xffff0008            	// #-65528
    c7f4:	35000709 	cbnz	w9, 0xc8d4
    c7f8:	394004e9 	ldrb	w9, [x7, #1]
    c7fc:	6b22013f 	cmp	w9, w2, uxtb
    c800:	540006a1 	b.ne	0xc8d4  // b.any
    c804:	7100045f 	cmp	w2, #0x1
    c808:	54000180 	b.eq	0xc838  // b.none
    c80c:	7100085f 	cmp	w2, #0x2
    c810:	129fff40 	mov	w0, #0xffff0005            	// #-65531
    c814:	54000601 	b.ne	0xc8d4  // b.any
    c818:	910008e9 	add	x9, x7, #0x2
    c81c:	39400120 	ldrb	w0, [x9]
    c820:	34000240 	cbz	w0, 0xc868
    c824:	11000442 	add	w2, w2, #0x1
    c828:	6b03005f 	cmp	w2, w3
    c82c:	91000529 	add	x9, x9, #0x1
    c830:	54ffff63 	b.cc	0xc81c  // b.lo, b.ul, b.last
    c834:	1400000d 	b	0xc868
    c838:	910008e9 	add	x9, x7, #0x2
    c83c:	52800042 	mov	w2, #0x2                   	// #2
    c840:	39400120 	ldrb	w0, [x9]
    c844:	7103fc1f 	cmp	w0, #0xff
    c848:	540000a1 	b.ne	0xc85c  // b.any
    c84c:	11000442 	add	w2, w2, #0x1
    c850:	6b03005f 	cmp	w2, w3
    c854:	91000529 	add	x9, x9, #0x1
    c858:	54ffff43 	b.cc	0xc840  // b.lo, b.ul, b.last
    c85c:	386248e9 	ldrb	w9, [x7, w2, uxtw]
    c860:	129ffee0 	mov	w0, #0xffff0008            	// #-65528
    c864:	35000389 	cbnz	w9, 0xc8d4
    c868:	11000449 	add	w9, w2, #0x1
    c86c:	6b03013f 	cmp	w9, w3
    c870:	129ffee0 	mov	w0, #0xffff0008            	// #-65528
    c874:	54000302 	b.cs	0xc8d4  // b.hs, b.nlast
    c878:	51000842 	sub	w2, w2, #0x2
    c87c:	71001c5f 	cmp	w2, #0x7
    c880:	540002a9 	b.ls	0xc8d4  // b.plast
    c884:	b4fffa44 	cbz	x4, 0xc7cc
    c888:	eb1f00bf 	cmp	x5, xzr
    c88c:	1a9f17f3 	cset	w19, eq  // eq = none
    c890:	35fff9f3 	cbnz	w19, 0xc7cc
    c894:	51000c21 	sub	w1, w1, #0x3
    c898:	b94000a0 	ldr	w0, [x5]
    c89c:	4b020022 	sub	w2, w1, w2
    c8a0:	6b02001f 	cmp	w0, w2
    c8a4:	54fff943 	b.cc	0xc7cc  // b.lo, b.ul, b.last
    c8a8:	b90000a2 	str	w2, [x5]
    c8ac:	aa0403e0 	mov	x0, x4
    c8b0:	f90017a6 	str	x6, [x29, #40]
    c8b4:	8b2940e1 	add	x1, x7, w9, uxtw
    c8b8:	97fffa04 	bl	0xb0c8
    c8bc:	f94017a6 	ldr	x6, [x29, #40]
    c8c0:	52800020 	mov	w0, #0x1                   	// #1
    c8c4:	b90000c0 	str	w0, [x6]
    c8c8:	2a1303e0 	mov	w0, w19
    c8cc:	14000002 	b	0xc8d4
    c8d0:	129ffee0 	mov	w0, #0xffff0008            	// #-65528
    c8d4:	f9400bf3 	ldr	x19, [sp, #16]
    c8d8:	a8c37bfd 	ldp	x29, x30, [sp], #48
    c8dc:	d65f03c0 	ret
    c8e0:	a9bf7bfd 	stp	x29, x30, [sp, #-16]!
    c8e4:	910003fd 	mov	x29, sp
    c8e8:	97fffd5d 	bl	0xbe5c
    c8ec:	a8c17bfd 	ldp	x29, x30, [sp], #16
    c8f0:	17fffd28 	b	0xbd90
    c8f4:	d65f03c0 	ret
    c8f8:	a9b67bfd 	stp	x29, x30, [sp, #-160]!
    c8fc:	910003fd 	mov	x29, sp
    c900:	a90363f7 	stp	x23, x24, [sp, #48]
    c904:	aa0003f7 	mov	x23, x0
    c908:	90000000 	adrp	x0, 0xc000
    c90c:	aa0103f8 	mov	x24, x1
    c910:	913f4000 	add	x0, x0, #0xfd0
    c914:	d2b28081 	mov	x1, #0x94040000            	// #2483290112
    c918:	a90153f3 	stp	x19, x20, [sp, #16]
    c91c:	a9025bf5 	stp	x21, x22, [sp, #32]
    c920:	97ffd166 	bl	0xeb8
    c924:	340000a0 	cbz	w0, 0xc938
    c928:	90000000 	adrp	x0, 0xc000
    c92c:	913f8800 	add	x0, x0, #0xfe2
    c930:	97ffd1a8 	bl	0xfd0
    c934:	14000000 	b	0xc934
    c938:	d2b28082 	mov	x2, #0x94040000            	// #2483290112
    c93c:	52b28093 	mov	w19, #0x94040000            	// #-1811677184
    c940:	2a0003f5 	mov	w21, w0
    c944:	b9402841 	ldr	w1, [x2, #40]
    c948:	b9402c56 	ldr	w22, [x2, #44]
    c94c:	0b130033 	add	w19, w1, w19
    c950:	6b1602bf 	cmp	w21, w22
    c954:	540000c0 	b.eq	0xc96c  // b.none
    c958:	aa1303e0 	mov	x0, x19
    c95c:	97fff4e6 	bl	0x9cf4
    c960:	11000414 	add	w20, w0, #0x1
    c964:	7101229f 	cmp	w20, #0x48
    c968:	54000069 	b.ls	0xc974  // b.plast
    c96c:	12800014 	mov	w20, #0xffffffff            	// #-1
    c970:	14000016 	b	0xc9c8
    c974:	aa1303e1 	mov	x1, x19
    c978:	2a1403e2 	mov	w2, w20
    c97c:	910163a0 	add	x0, x29, #0x58
    c980:	97ffd137 	bl	0xe5c
    c984:	38746a62 	ldrb	w2, [x19, x20]
    c988:	8b140260 	add	x0, x19, x20
    c98c:	91000413 	add	x19, x0, #0x1
    c990:	910163a1 	add	x1, x29, #0x58
    c994:	aa1703e0 	mov	x0, x23
    c998:	f90027a2 	str	x2, [x29, #72]
    c99c:	97ffd147 	bl	0xeb8
    c9a0:	f94027a2 	ldr	x2, [x29, #72]
    c9a4:	2a0003f4 	mov	w20, w0
    c9a8:	350000a0 	cbnz	w0, 0xc9bc
    c9ac:	aa1803e0 	mov	x0, x24
    c9b0:	aa1303e1 	mov	x1, x19
    c9b4:	97ffd12a 	bl	0xe5c
    c9b8:	14000004 	b	0xc9c8
    c9bc:	8b220273 	add	x19, x19, w2, uxtb
    c9c0:	110006b5 	add	w21, w21, #0x1
    c9c4:	17ffffe3 	b	0xc950
    c9c8:	2a1403e0 	mov	w0, w20
    c9cc:	a9425bf5 	ldp	x21, x22, [sp, #32]
    c9d0:	a94153f3 	ldp	x19, x20, [sp, #16]
    c9d4:	a94363f7 	ldp	x23, x24, [sp, #48]
    c9d8:	a8ca7bfd 	ldp	x29, x30, [sp], #160
    c9dc:	d65f03c0 	ret
    c9e0:	d65f03c0 	ret
    c9e4:	d2820080 	mov	x0, #0x1004                	// #4100
    c9e8:	f2a64fa0 	movk	x0, #0x327d, lsl #16
    c9ec:	52802001 	mov	w1, #0x100                 	// #256
    c9f0:	b9000001 	str	w1, [x0]
    c9f4:	d2b04000 	mov	x0, #0x82000000            	// #2181038080
    c9f8:	b9402001 	ldr	w1, [x0, #32]
    c9fc:	7100043f 	cmp	w1, #0x1
    ca00:	54000061 	b.ne	0xca0c  // b.any
    ca04:	f9401402 	ldr	x2, [x0, #40]
    ca08:	14000007 	b	0xca24
    ca0c:	7100083f 	cmp	w1, #0x2
    ca10:	d2800002 	mov	x2, #0x0                   	// #0
    ca14:	54000081 	b.ne	0xca24  // b.any
    ca18:	f9401802 	ldr	x2, [x0, #48]
    ca1c:	f9401400 	ldr	x0, [x0, #40]
    ca20:	8b000042 	add	x2, x2, x0
    ca24:	d2987000 	mov	x0, #0xc380                	// #50048
    ca28:	f2a65000 	movk	x0, #0x3280, lsl #16
    ca2c:	12800001 	mov	w1, #0xffffffff            	// #-1
    ca30:	b9000001 	str	w1, [x0]
    ca34:	52800000 	mov	w0, #0x0                   	// #0
    ca38:	d2987001 	mov	x1, #0xc380                	// #50048
    ca3c:	f2a65001 	movk	x1, #0x3280, lsl #16
    ca40:	8b204821 	add	x1, x1, w0, uxtw #2
    ca44:	b900083f 	str	wzr, [x1, #8]
    ca48:	b900183f 	str	wzr, [x1, #24]
    ca4c:	b900283f 	str	wzr, [x1, #40]
    ca50:	11000400 	add	w0, w0, #0x1
    ca54:	b900383f 	str	wzr, [x1, #56]
    ca58:	7100101f 	cmp	w0, #0x4
    ca5c:	54fffee1 	b.ne	0xca38  // b.any
    ca60:	d2987003 	mov	x3, #0xc380                	// #50048
    ca64:	f2a65003 	movk	x3, #0x3280, lsl #16
    ca68:	12800001 	mov	w1, #0xffffffff            	// #-1
    ca6c:	d34cfc42 	lsr	x2, x2, #12
    ca70:	b9000461 	str	w1, [x3, #4]
    ca74:	d2987003 	mov	x3, #0xc380                	// #50048
    ca78:	f2a65003 	movk	x3, #0x3280, lsl #16
    ca7c:	72ae2000 	movk	w0, #0x7100, lsl #16
    ca80:	b9000062 	str	w2, [x3]
    ca84:	d28e0502 	mov	x2, #0x7028                	// #28712
    ca88:	f2a65002 	movk	x2, #0x3280, lsl #16
    ca8c:	b9400043 	ldr	w3, [x2]
    ca90:	d28e0502 	mov	x2, #0x7028                	// #28712
    ca94:	f2a65002 	movk	x2, #0x3280, lsl #16
    ca98:	121a7463 	and	w3, w3, #0xffffffcf
    ca9c:	321c0063 	orr	w3, w3, #0x10
    caa0:	b9000043 	str	w3, [x2]
    caa4:	d28e0702 	mov	x2, #0x7038                	// #28728
    caa8:	f2a65002 	movk	x2, #0x3280, lsl #16
    caac:	b9400043 	ldr	w3, [x2]
    cab0:	d28e0702 	mov	x2, #0x7038                	// #28728
    cab4:	f2a65002 	movk	x2, #0x3280, lsl #16
    cab8:	121a7463 	and	w3, w3, #0xffffffcf
    cabc:	321c0063 	orr	w3, w3, #0x10
    cac0:	b9000043 	str	w3, [x2]
    cac4:	d2920102 	mov	x2, #0x9008                	// #36872
    cac8:	f2a65002 	movk	x2, #0x3280, lsl #16
    cacc:	52ae2003 	mov	w3, #0x71000000            	// #1895825408
    cad0:	b9000043 	str	w3, [x2]
    cad4:	d2920902 	mov	x2, #0x9048                	// #36936
    cad8:	f2a65002 	movk	x2, #0x3280, lsl #16
    cadc:	52a80003 	mov	w3, #0x40000000            	// #1073741824
    cae0:	b9000043 	str	w3, [x2]
    cae4:	d2920182 	mov	x2, #0x900c                	// #36876
    cae8:	f2a65002 	movk	x2, #0x3280, lsl #16
    caec:	b9000040 	str	w0, [x2]
    caf0:	d2920980 	mov	x0, #0x904c                	// #36940
    caf4:	f2a65000 	movk	x0, #0x3280, lsl #16
    caf8:	52a00202 	mov	w2, #0x100000              	// #1048576
    cafc:	b9000002 	str	w2, [x0]
    cb00:	d2880300 	mov	x0, #0x4018                	// #16408
    cb04:	f2a65000 	movk	x0, #0x3280, lsl #16
    cb08:	b9400002 	ldr	w2, [x0]
    cb0c:	d2880300 	mov	x0, #0x4018                	// #16408
    cb10:	f2a65000 	movk	x0, #0x3280, lsl #16
    cb14:	320d0042 	orr	w2, w2, #0x80000
    cb18:	b9000002 	str	w2, [x0]
    cb1c:	d2880600 	mov	x0, #0x4030                	// #16432
    cb20:	f2a65000 	movk	x0, #0x3280, lsl #16
    cb24:	52802e82 	mov	w2, #0x174                 	// #372
    cb28:	72a64fa2 	movk	w2, #0x327d, lsl #16
    cb2c:	b9000002 	str	w2, [x0]
    cb30:	d2880e00 	mov	x0, #0x4070                	// #16496
    cb34:	f2a65000 	movk	x0, #0x3280, lsl #16
    cb38:	52808002 	mov	w2, #0x400                 	// #1024
    cb3c:	b9000002 	str	w2, [x0]
    cb40:	d28a0b00 	mov	x0, #0x5058                	// #20568
    cb44:	f2a65000 	movk	x0, #0x3280, lsl #16
    cb48:	52800b02 	mov	w2, #0x58                  	// #88
    cb4c:	72a64fc2 	movk	w2, #0x327e, lsl #16
    cb50:	b9000002 	str	w2, [x0]
    cb54:	d28a1300 	mov	x0, #0x5098                	// #20632
    cb58:	f2a65000 	movk	x0, #0x3280, lsl #16
    cb5c:	52a04002 	mov	w2, #0x2000000             	// #33554432
    cb60:	b9000002 	str	w2, [x0]
    cb64:	d28a0b80 	mov	x0, #0x505c                	// #20572
    cb68:	f2a65000 	movk	x0, #0x3280, lsl #16
    cb6c:	52801602 	mov	w2, #0xb0                  	// #176
    cb70:	72a64fc2 	movk	w2, #0x327e, lsl #16
    cb74:	b9000002 	str	w2, [x0]
    cb78:	d28a1380 	mov	x0, #0x509c                	// #20636
    cb7c:	f2a65000 	movk	x0, #0x3280, lsl #16
    cb80:	52800042 	mov	w2, #0x2                   	// #2
    cb84:	b9000002 	str	w2, [x0]
    cb88:	d28a0c00 	mov	x0, #0x5060                	// #20576
    cb8c:	f2a65000 	movk	x0, #0x3280, lsl #16
    cb90:	52801982 	mov	w2, #0xcc                  	// #204
    cb94:	72a64fc2 	movk	w2, #0x327e, lsl #16
    cb98:	b9000002 	str	w2, [x0]
    cb9c:	d28a1400 	mov	x0, #0x50a0                	// #20640
    cba0:	f2a65000 	movk	x0, #0x3280, lsl #16
    cba4:	52a00082 	mov	w2, #0x40000               	// #262144
    cba8:	b9000002 	str	w2, [x0]
    cbac:	d2800c80 	mov	x0, #0x64                  	// #100
    cbb0:	f2a65000 	movk	x0, #0x3280, lsl #16
    cbb4:	b9400002 	ldr	w2, [x0]
    cbb8:	d2800c80 	mov	x0, #0x64                  	// #100
    cbbc:	f2a65000 	movk	x0, #0x3280, lsl #16
    cbc0:	12167442 	and	w2, w2, #0xfffffcff
    cbc4:	32180042 	orr	w2, w2, #0x100
    cbc8:	b9000002 	str	w2, [x0]
    cbcc:	d2980000 	mov	x0, #0xc000                	// #49152
    cbd0:	f2a65000 	movk	x0, #0x3280, lsl #16
    cbd4:	2a0103e2 	mov	w2, w1
    cbd8:	b9000001 	str	w1, [x0]
    cbdc:	52800000 	mov	w0, #0x0                   	// #0
    cbe0:	d2980001 	mov	x1, #0xc000                	// #49152
    cbe4:	f2a65001 	movk	x1, #0x3280, lsl #16
    cbe8:	8b204821 	add	x1, x1, w0, uxtw #2
    cbec:	b9000822 	str	w2, [x1, #8]
    cbf0:	b900183f 	str	wzr, [x1, #24]
    cbf4:	b9002822 	str	w2, [x1, #40]
    cbf8:	11000400 	add	w0, w0, #0x1
    cbfc:	b900383f 	str	wzr, [x1, #56]
    cc00:	7100101f 	cmp	w0, #0x4
    cc04:	54fffee1 	b.ne	0xcbe0  // b.any
    cc08:	d2980000 	mov	x0, #0xc000                	// #49152
    cc0c:	f2a65000 	movk	x0, #0x3280, lsl #16
    cc10:	52880be1 	mov	w1, #0x405f                	// #16479
    cc14:	72a00021 	movk	w1, #0x1, lsl #16
    cc18:	b9000401 	str	w1, [x0, #4]
    cc1c:	d2980000 	mov	x0, #0xc000                	// #49152
    cc20:	f2a65000 	movk	x0, #0x3280, lsl #16
    cc24:	52880801 	mov	w1, #0x4040                	// #16448
    cc28:	72a00021 	movk	w1, #0x1, lsl #16
    cc2c:	b9000001 	str	w1, [x0]
    cc30:	d29c0400 	mov	x0, #0xe020                	// #57376
    cc34:	f2a65000 	movk	x0, #0x3280, lsl #16
    cc38:	b9400001 	ldr	w1, [x0]
    cc3c:	d29c0400 	mov	x0, #0xe020                	// #57376
    cc40:	f2a65000 	movk	x0, #0x3280, lsl #16
    cc44:	12167421 	and	w1, w1, #0xfffffcff
    cc48:	32180021 	orr	w1, w1, #0x100
    cc4c:	b9000001 	str	w1, [x0]
    cc50:	d29c0600 	mov	x0, #0xe030                	// #57392
    cc54:	f2a65000 	movk	x0, #0x3280, lsl #16
    cc58:	b9400001 	ldr	w1, [x0]
    cc5c:	d29c0600 	mov	x0, #0xe030                	// #57392
    cc60:	f2a65000 	movk	x0, #0x3280, lsl #16
    cc64:	12167421 	and	w1, w1, #0xfffffcff
    cc68:	32180021 	orr	w1, w1, #0x100
    cc6c:	b9000001 	str	w1, [x0]
    cc70:	d65f03c0 	ret
    cc74:	d65f03c0 	ret
    cc78:	f9400001 	ldr	x1, [x0]
    cc7c:	b9401803 	ldr	w3, [x0, #24]
    cc80:	92b00002 	mov	x2, #0xffffffff7fffffff    	// #-2147483649
    cc84:	8b020022 	add	x2, x1, x2
    cc88:	8b030042 	add	x2, x2, x3
    cc8c:	b9401c03 	ldr	w3, [x0, #28]
    cc90:	b9402000 	ldr	w0, [x0, #32]
    cc94:	8b030042 	add	x2, x2, x3
    cc98:	8b000042 	add	x2, x2, x0
    cc9c:	d2980000 	mov	x0, #0xc000                	// #49152
    cca0:	f2a65000 	movk	x0, #0x3280, lsl #16
    cca4:	d34cfc42 	lsr	x2, x2, #12
    cca8:	b9000402 	str	w2, [x0, #4]
    ccac:	b26183e0 	mov	x0, #0xffffffff80000000    	// #-2147483648
    ccb0:	8b000021 	add	x1, x1, x0
    ccb4:	d2980000 	mov	x0, #0xc000                	// #49152
    ccb8:	f2a65000 	movk	x0, #0x3280, lsl #16
    ccbc:	d34cfc21 	lsr	x1, x1, #12
    ccc0:	b9000001 	str	w1, [x0]
    ccc4:	d65f03c0 	ret
    ccc8:	d65f03c0 	ret
    cccc:	d2900000 	mov	x0, #0x8000                	// #32768
    ccd0:	f2a65000 	movk	x0, #0x3280, lsl #16
    ccd4:	b9400001 	ldr	w1, [x0]
    ccd8:	d2900000 	mov	x0, #0x8000                	// #32768
    ccdc:	f2a65000 	movk	x0, #0x3280, lsl #16
    cce0:	120a7421 	and	w1, w1, #0xffcfffff
    cce4:	b9000001 	str	w1, [x0]
    cce8:	d2900080 	mov	x0, #0x8004                	// #32772
    ccec:	f2a65000 	movk	x0, #0x3280, lsl #16
    ccf0:	b9400001 	ldr	w1, [x0]
    ccf4:	d2900080 	mov	x0, #0x8004                	// #32772
    ccf8:	f2a65000 	movk	x0, #0x3280, lsl #16
    ccfc:	120a7421 	and	w1, w1, #0xffcfffff
    cd00:	b9000001 	str	w1, [x0]
    cd04:	d2900000 	mov	x0, #0x8000                	// #32768
    cd08:	f2a65000 	movk	x0, #0x3280, lsl #16
    cd0c:	b9400001 	ldr	w1, [x0]
    cd10:	d2900000 	mov	x0, #0x8000                	// #32768
    cd14:	f2a65000 	movk	x0, #0x3280, lsl #16
    cd18:	12107421 	and	w1, w1, #0xffff3fff
    cd1c:	b9000001 	str	w1, [x0]
    cd20:	d2900080 	mov	x0, #0x8004                	// #32772
    cd24:	f2a65000 	movk	x0, #0x3280, lsl #16
    cd28:	b9400001 	ldr	w1, [x0]
    cd2c:	d2900080 	mov	x0, #0x8004                	// #32772
    cd30:	f2a65000 	movk	x0, #0x3280, lsl #16
    cd34:	12107421 	and	w1, w1, #0xffff3fff
    cd38:	b9000001 	str	w1, [x0]
    cd3c:	d2860000 	mov	x0, #0x3000                	// #12288
    cd40:	f2a65000 	movk	x0, #0x3280, lsl #16
    cd44:	b9400001 	ldr	w1, [x0]
    cd48:	d2860000 	mov	x0, #0x3000                	// #12288
    cd4c:	f2a65000 	movk	x0, #0x3280, lsl #16
    cd50:	120a7821 	and	w1, w1, #0xffdfffff
    cd54:	b9000001 	str	w1, [x0]
    cd58:	d2860080 	mov	x0, #0x3004                	// #12292
    cd5c:	f2a65000 	movk	x0, #0x3280, lsl #16
    cd60:	b9400001 	ldr	w1, [x0]
    cd64:	d2860080 	mov	x0, #0x3004                	// #12292
    cd68:	f2a65000 	movk	x0, #0x3280, lsl #16
    cd6c:	120a7821 	and	w1, w1, #0xffdfffff
    cd70:	b9000001 	str	w1, [x0]
    cd74:	d2840000 	mov	x0, #0x2000                	// #8192
    cd78:	f2a65000 	movk	x0, #0x3280, lsl #16
    cd7c:	12800001 	mov	w1, #0xffffffff            	// #-1
    cd80:	b9000001 	str	w1, [x0]
    cd84:	52800000 	mov	w0, #0x0                   	// #0
    cd88:	d2840001 	mov	x1, #0x2000                	// #8192
    cd8c:	f2a65001 	movk	x1, #0x3280, lsl #16
    cd90:	8b204821 	add	x1, x1, w0, uxtw #2
    cd94:	b900083f 	str	wzr, [x1, #8]
    cd98:	b900183f 	str	wzr, [x1, #24]
    cd9c:	b900283f 	str	wzr, [x1, #40]
    cda0:	11000400 	add	w0, w0, #0x1
    cda4:	b900383f 	str	wzr, [x1, #56]
    cda8:	7100101f 	cmp	w0, #0x4
    cdac:	54fffee1 	b.ne	0xcd88  // b.any
    cdb0:	d2840000 	mov	x0, #0x2000                	// #8192
    cdb4:	f2a65000 	movk	x0, #0x3280, lsl #16
    cdb8:	52800061 	mov	w1, #0x3                   	// #3
    cdbc:	b9000801 	str	w1, [x0, #8]
    cdc0:	d2840000 	mov	x0, #0x2000                	// #8192
    cdc4:	f2a65000 	movk	x0, #0x3280, lsl #16
    cdc8:	b9002801 	str	w1, [x0, #40]
    cdcc:	d2840000 	mov	x0, #0x2000                	// #8192
    cdd0:	f2a65000 	movk	x0, #0x3280, lsl #16
    cdd4:	52a00101 	mov	w1, #0x80000               	// #524288
    cdd8:	b9001401 	str	w1, [x0, #20]
    cddc:	d2840000 	mov	x0, #0x2000                	// #8192
    cde0:	f2a65000 	movk	x0, #0x3280, lsl #16
    cde4:	b9003401 	str	w1, [x0, #52]
    cde8:	d2840000 	mov	x0, #0x2000                	// #8192
    cdec:	f2a65000 	movk	x0, #0x3280, lsl #16
    cdf0:	52800fe1 	mov	w1, #0x7f                  	// #127
    cdf4:	b9000401 	str	w1, [x0, #4]
    cdf8:	d2840000 	mov	x0, #0x2000                	// #8192
    cdfc:	f2a65000 	movk	x0, #0x3280, lsl #16
    ce00:	12800001 	mov	w1, #0xffffffff            	// #-1
    ce04:	b900001f 	str	wzr, [x0]
    ce08:	d2841000 	mov	x0, #0x2080                	// #8320
    ce0c:	f2a65000 	movk	x0, #0x3280, lsl #16
    ce10:	b9000001 	str	w1, [x0]
    ce14:	52800000 	mov	w0, #0x0                   	// #0
    ce18:	d2841001 	mov	x1, #0x2080                	// #8320
    ce1c:	f2a65001 	movk	x1, #0x3280, lsl #16
    ce20:	8b204821 	add	x1, x1, w0, uxtw #2
    ce24:	b900083f 	str	wzr, [x1, #8]
    ce28:	b900183f 	str	wzr, [x1, #24]
    ce2c:	b900283f 	str	wzr, [x1, #40]
    ce30:	11000400 	add	w0, w0, #0x1
    ce34:	b900383f 	str	wzr, [x1, #56]
    ce38:	7100101f 	cmp	w0, #0x4
    ce3c:	54fffee1 	b.ne	0xce18  // b.any
    ce40:	d2841000 	mov	x0, #0x2080                	// #8320
    ce44:	f2a65000 	movk	x0, #0x3280, lsl #16
    ce48:	52800061 	mov	w1, #0x3                   	// #3
    ce4c:	12800002 	mov	w2, #0xffffffff            	// #-1
    ce50:	b9000801 	str	w1, [x0, #8]
    ce54:	d2841000 	mov	x0, #0x2080                	// #8320
    ce58:	f2a65000 	movk	x0, #0x3280, lsl #16
    ce5c:	b9002801 	str	w1, [x0, #40]
    ce60:	d2841000 	mov	x0, #0x2080                	// #8320
    ce64:	f2a65000 	movk	x0, #0x3280, lsl #16
    ce68:	52a00101 	mov	w1, #0x80000               	// #524288
    ce6c:	b9001401 	str	w1, [x0, #20]
    ce70:	d2841000 	mov	x0, #0x2080                	// #8320
    ce74:	f2a65000 	movk	x0, #0x3280, lsl #16
    ce78:	b9003401 	str	w1, [x0, #52]
    ce7c:	d2841000 	mov	x0, #0x2080                	// #8320
    ce80:	f2a65000 	movk	x0, #0x3280, lsl #16
    ce84:	52805fe1 	mov	w1, #0x2ff                 	// #767
    ce88:	b9000401 	str	w1, [x0, #4]
    ce8c:	d2841000 	mov	x0, #0x2080                	// #8320
    ce90:	f2a65000 	movk	x0, #0x3280, lsl #16
    ce94:	52804001 	mov	w1, #0x200                 	// #512
    ce98:	b9000001 	str	w1, [x0]
    ce9c:	d2842000 	mov	x0, #0x2100                	// #8448
    cea0:	f2a65000 	movk	x0, #0x3280, lsl #16
    cea4:	b9000002 	str	w2, [x0]
    cea8:	52800000 	mov	w0, #0x0                   	// #0
    ceac:	d2842001 	mov	x1, #0x2100                	// #8448
    ceb0:	f2a65001 	movk	x1, #0x3280, lsl #16
    ceb4:	8b204821 	add	x1, x1, w0, uxtw #2
    ceb8:	b9000822 	str	w2, [x1, #8]
    cebc:	b9001822 	str	w2, [x1, #24]
    cec0:	b900283f 	str	wzr, [x1, #40]
    cec4:	11000400 	add	w0, w0, #0x1
    cec8:	b900383f 	str	wzr, [x1, #56]
    cecc:	7100101f 	cmp	w0, #0x4
    ced0:	54fffee1 	b.ne	0xceac  // b.any
    ced4:	d2842000 	mov	x0, #0x2100                	// #8448
    ced8:	f2a65000 	movk	x0, #0x3280, lsl #16
    cedc:	528017e1 	mov	w1, #0xbf                  	// #191
    cee0:	b9000401 	str	w1, [x0, #4]
    cee4:	d2842000 	mov	x0, #0x2100                	// #8448
    cee8:	f2a65000 	movk	x0, #0x3280, lsl #16
    ceec:	52801001 	mov	w1, #0x80                  	// #128
    cef0:	b9000001 	str	w1, [x0]
    cef4:	d2840080 	mov	x0, #0x2004                	// #8196
    cef8:	f2a64fa0 	movk	x0, #0x327d, lsl #16
    cefc:	52802001 	mov	w1, #0x100                 	// #256
    cf00:	b9000001 	str	w1, [x0]
    cf04:	d65f03c0 	ret
    cf08:	00001068 	udf	#4200
    cf0c:	00000358 	udf	#856
    cf10:	00000e10 	udf	#3600
    cf14:	000002dd 	udf	#733
    cf18:	00000018 	udf	#24
    cf1c:	00000019 	udf	#25
    cf20:	0000001a 	udf	#26
    cf24:	0000001b 	udf	#27
    cf28:	0000001c 	udf	#28
    cf2c:	0000001d 	udf	#29
    cf30:	0000001e 	udf	#30
    cf34:	0000001f 	udf	#31
    cf38:	00000010 	udf	#16
    cf3c:	00000011 	udf	#17
    cf40:	00000012 	udf	#18
    cf44:	00000013 	udf	#19
    cf48:	00000014 	udf	#20
    cf4c:	00000015 	udf	#21
    cf50:	00000016 	udf	#22
    cf54:	00000017 	udf	#23
    cf58:	00000008 	udf	#8
    cf5c:	00000009 	udf	#9
    cf60:	0000000a 	udf	#10
    cf64:	0000000b 	udf	#11
    cf68:	0000000c 	udf	#12
    cf6c:	0000000d 	udf	#13
    cf70:	0000000e 	udf	#14
    cf74:	0000000f 	udf	#15
    cf78:	00000007 	udf	#7
    cf7c:	00000002 	udf	#2
    cf80:	00000003 	udf	#3
    cf84:	00000004 	udf	#4
    cf88:	00000005 	udf	#5
    cf8c:	00000020 	udf	#32
    cf90:	00000021 	udf	#33
    cf94:	00000022 	udf	#34
    cf98:	00000023 	udf	#35
    cf9c:	00000006 	udf	#6
    cfa0:	5555aaaa 	.inst	0x5555aaaa ; undefined
    cfa4:	00000002 	udf	#2
    cfa8:	00000015 	udf	#21
    cfac:	00000009 	udf	#9
    cfb0:	4f432a43 	smlal2	v3.4s, v18.8h, v3.h[4]
    cfb4:	00304552 	.inst	0x00304552 ; NYI
    cfb8:	6c7aff00 	ldnp	d0, d31, [x24, #-88]
    cfbc:	4f432a43 	smlal2	v3.4s, v18.8h, v3.h[4]
    cfc0:	00314552 	.inst	0x00314552 ; NYI
    cfc4:	6c7aff00 	ldnp	d0, d31, [x24, #-88]
    cfc8:	4f432a43 	smlal2	v3.4s, v18.8h, v3.h[4]
    cfcc:	00324552 	.inst	0x00324552 ; NYI
    cfd0:	6c7aff00 	ldnp	d0, d31, [x24, #-88]
    cfd4:	4f432a43 	smlal2	v3.4s, v18.8h, v3.h[4]
    cfd8:	00334552 	.inst	0x00334552 ; NYI
    cfdc:	6c7aff00 	ldnp	d0, d31, [x24, #-88]
    cfe0:	4f432a43 	smlal2	v3.4s, v18.8h, v3.h[4]
    cfe4:	00344552 	.inst	0x00344552 ; NYI
    cfe8:	6c7aff00 	ldnp	d0, d31, [x24, #-88]
    cfec:	4f432a43 	smlal2	v3.4s, v18.8h, v3.h[4]
    cff0:	00354552 	.inst	0x00354552 ; NYI
    cff4:	6c7aff00 	ldnp	d0, d31, [x24, #-88]
    cff8:	4f432a43 	smlal2	v3.4s, v18.8h, v3.h[4]
    cffc:	00364552 	.inst	0x00364552 ; NYI
    d000:	48d63d80 	ldlarh	w0, [x12]
    d004:	4f432a43 	smlal2	v3.4s, v18.8h, v3.h[4]
    d008:	00374552 	.inst	0x00374552 ; NYI
    d00c:	48d63d80 	ldlarh	w0, [x12]
    d010:	43532a43 	.inst	0x43532a43 ; undefined
    d014:	00000055 	udf	#85
    d018:	53af5700 	.inst	0x53af5700 ; undefined
    d01c:	44442a43 	cmla	z3.h, z18.h, z4.h, #180
    d020:	00000052 	udf	#82
    d024:	3d090000 	str	b0, [x0, #576]
    d028:	5f524444 	.inst	0x5f524444 ; undefined
    d02c:	45444f4d 	uaddwt	z13.h, z26.h, z4.b
    d030:	00000002 	udf	#2
    d034:	52412a44 	.inst	0x52412a44 ; undefined
    d038:	0000004d 	udf	#77
    d03c:	000003e8 	udf	#1000
    d040:	4f432a44 	smlal2	v4.4s, v18.8h, v3.h[4]
    d044:	00004552 	udf	#17746
    d048:	000002ee 	udf	#750
    d04c:	454d2a44 	.inst	0x454d2a44 ; undefined
    d050:	0000004d 	udf	#77
    d054:	0000044c 	udf	#1100
    d058:	45472a44 	.inst	0x45472a44 ; undefined
    d05c:	0000304e 	udf	#12366
    d060:	00000000 	udf	#0
    d064:	45472a44 	.inst	0x45472a44 ; undefined
    d068:	0000314e 	udf	#12622
    d06c:	00000000 	udf	#0
    d070:	50472a44 	adr	x4, 0x9b5ba
    d074:	00000055 	udf	#85
    d078:	00000000 	udf	#0
    d07c:	454d2a44 	.inst	0x454d2a44 ; undefined
    d080:	0000514d 	udf	#20813
    d084:	00000000 	udf	#0
    d088:	4f4d2a44 	smlal2	v4.4s, v18.8h, v13.h[4]
    d08c:	004d4544 	.inst	0x004d4544 ; undefined
    d090:	00000000 	udf	#0
    d094:	6c665f64 	ldnp	d4, d23, [x27, #-416]
    d098:	00306761 	.inst	0x00306761 ; NYI
    d09c:	00000000 	udf	#0
    d0a0:	6c665f64 	ldnp	d4, d23, [x27, #-416]
    d0a4:	00316761 	.inst	0x00316761 ; NYI
    d0a8:	00000000 	udf	#0
    d0ac:	6c665f64 	ldnp	d4, d23, [x27, #-416]
    d0b0:	00326761 	.inst	0x00326761 ; NYI
    d0b4:	00000000 	udf	#0
    d0b8:	6c665f64 	ldnp	d4, d23, [x27, #-416]
    d0bc:	00336761 	.inst	0x00336761 ; NYI
    d0c0:	00000000 	udf	#0
    d0c4:	4c412343 	.inst	0x4c412343 ; undefined
    d0c8:	004f4947 	.inst	0x004f4947 ; undefined
    d0cc:	00080102 	.inst	0x00080102 ; undefined
    d0d0:	018cba80 	.inst	0x018cba80 ; undefined
    d0d4:	02dc6c00 	.inst	0x02dc6c00 ; undefined
	...
    d0f0:	53562343 	.inst	0x53562343 ; undefined
    d0f4:	00000050 	udf	#80
    d0f8:	00080203 	.inst	0x00080203 ; undefined
    d0fc:	0f424000 	.inst	0x0f424000 ; undefined
    d100:	124f8000 	.inst	0x124f8000 ; undefined
    d104:	16e36000 	b	0xfffffffffb8e5104
	...
    d11c:	45502a43 	.inst	0x45502a43 ; undefined
    d120:	48504952 	ldxrh	w18, [x10]
    d124:	00080304 	.inst	0x00080304 ; undefined
    d128:	018cba80 	.inst	0x018cba80 ; undefined
    d12c:	0927c000 	.inst	0x0927c000 ; undefined
    d130:	1e848000 	.inst	0x1e848000 ; undefined
    d134:	2dc6c000 	ldp	s0, s16, [x0, #52]!
	...
    d148:	58412343 	ldr	x3, 0x8f5b0
    d14c:	00000049 	udf	#73
    d150:	00080304 	.inst	0x00080304 ; undefined
    d154:	018cba80 	.inst	0x018cba80 ; undefined
    d158:	0493e000 	msb	z0.s, p0/m, z19.s, z0.s
    d15c:	07a12000 	.inst	0x07a12000 ; undefined
    d160:	0f424000 	.inst	0x0f424000 ; undefined
	...
    d174:	4d4d2343 	.inst	0x4d4d2343 ; undefined
    d178:	00000000 	udf	#0
    d17c:	00080304 	.inst	0x00080304 ; undefined
    d180:	018cba80 	.inst	0x018cba80 ; undefined
    d184:	05b8d800 	sel	z0.s, p6, z0.s, z24.s
    d188:	07a12000 	.inst	0x07a12000 ; undefined
    d18c:	0927c000 	.inst	0x0927c000 ; undefined
	...
    d1a0:	44562343 	cmla	z3.h, z26.h, z22.h, #0
    d1a4:	00005053 	udf	#20563
    d1a8:	00080506 	.inst	0x00080506 ; undefined
    d1ac:	0f424000 	.inst	0x0f424000 ; undefined
    d1b0:	16e36000 	b	0xfffffffffb8e51b0
    d1b4:	1e848000 	.inst	0x1e848000 ; undefined
    d1b8:	249f0000 	cmphs	p0.s, p0/z, z0.s, z31.s
    d1bc:	2dc6c000 	ldp	s0, s16, [x0, #52]!
    d1c0:	37ca3a00 	tbnz	w0, #25, 0x11900
	...
    d1cc:	50412343 	adr	x3, 0x8f636
    d1d0:	4250415f 	.inst	0x4250415f ; undefined
    d1d4:	00080304 	.inst	0x00080304 ; undefined
    d1d8:	018cba80 	.inst	0x018cba80 ; undefined
    d1dc:	03d09000 	.inst	0x03d09000 ; undefined
    d1e0:	05b8d800 	sel	z0.s, p6, z0.s, z24.s
    d1e4:	07a12000 	.inst	0x07a12000 ; undefined
	...
    d1f8:	50492343 	adr	x3, 0x9f662
    d1fc:	00000049 	udf	#73
    d200:	00080304 	.inst	0x00080304 ; undefined
    d204:	018cba80 	.inst	0x018cba80 ; undefined
    d208:	03d09000 	.inst	0x03d09000 ; undefined
    d20c:	05b8d800 	sel	z0.s, p6, z0.s, z24.s
    d210:	07a12000 	.inst	0x07a12000 ; undefined
	...
    d224:	4f412343 	smlal2	v3.4s, v26.8h, v1.h[0]
    d228:	4250414e 	.inst	0x4250414e ; undefined
    d22c:	00080708 	.inst	0x00080708 ; undefined
    d230:	003d0900 	.inst	0x003d0900 ; NYI
    d234:	003d0900 	.inst	0x003d0900 ; NYI
    d238:	00c65d40 	.inst	0x00c65d40 ; undefined
    d23c:	017d7840 	.inst	0x017d7840 ; undefined
    d240:	018cba80 	.inst	0x018cba80 ; undefined
    d244:	05b8d800 	sel	z0.s, p6, z0.s, z24.s
    d248:	05f5e100 	sel	z0.d, p8, z8.d, z21.d
    d24c:	07a12000 	.inst	0x07a12000 ; undefined
    d250:	aaaa5555 	orn	x21, x10, x10, asr #21
	...
    d260:	00000006 	udf	#6
    d264:	00000006 	udf	#6
	...
    d270:	00000006 	udf	#6
    d274:	00000006 	udf	#6
	...
    d280:	0000000d 	udf	#13
    d284:	0000000d 	udf	#13
	...
    d290:	00000007 	udf	#7
    d294:	00000007 	udf	#7
	...
    d2a0:	00000007 	udf	#7
    d2a4:	00000007 	udf	#7
	...
    d2b0:	0000000e 	udf	#14
    d2b4:	0000000e 	udf	#14
	...
    d2c0:	00000009 	udf	#9
    d2c4:	00000009 	udf	#9
	...
    d2d0:	00000200 	udf	#512
	...
    d2e0:	00000001 	udf	#1
    d2e4:	00000001 	udf	#1
    d2e8:	00000200 	udf	#512
    d2ec:	00000003 	udf	#3
    d2f0:	00000280 	udf	#640
    d2f4:	00000000 	udf	#0
    d2f8:	00000002 	udf	#2
    d2fc:	00000002 	udf	#2
    d300:	00000200 	udf	#512
    d304:	00000002 	udf	#2
    d308:	00000380 	udf	#896
    d30c:	00000000 	udf	#0
    d310:	00000003 	udf	#3
    d314:	00000003 	udf	#3
    d318:	00000200 	udf	#512
    d31c:	00000001 	udf	#1
    d320:	000003c0 	udf	#960
    d324:	00000000 	udf	#0
    d328:	00000004 	udf	#4
    d32c:	00000006 	udf	#6
    d330:	00000200 	udf	#512
    d334:	00000001 	udf	#1
    d338:	000003c0 	udf	#960
    d33c:	00000000 	udf	#0
    d340:	00000005 	udf	#5
    d344:	00000007 	udf	#7
    d348:	00000200 	udf	#512
    d34c:	00000001 	udf	#1
    d350:	000003c0 	udf	#960
    d354:	00000000 	udf	#0
    d358:	00000006 	udf	#6
    d35c:	00000008 	udf	#8
    d360:	00000200 	udf	#512
    d364:	00000007 	udf	#7
    d368:	000003c0 	udf	#960
    d36c:	00000000 	udf	#0
    d370:	00000007 	udf	#7
    d374:	0000000c 	udf	#12
    d378:	00000300 	udf	#768
    d37c:	00000008 	udf	#8
    d380:	000003c0 	udf	#960
    d384:	00000000 	udf	#0
    d388:	00000008 	udf	#8
    d38c:	0000000d 	udf	#13
    d390:	00000200 	udf	#512
    d394:	00000001 	udf	#1
    d398:	000003c0 	udf	#960
    d39c:	00000000 	udf	#0
    d3a0:	00000009 	udf	#9
    d3a4:	00000010 	udf	#16
    d3a8:	00000200 	udf	#512
    d3ac:	00000001 	udf	#1
    d3b0:	000003c0 	udf	#960
    d3b4:	00000000 	udf	#0
    d3b8:	0000000a 	udf	#10
    d3bc:	00000012 	udf	#18
    d3c0:	00000300 	udf	#768
    d3c4:	00000001 	udf	#1
    d3c8:	000003f8 	udf	#1016
    d3cc:	00000076 	udf	#118
    d3d0:	0000000b 	udf	#11
    d3d4:	00000006 	udf	#6
    d3d8:	00000200 	udf	#512
    d3dc:	00000008 	udf	#8
    d3e0:	000003c0 	udf	#960
    d3e4:	00000000 	udf	#0
    d3e8:	0000000c 	udf	#12
    d3ec:	00000029 	udf	#41
    d3f0:	00000200 	udf	#512
    d3f4:	00000003 	udf	#3
    d3f8:	00000280 	udf	#640
    d3fc:	00000000 	udf	#0
    d400:	0000000d 	udf	#13
    d404:	00000037 	udf	#55
    d408:	00000200 	udf	#512
    d40c:	00000001 	udf	#1
    d410:	000003c0 	udf	#960
    d414:	00000000 	udf	#0
    d418:	0000000e 	udf	#14
    d41c:	00000008 	udf	#8
    d420:	00000300 	udf	#768
    d424:	00000001 	udf	#1
    d428:	000003f8 	udf	#1016
    d42c:	00000064 	udf	#100
    d430:	0000000f 	udf	#15
    d434:	00000000 	udf	#0
    d438:	00000200 	udf	#512
	...
    d448:	000003e8 	udf	#1000
    d44c:	00000341 	udf	#833
    d450:	00000064 	udf	#100
    d454:	00000050 	udf	#80
    d458:	5f6c6d73 	.inst	0x5f6c6d73 ; undefined
    d45c:	00000061 	udf	#97
	...
    d468:	5f6c6d73 	.inst	0x5f6c6d73 ; undefined
    d46c:	00000062 	udf	#98
	...
    d478:	63656574 	.inst	0x63656574 ; undefined
    d47c:	615f6766 	.inst	0x615f6766 ; undefined
	...
    d488:	63656574 	.inst	0x63656574 ; undefined
    d48c:	625f6766 	.inst	0x625f6766 ; undefined
	...
    d498:	73757274 	.inst	0x73757274 ; undefined
    d49c:	5f736f74 	.inst	0x5f736f74 ; undefined
    d4a0:	00000061 	udf	#97
    d4a4:	00000000 	udf	#0
    d4a8:	73757274 	.inst	0x73757274 ; undefined
    d4ac:	5f736f74 	.inst	0x5f736f74 ; undefined
    d4b0:	00000062 	udf	#98
    d4b4:	00000000 	udf	#0
    d4b8:	6f6f6275 	umlsl2	v21.4s, v19.8h, v15.h[2]
    d4bc:	00615f74 	.inst	0x00615f74 ; undefined
	...
    d4c8:	6f6f6275 	umlsl2	v21.4s, v19.8h, v15.h[2]
    d4cc:	00625f74 	.inst	0x00625f74 ; undefined
	...
    d4d8:	05020800 	orr	z0.d, z0.d, #0x8000000000000000
    d4dc:	08080805 	stxrb	w8, w5, [x0]
    d4e0:	00000b0b 	udf	#2827
    d4e4:	00000800 	udf	#2048
	...
    d4f0:	06040200 	.inst	0x06040200 ; undefined
    d4f4:	00000008 	udf	#8
    d4f8:	04020200 	.inst	0x04020200 ; undefined
    d4fc:	00060604 	.inst	0x00060604 ; undefined
    d500:	020a0406 	.inst	0x020a0406 ; undefined
    d504:	000c0800 	.inst	0x000c0800 ; undefined
    d508:	f300edef 	.inst	0xf300edef ; undefined
    d50c:	00000002 	udf	#2
    d510:	70696863 	adr	x3, 0xe021f
    d514:	20646920 	.inst	0x20646920 ; undefined
    d518:	7000203a 	adr	x26, 0xd91f
    d51c:	2063696d 	.inst	0x2063696d ; undefined
    d520:	3a206469 	.inst	0x3a206469 ; undefined
    d524:	706f0020 	adr	x0, 0xeb52b
    d528:	6e6f6974 	.inst	0x6e6f6974 ; undefined
    d52c:	3a203120 	.inst	0x3a203120 ; undefined
    d530:	706f0020 	adr	x0, 0xeb537
    d534:	6e6f6974 	.inst	0x6e6f6974 ; undefined
    d538:	3a203220 	.inst	0x3a203220 ; undefined
    d53c:	706f0020 	adr	x0, 0xeb543
    d540:	6e6f6974 	.inst	0x6e6f6974 ; undefined
    d544:	3a203320 	.inst	0x3a203320 ; undefined
    d548:	706f0020 	adr	x0, 0xeb54f
    d54c:	6e6f6974 	.inst	0x6e6f6974 ; undefined
    d550:	3a203420 	.inst	0x3a203420 ; undefined
    d554:	706f0020 	adr	x0, 0xeb55b
    d558:	6e6f6974 	.inst	0x6e6f6974 ; undefined
    d55c:	3a203520 	.inst	0x3a203520 ; undefined
    d560:	706f0020 	adr	x0, 0xeb567
    d564:	6e6f6974 	.inst	0x6e6f6974 ; undefined
    d568:	3a203620 	.inst	0x3a203620 ; undefined
    d56c:	64760020 	fmla	z0.h, z1.h, z6.h[6]
    d570:	75706364 	.inst	0x75706364 ; undefined
    d574:	64647600 	.inst	0x64647600 ; undefined
    d578:	65726f63 	fnmls	z3.h, p3/m, z27.h, z18.h
    d57c:	64647600 	.inst	0x64647600 ; undefined
    d580:	006d656d 	.inst	0x006d656d ; undefined
    d584:	6373696d 	.inst	0x6373696d ; undefined
    d588:	45002d00 	.inst	0x45002d00 ; undefined
    d58c:	726f7272 	.inst	0x726f7272 ; undefined
    d590:	7264643a 	.inst	0x7264643a ; undefined
    d594:	32303120 	orr	w0, w9, #0x1fff0000
    d598:	69642034 	ldpsw	x20, x8, [x1, #-224]
    d59c:	6c626173 	ldnp	d19, d24, [x11, #-480]
    d5a0:	0a0d0065 	and	w5, w3, w13
    d5a4:	20502044 	.inst	0x20502044 ; undefined
    d5a8:	0a0d0066 	and	w6, w3, w13
    d5ac:	20502049 	.inst	0x20502049 ; undefined
    d5b0:	0a0d0066 	and	w6, w3, w13
    d5b4:	20746f6e 	.inst	0x20746f6e ; undefined
    d5b8:	6f303432 	ursra	v18.4s, v1.4s, #16
    d5bc:	500a0d00 	adr	x0, 0x2175e
    d5c0:	4900343e 	.inst	0x4900343e ; undefined
    d5c4:	66204e20 	.inst	0x66204e20 ; undefined
    d5c8:	440a0d00 	.inst	0x440a0d00 ; undefined
    d5cc:	66204e20 	.inst	0x66204e20 ; undefined
    d5d0:	4e0a0d00 	dup	v0.8h, w8
    d5d4:	0d00343e 	st3	{v30.b, v31.b, v0.b}[5], [x1]
    d5d8:	000a0d0a 	.inst	0x000a0d0a ; undefined
    d5dc:	6a640a0d 	bics	w13, w16, w4, lsr #2
    d5e0:	20676174 	.inst	0x20676174 ; undefined
    d5e4:	76207277 	.inst	0x76207277 ; undefined
    d5e8:	003a6c61 	.inst	0x003a6c61 ; NYI
    d5ec:	6a640a0d 	bics	w13, w16, w4, lsr #2
    d5f0:	20676174 	.inst	0x20676174 ; undefined
    d5f4:	76206472 	.inst	0x76206472 ; undefined
    d5f8:	003a6c61 	.inst	0x003a6c61 ; NYI
    d5fc:	64640a0d 	.inst	0x64640a0d ; undefined
    d600:	61742072 	.inst	0x61742072 ; undefined
    d604:	74656772 	.inst	0x74656772 ; undefined
    d608:	65726620 	fnmls	z0.h, p1/m, z17.h, z18.h
    d60c:	4d003a71 	st3	{v17.b-v19.b}[14], [x19]
    d610:	0d007a48 	st3	{v8.h-v10.h}[3], [x18]
    d614:	7264640a 	.inst	0x7264640a ; undefined
    d618:	696e6920 	ldpsw	x0, x26, [x9, #-144]
    d61c:	61702074 	.inst	0x61702074 ; undefined
    d620:	21217373 	.inst	0x21217373 ; undefined
    d624:	000a0d21 	.inst	0x000a0d21 ; undefined
    d628:	20306863 	.inst	0x20306863 ; undefined
    d62c:	20007363 	.inst	0x20007363 ; undefined
    d630:	73716474 	.inst	0x73716474 ; undefined
    d634:	20716432 	.inst	0x20716432 ; undefined
    d638:	7370003d 	.inst	0x7370003d ; undefined
    d63c:	0d000a0d 	st1	{v13.b}[2], [x16]
    d640:	4148530a 	.inst	0x4148530a ; undefined
    d644:	354c4b52 	cbnz	w18, 0xa5fac
    d648:	206f7270 	.inst	0x206f7270 ; undefined
    d64c:	20726464 	.inst	0x20726464 ; undefined
    d650:	74696e69 	.inst	0x74696e69 ; undefined
    d654:	0d2e2e2e 	.inst	0x0d2e2e2e ; undefined
    d658:	0a0d000a 	and	w10, w0, w13
    d65c:	76200a0d 	.inst	0x76200a0d ; undefined
    d660:	5f666572 	.inst	0x5f666572 ; undefined
    d664:	5f6a6461 	.inst	0x5f6a6461 ; undefined
    d668:	0a0d0070 	and	w16, w3, w13
    d66c:	70206163 	adr	x3, 0x4e29b
    d670:	73692077 	.inst	0x73692077 ; undefined
    d674:	0d003020 	st3	{v0.b-v2.b}[4], [x1]
    d678:	2072770a 	.inst	0x2072770a ; undefined
    d67c:	69207770 	stgp	x16, x29, [x27, #-1024]
    d680:	00302073 	.inst	0x00302073 ; NYI
    d684:	20726464 	.inst	0x20726464 ; undefined
    d688:	6f747561 	uqshl	v1.2d, v11.2d, #52
    d68c:	74656420 	.inst	0x74656420 ; undefined
    d690:	20746365 	.inst	0x20746365 ; undefined
    d694:	20317363 	.inst	0x20317363 ; undefined
    d698:	61766e75 	.inst	0x61766e75 ; undefined
    d69c:	2164696c 	.inst	0x2164696c ; undefined
    d6a0:	000a2121 	.inst	0x000a2121 ; undefined
    d6a4:	69620a0d 	ldpsw	x13, x2, [x16, #-240]
    d6a8:	66207473 	.inst	0x66207473 ; undefined
    d6ac:	206c6961 	.inst	0x206c6961 ; undefined
    d6b0:	72646461 	.inst	0x72646461 ; undefined
    d6b4:	0a0d003a 	and	w26, w1, w13
    d6b8:	74736962 	.inst	0x74736962 ; undefined
    d6bc:	69616620 	ldpsw	x0, x25, [x17, #-248]
    d6c0:	6164206c 	.inst	0x6164206c ; undefined
    d6c4:	003a6174 	.inst	0x003a6174 ; NYI
    d6c8:	0d002020 	st3	{v0.b-v2.b}[0], [x1]
    d6cc:	7369620a 	.inst	0x7369620a ; undefined
    d6d0:	78652074 	ldeorlh	w5, w20, [x3]
    d6d4:	61642070 	.inst	0x61642070 ; undefined
    d6d8:	003a6174 	.inst	0x003a6174 ; NYI
    d6dc:	69620a0d 	ldpsw	x13, x2, [x16, #-240]
    d6e0:	74207473 	.inst	0x74207473 ; undefined
    d6e4:	20747365 	.inst	0x20747365 ; undefined
    d6e8:	66207369 	.inst	0x66207369 ; undefined
    d6ec:	216c6961 	.inst	0x216c6961 ; undefined
    d6f0:	0d002121 	st3	{v1.b-v3.b}[0], [x9]
    d6f4:	7369620a 	.inst	0x7369620a ; undefined
    d6f8:	65742074 	fmls	z20.h, p0/m, z3.h, z20.h
    d6fc:	69207473 	stgp	x19, x29, [x3, #-1024]
    d700:	61702073 	.inst	0x61702073 ; undefined
    d704:	21217373 	.inst	0x21217373 ; undefined
    d708:	72450021 	.inst	0x72450021 ; undefined
    d70c:	3a726f72 	.inst	0x3a726f72 ; undefined
    d710:	6d617264 	ldp	d4, d28, [x19, #-496]
    d714:	7369625f 	.inst	0x7369625f ; undefined
    d718:	6c615f74 	ldnp	d20, d23, [x27, #-496]
    d71c:	70735f6c 	adr	x12, 0xf430b
    d720:	20656361 	.inst	0x20656361 ; undefined
    d724:	7865203a 	ldeorlh	w5, w26, [x1]
    d728:	74706563 	.inst	0x74706563 ; undefined
    d72c:	6174735f 	.inst	0x6174735f ; undefined
    d730:	3e207472 	.inst	0x3e207472 ; undefined
    d734:	63786520 	.inst	0x63786520 ; undefined
    d738:	5f747065 	sqdmlsl	s5, h3, v4.h[3]
    d73c:	20646e65 	.inst	0x20646e65 ; undefined
    d740:	00202121 	.inst	0x00202121 ; NYI
    d744:	6d617264 	ldp	d4, d28, [x19, #-496]
    d748:	7369625f 	.inst	0x7369625f ; undefined
    d74c:	6c615f74 	ldnp	d20, d23, [x27, #-496]
    d750:	70735f6c 	adr	x12, 0xf433f
    d754:	20656361 	.inst	0x20656361 ; undefined
    d758:	74736962 	.inst	0x74736962 ; undefined
    d75c:	72726520 	.inst	0x72726520 ; undefined
    d760:	0a0d726f 	and	w15, w19, w13, lsl #28
    d764:	530a0d00 	ubfiz	w0, w8, #22, #4
    d768:	206e6163 	.inst	0x206e6163 ; undefined
    d76c:	206c6c61 	.inst	0x206c6c61 ; undefined
    d770:	20726464 	.inst	0x20726464 ; undefined
    d774:	63617073 	.inst	0x63617073 ; undefined
    d778:	74532065 	.inst	0x74532065 ; undefined
    d77c:	21747261 	.inst	0x21747261 ; undefined
    d780:	000a0d21 	.inst	0x000a0d21 ; undefined
    d784:	63530a0d 	.inst	0x63530a0d ; undefined
    d788:	61206e61 	.inst	0x61206e61 ; undefined
    d78c:	64206c6c 	.inst	0x64206c6c ; undefined
    d790:	73207264 	.inst	0x73207264 ; undefined
    d794:	65636170 	fnmls	z16.h, p0/m, z11.h, z3.h
    d798:	646e4520 	.inst	0x646e4520 ; undefined
    d79c:	0a0d2121 	and	w1, w9, w13, lsl #8
    d7a0:	61726400 	.inst	0x61726400 ; undefined
    d7a4:	69625f6d 	ldpsw	x13, x23, [x27, #-240]
    d7a8:	61207473 	.inst	0x61207473 ; undefined
    d7ac:	65206464 	.inst	0x65206464 ; undefined
    d7b0:	76007272 	.inst	0x76007272 ; undefined
    d7b4:	73626464 	.inst	0x73626464 ; undefined
    d7b8:	64760074 	fmla	z20.h, z3.h, z6.h[6]
    d7bc:	61727364 	.inst	0x61727364 ; undefined
    d7c0:	6476006d 	fmla	z13.h, z3.h, z6.h[6]
    d7c4:	6d656d64 	ldp	d4, d27, [x11, #-432]
    d7c8:	64760071 	fmla	z17.h, z3.h, z6.h[6]
    d7cc:	646f6d64 	.inst	0x646f6d64 ; undefined
    d7d0:	76006d65 	.inst	0x76006d65 ; undefined
    d7d4:	65676464 	fnmls	z4.h, p1/m, z3.h, z7.h
    d7d8:	7600306e 	.inst	0x7600306e ; undefined
    d7dc:	65676464 	fnmls	z4.h, p1/m, z3.h, z7.h
    d7e0:	7600316e 	.inst	0x7600316e ; undefined
    d7e4:	70676464 	adr	x4, 0xdc473
    d7e8:	64760075 	fmla	z21.h, z3.h, z6.h[6]
    d7ec:	63647364 	.inst	0x63647364 ; undefined
    d7f0:	0065726f 	.inst	0x0065726f ; undefined
    d7f4:	73646476 	.inst	0x73646476 ; undefined
    d7f8:	006f6964 	.inst	0x006f6964 ; undefined
    d7fc:	33323130 	.inst	0x33323130 ; undefined
    d800:	37363534 	tbnz	w20, #6, 0x9ea4
    d804:	42413938 	.inst	0x42413938 ; undefined
    d808:	46454443 	.inst	0x46454443 ; undefined
    d80c:	4a494847 	eor	w7, w2, w9, lsr #18
    d810:	4e4d4c4b 	.inst	0x4e4d4c4b ; undefined
    d814:	5251504f 	.inst	0x5251504f ; undefined
    d818:	56555453 	.inst	0x56555453 ; undefined
    d81c:	5a595857 	.inst	0x5a595857 ; undefined
    d820:	32313000 	orr	w0, w0, #0xfff8000
    d824:	36353433 	tbz	w19, #6, 0x7ea8
    d828:	61393837 	.inst	0x61393837 ; undefined
    d82c:	65646362 	fnmls	z2.h, p0/m, z27.h, z4.h
    d830:	69686766 	ldpsw	x6, x25, [x27, #-192]
    d834:	6d6c6b6a 	ldp	d10, d26, [x27, #-320]
    d838:	71706f6e 	subs	w14, w27, #0xc1b, lsl #12
    d83c:	75747372 	.inst	0x75747372 ; undefined
    d840:	79787776 	ldrh	w22, [x27, #7226]
    d844:	0a0d007a 	and	w26, w3, w13
    d848:	645f7369 	fcmla	z9.h, p4/m, z27.h, z31.h, #270
    d84c:	6f747365 	fcmla	v5.8h, v27.8h, v20.h[1], #270
    d850:	64656972 	.inst	0x64656972 ; undefined
    d854:	6c70735f 	ldnp	d31, d28, [x26, #-256]
    d858:	5f6f745f 	sqshl	d31, d2, #47
    d85c:	61706572 	.inst	0x61706572 ; undefined
    d860:	74207269 	.inst	0x74207269 ; undefined
    d864:	0a657572 	bic	w18, w11, w5, lsr #29
    d868:	65740020 	fmla	z0.h, p0/m, z1.h, z20.h
    d86c:	6d735f65 	ldp	d5, d23, [x27, #-208]
    d870:	64615f6c 	.inst	0x64615f6c ; undefined
    d874:	67007264 	.inst	0x67007264 ; undefined
    d878:	73207465 	.inst	0x73207465 ; undefined
    d87c:	742f6c6d 	.inst	0x742f6c6d ; undefined
    d880:	6120736f 	.inst	0x6120736f ; undefined
    d884:	20726464 	.inst	0x20726464 ; undefined
    d888:	6f727265 	fcmla	v5.8h, v19.8h, v18.h[1], #270
    d88c:	000a2172 	.inst	0x000a2172 ; undefined
    d890:	5f656574 	.inst	0x5f656574 ; undefined
    d894:	5f736f74 	.inst	0x5f736f74 ; undefined
    d898:	72646461 	.inst	0x72646461 ; undefined
    d89c:	65657400 	fnmls	z0.h, p5/m, z0.h, z5.h
    d8a0:	6c6d735f 	ldnp	d31, d28, [x26, #-304]
    d8a4:	7a69735f 	.inst	0x7a69735f ; undefined
    d8a8:	65670065 	fmla	z5.h, p0/m, z3.h, z7.h
    d8ac:	6d732074 	ldp	d20, d8, [x3, #-208]
    d8b0:	6f742f6c 	.inst	0x6f742f6c ; undefined
    d8b4:	69732073 	ldpsw	x19, x8, [x3, #-104]
    d8b8:	6520657a 	.inst	0x6520657a ; undefined
    d8bc:	726f7272 	.inst	0x726f7272 ; undefined
    d8c0:	74000a21 	.inst	0x74000a21 ; undefined
    d8c4:	745f6565 	.inst	0x745f6565 ; undefined
    d8c8:	735f736f 	.inst	0x735f736f ; undefined
    d8cc:	00657a69 	.inst	0x00657a69 ; undefined
    d8d0:	5f454554 	.inst	0x5f454554 ; undefined
    d8d4:	464e4f43 	.inst	0x464e4f43 ; undefined
    d8d8:	485f4749 	ldxrh	w9, [x26]
    d8dc:	45444145 	saddwb	z5.h, z10.h, z4.b
    d8e0:	65740052 	fmla	z18.h, p0/m, z2.h, z20.h
    d8e4:	67666365 	.inst	0x67666365 ; undefined
    d8e8:	67616d20 	.inst	0x67616d20 ; undefined
    d8ec:	65206369 	.inst	0x65206369 ; undefined
    d8f0:	0a217272 	bic	w18, w19, w1, lsl #28
    d8f4:	ffffff00 	.inst	0xffffff00 ; undefined
	...
    d904:	00000404 	udf	#1028
	...
    d914:	00000606 	udf	#1542
	...
    d924:	00000606 	udf	#1542
	...
    d934:	00000707 	udf	#1799
    d938:	520e0d02 	eor	w2, w8, #0x3c0000
    d93c:	0b050b05 	add	w5, w24, w5, lsl #2
    d940:	163e0e11 	b	0xfffffffff8f91184
    d944:	00000000 	udf	#0
    d948:	72100f03 	ands	w3, w24, #0xf0000
    d94c:	0b050b05 	add	w5, w24, w5, lsl #2
    d950:	163e0e11 	b	0xfffffffff8f91194
    d954:	00000000 	udf	#0
    d958:	73131104 	.inst	0x73131104 ; undefined
    d95c:	0b050b05 	add	w5, w24, w5, lsl #2
    d960:	163e0e11 	b	0xfffffffff8f911a4
    d964:	00000000 	udf	#0
    d968:	84161405 	ld1sb	{z5.s}, p5/z, [x0, z22.s, uxtw]
    d96c:	0b000b00 	add	w0, w24, w0, lsl #2
    d970:	163d0e5d 	b	0xfffffffff8f512e4
    d974:	00000000 	udf	#0
    d978:	80400008 	.inst	0x80400008 ; undefined
    d97c:	28465066 	ldnp	w6, w20, [x3, #48]
    d980:	0000007c 	udf	#124
    d984:	0000007f 	udf	#127
    d988:	01100008 	.inst	0x01100008 ; undefined
    d98c:	000a003e 	.inst	0x000a003e ; undefined
    d990:	80400008 	.inst	0x80400008 ; undefined
    d994:	28465066 	ldnp	w6, w20, [x3, #48]
    d998:	000001fc 	udf	#508
    d99c:	000001ff 	udf	#511
    d9a0:	00110020 	.inst	0x00110020 ; undefined
    d9a4:	000a00fe 	.inst	0x000a00fe ; undefined
    d9a8:	80400008 	.inst	0x80400008 ; undefined
    d9ac:	28465066 	ldnp	w6, w20, [x3, #48]
    d9b0:	000001fc 	udf	#508
    d9b4:	000001ff 	udf	#511
    d9b8:	00110020 	.inst	0x00110020 ; undefined
    d9bc:	000a00fe 	.inst	0x000a00fe ; undefined
    d9c0:	80400008 	.inst	0x80400008 ; undefined
    d9c4:	28465066 	ldnp	w6, w20, [x3, #48]
    d9c8:	000003fc 	udf	#1020
    d9cc:	000003ff 	udf	#1023
    d9d0:	00110040 	.inst	0x00110040 ; undefined
    d9d4:	000a01fe 	.inst	0x000a01fe ; undefined
    d9d8:	80400004 	.inst	0x80400004 ; undefined
    d9dc:	0a465066 	and	w6, w3, w6, lsr #20
	...
    d9f0:	80400010 	.inst	0x80400010 ; undefined
    d9f4:	0a465066 	and	w6, w3, w6, lsr #20
	...
    da08:	80400010 	.inst	0x80400010 ; undefined
    da0c:	0a465066 	and	w6, w3, w6, lsr #20
	...
    da20:	80400010 	.inst	0x80400010 ; undefined
    da24:	50700066 	adr	x6, 0xeda32
	...
    da38:	000006e8 	udf	#1768
    da3c:	00000728 	udf	#1832
    da40:	000007c8 	udf	#1992
    da44:	000007dc 	udf	#2012
    da48:	00000768 	udf	#1896
    da4c:	000007a8 	udf	#1960
    da50:	000007f0 	udf	#2032
    da54:	00000804 	udf	#2052
    da58:	0000ffff 	udf	#65535
    da5c:	0000ffff 	udf	#65535
    da60:	ffff0000 	.inst	0xffff0000 ; undefined
    da64:	ffff0000 	.inst	0xffff0000 ; undefined
    da68:	0000ffff 	udf	#65535
    da6c:	0000ffff 	udf	#65535
    da70:	ffff0000 	.inst	0xffff0000 ; undefined
    da74:	ffff0000 	.inst	0xffff0000 ; undefined
    da78:	000006e0 	udf	#1760
    da7c:	00000720 	udf	#1824
    da80:	000007c0 	udf	#1984
    da84:	000007d4 	udf	#2004
    da88:	00000760 	udf	#1888
    da8c:	000007a0 	udf	#1952
    da90:	000007e8 	udf	#2024
    da94:	000007fc 	udf	#2044
    da98:	aaaa5555 	orn	x21, x10, x10, asr #21
    da9c:	aaaa5555 	orn	x21, x10, x10, asr #21
    daa0:	5555aaaa 	.inst	0x5555aaaa ; undefined
    daa4:	5555aaaa 	.inst	0x5555aaaa ; undefined
    daa8:	55555555 	.inst	0x55555555 ; undefined
    daac:	aaaaaaaa 	orn	x10, x21, x10, asr #42
    dab0:	aaaaaaaa 	orn	x10, x21, x10, asr #42
    dab4:	55555555 	.inst	0x55555555 ; undefined
    dab8:	00680064 	.inst	0x00680064 ; undefined
    dabc:	008c006c 	.inst	0x008c006c ; undefined
    dac0:	00cc00ac 	.inst	0x00cc00ac ; undefined
	...
    dacc:	ffffffff 	.inst	0xffffffff ; undefined
    dad0:	00000000 	udf	#0
    dad4:	ffffffff 	.inst	0xffffffff ; undefined
    dad8:	55555555 	.inst	0x55555555 ; undefined
    dadc:	aaaaaaaa 	orn	x10, x21, x10, asr #42
    dae0:	55555555 	.inst	0x55555555 ; undefined
    dae4:	aaaaaaaa 	orn	x10, x21, x10, asr #42
    dae8:	310016e0 	adds	w0, w23, #0x5
    daec:	310016e4 	adds	w4, w23, #0x5
    daf0:	310016f0 	adds	w16, w23, #0x5
    daf4:	31001720 	adds	w0, w25, #0x5
    daf8:	31001724 	adds	w4, w25, #0x5
    dafc:	31001730 	adds	w16, w25, #0x5
    db00:	310017c0 	adds	w0, w30, #0x5
    db04:	310017c4 	adds	w4, w30, #0x5
    db08:	310017d0 	adds	w16, w30, #0x5
    db0c:	310017d4 	adds	w20, w30, #0x5
    db10:	310017d8 	adds	w24, w30, #0x5
    db14:	310017e4 	adds	w4, wsp, #0x5
    db18:	31001760 	adds	w0, w27, #0x5
    db1c:	31001764 	adds	w4, w27, #0x5
    db20:	31001770 	adds	w16, w27, #0x5
    db24:	310017a0 	adds	w0, w29, #0x5
    db28:	310017a4 	adds	w4, w29, #0x5
    db2c:	310017b0 	adds	w16, w29, #0x5
    db30:	310017e8 	adds	w8, wsp, #0x5
    db34:	310017ec 	adds	w12, wsp, #0x5
    db38:	310017f8 	adds	w24, wsp, #0x5
    db3c:	310017fc 	adds	w28, wsp, #0x5
    db40:	31001800 	adds	w0, w0, #0x6
    db44:	3100180c 	adds	w12, w0, #0x6
    db48:	00000004 	udf	#4
    db4c:	00000000 	udf	#0
    db50:	00000033 	udf	#51
    db54:	0000003e 	udf	#62
    db58:	42040303 	.inst	0x42040303 ; undefined
    db5c:	22080402 	.inst	0x22080402 ; undefined
    db60:	0d082022 	.inst	0x0d082022 ; undefined
    db64:	23040507 	.inst	0x23040507 ; undefined
    db68:	22431403 	.inst	0x22431403 ; undefined
    db6c:	00000304 	udf	#772
    db70:	00000505 	udf	#1285
    db74:	000d0200 	.inst	0x000d0200 ; undefined
    db78:	50810100 	adr	x0, 0xfffffffffff0fb9a
    db7c:	00030200 	.inst	0x00030200 ; undefined
    db80:	15040002 	b	0x410db88
    db84:	0b000b00 	add	w0, w24, w0, lsl #2
    db88:	163e0e5d 	b	0xfffffffff8f914fc
    db8c:	01040200 	.inst	0x01040200 ; undefined
    db90:	0d080c5d 	.inst	0x0d080c5d ; undefined
    db94:	01040200 	.inst	0x01040200 ; undefined
    db98:	0d000104 	st1	{v4.b}[0], [x8]
    db9c:	00000000 	udf	#0
    dba0:	000d0383 	.inst	0x000d0383 ; undefined
    dba4:	ffffffff 	.inst	0xffffffff ; undefined
    dba8:	00000014 	udf	#20
    dbac:	00000009 	udf	#9
    dbb0:	00000033 	udf	#51
    dbb4:	0000003e 	udf	#62
    dbb8:	42050404 	.inst	0x42050404 ; undefined
    dbbc:	22090502 	.inst	0x22090502 ; undefined
    dbc0:	13102829 	sbfiz	w9, w1, #16, #11
    dbc4:	3304080a 	bfi	w10, w0, #28, #3
    dbc8:	22431504 	.inst	0x22431504 ; undefined
    dbcc:	00000405 	udf	#1029
    dbd0:	00000707 	udf	#1799
    dbd4:	00150300 	.inst	0x00150300 ; undefined
    dbd8:	50c10100 	adr	x0, 0xfffffffffff8fbfa
    dbdc:	00030300 	.inst	0x00030300 ; undefined
    dbe0:	15060002 	b	0x418dbe8
    dbe4:	0b000b00 	add	w0, w24, w0, lsl #2
    dbe8:	163e0e5d 	b	0xfffffffff8f9155c
    dbec:	01140209 	.inst	0x01140209 ; undefined
    dbf0:	0d080c5d 	.inst	0x0d080c5d ; undefined
    dbf4:	01140209 	.inst	0x01140209 ; undefined
    dbf8:	0d000114 	st1	{v20.b}[0], [x8]
    dbfc:	00000000 	udf	#0
    dc00:	000d0383 	.inst	0x000d0383 ; undefined
    dc04:	ffffffff 	.inst	0xffffffff ; undefined
    dc08:	00000014 	udf	#20
    dc0c:	00000009 	udf	#9
    dc10:	00000033 	udf	#51
    dc14:	0000003e 	udf	#62
    dc18:	43060505 	.inst	0x43060505 ; undefined
    dc1c:	22090602 	.inst	0x22090602 ; undefined
    dc20:	19163030 	stlurb	w16, [x1, #-157]
    dc24:	43040a0d 	.inst	0x43040a0d ; undefined
    dc28:	22431504 	.inst	0x22431504 ; undefined
    dc2c:	00000405 	udf	#1029
    dc30:	00000707 	udf	#1799
    dc34:	001b0400 	.inst	0x001b0400 ; undefined
    dc38:	51010100 	sub	w0, w8, #0x40
    dc3c:	00030400 	.inst	0x00030400 ; undefined
    dc40:	15080002 	b	0x420dc48
    dc44:	0b000b00 	add	w0, w24, w0, lsl #2
    dc48:	163e0e5d 	b	0xfffffffff8f915bc
    dc4c:	01140209 	.inst	0x01140209 ; undefined
    dc50:	0d080c5d 	.inst	0x0d080c5d ; undefined
    dc54:	01140209 	.inst	0x01140209 ; undefined
    dc58:	0d000114 	st1	{v20.b}[0], [x8]
    dc5c:	00000000 	udf	#0
    dc60:	000d0383 	.inst	0x000d0383 ; undefined
    dc64:	ffffffff 	.inst	0xffffffff ; undefined
    dc68:	00000024 	udf	#36
    dc6c:	00000012 	udf	#18
    dc70:	00000033 	udf	#51
    dc74:	0000003e 	udf	#62
    dc78:	450a0808 	.inst	0x450a0808 ; undefined
    dc7c:	220b0802 	.inst	0x220b0802 ; undefined
    dc80:	24223c48 	cmplo	p8.b, p7/z, z2.b, #8
    dc84:	63050f13 	.inst	0x63050f13 ; undefined
    dc88:	22431504 	.inst	0x22431504 ; undefined
    dc8c:	00000405 	udf	#1029
    dc90:	00000908 	udf	#2312
    dc94:	00270600 	.inst	0x00270600 ; NYI
    dc98:	11810100 	.inst	0x11810100 ; undefined
    dc9c:	00030600 	.inst	0x00030600 ; undefined
    dca0:	150c0002 	b	0x430dca8
    dca4:	0b000b00 	add	w0, w24, w0, lsl #2
    dca8:	163e0e5d 	b	0xfffffffff8f9161c
    dcac:	01240212 	.inst	0x01240212 ; undefined
    dcb0:	0d080c5d 	.inst	0x0d080c5d ; undefined
    dcb4:	01240212 	.inst	0x01240212 ; undefined
    dcb8:	0d000124 	st1	{v4.b}[0], [x9]
    dcbc:	00000000 	udf	#0
    dcc0:	000d0383 	.inst	0x000d0383 ; undefined
    dcc4:	ffffffff 	.inst	0xffffffff ; undefined
    dcc8:	00000034 	udf	#52
    dccc:	0000001b 	udf	#27
    dcd0:	00000033 	udf	#51
    dcd4:	0000003e 	udf	#62
    dcd8:	460c0a0a 	.inst	0x460c0a0a ; undefined
    dcdc:	520e0d02 	eor	w2, w8, #0x3c0000
    dce0:	302d4c60 	adr	x0, 0x6866d
    dce4:	84071418 	ld1sb	{z24.s}, p5/z, [x0, z7.s, uxtw]
    dce8:	22531605 	.inst	0x22531605 ; undefined
    dcec:	00000406 	udf	#1030
    dcf0:	00000b0a 	udf	#2826
    dcf4:	00350800 	.inst	0x00350800 ; NYI
    dcf8:	12010100 	and	w0, w8, #0x80000000
    dcfc:	00030690 	.inst	0x00030690 ; undefined
    dd00:	15100002 	b	0x440dd08
    dd04:	0b000b00 	add	w0, w24, w0, lsl #2
    dd08:	163d0e5d 	b	0xfffffffff8f5167c
    dd0c:	0134021b 	.inst	0x0134021b ; undefined
    dd10:	0d080c5d 	.inst	0x0d080c5d ; undefined
    dd14:	0134021b 	.inst	0x0134021b ; undefined
    dd18:	0d000134 	st1	{v20.b}[0], [x9]
    dd1c:	00000000 	udf	#0
    dd20:	000d0383 	.inst	0x000d0383 ; undefined
    dd24:	ffffffff 	.inst	0xffffffff ; undefined
    dd28:	00000044 	udf	#68
    dd2c:	00000024 	udf	#36
    dd30:	00000033 	udf	#51
    dd34:	0000003d 	udf	#61
    dd38:	48100d0d 	stxrh	w16, w13, [x8]
    dd3c:	72100f03 	ands	w3, w24, #0xf0000
    dd40:	3d3b5c7d 	str	b29, [x3, #3799]
    dd44:	a5091b1f 	ld1rqw	{z31.s}, p6/z, [x24, x9, lsl #2]
    dd48:	22631706 	.inst	0x22631706 ; undefined
    dd4c:	00000407 	udf	#1031
    dd50:	00000d0c 	udf	#3340
    dd54:	00430a6a 	.inst	0x00430a6a ; undefined
    dd58:	229c0100 	.inst	0x229c0100 ; undefined
    dd5c:	00030a70 	.inst	0x00030a70 ; undefined
    dd60:	15140002 	b	0x450dd68
    dd64:	0b000b00 	add	w0, w24, w0, lsl #2
    dd68:	163d0e5d 	b	0xfffffffff8f516dc
    dd6c:	01440224 	.inst	0x01440224 ; undefined
    dd70:	0d080c5d 	.inst	0x0d080c5d ; undefined
    dd74:	01440224 	.inst	0x01440224 ; undefined
    dd78:	0d000144 	st1	{v4.b}[0], [x10]
    dd7c:	00000000 	udf	#0
    dd80:	000d0383 	.inst	0x000d0383 ; undefined
    dd84:	ffffffff 	.inst	0xffffffff ; undefined
    dd88:	00000054 	udf	#84
    dd8c:	0000002d 	udf	#45
    dd90:	00000033 	udf	#51
    dd94:	00000035 	udf	#53
    dd98:	49120f0f 	.inst	0x49120f0f ; undefined
    dd9c:	73131104 	.inst	0x73131104 ; undefined
    dda0:	47446890 	.inst	0x47446890 ; undefined
    dda4:	c60a1f23 	.inst	0xc60a1f23 ; undefined
    dda8:	22731807 	.inst	0x22731807 ; undefined
    ddac:	00000508 	udf	#1288
    ddb0:	0000100e 	udf	#4110
    ddb4:	004f0c00 	.inst	0x004f0c00 ; undefined
    ddb8:	2301011f 	.inst	0x2301011f ; undefined
    ddbc:	00030c00 	.inst	0x00030c00 ; undefined
    ddc0:	15180002 	b	0x460ddc8
    ddc4:	0b000b00 	add	w0, w24, w0, lsl #2
    ddc8:	163d0e5d 	b	0xfffffffff8f5173c
    ddcc:	0154022d 	.inst	0x0154022d ; undefined
    ddd0:	0d080c5d 	.inst	0x0d080c5d ; undefined
    ddd4:	0154022d 	.inst	0x0154022d ; undefined
    ddd8:	0d000154 	st1	{v20.b}[0], [x10]
    dddc:	00000000 	udf	#0
    dde0:	000d0383 	.inst	0x000d0383 ; undefined
    dde4:	ffffffff 	.inst	0xffffffff ; undefined
    dde8:	00000064 	udf	#100
    ddec:	00000036 	udf	#54
    ddf0:	00000033 	udf	#51
    ddf4:	00000035 	udf	#53
    ddf8:	4b161313 	sub	w19, w24, w22, lsl #4
    ddfc:	84161405 	ld1sb	{z5.s}, p5/z, [x0, z22.s, uxtw]
    de00:	555378af 	.inst	0x555378af ; undefined
    de04:	e70d252b 	.inst	0xe70d252b ; undefined
    de08:	22831908 	.inst	0x22831908 ; undefined
    de0c:	00000509 	udf	#1289
    de10:	00001210 	udf	#4624
    de14:	005f0e94 	.inst	0x005f0e94 ; undefined
    de18:	23a6011f 	.inst	0x23a6011f ; undefined
    de1c:	00030ea0 	.inst	0x00030ea0 ; undefined
    de20:	151c0002 	b	0x470de28
    de24:	0b000b00 	add	w0, w24, w0, lsl #2
    de28:	163d0e5d 	b	0xfffffffff8f5179c
    de2c:	01640236 	.inst	0x01640236 ; undefined
    de30:	0d080c5d 	.inst	0x0d080c5d ; undefined
    de34:	01640236 	.inst	0x01640236 ; undefined
    de38:	0d000164 	st1	{v4.b}[0], [x11]
    de3c:	00000000 	udf	#0
    de40:	000d0383 	.inst	0x000d0383 ; undefined
    de44:	ffffffff 	.inst	0xffffffff ; undefined
    de48:	00000100 	udf	#256
    de4c:	00000000 	udf	#0
    de50:	00000044 	udf	#68
    de54:	00000000 	udf	#0
    de58:	00000009 	udf	#9
    de5c:	00000001 	udf	#1
    de60:	00000180 	udf	#384
    de64:	00000001 	udf	#1
    de68:	00000045 	udf	#69
    de6c:	00000000 	udf	#0
    de70:	00000009 	udf	#9
    de74:	00000001 	udf	#1
    de78:	00000200 	udf	#512
    de7c:	00000002 	udf	#2
    de80:	00000044 	udf	#68
    de84:	00000001 	udf	#1
    de88:	00000004 	udf	#4
    de8c:	00000001 	udf	#1
    de90:	00000300 	udf	#768
    de94:	00000003 	udf	#3
    de98:	00000043 	udf	#67
    de9c:	00000001 	udf	#1
	...
    dea8:	00000400 	udf	#1024
    deac:	00000004 	udf	#4
    deb0:	00000044 	udf	#68
    deb4:	00000001 	udf	#1
	...
    dec0:	00000535 	udf	#1333
    dec4:	00000005 	udf	#5
    dec8:	00000008 	udf	#8
    decc:	00000001 	udf	#1
	...
    ded8:	00000600 	udf	#1536
    dedc:	00000006 	udf	#6
    dee0:	00000045 	udf	#69
    dee4:	00000001 	udf	#1
	...
    def0:	0000074a 	udf	#1866
    def4:	00000007 	udf	#7
    def8:	00000008 	udf	#8
    defc:	00000001 	udf	#1
	...
    df08:	0a070022 	and	w2, w1, w7
    df0c:	0e0b0029 	tbl	v9.8b, {v1.16b}, v11.8b
    df10:	120e002f 	and	w15, w1, #0x40000
    df14:	1a16003e 	adc	w30, w1, w22
    df18:	231e0053 	.inst	0x231e0053 ; undefined
    df1c:	2d27006a 	stp	s10, s0, [x3, #-200]
    df20:	332d007a 	.inst	0x332d007a ; undefined
    df24:	3e370095 	.inst	0x3e370095 ; undefined
    df28:	0d0b0022 	.inst	0x0d0b0022 ; undefined
    df2c:	13100029 	sbfiz	w9, w1, #16, #1
    df30:	19160030 	stlurb	w16, [x1, #-160]
    df34:	24220048 	cmphs	p8.b, p0/z, z2.b, #8
    df38:	302d0060 	adr	x0, 0x67f45
    df3c:	3d3b007d 	str	b29, [x3, #3776]
    df40:	47440090 	.inst	0x47440090 ; undefined
    df44:	555300af 	.inst	0x555300af ; undefined
    df48:	13110025 	sbfiz	w5, w1, #15, #1
    df4c:	1c1a0038 	ldr	s24, 0x41f50
    df50:	2523004a 	whilege	p10.b, w2, w3
    df54:	3735006f 	tbnz	w15, #6, 0x7f60
    df58:	49470094 	.inst	0x49470094 ; undefined
    df5c:	5f5c00c0 	.inst	0x5f5c00c0 ; undefined
    df60:	6d6b00dd 	ldp	d29, d0, [x6, #-336]
    df64:	8482010d 	ld1sh	{z13.s}, p0/z, [x8, z2.s, uxtw]
    df68:	1a170032 	adc	w18, w1, w23
    df6c:	2623004b 	.inst	0x2623004b ; undefined
    df70:	32300064 	orr	w4, w3, #0x10000
    df74:	4a480095 	eor	w21, w4, w8, lsr #0
    df78:	636000c7 	.inst	0x636000c7 ; undefined
    df7c:	807e0103 	.inst	0x807e0103 ; undefined
    df80:	9391012a 	.inst	0x9391012a ; undefined
    df84:	b3b0016a 	.inst	0xb3b0016a ; undefined
    df88:	10070012 	adr	x18, 0x1bf88
    df8c:	180b001b 	ldr	w27, 0x23f8c
    df90:	210e0024 	.inst	0x210e0024 ; undefined
    df94:	3812002c 	sturb	w12, [x1, #-224]
    df98:	31160036 	adds	w22, w1, #0x580
    df9c:	3c1b0042 	stur	b2, [x2, #-80]
    dfa0:	1a0b001d 	adc	w29, w0, w11
    dfa4:	2810002b 	stnp	w11, w0, [x1, #128]
    dfa8:	35160039 	cbnz	w25, 0x39fac
    dfac:	411b0045 	.inst	0x411b0045 ; undefined
    dfb0:	50220055 	adr	x21, 0x51fba
    dfb4:	61290067 	.inst	0x61290067 ; undefined
    dfb8:	00000100 	udf	#256
    dfbc:	00000000 	udf	#0
    dfc0:	6800001e 	.inst	0x6800001e ; undefined
    dfc4:	0000007c 	udf	#124
    dfc8:	0000003c 	udf	#60
    dfcc:	0000007f 	udf	#127
    dfd0:	00000018 	udf	#24
    dfd4:	0020003c 	.inst	0x0020003c ; NYI
    dfd8:	01100008 	.inst	0x01100008 ; undefined
    dfdc:	00000000 	udf	#0
    dfe0:	2008901d 	.inst	0x2008901d ; undefined
    dfe4:	80008040 	.inst	0x80008040 ; undefined
    dfe8:	80008040 	.inst	0x80008040 ; undefined
    dfec:	80008040 	.inst	0x80008040 ; undefined
    dff0:	80000040 	.inst	0x80000040 ; undefined
    dff4:	80000040 	.inst	0x80000040 ; undefined
    dff8:	20000000 	.inst	0x20000000 ; undefined
    dffc:	00000000 	udf	#0
    e000:	80008040 	.inst	0x80008040 ; undefined
    e004:	80000040 	.inst	0x80000040 ; undefined
    e008:	80000040 	.inst	0x80000040 ; undefined
	...
    e014:	80008040 	.inst	0x80008040 ; undefined
    e018:	80000040 	.inst	0x80000040 ; undefined
    e01c:	80000040 	.inst	0x80000040 ; undefined
	...
    e028:	80008040 	.inst	0x80008040 ; undefined
    e02c:	80000040 	.inst	0x80000040 ; undefined
    e030:	80000040 	.inst	0x80000040 ; undefined
	...
    e03c:	00103140 	.inst	0x00103140 ; undefined
    e040:	00409000 	.inst	0x00409000 ; undefined
    e044:	50300066 	adr	x6, 0x6e052
    e048:	00000180 	udf	#384
    e04c:	00000000 	udf	#0
    e050:	6800001e 	.inst	0x6800001e ; undefined
    e054:	000000fc 	udf	#252
    e058:	0000003c 	udf	#60
    e05c:	000000ff 	udf	#255
    e060:	00000018 	udf	#24
    e064:	0020007c 	.inst	0x0020007c ; NYI
    e068:	01100010 	.inst	0x01100010 ; undefined
    e06c:	00000000 	udf	#0
    e070:	2008901d 	.inst	0x2008901d ; undefined
    e074:	80008040 	.inst	0x80008040 ; undefined
    e078:	80008040 	.inst	0x80008040 ; undefined
    e07c:	80008040 	.inst	0x80008040 ; undefined
    e080:	80000040 	.inst	0x80000040 ; undefined
    e084:	80000040 	.inst	0x80000040 ; undefined
    e088:	20000000 	.inst	0x20000000 ; undefined
    e08c:	00000000 	udf	#0
    e090:	80008040 	.inst	0x80008040 ; undefined
    e094:	80000040 	.inst	0x80000040 ; undefined
    e098:	80000040 	.inst	0x80000040 ; undefined
	...
    e0a4:	80008040 	.inst	0x80008040 ; undefined
    e0a8:	80000040 	.inst	0x80000040 ; undefined
    e0ac:	80000040 	.inst	0x80000040 ; undefined
	...
    e0b8:	80008040 	.inst	0x80008040 ; undefined
    e0bc:	80000040 	.inst	0x80000040 ; undefined
    e0c0:	80000040 	.inst	0x80000040 ; undefined
	...
    e0cc:	00107140 	.inst	0x00107140 ; undefined
    e0d0:	0040d000 	.inst	0x0040d000 ; undefined
    e0d4:	50300066 	adr	x6, 0x6e0e2
    e0d8:	00000200 	udf	#512
    e0dc:	01010010 	.inst	0x01010010 ; undefined
    e0e0:	6800000f 	.inst	0x6800000f ; undefined
    e0e4:	000001fe 	udf	#510
    e0e8:	0000001e 	udf	#30
    e0ec:	000001ff 	udf	#511
    e0f0:	0000000c 	udf	#12
    e0f4:	002001f0 	.inst	0x002001f0 ; NYI
    e0f8:	01100020 	.inst	0x01100020 ; undefined
    e0fc:	00000000 	udf	#0
    e100:	14089014 	b	0x232150
    e104:	80008020 	.inst	0x80008020 ; undefined
    e108:	80008020 	.inst	0x80008020 ; undefined
    e10c:	8000802c 	.inst	0x8000802c ; undefined
    e110:	80000020 	.inst	0x80000020 ; undefined
    e114:	80000020 	.inst	0x80000020 ; undefined
    e118:	a0000000 	.inst	0xa0000000 ; undefined
    e11c:	00000000 	udf	#0
    e120:	8000802c 	.inst	0x8000802c ; undefined
    e124:	80000020 	.inst	0x80000020 ; undefined
    e128:	80000020 	.inst	0x80000020 ; undefined
    e12c:	80000000 	.inst	0x80000000 ; undefined
    e130:	00000000 	udf	#0
    e134:	8000802c 	.inst	0x8000802c ; undefined
    e138:	80000020 	.inst	0x80000020 ; undefined
    e13c:	80000020 	.inst	0x80000020 ; undefined
    e140:	80000000 	.inst	0x80000000 ; undefined
    e144:	00000000 	udf	#0
    e148:	8000802c 	.inst	0x8000802c ; undefined
    e14c:	80000020 	.inst	0x80000020 ; undefined
    e150:	80000020 	.inst	0x80000020 ; undefined
    e154:	80000000 	.inst	0x80000000 ; undefined
    e158:	00000000 	udf	#0
    e15c:	00107140 	.inst	0x00107140 ; undefined
    e160:	00411010 	.inst	0x00411010 ; undefined
    e164:	50300066 	adr	x6, 0x6e172
    e168:	0000026e 	udf	#622
    e16c:	01010010 	.inst	0x01010010 ; undefined
    e170:	0800000f 	stxrb	w0, w15, [x0]
    e174:	000003fe 	udf	#1022
    e178:	0000000f 	udf	#15
    e17c:	000003ff 	udf	#1023
    e180:	0000000c 	udf	#12
    e184:	002003f0 	.inst	0x002003f0 ; NYI
    e188:	01100020 	.inst	0x01100020 ; undefined
    e18c:	00000000 	udf	#0
    e190:	10089014 	adr	x20, 0x1f390
    e194:	80008020 	.inst	0x80008020 ; undefined
    e198:	80008020 	.inst	0x80008020 ; undefined
    e19c:	80008028 	.inst	0x80008028 ; undefined
    e1a0:	80000020 	.inst	0x80000020 ; undefined
    e1a4:	80000020 	.inst	0x80000020 ; undefined
    e1a8:	a0000000 	.inst	0xa0000000 ; undefined
    e1ac:	00000000 	udf	#0
    e1b0:	80008028 	.inst	0x80008028 ; undefined
    e1b4:	80000020 	.inst	0x80000020 ; undefined
    e1b8:	80000020 	.inst	0x80000020 ; undefined
    e1bc:	80000000 	.inst	0x80000000 ; undefined
    e1c0:	00000000 	udf	#0
    e1c4:	80008028 	.inst	0x80008028 ; undefined
    e1c8:	80000020 	.inst	0x80000020 ; undefined
    e1cc:	80000020 	.inst	0x80000020 ; undefined
    e1d0:	80000000 	.inst	0x80000000 ; undefined
    e1d4:	00000000 	udf	#0
    e1d8:	80008028 	.inst	0x80008028 ; undefined
    e1dc:	80000020 	.inst	0x80000020 ; undefined
    e1e0:	80000020 	.inst	0x80000020 ; undefined
    e1e4:	80000000 	.inst	0x80000000 ; undefined
    e1e8:	00000000 	udf	#0
    e1ec:	00101040 	.inst	0x00101040 ; undefined
    e1f0:	00414710 	.inst	0x00414710 ; undefined
    e1f4:	50300066 	adr	x6, 0x6e202
    e1f8:	00000300 	udf	#768
    e1fc:	01010010 	.inst	0x01010010 ; undefined
    e200:	0800000f 	stxrb	w0, w15, [x0]
    e204:	000007fe 	udf	#2046
    e208:	0000000f 	udf	#15
    e20c:	000007ff 	udf	#2047
    e210:	0000000c 	udf	#12
    e214:	002007f0 	.inst	0x002007f0 ; NYI
    e218:	01100040 	.inst	0x01100040 ; undefined
    e21c:	00000000 	udf	#0
    e220:	0e089014 	.inst	0x0e089014 ; undefined
    e224:	80008020 	.inst	0x80008020 ; undefined
    e228:	80008020 	.inst	0x80008020 ; undefined
    e22c:	80008024 	.inst	0x80008024 ; undefined
    e230:	80000020 	.inst	0x80000020 ; undefined
    e234:	80000020 	.inst	0x80000020 ; undefined
    e238:	a0000000 	.inst	0xa0000000 ; undefined
    e23c:	00000000 	udf	#0
    e240:	80008024 	.inst	0x80008024 ; undefined
    e244:	80000020 	.inst	0x80000020 ; undefined
    e248:	80000020 	.inst	0x80000020 ; undefined
	...
    e254:	80008024 	.inst	0x80008024 ; undefined
    e258:	80000020 	.inst	0x80000020 ; undefined
    e25c:	80000020 	.inst	0x80000020 ; undefined
    e260:	80000000 	.inst	0x80000000 ; undefined
    e264:	00000000 	udf	#0
    e268:	80008024 	.inst	0x80008024 ; undefined
    e26c:	80000020 	.inst	0x80000020 ; undefined
    e270:	80000020 	.inst	0x80000020 ; undefined
    e274:	80000000 	.inst	0x80000000 ; undefined
    e278:	00000000 	udf	#0
    e27c:	00105040 	.inst	0x00105040 ; undefined
    e280:	00419010 	.inst	0x00419010 ; undefined
    e284:	50300066 	adr	x6, 0x6e292
    e288:	000003a5 	udf	#933
    e28c:	01010010 	.inst	0x01010010 ; undefined
    e290:	0800000f 	stxrb	w0, w15, [x0]
    e294:	00000ffe 	udf	#4094
    e298:	0000000f 	udf	#15
    e29c:	00000fff 	udf	#4095
    e2a0:	0000000c 	udf	#12
    e2a4:	00200ff0 	.inst	0x00200ff0 ; NYI
    e2a8:	01100080 	.inst	0x01100080 ; undefined
    e2ac:	00000000 	udf	#0
    e2b0:	8a08901c 	and	x28, x0, x8, lsl #36
    e2b4:	80008018 	.inst	0x80008018 ; undefined
    e2b8:	80008018 	.inst	0x80008018 ; undefined
    e2bc:	80008024 	.inst	0x80008024 ; undefined
    e2c0:	80000020 	.inst	0x80000020 ; undefined
    e2c4:	80000020 	.inst	0x80000020 ; undefined
	...
    e2d0:	80008024 	.inst	0x80008024 ; undefined
    e2d4:	80000020 	.inst	0x80000020 ; undefined
    e2d8:	80000020 	.inst	0x80000020 ; undefined
    e2dc:	80000000 	.inst	0x80000000 ; undefined
    e2e0:	00000000 	udf	#0
    e2e4:	80008024 	.inst	0x80008024 ; undefined
    e2e8:	80000020 	.inst	0x80000020 ; undefined
    e2ec:	80000020 	.inst	0x80000020 ; undefined
    e2f0:	80000000 	.inst	0x80000000 ; undefined
    e2f4:	00000000 	udf	#0
    e2f8:	80008024 	.inst	0x80008024 ; undefined
    e2fc:	80000020 	.inst	0x80000020 ; undefined
    e300:	80000020 	.inst	0x80000020 ; undefined
    e304:	80000000 	.inst	0x80000000 ; undefined
    e308:	00000000 	udf	#0
    e30c:	00157040 	.inst	0x00157040 ; undefined
    e310:	0041e310 	.inst	0x0041e310 ; undefined
    e314:	50300066 	adr	x6, 0x6e322
    e318:	00000100 	udf	#256
    e31c:	00000000 	udf	#0
    e320:	3800001e 	sturb	w30, [x0]
    e324:	0000007c 	udf	#124
    e328:	000001f8 	udf	#504
    e32c:	0000007f 	udf	#127
    e330:	0000003c 	udf	#60
    e334:	0040003c 	.inst	0x0040003c ; undefined
    e338:	01100008 	.inst	0x01100008 ; undefined
    e33c:	00000000 	udf	#0
    e340:	200890fd 	.inst	0x200890fd ; undefined
    e344:	80008000 	.inst	0x80008000 ; undefined
    e348:	80008000 	.inst	0x80008000 ; undefined
    e34c:	8000806c 	.inst	0x8000806c ; undefined
    e350:	80000040 	.inst	0x80000040 ; undefined
    e354:	80000040 	.inst	0x80000040 ; undefined
    e358:	20000000 	.inst	0x20000000 ; undefined
    e35c:	00000000 	udf	#0
    e360:	8000806c 	.inst	0x8000806c ; undefined
    e364:	80000040 	.inst	0x80000040 ; undefined
    e368:	80000040 	.inst	0x80000040 ; undefined
	...
    e374:	8000806c 	.inst	0x8000806c ; undefined
    e378:	80000040 	.inst	0x80000040 ; undefined
    e37c:	80000040 	.inst	0x80000040 ; undefined
	...
    e388:	8000806c 	.inst	0x8000806c ; undefined
    e38c:	80000040 	.inst	0x80000040 ; undefined
    e390:	80000040 	.inst	0x80000040 ; undefined
	...
    e39c:	00107140 	.inst	0x00107140 ; undefined
    e3a0:	00409000 	.inst	0x00409000 ; undefined
    e3a4:	50700066 	adr	x6, 0xee3b2
    e3a8:	00000180 	udf	#384
    e3ac:	00000000 	udf	#0
    e3b0:	3800001e 	sturb	w30, [x0]
    e3b4:	0000007c 	udf	#124
    e3b8:	000001f8 	udf	#504
    e3bc:	0000007f 	udf	#127
    e3c0:	0000003c 	udf	#60
    e3c4:	0040003c 	.inst	0x0040003c ; undefined
    e3c8:	01100008 	.inst	0x01100008 ; undefined
    e3cc:	00000000 	udf	#0
    e3d0:	160890fd 	b	0xfffffffff82327c4
    e3d4:	80008000 	.inst	0x80008000 ; undefined
    e3d8:	80008000 	.inst	0x80008000 ; undefined
    e3dc:	80008081 	.inst	0x80008081 ; undefined
    e3e0:	80000040 	.inst	0x80000040 ; undefined
    e3e4:	80000040 	.inst	0x80000040 ; undefined
    e3e8:	20000000 	.inst	0x20000000 ; undefined
    e3ec:	00000000 	udf	#0
    e3f0:	80008081 	.inst	0x80008081 ; undefined
    e3f4:	80000040 	.inst	0x80000040 ; undefined
    e3f8:	80000040 	.inst	0x80000040 ; undefined
	...
    e404:	80008081 	.inst	0x80008081 ; undefined
    e408:	80000040 	.inst	0x80000040 ; undefined
    e40c:	80000040 	.inst	0x80000040 ; undefined
	...
    e418:	80008081 	.inst	0x80008081 ; undefined
    e41c:	80000040 	.inst	0x80000040 ; undefined
    e420:	80000040 	.inst	0x80000040 ; undefined
	...
    e42c:	00107140 	.inst	0x00107140 ; undefined
    e430:	0040d000 	.inst	0x0040d000 ; undefined
    e434:	50700066 	adr	x6, 0xee442
    e438:	00000200 	udf	#512
    e43c:	01111011 	.inst	0x01111011 ; undefined
    e440:	3800001e 	sturb	w30, [x0]
    e444:	000000fc 	udf	#252
    e448:	000001f8 	udf	#504
    e44c:	000000ff 	udf	#255
    e450:	0000003c 	udf	#60
    e454:	00400078 	.inst	0x00400078 ; undefined
    e458:	01100010 	.inst	0x01100010 ; undefined
    e45c:	00000000 	udf	#0
    e460:	000890f4 	.inst	0x000890f4 ; undefined
    e464:	80008000 	.inst	0x80008000 ; undefined
    e468:	80008000 	.inst	0x80008000 ; undefined
    e46c:	80008040 	.inst	0x80008040 ; undefined
    e470:	80000020 	.inst	0x80000020 ; undefined
    e474:	80000020 	.inst	0x80000020 ; undefined
    e478:	20000000 	.inst	0x20000000 ; undefined
    e47c:	00000000 	udf	#0
    e480:	80008040 	.inst	0x80008040 ; undefined
    e484:	80000020 	.inst	0x80000020 ; undefined
    e488:	80000020 	.inst	0x80000020 ; undefined
	...
    e494:	80008040 	.inst	0x80008040 ; undefined
    e498:	80000020 	.inst	0x80000020 ; undefined
    e49c:	80000020 	.inst	0x80000020 ; undefined
	...
    e4a8:	80008040 	.inst	0x80008040 ; undefined
    e4ac:	80000020 	.inst	0x80000020 ; undefined
    e4b0:	80000020 	.inst	0x80000020 ; undefined
	...
    e4bc:	00107140 	.inst	0x00107140 ; undefined
    e4c0:	00411000 	.inst	0x00411000 ; undefined
    e4c4:	50700066 	adr	x6, 0xee4d2
    e4c8:	00000300 	udf	#768
    e4cc:	01111011 	.inst	0x01111011 ; undefined
    e4d0:	1800001e 	ldr	w30, 0xe4d0
    e4d4:	000001fc 	udf	#508
    e4d8:	000001f8 	udf	#504
    e4dc:	000001ff 	udf	#511
    e4e0:	0000003c 	udf	#60
    e4e4:	004000f8 	.inst	0x004000f8 ; undefined
    e4e8:	01100020 	.inst	0x01100020 ; undefined
    e4ec:	00000000 	udf	#0
    e4f0:	0a0890f4 	.inst	0x0a0890f4 ; undefined
    e4f4:	80000030 	.inst	0x80000030 ; undefined
    e4f8:	80000030 	.inst	0x80000030 ; undefined
    e4fc:	80008044 	.inst	0x80008044 ; undefined
    e500:	80000020 	.inst	0x80000020 ; undefined
    e504:	80000020 	.inst	0x80000020 ; undefined
    e508:	20000000 	.inst	0x20000000 ; undefined
    e50c:	00000000 	udf	#0
    e510:	80008044 	.inst	0x80008044 ; undefined
    e514:	80000020 	.inst	0x80000020 ; undefined
    e518:	80000020 	.inst	0x80000020 ; undefined
	...
    e524:	80008044 	.inst	0x80008044 ; undefined
    e528:	80000020 	.inst	0x80000020 ; undefined
    e52c:	80000020 	.inst	0x80000020 ; undefined
	...
    e538:	80008044 	.inst	0x80008044 ; undefined
    e53c:	80000020 	.inst	0x80000020 ; undefined
    e540:	80000020 	.inst	0x80000020 ; undefined
	...
    e54c:	00107140 	.inst	0x00107140 ; undefined
    e550:	00419000 	.inst	0x00419000 ; undefined
    e554:	50700066 	adr	x6, 0xee562
    e558:	00000400 	udf	#1024
    e55c:	01011011 	.inst	0x01011011 ; undefined
    e560:	1800003e 	ldr	w30, 0xe564
    e564:	000007ff 	udf	#2047
    e568:	00000ffe 	udf	#4094
    e56c:	000007ff 	udf	#2047
    e570:	0000003c 	udf	#60
    e574:	80400004 	.inst	0x80400004 ; undefined
    e578:	01100040 	.inst	0x01100040 ; undefined
    e57c:	000a0fff 	.inst	0x000a0fff ; undefined
    e580:	880890fc 	stlxr	w8, w28, [x7]
    e584:	80000030 	.inst	0x80000030 ; undefined
    e588:	80000030 	.inst	0x80000030 ; undefined
    e58c:	80008054 	.inst	0x80008054 ; undefined
    e590:	80000020 	.inst	0x80000020 ; undefined
    e594:	80000020 	.inst	0x80000020 ; undefined
    e598:	20000000 	.inst	0x20000000 ; undefined
    e59c:	00000000 	udf	#0
    e5a0:	80008054 	.inst	0x80008054 ; undefined
    e5a4:	80000020 	.inst	0x80000020 ; undefined
    e5a8:	80000020 	.inst	0x80000020 ; undefined
	...
    e5b4:	80008054 	.inst	0x80008054 ; undefined
    e5b8:	80000020 	.inst	0x80000020 ; undefined
    e5bc:	80000020 	.inst	0x80000020 ; undefined
	...
    e5c8:	80008054 	.inst	0x80008054 ; undefined
    e5cc:	80000020 	.inst	0x80000020 ; undefined
    e5d0:	80000020 	.inst	0x80000020 ; undefined
	...
    e5dc:	00157040 	.inst	0x00157040 ; undefined
    e5e0:	00423000 	.inst	0x00423000 ; undefined
    e5e4:	50700066 	adr	x6, 0xee5f2
    e5e8:	00000535 	udf	#1333
    e5ec:	01011011 	.inst	0x01011011 ; undefined
    e5f0:	1800003e 	ldr	w30, 0xe5f4
    e5f4:	00000fff 	udf	#4095
    e5f8:	00003ffe 	udf	#16382
    e5fc:	00000fff 	udf	#4095
    e600:	0000003c 	udf	#60
    e604:	80400010 	.inst	0x80400010 ; undefined
    e608:	01100080 	.inst	0x01100080 ; undefined
    e60c:	000a1ffe 	.inst	0x000a1ffe ; undefined
    e610:	860890fc 	.inst	0x860890fc ; undefined
    e614:	80000030 	.inst	0x80000030 ; undefined
    e618:	80000030 	.inst	0x80000030 ; undefined
    e61c:	8000806c 	.inst	0x8000806c ; undefined
    e620:	80000010 	.inst	0x80000010 ; undefined
    e624:	80000010 	.inst	0x80000010 ; undefined
    e628:	20000000 	.inst	0x20000000 ; undefined
    e62c:	00000000 	udf	#0
    e630:	8000806c 	.inst	0x8000806c ; undefined
    e634:	80000010 	.inst	0x80000010 ; undefined
    e638:	80000010 	.inst	0x80000010 ; undefined
	...
    e644:	8000806c 	.inst	0x8000806c ; undefined
    e648:	80000010 	.inst	0x80000010 ; undefined
    e64c:	80000010 	.inst	0x80000010 ; undefined
	...
    e658:	8000806c 	.inst	0x8000806c ; undefined
    e65c:	80000010 	.inst	0x80000010 ; undefined
    e660:	80000010 	.inst	0x80000010 ; undefined
	...
    e66c:	00157040 	.inst	0x00157040 ; undefined
    e670:	0042a000 	.inst	0x0042a000 ; undefined
    e674:	50700066 	adr	x6, 0xee682
    e678:	00000600 	udf	#1536
    e67c:	01011011 	.inst	0x01011011 ; undefined
    e680:	1800003e 	ldr	w30, 0xe684
    e684:	00001fff 	udf	#8191
    e688:	00003ffe 	udf	#16382
    e68c:	00001fff 	udf	#8191
    e690:	0000003c 	udf	#60
    e694:	80400010 	.inst	0x80400010 ; undefined
    e698:	01100100 	.inst	0x01100100 ; undefined
    e69c:	000a3ffe 	.inst	0x000a3ffe ; undefined
    e6a0:	860890fc 	.inst	0x860890fc ; undefined
    e6a4:	80000030 	.inst	0x80000030 ; undefined
    e6a8:	80000030 	.inst	0x80000030 ; undefined
    e6ac:	80008075 	.inst	0x80008075 ; undefined
    e6b0:	80000010 	.inst	0x80000010 ; undefined
    e6b4:	80000010 	.inst	0x80000010 ; undefined
    e6b8:	20000000 	.inst	0x20000000 ; undefined
    e6bc:	00000000 	udf	#0
    e6c0:	80008075 	.inst	0x80008075 ; undefined
    e6c4:	80000010 	.inst	0x80000010 ; undefined
    e6c8:	80000010 	.inst	0x80000010 ; undefined
	...
    e6d4:	80008075 	.inst	0x80008075 ; undefined
    e6d8:	80000010 	.inst	0x80000010 ; undefined
    e6dc:	80000010 	.inst	0x80000010 ; undefined
	...
    e6e8:	80008075 	.inst	0x80008075 ; undefined
    e6ec:	80000010 	.inst	0x80000010 ; undefined
    e6f0:	80000010 	.inst	0x80000010 ; undefined
	...
    e6fc:	00157040 	.inst	0x00157040 ; undefined
    e700:	00435000 	.inst	0x00435000 ; undefined
    e704:	50700066 	adr	x6, 0xee712
    e708:	0000074a 	udf	#1866
    e70c:	01011011 	.inst	0x01011011 ; undefined
    e710:	1800003e 	ldr	w30, 0xe714
    e714:	00007fff 	udf	#32767
    e718:	0000fffe 	udf	#65534
    e71c:	00007fff 	udf	#32767
    e720:	0000003c 	udf	#60
    e724:	80400010 	.inst	0x80400010 ; undefined
    e728:	01100100 	.inst	0x01100100 ; undefined
    e72c:	000afffe 	.inst	0x000afffe ; undefined
    e730:	860890fc 	.inst	0x860890fc ; undefined
    e734:	80000030 	.inst	0x80000030 ; undefined
    e738:	80000030 	.inst	0x80000030 ; undefined
    e73c:	8000808c 	.inst	0x8000808c ; undefined
    e740:	80000010 	.inst	0x80000010 ; undefined
    e744:	80000010 	.inst	0x80000010 ; undefined
    e748:	20000000 	.inst	0x20000000 ; undefined
    e74c:	00000000 	udf	#0
    e750:	8000808c 	.inst	0x8000808c ; undefined
    e754:	80000010 	.inst	0x80000010 ; undefined
    e758:	80000010 	.inst	0x80000010 ; undefined
	...
    e764:	8000808c 	.inst	0x8000808c ; undefined
    e768:	80000010 	.inst	0x80000010 ; undefined
    e76c:	80000010 	.inst	0x80000010 ; undefined
	...
    e778:	8000808c 	.inst	0x8000808c ; undefined
    e77c:	80000010 	.inst	0x80000010 ; undefined
    e780:	80000010 	.inst	0x80000010 ; undefined
	...
    e78c:	00157040 	.inst	0x00157040 ; undefined
    e790:	0043f000 	.inst	0x0043f000 ; undefined
    e794:	50700066 	adr	x6, 0xee7a2
    e798:	00000083 	udf	#131
    e79c:	00000004 	udf	#4
	...
    e7a8:	21030202 	.inst	0x21030202 ; undefined
    e7ac:	02040300 	.inst	0x02040300 ; undefined
    e7b0:	1a0b141d 	.inst	0x1a0b141d ; undefined
    e7b4:	22040605 	.inst	0x22040605 ; undefined
    e7b8:	00330100 	.inst	0x00330100 ; NYI
    e7bc:	00000101 	udf	#257
    e7c0:	00000002 	udf	#2
    e7c4:	001a0200 	.inst	0x001a0200 ; undefined
    e7c8:	50300000 	adr	x0, 0x6e7ca
    e7cc:	00000000 	udf	#0
    e7d0:	00000002 	udf	#2
	...
    e7dc:	01830204 	.inst	0x01830204 ; undefined
    e7e0:	01830204 	.inst	0x01830204 ; undefined
	...
    e7f4:	ffffffff 	.inst	0xffffffff ; undefined
    e7f8:	00000083 	udf	#131
    e7fc:	00000004 	udf	#4
	...
    e808:	22050303 	.inst	0x22050303 ; undefined
    e80c:	02040400 	.inst	0x02040400 ; undefined
    e810:	2810182b 	stnp	w11, w6, [x1, #128]
    e814:	32040a08 	orr	w8, w16, #0x70000000
    e818:	00330100 	.inst	0x00330100 ; NYI
    e81c:	00000101 	udf	#257
    e820:	00000002 	udf	#2
    e824:	00270300 	.inst	0x00270300 ; NYI
    e828:	50470000 	adr	x0, 0x9c82a
    e82c:	00030000 	.inst	0x00030000 ; undefined
    e830:	00000002 	udf	#2
	...
    e83c:	01830204 	.inst	0x01830204 ; undefined
    e840:	01830204 	.inst	0x01830204 ; undefined
	...
    e854:	ffffffff 	.inst	0xffffffff ; undefined
    e858:	000000e3 	udf	#227
    e85c:	00000006 	udf	#6
	...
    e868:	23060505 	.inst	0x23060505 ; undefined
    e86c:	02050400 	.inst	0x02050400 ; undefined
    e870:	35161c39 	cbnz	w25, 0x3abf4
    e874:	42040d0b 	.inst	0x42040d0b ; undefined
    e878:	00330100 	.inst	0x00330100 ; NYI
    e87c:	00000202 	udf	#514
    e880:	00000003 	udf	#3
    e884:	00340400 	.inst	0x00340400 ; NYI
    e888:	505e0000 	adr	x0, 0xca88a
    e88c:	00030000 	.inst	0x00030000 ; undefined
    e890:	00000005 	udf	#5
	...
    e89c:	01e30206 	.inst	0x01e30206 ; undefined
    e8a0:	01e30206 	.inst	0x01e30206 ; undefined
	...
    e8b4:	ffffffff 	.inst	0xffffffff ; undefined
    e8b8:	000000e3 	udf	#227
    e8bc:	00000008 	udf	#8
	...
    e8c8:	23070606 	.inst	0x23070606 ; undefined
    e8cc:	02060501 	.inst	0x02060501 ; undefined
    e8d0:	411b2445 	.inst	0x411b2445 ; undefined
    e8d4:	5304100d 	ubfx	w13, w0, #4, #1
    e8d8:	00330201 	.inst	0x00330201 ; NYI
    e8dc:	00000303 	udf	#771
    e8e0:	00000004 	udf	#4
    e8e4:	003f04dc 	.inst	0x003f04dc ; NYI
    e8e8:	10710000 	adr	x0, 0xf08e8
    e8ec:	00030000 	.inst	0x00030000 ; undefined
    e8f0:	00000005 	udf	#5
	...
    e8fc:	01e30208 	.inst	0x01e30208 ; undefined
    e900:	01e30208 	.inst	0x01e30208 ; undefined
	...
    e914:	ffffffff 	.inst	0xffffffff ; undefined
    e918:	00000043 	udf	#67
    e91c:	0000001a 	udf	#26
	...
    e928:	24090707 	cmphs	p7.b, p1/z, z24.b, z9.b
    e92c:	02070601 	.inst	0x02070601 ; undefined
    e930:	50222855 	adr	x21, 0x52e3a
    e934:	63051310 	.inst	0x63051310 ; undefined
    e938:	00330201 	.inst	0x00330201 ; NYI
    e93c:	00000303 	udf	#771
    e940:	00000005 	udf	#5
    e944:	004d0600 	.inst	0x004d0600 ; undefined
    e948:	108c0000 	adr	x0, 0xfffffffffff26948
    e94c:	00030000 	.inst	0x00030000 ; undefined
    e950:	00000005 	udf	#5
	...
    e95c:	0143021a 	.inst	0x0143021a ; undefined
    e960:	0143021a 	.inst	0x0143021a ; undefined
	...
    e974:	ffffffff 	.inst	0xffffffff ; undefined
    e978:	00000043 	udf	#67
    e97c:	0000001c 	udf	#28
	...
    e988:	250a0808 	cmpge	p8.b, p2/z, z0.b, #10
    e98c:	02080702 	.inst	0x02080702 ; undefined
    e990:	61293067 	.inst	0x61293067 ; undefined
    e994:	74061714 	.inst	0x74061714 ; undefined
    e998:	00330302 	.inst	0x00330302 ; NYI
    e99c:	00000404 	udf	#1028
    e9a0:	00000006 	udf	#6
    e9a4:	005e074a 	.inst	0x005e074a ; undefined
    e9a8:	10a90000 	adr	x0, 0xfffffffffff609a8
    e9ac:	00030000 	.inst	0x00030000 ; undefined
    e9b0:	00000005 	udf	#5
	...
    e9bc:	0143021c 	.inst	0x0143021c ; undefined
    e9c0:	0143021c 	.inst	0x0143021c ; undefined
	...
    e9d4:	ffffffff 	.inst	0xffffffff ; undefined
    e9d8:	00000000 	udf	#0
    e9dc:	00001000 	udf	#4096
    e9e0:	00000001 	udf	#1
    e9e4:	00001800 	udf	#6144
    e9e8:	00000002 	udf	#2
    e9ec:	00002000 	udf	#8192
    e9f0:	00000003 	udf	#3
    e9f4:	00003000 	udf	#12288
    e9f8:	00000004 	udf	#4
    e9fc:	00004000 	udf	#16384
    ea00:	00000005 	udf	#5
    ea04:	00006000 	udf	#24576
    ea08:	00000006 	udf	#6
    ea0c:	00008000 	udf	#32768
    ea10:	00040123 	.inst	0x00040123 ; undefined
    ea14:	00c68898 	.inst	0x00c68898 ; undefined
    ea18:	00908765 	.inst	0x00908765 ; undefined
    ea1c:	00468898 	.inst	0x00468898 ; undefined
    ea20:	46325081 	.inst	0x46325081 ; undefined
    ea24:	86375402 	.inst	0x86375402 ; undefined
    ea28:	00000017 	udf	#23
    ea2c:	01254637 	.inst	0x01254637 ; undefined
    ea30:	02431567 	.inst	0x02431567 ; undefined
    ea34:	00000088 	udf	#136
    ea38:	10863254 	adr	x20, 0xfffffffffff1b080
    ea3c:	84103276 	ldff1sb	{z22.s}, p4/z, [x19, z16.s, uxtw]
    ea40:	00000057 	udf	#87
    ea44:	76534810 	.inst	0x76534810 ; undefined
    ea48:	76534810 	.inst	0x76534810 ; undefined
    ea4c:	00000022 	udf	#34
    ea50:	00203514 	.inst	0x00203514 ; NYI
    ea54:	00468898 	.inst	0x00468898 ; undefined
    ea58:	00205431 	.inst	0x00205431 ; NYI
    ea5c:	00468898 	.inst	0x00468898 ; undefined
    ea60:	84307512 	.inst	0x84307512 ; undefined
    ea64:	38265014 	ldsminb	w6, w20, [x0]
    ea68:	00000076 	udf	#118
    ea6c:	43785102 	.inst	0x43785102 ; undefined
    ea70:	58376021 	ldr	x1, 0x7d674
    ea74:	00000046 	udf	#70
    ea78:	84207631 	.inst	0x84207631 ; undefined
    ea7c:	32861504 	.inst	0x32861504 ; undefined
    ea80:	00000075 	udf	#117
    ea84:	35784102 	cbnz	w2, 0xff2a4
    ea88:	58637021 	ldr	x1, 0xd588c
    ea8c:	00000046 	udf	#70
    ea90:	00432051 	.inst	0x00432051 ; undefined
    ea94:	00468898 	.inst	0x00468898 ; undefined
    ea98:	00021345 	.inst	0x00021345 ; undefined
    ea9c:	00468898 	.inst	0x00468898 ; undefined
    eaa0:	84057613 	ldff1b	{z19.s}, p5/z, [x16, z5.s, uxtw]
    eaa4:	32460815 	.inst	0x32460815 ; undefined
    eaa8:	00000072 	udf	#114
    eaac:	53408217 	.inst	0x53408217 ; undefined
    eab0:	08756214 	.inst	0x08756214 ; undefined
    eab4:	00000036 	udf	#54
    eab8:	27035614 	.inst	0x27035614 ; undefined
    eabc:	62304715 	.inst	0x62304715 ; undefined
    eac0:	00000088 	udf	#136
    eac4:	54182037 	bc.vc	0x3eec8
    eac8:	08761352 	.inst	0x08761352 ; undefined
    eacc:	00000046 	udf	#70
    ead0:	067c0678 	.inst	0x067c0678 ; undefined
    ead4:	06bc06b8 	.inst	0x06bc06b8 ; undefined
    ead8:	06f806f4 	.inst	0x06f806f4 ; undefined
    eadc:	073406fc 	.inst	0x073406fc ; undefined
    eae0:	073c0738 	.inst	0x073c0738 ; undefined
    eae4:	07780774 	.inst	0x07780774 ; undefined
    eae8:	07b4077c 	.inst	0x07b4077c ; undefined
    eaec:	07bc07b8 	.inst	0x07bc07b8 ; undefined
    eaf0:	00000004 	udf	#4
    eaf4:	00000800 	udf	#2048
    eaf8:	00000005 	udf	#5
    eafc:	00001000 	udf	#4096
    eb00:	00000006 	udf	#6
    eb04:	00002000 	udf	#8192
    eb08:	0000000e 	udf	#14
    eb0c:	00003000 	udf	#12288
    eb10:	00000007 	udf	#7
    eb14:	00004000 	udf	#16384
    eb18:	0000000d 	udf	#13
    eb1c:	00006000 	udf	#24576
    eb20:	00000008 	udf	#8
    eb24:	00008000 	udf	#32768
    eb28:	00000009 	udf	#9
    eb2c:	00010000 	.inst	0x00010000 ; undefined
    eb30:	14050140 	b	0x14f030
    eb34:	05014050 	orr	z16.s, z16.s, #0x7000000
    eb38:	0aa80014 	bic	w20, w0, w8, asr #0
    eb3c:	a800aa80 	stnp	x0, x10, [x20, #8]
    eb40:	00aa800a 	.inst	0x00aa800a ; undefined
    eb44:	aa800aa8 	orr	x8, x21, x0, asr #2
	...
    eb50:	00d500ca 	.inst	0x00d500ca ; undefined
    eb54:	00d700cb 	.inst	0x00d700cb ; undefined
    eb58:	00ca00d5 	.inst	0x00ca00d5 ; undefined
    eb5c:	00e800d4 	.inst	0x00e800d4 ; undefined
    eb60:	00030404 	.inst	0x00030404 ; undefined
    eb64:	00000000 	udf	#0
    eb68:	00012eba 	.inst	0x00012eba ; undefined
    eb6c:	00000000 	udf	#0
    eb70:	00000012 	udf	#18
    eb74:	3212181c 	orr	w28, w0, #0x1fc000
    eb78:	00002000 	udf	#8192
    eb7c:	00000000 	udf	#0
    eb80:	00000c35 	udf	#3125
    eb84:	321218dc 	orr	w28, w6, #0x1fc000
    eb88:	000001ff 	udf	#511
    eb8c:	00000320 	udf	#800
    eb90:	00012ec2 	.inst	0x00012ec2 ; undefined
    eb94:	00000000 	udf	#0
    eb98:	00000012 	udf	#18
    eb9c:	3212181c 	orr	w28, w0, #0x1fc000
    eba0:	00001000 	udf	#4096
    eba4:	00000000 	udf	#0
    eba8:	00000c35 	udf	#3125
    ebac:	32121894 	orr	w20, w4, #0x1fc000
    ebb0:	000001ff 	udf	#511
    ebb4:	00000258 	udf	#600
    ebb8:	00012eca 	.inst	0x00012eca ; undefined
    ebbc:	00000000 	udf	#0
    ebc0:	00000012 	udf	#18
    ebc4:	3212181c 	orr	w28, w0, #0x1fc000
    ebc8:	00000800 	udf	#2048
    ebcc:	00000000 	udf	#0
    ebd0:	00000c35 	udf	#3125
    ebd4:	32121874 	orr	w20, w3, #0x1fc000
    ebd8:	000001ff 	udf	#511
    ebdc:	00000320 	udf	#800
    ebe0:	00012ed3 	.inst	0x00012ed3 ; undefined
    ebe4:	00000000 	udf	#0
    ebe8:	00000012 	udf	#18
    ebec:	3212181c 	orr	w28, w0, #0x1fc000
    ebf0:	00000100 	udf	#256
    ebf4:	00000014 	udf	#20
    ebf8:	0000249f 	udf	#9375
    ebfc:	321218a4 	orr	w4, w5, #0x1fc000
    ec00:	000000ff 	udf	#255
    ec04:	00000753 	udf	#1875
    ec08:	00012edb 	.inst	0x00012edb ; undefined
    ec0c:	00000000 	udf	#0
    ec10:	00000012 	udf	#18
    ec14:	3212181c 	orr	w28, w0, #0x1fc000
    ec18:	00000080 	udf	#128
    ec1c:	00000032 	udf	#50
    ec20:	0000186a 	udf	#6250
    ec24:	321218b4 	orr	w20, w5, #0x1fc000
    ec28:	000000ff 	udf	#255
    ec2c:	00000546 	udf	#1350
    ec30:	00012c7d 	.inst	0x00012c7d ; undefined
    ec34:	00000000 	udf	#0
    ec38:	00000012 	udf	#18
    ec3c:	3212181c 	orr	w28, w0, #0x1fc000
    ec40:	00000040 	udf	#64
    ec44:	00000000 	udf	#0
    ec48:	0000186a 	udf	#6250
    ec4c:	32121884 	orr	w4, w4, #0x1fc000
    ec50:	000000ff 	udf	#255
    ec54:	0000044c 	udf	#1100
    ec58:	00012c75 	.inst	0x00012c75 ; undefined
    ec5c:	00000000 	udf	#0
    ec60:	00000012 	udf	#18
    ec64:	3212181c 	orr	w28, w0, #0x1fc000
    ec68:	00000020 	udf	#32
    ec6c:	00000000 	udf	#0
    ec70:	00000c35 	udf	#3125
    ec74:	32121864 	orr	w4, w3, #0x1fc000
    ec78:	000001ff 	udf	#511
    ec7c:	00000320 	udf	#800
    ec80:	00012c6e 	.inst	0x00012c6e ; undefined
    ec84:	00000000 	udf	#0
    ec88:	00000012 	udf	#18
    ec8c:	3212181c 	orr	w28, w0, #0x1fc000
    ec90:	00000010 	udf	#16
    ec94:	00000000 	udf	#0
    ec98:	00000c35 	udf	#3125
    ec9c:	32121844 	orr	w4, w2, #0x1fc000
    eca0:	000001ff 	udf	#511
    eca4:	00000320 	udf	#800
    eca8:	00012ee3 	.inst	0x00012ee3 ; undefined
    ecac:	00000000 	udf	#0
    ecb0:	00000012 	udf	#18
    ecb4:	3212181c 	orr	w28, w0, #0x1fc000
    ecb8:	00000008 	udf	#8
    ecbc:	00000000 	udf	#0
    ecc0:	00000c35 	udf	#3125
    ecc4:	32121854 	orr	w20, w2, #0x1fc000
    ecc8:	000001ff 	udf	#511
    eccc:	00000320 	udf	#800
    ecd0:	00012eea 	.inst	0x00012eea ; undefined
    ecd4:	00000000 	udf	#0
    ecd8:	00000010 	udf	#16
    ecdc:	321219ac 	orr	w12, w13, #0x1fc000
    ece0:	00000001 	udf	#1
    ece4:	000004b0 	udf	#1200
    ece8:	00002710 	udf	#10000
    ecec:	321219b0 	orr	w16, w13, #0x1fc000
    ecf0:	000000ff 	udf	#255
    ecf4:	00000bb8 	udf	#3000
    ecf8:	00012ef4 	.inst	0x00012ef4 ; undefined
    ecfc:	00000000 	udf	#0
    ed00:	00000010 	udf	#16
    ed04:	321219b8 	orr	w24, w13, #0x1fc000
    ed08:	00000001 	udf	#1
    ed0c:	000004b0 	udf	#1200
    ed10:	00002710 	udf	#10000
    ed14:	321219bc 	orr	w28, w13, #0x1fc000
    ed18:	000000ff 	udf	#255
    ed1c:	00000bb8 	udf	#3000
    ed20:	00001068 	udf	#4200
    ed24:	00000cee 	udf	#3310
    ed28:	00000e10 	udf	#3600
    ed2c:	00000b10 	udf	#2832
    ed30:	000003e8 	udf	#1000
    ed34:	00000d55 	udf	#3413
    ed38:	00000064 	udf	#100
    ed3c:	00000155 	udf	#341
    ed40:	00012618 	.inst	0x00012618 ; undefined
    ed44:	00000000 	udf	#0
    ed48:	0000ffff 	udf	#65535
    ed4c:	00001234 	udf	#4660
